
rv32uzbb-p-rol:     ファイル形式 elf32-littleriscv


セクション .text.init の逆アセンブル:

00000000 <_start>:
   0:	0500006f          	j	50 <reset_vector>

00000004 <trap_vector>:
   4:	34202f73          	csrr	t5,mcause
   8:	00800f93          	li	t6,8
   c:	03ff0863          	beq	t5,t6,3c <write_tohost>
  10:	00900f93          	li	t6,9
  14:	03ff0463          	beq	t5,t6,3c <write_tohost>
  18:	00b00f93          	li	t6,11
  1c:	03ff0063          	beq	t5,t6,3c <write_tohost>
  20:	00000f13          	li	t5,0
  24:	000f0463          	beqz	t5,2c <trap_vector+0x28>
  28:	000f0067          	jr	t5
  2c:	34202f73          	csrr	t5,mcause
  30:	000f5463          	bgez	t5,38 <handle_exception>
  34:	0040006f          	j	38 <handle_exception>

00000038 <handle_exception>:
  38:	5391e193          	ori	gp,gp,1337

0000003c <write_tohost>:
  3c:	00001f17          	auipc	t5,0x1
  40:	fc3f2223          	sw	gp,-60(t5) # 1000 <tohost>
  44:	00001f17          	auipc	t5,0x1
  48:	fc0f2023          	sw	zero,-64(t5) # 1004 <tohost+0x4>
  4c:	ff1ff06f          	j	3c <write_tohost>

00000050 <reset_vector>:
  50:	00000093          	li	ra,0
  54:	00000113          	li	sp,0
  58:	00000193          	li	gp,0
  5c:	00000213          	li	tp,0
  60:	00000293          	li	t0,0
  64:	00000313          	li	t1,0
  68:	00000393          	li	t2,0
  6c:	00000413          	li	s0,0
  70:	00000493          	li	s1,0
  74:	00000513          	li	a0,0
  78:	00000593          	li	a1,0
  7c:	00000613          	li	a2,0
  80:	00000693          	li	a3,0
  84:	00000713          	li	a4,0
  88:	00000793          	li	a5,0
  8c:	00000813          	li	a6,0
  90:	00000893          	li	a7,0
  94:	00000913          	li	s2,0
  98:	00000993          	li	s3,0
  9c:	00000a13          	li	s4,0
  a0:	00000a93          	li	s5,0
  a4:	00000b13          	li	s6,0
  a8:	00000b93          	li	s7,0
  ac:	00000c13          	li	s8,0
  b0:	00000c93          	li	s9,0
  b4:	00000d13          	li	s10,0
  b8:	00000d93          	li	s11,0
  bc:	00000e13          	li	t3,0
  c0:	00000e93          	li	t4,0
  c4:	00000f13          	li	t5,0
  c8:	00000f93          	li	t6,0
  cc:	f1402573          	csrr	a0,mhartid
  d0:	00051063          	bnez	a0,d0 <reset_vector+0x80>
  d4:	00000297          	auipc	t0,0x0
  d8:	01028293          	addi	t0,t0,16 # e4 <reset_vector+0x94>
  dc:	30529073          	csrw	mtvec,t0
  e0:	74445073          	csrwi	mnstatus,8
  e4:	00000297          	auipc	t0,0x0
  e8:	01028293          	addi	t0,t0,16 # f4 <reset_vector+0xa4>
  ec:	30529073          	csrw	mtvec,t0
  f0:	18005073          	csrwi	satp,0
  f4:	00000297          	auipc	t0,0x0
  f8:	02028293          	addi	t0,t0,32 # 114 <reset_vector+0xc4>
  fc:	30529073          	csrw	mtvec,t0
 100:	800002b7          	lui	t0,0x80000
 104:	fff28293          	addi	t0,t0,-1 # 7fffffff <_end+0x7fffdfff>
 108:	3b029073          	csrw	pmpaddr0,t0
 10c:	01f00293          	li	t0,31
 110:	3a029073          	csrw	pmpcfg0,t0
 114:	30405073          	csrwi	mie,0
 118:	00000297          	auipc	t0,0x0
 11c:	01428293          	addi	t0,t0,20 # 12c <reset_vector+0xdc>
 120:	30529073          	csrw	mtvec,t0
 124:	30205073          	csrwi	medeleg,0
 128:	30305073          	csrwi	mideleg,0
 12c:	00000193          	li	gp,0
 130:	00000297          	auipc	t0,0x0
 134:	ed428293          	addi	t0,t0,-300 # 4 <trap_vector>
 138:	30529073          	csrw	mtvec,t0
 13c:	00100513          	li	a0,1
 140:	01f51513          	slli	a0,a0,0x1f
 144:	00054c63          	bltz	a0,15c <reset_vector+0x10c>
 148:	0ff0000f          	fence
 14c:	00100193          	li	gp,1
 150:	05d00893          	li	a7,93
 154:	00000513          	li	a0,0
 158:	00000073          	ecall
 15c:	00000293          	li	t0,0
 160:	00028a63          	beqz	t0,174 <reset_vector+0x124>
 164:	10529073          	csrw	stvec,t0
 168:	0000b2b7          	lui	t0,0xb
 16c:	10928293          	addi	t0,t0,265 # b109 <_end+0x9109>
 170:	30229073          	csrw	medeleg,t0
 174:	30005073          	csrwi	mstatus,0
 178:	00000297          	auipc	t0,0x0
 17c:	01428293          	addi	t0,t0,20 # 18c <test_2>
 180:	34129073          	csrw	mepc,t0
 184:	f1402573          	csrr	a0,mhartid
 188:	30200073          	mret

0000018c <test_2>:
 18c:	00200193          	li	gp,2
 190:	00100593          	li	a1,1
 194:	00000613          	li	a2,0
 198:	60c59733          	rol	a4,a1,a2
 19c:	00100393          	li	t2,1
 1a0:	5e771463          	bne	a4,t2,788 <fail>

000001a4 <test_3>:
 1a4:	00300193          	li	gp,3
 1a8:	00100593          	li	a1,1
 1ac:	00100613          	li	a2,1
 1b0:	60c59733          	rol	a4,a1,a2
 1b4:	00200393          	li	t2,2
 1b8:	5c771863          	bne	a4,t2,788 <fail>

000001bc <test_4>:
 1bc:	00400193          	li	gp,4
 1c0:	00100593          	li	a1,1
 1c4:	00700613          	li	a2,7
 1c8:	60c59733          	rol	a4,a1,a2
 1cc:	08000393          	li	t2,128
 1d0:	5a771c63          	bne	a4,t2,788 <fail>

000001d4 <test_5>:
 1d4:	00500193          	li	gp,5
 1d8:	00100593          	li	a1,1
 1dc:	00e00613          	li	a2,14
 1e0:	60c59733          	rol	a4,a1,a2
 1e4:	000043b7          	lui	t2,0x4
 1e8:	5a771063          	bne	a4,t2,788 <fail>

000001ec <test_6>:
 1ec:	00600193          	li	gp,6
 1f0:	00100593          	li	a1,1
 1f4:	01f00613          	li	a2,31
 1f8:	60c59733          	rol	a4,a1,a2
 1fc:	800003b7          	lui	t2,0x80000
 200:	58771463          	bne	a4,t2,788 <fail>

00000204 <test_7>:
 204:	00700193          	li	gp,7
 208:	fff00593          	li	a1,-1
 20c:	00000613          	li	a2,0
 210:	60c59733          	rol	a4,a1,a2
 214:	fff00393          	li	t2,-1
 218:	56771863          	bne	a4,t2,788 <fail>

0000021c <test_8>:
 21c:	00800193          	li	gp,8
 220:	fff00593          	li	a1,-1
 224:	00100613          	li	a2,1
 228:	60c59733          	rol	a4,a1,a2
 22c:	fff00393          	li	t2,-1
 230:	54771c63          	bne	a4,t2,788 <fail>

00000234 <test_9>:
 234:	00900193          	li	gp,9
 238:	fff00593          	li	a1,-1
 23c:	00700613          	li	a2,7
 240:	60c59733          	rol	a4,a1,a2
 244:	fff00393          	li	t2,-1
 248:	54771063          	bne	a4,t2,788 <fail>

0000024c <test_10>:
 24c:	00a00193          	li	gp,10
 250:	fff00593          	li	a1,-1
 254:	00e00613          	li	a2,14
 258:	60c59733          	rol	a4,a1,a2
 25c:	fff00393          	li	t2,-1
 260:	52771463          	bne	a4,t2,788 <fail>

00000264 <test_11>:
 264:	00b00193          	li	gp,11
 268:	fff00593          	li	a1,-1
 26c:	01f00613          	li	a2,31
 270:	60c59733          	rol	a4,a1,a2
 274:	fff00393          	li	t2,-1
 278:	50771863          	bne	a4,t2,788 <fail>

0000027c <test_12>:
 27c:	00c00193          	li	gp,12
 280:	212125b7          	lui	a1,0x21212
 284:	12158593          	addi	a1,a1,289 # 21212121 <_end+0x21210121>
 288:	00000613          	li	a2,0
 28c:	60c59733          	rol	a4,a1,a2
 290:	212123b7          	lui	t2,0x21212
 294:	12138393          	addi	t2,t2,289 # 21212121 <_end+0x21210121>
 298:	4e771863          	bne	a4,t2,788 <fail>

0000029c <test_13>:
 29c:	00d00193          	li	gp,13
 2a0:	212125b7          	lui	a1,0x21212
 2a4:	12158593          	addi	a1,a1,289 # 21212121 <_end+0x21210121>
 2a8:	00100613          	li	a2,1
 2ac:	60c59733          	rol	a4,a1,a2
 2b0:	424243b7          	lui	t2,0x42424
 2b4:	24238393          	addi	t2,t2,578 # 42424242 <_end+0x42422242>
 2b8:	4c771863          	bne	a4,t2,788 <fail>

000002bc <test_14>:
 2bc:	00e00193          	li	gp,14
 2c0:	212125b7          	lui	a1,0x21212
 2c4:	12158593          	addi	a1,a1,289 # 21212121 <_end+0x21210121>
 2c8:	00700613          	li	a2,7
 2cc:	60c59733          	rol	a4,a1,a2
 2d0:	909093b7          	lui	t2,0x90909
 2d4:	09038393          	addi	t2,t2,144 # 90909090 <_end+0x90907090>
 2d8:	4a771863          	bne	a4,t2,788 <fail>

000002dc <test_15>:
 2dc:	00f00193          	li	gp,15
 2e0:	212125b7          	lui	a1,0x21212
 2e4:	12158593          	addi	a1,a1,289 # 21212121 <_end+0x21210121>
 2e8:	00e00613          	li	a2,14
 2ec:	60c59733          	rol	a4,a1,a2
 2f0:	484853b7          	lui	t2,0x48485
 2f4:	84838393          	addi	t2,t2,-1976 # 48484848 <_end+0x48482848>
 2f8:	48771863          	bne	a4,t2,788 <fail>

000002fc <test_16>:
 2fc:	01000193          	li	gp,16
 300:	212125b7          	lui	a1,0x21212
 304:	12158593          	addi	a1,a1,289 # 21212121 <_end+0x21210121>
 308:	01f00613          	li	a2,31
 30c:	60c59733          	rol	a4,a1,a2
 310:	909093b7          	lui	t2,0x90909
 314:	09038393          	addi	t2,t2,144 # 90909090 <_end+0x90907090>
 318:	46771863          	bne	a4,t2,788 <fail>

0000031c <test_17>:
 31c:	01100193          	li	gp,17
 320:	212125b7          	lui	a1,0x21212
 324:	12158593          	addi	a1,a1,289 # 21212121 <_end+0x21210121>
 328:	fe000613          	li	a2,-32
 32c:	60c59733          	rol	a4,a1,a2
 330:	212123b7          	lui	t2,0x21212
 334:	12138393          	addi	t2,t2,289 # 21212121 <_end+0x21210121>
 338:	44771863          	bne	a4,t2,788 <fail>

0000033c <test_18>:
 33c:	01200193          	li	gp,18
 340:	212125b7          	lui	a1,0x21212
 344:	12158593          	addi	a1,a1,289 # 21212121 <_end+0x21210121>
 348:	fe100613          	li	a2,-31
 34c:	60c59733          	rol	a4,a1,a2
 350:	424243b7          	lui	t2,0x42424
 354:	24238393          	addi	t2,t2,578 # 42424242 <_end+0x42422242>
 358:	42771863          	bne	a4,t2,788 <fail>

0000035c <test_19>:
 35c:	01300193          	li	gp,19
 360:	212125b7          	lui	a1,0x21212
 364:	12158593          	addi	a1,a1,289 # 21212121 <_end+0x21210121>
 368:	fe700613          	li	a2,-25
 36c:	60c59733          	rol	a4,a1,a2
 370:	909093b7          	lui	t2,0x90909
 374:	09038393          	addi	t2,t2,144 # 90909090 <_end+0x90907090>
 378:	40771863          	bne	a4,t2,788 <fail>

0000037c <test_20>:
 37c:	01400193          	li	gp,20
 380:	212125b7          	lui	a1,0x21212
 384:	12158593          	addi	a1,a1,289 # 21212121 <_end+0x21210121>
 388:	fee00613          	li	a2,-18
 38c:	60c59733          	rol	a4,a1,a2
 390:	484853b7          	lui	t2,0x48485
 394:	84838393          	addi	t2,t2,-1976 # 48484848 <_end+0x48482848>
 398:	3e771863          	bne	a4,t2,788 <fail>

0000039c <test_21>:
 39c:	01500193          	li	gp,21
 3a0:	212125b7          	lui	a1,0x21212
 3a4:	12158593          	addi	a1,a1,289 # 21212121 <_end+0x21210121>
 3a8:	fff00613          	li	a2,-1
 3ac:	60c59733          	rol	a4,a1,a2
 3b0:	909093b7          	lui	t2,0x90909
 3b4:	09038393          	addi	t2,t2,144 # 90909090 <_end+0x90907090>
 3b8:	3c771863          	bne	a4,t2,788 <fail>

000003bc <test_44>:
 3bc:	02c00193          	li	gp,44
 3c0:	123455b7          	lui	a1,0x12345
 3c4:	67858593          	addi	a1,a1,1656 # 12345678 <_end+0x12343678>
 3c8:	00000613          	li	a2,0
 3cc:	60c59733          	rol	a4,a1,a2
 3d0:	123453b7          	lui	t2,0x12345
 3d4:	67838393          	addi	t2,t2,1656 # 12345678 <_end+0x12343678>
 3d8:	3a771863          	bne	a4,t2,788 <fail>

000003dc <test_45>:
 3dc:	02d00193          	li	gp,45
 3e0:	123455b7          	lui	a1,0x12345
 3e4:	67858593          	addi	a1,a1,1656 # 12345678 <_end+0x12343678>
 3e8:	00400613          	li	a2,4
 3ec:	60c59733          	rol	a4,a1,a2
 3f0:	234563b7          	lui	t2,0x23456
 3f4:	78138393          	addi	t2,t2,1921 # 23456781 <_end+0x23454781>
 3f8:	38771863          	bne	a4,t2,788 <fail>

000003fc <test_46>:
 3fc:	02e00193          	li	gp,46
 400:	923455b7          	lui	a1,0x92345
 404:	67858593          	addi	a1,a1,1656 # 92345678 <_end+0x92343678>
 408:	00000613          	li	a2,0
 40c:	60c59733          	rol	a4,a1,a2
 410:	923453b7          	lui	t2,0x92345
 414:	67838393          	addi	t2,t2,1656 # 92345678 <_end+0x92343678>
 418:	36771863          	bne	a4,t2,788 <fail>

0000041c <test_47>:
 41c:	02f00193          	li	gp,47
 420:	993455b7          	lui	a1,0x99345
 424:	67858593          	addi	a1,a1,1656 # 99345678 <_end+0x99343678>
 428:	00400613          	li	a2,4
 42c:	60c59733          	rol	a4,a1,a2
 430:	934563b7          	lui	t2,0x93456
 434:	78938393          	addi	t2,t2,1929 # 93456789 <_end+0x93454789>
 438:	34771863          	bne	a4,t2,788 <fail>

0000043c <test_22>:
 43c:	01600193          	li	gp,22
 440:	00100593          	li	a1,1
 444:	00700613          	li	a2,7
 448:	60c595b3          	rol	a1,a1,a2
 44c:	08000393          	li	t2,128
 450:	32759c63          	bne	a1,t2,788 <fail>

00000454 <test_23>:
 454:	01700193          	li	gp,23
 458:	00100593          	li	a1,1
 45c:	00e00613          	li	a2,14
 460:	60c59633          	rol	a2,a1,a2
 464:	000043b7          	lui	t2,0x4
 468:	32761063          	bne	a2,t2,788 <fail>

0000046c <test_24>:
 46c:	01800193          	li	gp,24
 470:	00300593          	li	a1,3
 474:	60b595b3          	rol	a1,a1,a1
 478:	01800393          	li	t2,24
 47c:	30759663          	bne	a1,t2,788 <fail>

00000480 <test_25>:
 480:	01900193          	li	gp,25
 484:	00000213          	li	tp,0
 488:	00100093          	li	ra,1
 48c:	00700113          	li	sp,7
 490:	60209733          	rol	a4,ra,sp
 494:	00070313          	mv	t1,a4
 498:	00120213          	addi	tp,tp,1 # 1 <_start+0x1>
 49c:	00200293          	li	t0,2
 4a0:	fe5214e3          	bne	tp,t0,488 <test_25+0x8>
 4a4:	08000393          	li	t2,128
 4a8:	2e731063          	bne	t1,t2,788 <fail>

000004ac <test_26>:
 4ac:	01a00193          	li	gp,26
 4b0:	00000213          	li	tp,0
 4b4:	00100093          	li	ra,1
 4b8:	00e00113          	li	sp,14
 4bc:	60209733          	rol	a4,ra,sp
 4c0:	00000013          	nop
 4c4:	00070313          	mv	t1,a4
 4c8:	00120213          	addi	tp,tp,1 # 1 <_start+0x1>
 4cc:	00200293          	li	t0,2
 4d0:	fe5212e3          	bne	tp,t0,4b4 <test_26+0x8>
 4d4:	000043b7          	lui	t2,0x4
 4d8:	2a731863          	bne	t1,t2,788 <fail>

000004dc <test_27>:
 4dc:	01b00193          	li	gp,27
 4e0:	00000213          	li	tp,0
 4e4:	00100093          	li	ra,1
 4e8:	01f00113          	li	sp,31
 4ec:	60209733          	rol	a4,ra,sp
 4f0:	00000013          	nop
 4f4:	00000013          	nop
 4f8:	00070313          	mv	t1,a4
 4fc:	00120213          	addi	tp,tp,1 # 1 <_start+0x1>
 500:	00200293          	li	t0,2
 504:	fe5210e3          	bne	tp,t0,4e4 <test_27+0x8>
 508:	800003b7          	lui	t2,0x80000
 50c:	26731e63          	bne	t1,t2,788 <fail>

00000510 <test_28>:
 510:	01c00193          	li	gp,28
 514:	00000213          	li	tp,0
 518:	00100093          	li	ra,1
 51c:	00700113          	li	sp,7
 520:	60209733          	rol	a4,ra,sp
 524:	00120213          	addi	tp,tp,1 # 1 <_start+0x1>
 528:	00200293          	li	t0,2
 52c:	fe5216e3          	bne	tp,t0,518 <test_28+0x8>
 530:	08000393          	li	t2,128
 534:	24771a63          	bne	a4,t2,788 <fail>

00000538 <test_29>:
 538:	01d00193          	li	gp,29
 53c:	00000213          	li	tp,0
 540:	00100093          	li	ra,1
 544:	00e00113          	li	sp,14
 548:	00000013          	nop
 54c:	60209733          	rol	a4,ra,sp
 550:	00120213          	addi	tp,tp,1 # 1 <_start+0x1>
 554:	00200293          	li	t0,2
 558:	fe5214e3          	bne	tp,t0,540 <test_29+0x8>
 55c:	000043b7          	lui	t2,0x4
 560:	22771463          	bne	a4,t2,788 <fail>

00000564 <test_30>:
 564:	01e00193          	li	gp,30
 568:	00000213          	li	tp,0
 56c:	00100093          	li	ra,1
 570:	01f00113          	li	sp,31
 574:	00000013          	nop
 578:	00000013          	nop
 57c:	60209733          	rol	a4,ra,sp
 580:	00120213          	addi	tp,tp,1 # 1 <_start+0x1>
 584:	00200293          	li	t0,2
 588:	fe5212e3          	bne	tp,t0,56c <test_30+0x8>
 58c:	800003b7          	lui	t2,0x80000
 590:	1e771c63          	bne	a4,t2,788 <fail>

00000594 <test_31>:
 594:	01f00193          	li	gp,31
 598:	00000213          	li	tp,0
 59c:	00100093          	li	ra,1
 5a0:	00000013          	nop
 5a4:	00700113          	li	sp,7
 5a8:	60209733          	rol	a4,ra,sp
 5ac:	00120213          	addi	tp,tp,1 # 1 <_start+0x1>
 5b0:	00200293          	li	t0,2
 5b4:	fe5214e3          	bne	tp,t0,59c <test_31+0x8>
 5b8:	08000393          	li	t2,128
 5bc:	1c771663          	bne	a4,t2,788 <fail>

000005c0 <test_32>:
 5c0:	02000193          	li	gp,32
 5c4:	00000213          	li	tp,0
 5c8:	00100093          	li	ra,1
 5cc:	00000013          	nop
 5d0:	00e00113          	li	sp,14
 5d4:	00000013          	nop
 5d8:	60209733          	rol	a4,ra,sp
 5dc:	00120213          	addi	tp,tp,1 # 1 <_start+0x1>
 5e0:	00200293          	li	t0,2
 5e4:	fe5212e3          	bne	tp,t0,5c8 <test_32+0x8>
 5e8:	000043b7          	lui	t2,0x4
 5ec:	18771e63          	bne	a4,t2,788 <fail>

000005f0 <test_33>:
 5f0:	02100193          	li	gp,33
 5f4:	00000213          	li	tp,0
 5f8:	00100093          	li	ra,1
 5fc:	00000013          	nop
 600:	00000013          	nop
 604:	01f00113          	li	sp,31
 608:	60209733          	rol	a4,ra,sp
 60c:	00120213          	addi	tp,tp,1 # 1 <_start+0x1>
 610:	00200293          	li	t0,2
 614:	fe5212e3          	bne	tp,t0,5f8 <test_33+0x8>
 618:	800003b7          	lui	t2,0x80000
 61c:	16771663          	bne	a4,t2,788 <fail>

00000620 <test_34>:
 620:	02200193          	li	gp,34
 624:	00000213          	li	tp,0
 628:	00700113          	li	sp,7
 62c:	00100093          	li	ra,1
 630:	60209733          	rol	a4,ra,sp
 634:	00120213          	addi	tp,tp,1 # 1 <_start+0x1>
 638:	00200293          	li	t0,2
 63c:	fe5216e3          	bne	tp,t0,628 <test_34+0x8>
 640:	08000393          	li	t2,128
 644:	14771263          	bne	a4,t2,788 <fail>

00000648 <test_35>:
 648:	02300193          	li	gp,35
 64c:	00000213          	li	tp,0
 650:	00e00113          	li	sp,14
 654:	00100093          	li	ra,1
 658:	00000013          	nop
 65c:	60209733          	rol	a4,ra,sp
 660:	00120213          	addi	tp,tp,1 # 1 <_start+0x1>
 664:	00200293          	li	t0,2
 668:	fe5214e3          	bne	tp,t0,650 <test_35+0x8>
 66c:	000043b7          	lui	t2,0x4
 670:	10771c63          	bne	a4,t2,788 <fail>

00000674 <test_36>:
 674:	02400193          	li	gp,36
 678:	00000213          	li	tp,0
 67c:	01f00113          	li	sp,31
 680:	00100093          	li	ra,1
 684:	00000013          	nop
 688:	00000013          	nop
 68c:	60209733          	rol	a4,ra,sp
 690:	00120213          	addi	tp,tp,1 # 1 <_start+0x1>
 694:	00200293          	li	t0,2
 698:	fe5212e3          	bne	tp,t0,67c <test_36+0x8>
 69c:	800003b7          	lui	t2,0x80000
 6a0:	0e771463          	bne	a4,t2,788 <fail>

000006a4 <test_37>:
 6a4:	02500193          	li	gp,37
 6a8:	00000213          	li	tp,0
 6ac:	00700113          	li	sp,7
 6b0:	00000013          	nop
 6b4:	00100093          	li	ra,1
 6b8:	60209733          	rol	a4,ra,sp
 6bc:	00120213          	addi	tp,tp,1 # 1 <_start+0x1>
 6c0:	00200293          	li	t0,2
 6c4:	fe5214e3          	bne	tp,t0,6ac <test_37+0x8>
 6c8:	08000393          	li	t2,128
 6cc:	0a771e63          	bne	a4,t2,788 <fail>

000006d0 <test_38>:
 6d0:	02600193          	li	gp,38
 6d4:	00000213          	li	tp,0
 6d8:	00e00113          	li	sp,14
 6dc:	00000013          	nop
 6e0:	00100093          	li	ra,1
 6e4:	00000013          	nop
 6e8:	60209733          	rol	a4,ra,sp
 6ec:	00120213          	addi	tp,tp,1 # 1 <_start+0x1>
 6f0:	00200293          	li	t0,2
 6f4:	fe5212e3          	bne	tp,t0,6d8 <test_38+0x8>
 6f8:	000043b7          	lui	t2,0x4
 6fc:	08771663          	bne	a4,t2,788 <fail>

00000700 <test_39>:
 700:	02700193          	li	gp,39
 704:	00000213          	li	tp,0
 708:	01f00113          	li	sp,31
 70c:	00000013          	nop
 710:	00000013          	nop
 714:	00100093          	li	ra,1
 718:	60209733          	rol	a4,ra,sp
 71c:	00120213          	addi	tp,tp,1 # 1 <_start+0x1>
 720:	00200293          	li	t0,2
 724:	fe5212e3          	bne	tp,t0,708 <test_39+0x8>
 728:	800003b7          	lui	t2,0x80000
 72c:	04771e63          	bne	a4,t2,788 <fail>

00000730 <test_40>:
 730:	02800193          	li	gp,40
 734:	00f00093          	li	ra,15
 738:	60101133          	rol	sp,zero,ra
 73c:	00000393          	li	t2,0
 740:	04711463          	bne	sp,t2,788 <fail>

00000744 <test_41>:
 744:	02900193          	li	gp,41
 748:	02000093          	li	ra,32
 74c:	60009133          	rol	sp,ra,zero
 750:	02000393          	li	t2,32
 754:	02711a63          	bne	sp,t2,788 <fail>

00000758 <test_42>:
 758:	02a00193          	li	gp,42
 75c:	600010b3          	rol	ra,zero,zero
 760:	00000393          	li	t2,0
 764:	02709263          	bne	ra,t2,788 <fail>

00000768 <test_43>:
 768:	02b00193          	li	gp,43
 76c:	40000093          	li	ra,1024
 770:	00001137          	lui	sp,0x1
 774:	80010113          	addi	sp,sp,-2048 # 800 <pass+0x5c>
 778:	60209033          	rol	zero,ra,sp
 77c:	00000393          	li	t2,0
 780:	00701463          	bne	zero,t2,788 <fail>
 784:	02301063          	bne	zero,gp,7a4 <pass>

00000788 <fail>:
 788:	0ff0000f          	fence
 78c:	00018063          	beqz	gp,78c <fail+0x4>
 790:	00119193          	slli	gp,gp,0x1
 794:	0011e193          	ori	gp,gp,1
 798:	05d00893          	li	a7,93
 79c:	00018513          	mv	a0,gp
 7a0:	00000073          	ecall

000007a4 <pass>:
 7a4:	0ff0000f          	fence
 7a8:	00100193          	li	gp,1
 7ac:	05d00893          	li	a7,93
 7b0:	00000513          	li	a0,0
 7b4:	00000073          	ecall
 7b8:	c0001073          	unimp
