
rv32uf-p-fmin:     ファイル形式 elf32-littleriscv


セクション .text.init の逆アセンブル:

00000000 <_start>:
   0:	0500006f          	j	50 <reset_vector>

00000004 <trap_vector>:
   4:	34202f73          	csrr	t5,mcause
   8:	00800f93          	li	t6,8
   c:	03ff0863          	beq	t5,t6,3c <write_tohost>
  10:	00900f93          	li	t6,9
  14:	03ff0463          	beq	t5,t6,3c <write_tohost>
  18:	00b00f93          	li	t6,11
  1c:	03ff0063          	beq	t5,t6,3c <write_tohost>
  20:	00000f13          	li	t5,0
  24:	000f0463          	beqz	t5,2c <trap_vector+0x28>
  28:	000f0067          	jr	t5
  2c:	34202f73          	csrr	t5,mcause
  30:	000f5463          	bgez	t5,38 <handle_exception>
  34:	0040006f          	j	38 <handle_exception>

00000038 <handle_exception>:
  38:	5391e193          	ori	gp,gp,1337

0000003c <write_tohost>:
  3c:	00001f17          	auipc	t5,0x1
  40:	fc3f2223          	sw	gp,-60(t5) # 1000 <tohost>
  44:	00001f17          	auipc	t5,0x1
  48:	fc0f2023          	sw	zero,-64(t5) # 1004 <tohost+0x4>
  4c:	ff1ff06f          	j	3c <write_tohost>

00000050 <reset_vector>:
  50:	00000093          	li	ra,0
  54:	00000113          	li	sp,0
  58:	00000193          	li	gp,0
  5c:	00000213          	li	tp,0
  60:	00000293          	li	t0,0
  64:	00000313          	li	t1,0
  68:	00000393          	li	t2,0
  6c:	00000413          	li	s0,0
  70:	00000493          	li	s1,0
  74:	00000513          	li	a0,0
  78:	00000593          	li	a1,0
  7c:	00000613          	li	a2,0
  80:	00000693          	li	a3,0
  84:	00000713          	li	a4,0
  88:	00000793          	li	a5,0
  8c:	00000813          	li	a6,0
  90:	00000893          	li	a7,0
  94:	00000913          	li	s2,0
  98:	00000993          	li	s3,0
  9c:	00000a13          	li	s4,0
  a0:	00000a93          	li	s5,0
  a4:	00000b13          	li	s6,0
  a8:	00000b93          	li	s7,0
  ac:	00000c13          	li	s8,0
  b0:	00000c93          	li	s9,0
  b4:	00000d13          	li	s10,0
  b8:	00000d93          	li	s11,0
  bc:	00000e13          	li	t3,0
  c0:	00000e93          	li	t4,0
  c4:	00000f13          	li	t5,0
  c8:	00000f93          	li	t6,0
  cc:	f1402573          	csrr	a0,mhartid
  d0:	00051063          	bnez	a0,d0 <reset_vector+0x80>
  d4:	00000297          	auipc	t0,0x0
  d8:	01028293          	addi	t0,t0,16 # e4 <reset_vector+0x94>
  dc:	30529073          	csrw	mtvec,t0
  e0:	74445073          	csrwi	mnstatus,8
  e4:	00000297          	auipc	t0,0x0
  e8:	01028293          	addi	t0,t0,16 # f4 <reset_vector+0xa4>
  ec:	30529073          	csrw	mtvec,t0
  f0:	18005073          	csrwi	satp,0
  f4:	00000297          	auipc	t0,0x0
  f8:	02028293          	addi	t0,t0,32 # 114 <reset_vector+0xc4>
  fc:	30529073          	csrw	mtvec,t0
 100:	800002b7          	lui	t0,0x80000
 104:	fff28293          	addi	t0,t0,-1 # 7fffffff <_end+0x7fffdedf>
 108:	3b029073          	csrw	pmpaddr0,t0
 10c:	01f00293          	li	t0,31
 110:	3a029073          	csrw	pmpcfg0,t0
 114:	30405073          	csrwi	mie,0
 118:	00000297          	auipc	t0,0x0
 11c:	01428293          	addi	t0,t0,20 # 12c <reset_vector+0xdc>
 120:	30529073          	csrw	mtvec,t0
 124:	30205073          	csrwi	medeleg,0
 128:	30305073          	csrwi	mideleg,0
 12c:	00000193          	li	gp,0
 130:	00000297          	auipc	t0,0x0
 134:	ed428293          	addi	t0,t0,-300 # 4 <trap_vector>
 138:	30529073          	csrw	mtvec,t0
 13c:	00100513          	li	a0,1
 140:	01f51513          	slli	a0,a0,0x1f
 144:	00054c63          	bltz	a0,15c <reset_vector+0x10c>
 148:	0ff0000f          	fence
 14c:	00100193          	li	gp,1
 150:	05d00893          	li	a7,93
 154:	00000513          	li	a0,0
 158:	00000073          	ecall
 15c:	00000293          	li	t0,0
 160:	00028a63          	beqz	t0,174 <reset_vector+0x124>
 164:	10529073          	csrw	stvec,t0
 168:	0000b2b7          	lui	t0,0xb
 16c:	10928293          	addi	t0,t0,265 # b109 <_end+0x8fe9>
 170:	30229073          	csrw	medeleg,t0
 174:	30005073          	csrwi	mstatus,0
 178:	00002537          	lui	a0,0x2
 17c:	30052073          	csrs	mstatus,a0
 180:	00305073          	csrwi	fcsr,0
 184:	00000297          	auipc	t0,0x0
 188:	01428293          	addi	t0,t0,20 # 198 <test_2>
 18c:	34129073          	csrw	mepc,t0
 190:	f1402573          	csrr	a0,mhartid
 194:	30200073          	mret

00000198 <test_2>:
 198:	00200193          	li	gp,2
 19c:	00002517          	auipc	a0,0x2
 1a0:	e6450513          	addi	a0,a0,-412 # 2000 <test_2_data>
 1a4:	00052507          	flw	fa0,0(a0)
 1a8:	00452587          	flw	fa1,4(a0)
 1ac:	00852607          	flw	fa2,8(a0)
 1b0:	00c52683          	lw	a3,12(a0)
 1b4:	28b506d3          	fmin.s	fa3,fa0,fa1
 1b8:	e0068553          	fmv.x.w	a0,fa3
 1bc:	001015f3          	fsflags	a1,zero
 1c0:	00000613          	li	a2,0
 1c4:	38d51063          	bne	a0,a3,544 <fail>
 1c8:	36c59e63          	bne	a1,a2,544 <fail>

000001cc <test_3>:
 1cc:	00300193          	li	gp,3
 1d0:	00002517          	auipc	a0,0x2
 1d4:	e4050513          	addi	a0,a0,-448 # 2010 <test_3_data>
 1d8:	00052507          	flw	fa0,0(a0)
 1dc:	00452587          	flw	fa1,4(a0)
 1e0:	00852607          	flw	fa2,8(a0)
 1e4:	00c52683          	lw	a3,12(a0)
 1e8:	28b506d3          	fmin.s	fa3,fa0,fa1
 1ec:	e0068553          	fmv.x.w	a0,fa3
 1f0:	001015f3          	fsflags	a1,zero
 1f4:	00000613          	li	a2,0
 1f8:	34d51663          	bne	a0,a3,544 <fail>
 1fc:	34c59463          	bne	a1,a2,544 <fail>

00000200 <test_4>:
 200:	00400193          	li	gp,4
 204:	00002517          	auipc	a0,0x2
 208:	e1c50513          	addi	a0,a0,-484 # 2020 <test_4_data>
 20c:	00052507          	flw	fa0,0(a0)
 210:	00452587          	flw	fa1,4(a0)
 214:	00852607          	flw	fa2,8(a0)
 218:	00c52683          	lw	a3,12(a0)
 21c:	28b506d3          	fmin.s	fa3,fa0,fa1
 220:	e0068553          	fmv.x.w	a0,fa3
 224:	001015f3          	fsflags	a1,zero
 228:	00000613          	li	a2,0
 22c:	30d51c63          	bne	a0,a3,544 <fail>
 230:	30c59a63          	bne	a1,a2,544 <fail>

00000234 <test_5>:
 234:	00500193          	li	gp,5
 238:	00002517          	auipc	a0,0x2
 23c:	df850513          	addi	a0,a0,-520 # 2030 <test_5_data>
 240:	00052507          	flw	fa0,0(a0)
 244:	00452587          	flw	fa1,4(a0)
 248:	00852607          	flw	fa2,8(a0)
 24c:	00c52683          	lw	a3,12(a0)
 250:	28b506d3          	fmin.s	fa3,fa0,fa1
 254:	e0068553          	fmv.x.w	a0,fa3
 258:	001015f3          	fsflags	a1,zero
 25c:	00000613          	li	a2,0
 260:	2ed51263          	bne	a0,a3,544 <fail>
 264:	2ec59063          	bne	a1,a2,544 <fail>

00000268 <test_6>:
 268:	00600193          	li	gp,6
 26c:	00002517          	auipc	a0,0x2
 270:	dd450513          	addi	a0,a0,-556 # 2040 <test_6_data>
 274:	00052507          	flw	fa0,0(a0)
 278:	00452587          	flw	fa1,4(a0)
 27c:	00852607          	flw	fa2,8(a0)
 280:	00c52683          	lw	a3,12(a0)
 284:	28b506d3          	fmin.s	fa3,fa0,fa1
 288:	e0068553          	fmv.x.w	a0,fa3
 28c:	001015f3          	fsflags	a1,zero
 290:	00000613          	li	a2,0
 294:	2ad51863          	bne	a0,a3,544 <fail>
 298:	2ac59663          	bne	a1,a2,544 <fail>

0000029c <test_7>:
 29c:	00700193          	li	gp,7
 2a0:	00002517          	auipc	a0,0x2
 2a4:	db050513          	addi	a0,a0,-592 # 2050 <test_7_data>
 2a8:	00052507          	flw	fa0,0(a0)
 2ac:	00452587          	flw	fa1,4(a0)
 2b0:	00852607          	flw	fa2,8(a0)
 2b4:	00c52683          	lw	a3,12(a0)
 2b8:	28b506d3          	fmin.s	fa3,fa0,fa1
 2bc:	e0068553          	fmv.x.w	a0,fa3
 2c0:	001015f3          	fsflags	a1,zero
 2c4:	00000613          	li	a2,0
 2c8:	26d51e63          	bne	a0,a3,544 <fail>
 2cc:	26c59c63          	bne	a1,a2,544 <fail>

000002d0 <test_12>:
 2d0:	00c00193          	li	gp,12
 2d4:	00002517          	auipc	a0,0x2
 2d8:	d8c50513          	addi	a0,a0,-628 # 2060 <test_12_data>
 2dc:	00052507          	flw	fa0,0(a0)
 2e0:	00452587          	flw	fa1,4(a0)
 2e4:	00852607          	flw	fa2,8(a0)
 2e8:	00c52683          	lw	a3,12(a0)
 2ec:	28b516d3          	fmax.s	fa3,fa0,fa1
 2f0:	e0068553          	fmv.x.w	a0,fa3
 2f4:	001015f3          	fsflags	a1,zero
 2f8:	00000613          	li	a2,0
 2fc:	24d51463          	bne	a0,a3,544 <fail>
 300:	24c59263          	bne	a1,a2,544 <fail>

00000304 <test_13>:
 304:	00d00193          	li	gp,13
 308:	00002517          	auipc	a0,0x2
 30c:	d6850513          	addi	a0,a0,-664 # 2070 <test_13_data>
 310:	00052507          	flw	fa0,0(a0)
 314:	00452587          	flw	fa1,4(a0)
 318:	00852607          	flw	fa2,8(a0)
 31c:	00c52683          	lw	a3,12(a0)
 320:	28b516d3          	fmax.s	fa3,fa0,fa1
 324:	e0068553          	fmv.x.w	a0,fa3
 328:	001015f3          	fsflags	a1,zero
 32c:	00000613          	li	a2,0
 330:	20d51a63          	bne	a0,a3,544 <fail>
 334:	20c59863          	bne	a1,a2,544 <fail>

00000338 <test_14>:
 338:	00e00193          	li	gp,14
 33c:	00002517          	auipc	a0,0x2
 340:	d4450513          	addi	a0,a0,-700 # 2080 <test_14_data>
 344:	00052507          	flw	fa0,0(a0)
 348:	00452587          	flw	fa1,4(a0)
 34c:	00852607          	flw	fa2,8(a0)
 350:	00c52683          	lw	a3,12(a0)
 354:	28b516d3          	fmax.s	fa3,fa0,fa1
 358:	e0068553          	fmv.x.w	a0,fa3
 35c:	001015f3          	fsflags	a1,zero
 360:	00000613          	li	a2,0
 364:	1ed51063          	bne	a0,a3,544 <fail>
 368:	1cc59e63          	bne	a1,a2,544 <fail>

0000036c <test_15>:
 36c:	00f00193          	li	gp,15
 370:	00002517          	auipc	a0,0x2
 374:	d2050513          	addi	a0,a0,-736 # 2090 <test_15_data>
 378:	00052507          	flw	fa0,0(a0)
 37c:	00452587          	flw	fa1,4(a0)
 380:	00852607          	flw	fa2,8(a0)
 384:	00c52683          	lw	a3,12(a0)
 388:	28b516d3          	fmax.s	fa3,fa0,fa1
 38c:	e0068553          	fmv.x.w	a0,fa3
 390:	001015f3          	fsflags	a1,zero
 394:	00000613          	li	a2,0
 398:	1ad51663          	bne	a0,a3,544 <fail>
 39c:	1ac59463          	bne	a1,a2,544 <fail>

000003a0 <test_16>:
 3a0:	01000193          	li	gp,16
 3a4:	00002517          	auipc	a0,0x2
 3a8:	cfc50513          	addi	a0,a0,-772 # 20a0 <test_16_data>
 3ac:	00052507          	flw	fa0,0(a0)
 3b0:	00452587          	flw	fa1,4(a0)
 3b4:	00852607          	flw	fa2,8(a0)
 3b8:	00c52683          	lw	a3,12(a0)
 3bc:	28b516d3          	fmax.s	fa3,fa0,fa1
 3c0:	e0068553          	fmv.x.w	a0,fa3
 3c4:	001015f3          	fsflags	a1,zero
 3c8:	00000613          	li	a2,0
 3cc:	16d51c63          	bne	a0,a3,544 <fail>
 3d0:	16c59a63          	bne	a1,a2,544 <fail>

000003d4 <test_17>:
 3d4:	01100193          	li	gp,17
 3d8:	00002517          	auipc	a0,0x2
 3dc:	cd850513          	addi	a0,a0,-808 # 20b0 <test_17_data>
 3e0:	00052507          	flw	fa0,0(a0)
 3e4:	00452587          	flw	fa1,4(a0)
 3e8:	00852607          	flw	fa2,8(a0)
 3ec:	00c52683          	lw	a3,12(a0)
 3f0:	28b516d3          	fmax.s	fa3,fa0,fa1
 3f4:	e0068553          	fmv.x.w	a0,fa3
 3f8:	001015f3          	fsflags	a1,zero
 3fc:	00000613          	li	a2,0
 400:	14d51263          	bne	a0,a3,544 <fail>
 404:	14c59063          	bne	a1,a2,544 <fail>

00000408 <test_20>:
 408:	01400193          	li	gp,20
 40c:	00002517          	auipc	a0,0x2
 410:	cb450513          	addi	a0,a0,-844 # 20c0 <test_20_data>
 414:	00052507          	flw	fa0,0(a0)
 418:	00452587          	flw	fa1,4(a0)
 41c:	00852607          	flw	fa2,8(a0)
 420:	00c52683          	lw	a3,12(a0)
 424:	28b516d3          	fmax.s	fa3,fa0,fa1
 428:	e0068553          	fmv.x.w	a0,fa3
 42c:	001015f3          	fsflags	a1,zero
 430:	01000613          	li	a2,16
 434:	10d51863          	bne	a0,a3,544 <fail>
 438:	10c59663          	bne	a1,a2,544 <fail>

0000043c <test_21>:
 43c:	01500193          	li	gp,21
 440:	00002517          	auipc	a0,0x2
 444:	c9050513          	addi	a0,a0,-880 # 20d0 <test_21_data>
 448:	00052507          	flw	fa0,0(a0)
 44c:	00452587          	flw	fa1,4(a0)
 450:	00852607          	flw	fa2,8(a0)
 454:	00c52683          	lw	a3,12(a0)
 458:	28b516d3          	fmax.s	fa3,fa0,fa1
 45c:	e0068553          	fmv.x.w	a0,fa3
 460:	001015f3          	fsflags	a1,zero
 464:	00000613          	li	a2,0
 468:	0cd51e63          	bne	a0,a3,544 <fail>
 46c:	0cc59c63          	bne	a1,a2,544 <fail>

00000470 <test_30>:
 470:	01e00193          	li	gp,30
 474:	00002517          	auipc	a0,0x2
 478:	c6c50513          	addi	a0,a0,-916 # 20e0 <test_30_data>
 47c:	00052507          	flw	fa0,0(a0)
 480:	00452587          	flw	fa1,4(a0)
 484:	00852607          	flw	fa2,8(a0)
 488:	00c52683          	lw	a3,12(a0)
 48c:	28b506d3          	fmin.s	fa3,fa0,fa1
 490:	e0068553          	fmv.x.w	a0,fa3
 494:	001015f3          	fsflags	a1,zero
 498:	00000613          	li	a2,0
 49c:	0ad51463          	bne	a0,a3,544 <fail>
 4a0:	0ac59263          	bne	a1,a2,544 <fail>

000004a4 <test_31>:
 4a4:	01f00193          	li	gp,31
 4a8:	00002517          	auipc	a0,0x2
 4ac:	c4850513          	addi	a0,a0,-952 # 20f0 <test_31_data>
 4b0:	00052507          	flw	fa0,0(a0)
 4b4:	00452587          	flw	fa1,4(a0)
 4b8:	00852607          	flw	fa2,8(a0)
 4bc:	00c52683          	lw	a3,12(a0)
 4c0:	28b506d3          	fmin.s	fa3,fa0,fa1
 4c4:	e0068553          	fmv.x.w	a0,fa3
 4c8:	001015f3          	fsflags	a1,zero
 4cc:	00000613          	li	a2,0
 4d0:	06d51a63          	bne	a0,a3,544 <fail>
 4d4:	06c59863          	bne	a1,a2,544 <fail>

000004d8 <test_32>:
 4d8:	02000193          	li	gp,32
 4dc:	00002517          	auipc	a0,0x2
 4e0:	c2450513          	addi	a0,a0,-988 # 2100 <test_32_data>
 4e4:	00052507          	flw	fa0,0(a0)
 4e8:	00452587          	flw	fa1,4(a0)
 4ec:	00852607          	flw	fa2,8(a0)
 4f0:	00c52683          	lw	a3,12(a0)
 4f4:	28b516d3          	fmax.s	fa3,fa0,fa1
 4f8:	e0068553          	fmv.x.w	a0,fa3
 4fc:	001015f3          	fsflags	a1,zero
 500:	00000613          	li	a2,0
 504:	04d51063          	bne	a0,a3,544 <fail>
 508:	02c59e63          	bne	a1,a2,544 <fail>

0000050c <test_33>:
 50c:	02100193          	li	gp,33
 510:	00002517          	auipc	a0,0x2
 514:	c0050513          	addi	a0,a0,-1024 # 2110 <test_33_data>
 518:	00052507          	flw	fa0,0(a0)
 51c:	00452587          	flw	fa1,4(a0)
 520:	00852607          	flw	fa2,8(a0)
 524:	00c52683          	lw	a3,12(a0)
 528:	28b516d3          	fmax.s	fa3,fa0,fa1
 52c:	e0068553          	fmv.x.w	a0,fa3
 530:	001015f3          	fsflags	a1,zero
 534:	00000613          	li	a2,0
 538:	00d51663          	bne	a0,a3,544 <fail>
 53c:	00c59463          	bne	a1,a2,544 <fail>
 540:	02301063          	bne	zero,gp,560 <pass>

00000544 <fail>:
 544:	0ff0000f          	fence
 548:	00018063          	beqz	gp,548 <fail+0x4>
 54c:	00119193          	slli	gp,gp,0x1
 550:	0011e193          	ori	gp,gp,1
 554:	05d00893          	li	a7,93
 558:	00018513          	mv	a0,gp
 55c:	00000073          	ecall

00000560 <pass>:
 560:	0ff0000f          	fence
 564:	00100193          	li	gp,1
 568:	05d00893          	li	a7,93
 56c:	00000513          	li	a0,0
 570:	00000073          	ecall
 574:	c0001073          	unimp
 578:	00000013          	nop

セクション .data の逆アセンブル:

00002000 <test_2_data>:
    2000:	0000                	.insn	2, 0x0000
    2002:	4020                	.insn	2, 0x4020
    2004:	0000                	.insn	2, 0x0000
    2006:	3f80                	.insn	2, 0x3f80
    2008:	0000                	.insn	2, 0x0000
    200a:	0000                	.insn	2, 0x0000
    200c:	0000                	.insn	2, 0x0000
    200e:	3f80                	.insn	2, 0x3f80

00002010 <test_3_data>:
    2010:	c49a6333          	.insn	4, 0xc49a6333
    2014:	cccd                	.insn	2, 0xcccd
    2016:	3f8c                	.insn	2, 0x3f8c
    2018:	0000                	.insn	2, 0x0000
    201a:	0000                	.insn	2, 0x0000
    201c:	c49a6333          	.insn	4, 0xc49a6333

00002020 <test_4_data>:
    2020:	cccd                	.insn	2, 0xcccd
    2022:	3f8c                	.insn	2, 0x3f8c
    2024:	c49a6333          	.insn	4, 0xc49a6333
    2028:	0000                	.insn	2, 0x0000
    202a:	0000                	.insn	2, 0x0000
    202c:	c49a6333          	.insn	4, 0xc49a6333

00002030 <test_5_data>:
    2030:	ffff                	.insn	2, 0xffff
    2032:	7fff                	.insn	2, 0x7fff
    2034:	c49a6333          	.insn	4, 0xc49a6333
    2038:	0000                	.insn	2, 0x0000
    203a:	0000                	.insn	2, 0x0000
    203c:	c49a6333          	.insn	4, 0xc49a6333

00002040 <test_6_data>:
    2040:	40490fdb          	.insn	4, 0x40490fdb
    2044:	322bcc77          	.insn	4, 0x322bcc77
    2048:	0000                	.insn	2, 0x0000
    204a:	0000                	.insn	2, 0x0000
    204c:	322bcc77          	.insn	4, 0x322bcc77

00002050 <test_7_data>:
    2050:	0000                	.insn	2, 0x0000
    2052:	bf80                	.insn	2, 0xbf80
    2054:	0000                	.insn	2, 0x0000
    2056:	c000                	.insn	2, 0xc000
    2058:	0000                	.insn	2, 0x0000
    205a:	0000                	.insn	2, 0x0000
    205c:	0000                	.insn	2, 0x0000
    205e:	c000                	.insn	2, 0xc000

00002060 <test_12_data>:
    2060:	0000                	.insn	2, 0x0000
    2062:	4020                	.insn	2, 0x4020
    2064:	0000                	.insn	2, 0x0000
    2066:	3f80                	.insn	2, 0x3f80
    2068:	0000                	.insn	2, 0x0000
    206a:	0000                	.insn	2, 0x0000
    206c:	0000                	.insn	2, 0x0000
    206e:	4020                	.insn	2, 0x4020

00002070 <test_13_data>:
    2070:	c49a6333          	.insn	4, 0xc49a6333
    2074:	cccd                	.insn	2, 0xcccd
    2076:	3f8c                	.insn	2, 0x3f8c
    2078:	0000                	.insn	2, 0x0000
    207a:	0000                	.insn	2, 0x0000
    207c:	cccd                	.insn	2, 0xcccd
    207e:	3f8c                	.insn	2, 0x3f8c

00002080 <test_14_data>:
    2080:	cccd                	.insn	2, 0xcccd
    2082:	3f8c                	.insn	2, 0x3f8c
    2084:	c49a6333          	.insn	4, 0xc49a6333
    2088:	0000                	.insn	2, 0x0000
    208a:	0000                	.insn	2, 0x0000
    208c:	cccd                	.insn	2, 0xcccd
    208e:	3f8c                	.insn	2, 0x3f8c

00002090 <test_15_data>:
    2090:	ffff                	.insn	2, 0xffff
    2092:	7fff                	.insn	2, 0x7fff
    2094:	c49a6333          	.insn	4, 0xc49a6333
    2098:	0000                	.insn	2, 0x0000
    209a:	0000                	.insn	2, 0x0000
    209c:	c49a6333          	.insn	4, 0xc49a6333

000020a0 <test_16_data>:
    20a0:	40490fdb          	.insn	4, 0x40490fdb
    20a4:	322bcc77          	.insn	4, 0x322bcc77
    20a8:	0000                	.insn	2, 0x0000
    20aa:	0000                	.insn	2, 0x0000
    20ac:	40490fdb          	.insn	4, 0x40490fdb

000020b0 <test_17_data>:
    20b0:	0000                	.insn	2, 0x0000
    20b2:	bf80                	.insn	2, 0xbf80
    20b4:	0000                	.insn	2, 0x0000
    20b6:	c000                	.insn	2, 0xc000
    20b8:	0000                	.insn	2, 0x0000
    20ba:	0000                	.insn	2, 0x0000
    20bc:	0000                	.insn	2, 0x0000
    20be:	bf80                	.insn	2, 0xbf80

000020c0 <test_20_data>:
    20c0:	0001                	.insn	2, 0x0001
    20c2:	7f80                	.insn	2, 0x7f80
    20c4:	0000                	.insn	2, 0x0000
    20c6:	3f80                	.insn	2, 0x3f80
    20c8:	0000                	.insn	2, 0x0000
    20ca:	0000                	.insn	2, 0x0000
    20cc:	0000                	.insn	2, 0x0000
    20ce:	3f80                	.insn	2, 0x3f80

000020d0 <test_21_data>:
    20d0:	ffff                	.insn	2, 0xffff
    20d2:	7fff                	.insn	2, 0x7fff
    20d4:	ffff                	.insn	2, 0xffff
    20d6:	7fff                	.insn	2, 0x7fff
    20d8:	0000                	.insn	2, 0x0000
    20da:	0000                	.insn	2, 0x0000
    20dc:	0000                	.insn	2, 0x0000
    20de:	7fc0                	.insn	2, 0x7fc0

000020e0 <test_30_data>:
    20e0:	0000                	.insn	2, 0x0000
    20e2:	8000                	.insn	2, 0x8000
    20e4:	0000                	.insn	2, 0x0000
    20e6:	0000                	.insn	2, 0x0000
    20e8:	0000                	.insn	2, 0x0000
    20ea:	0000                	.insn	2, 0x0000
    20ec:	0000                	.insn	2, 0x0000
    20ee:	8000                	.insn	2, 0x8000

000020f0 <test_31_data>:
    20f0:	0000                	.insn	2, 0x0000
    20f2:	0000                	.insn	2, 0x0000
    20f4:	0000                	.insn	2, 0x0000
    20f6:	8000                	.insn	2, 0x8000
    20f8:	0000                	.insn	2, 0x0000
    20fa:	0000                	.insn	2, 0x0000
    20fc:	0000                	.insn	2, 0x0000
    20fe:	8000                	.insn	2, 0x8000

00002100 <test_32_data>:
    2100:	0000                	.insn	2, 0x0000
    2102:	8000                	.insn	2, 0x8000
    2104:	0000                	.insn	2, 0x0000
    2106:	0000                	.insn	2, 0x0000
    2108:	0000                	.insn	2, 0x0000
    210a:	0000                	.insn	2, 0x0000
    210c:	0000                	.insn	2, 0x0000
    210e:	0000                	.insn	2, 0x0000

00002110 <test_33_data>:
    2110:	0000                	.insn	2, 0x0000
    2112:	0000                	.insn	2, 0x0000
    2114:	0000                	.insn	2, 0x0000
    2116:	8000                	.insn	2, 0x8000
    2118:	0000                	.insn	2, 0x0000
    211a:	0000                	.insn	2, 0x0000
    211c:	0000                	.insn	2, 0x0000
    211e:	0000                	.insn	2, 0x0000
