
rv32ud-p-fmadd:     ファイル形式 elf32-littleriscv


セクション .text.init の逆アセンブル:

00000000 <_start>:
   0:	0500006f          	j	50 <reset_vector>

00000004 <trap_vector>:
   4:	34202f73          	csrr	t5,mcause
   8:	00800f93          	li	t6,8
   c:	03ff0863          	beq	t5,t6,3c <write_tohost>
  10:	00900f93          	li	t6,9
  14:	03ff0463          	beq	t5,t6,3c <write_tohost>
  18:	00b00f93          	li	t6,11
  1c:	03ff0063          	beq	t5,t6,3c <write_tohost>
  20:	00000f13          	li	t5,0
  24:	000f0463          	beqz	t5,2c <trap_vector+0x28>
  28:	000f0067          	jr	t5
  2c:	34202f73          	csrr	t5,mcause
  30:	000f5463          	bgez	t5,38 <handle_exception>
  34:	0040006f          	j	38 <handle_exception>

00000038 <handle_exception>:
  38:	5391e193          	ori	gp,gp,1337

0000003c <write_tohost>:
  3c:	00001f17          	auipc	t5,0x1
  40:	fc3f2223          	sw	gp,-60(t5) # 1000 <tohost>
  44:	00001f17          	auipc	t5,0x1
  48:	fc0f2023          	sw	zero,-64(t5) # 1004 <tohost+0x4>
  4c:	ff1ff06f          	j	3c <write_tohost>

00000050 <reset_vector>:
  50:	00000093          	li	ra,0
  54:	00000113          	li	sp,0
  58:	00000193          	li	gp,0
  5c:	00000213          	li	tp,0
  60:	00000293          	li	t0,0
  64:	00000313          	li	t1,0
  68:	00000393          	li	t2,0
  6c:	00000413          	li	s0,0
  70:	00000493          	li	s1,0
  74:	00000513          	li	a0,0
  78:	00000593          	li	a1,0
  7c:	00000613          	li	a2,0
  80:	00000693          	li	a3,0
  84:	00000713          	li	a4,0
  88:	00000793          	li	a5,0
  8c:	00000813          	li	a6,0
  90:	00000893          	li	a7,0
  94:	00000913          	li	s2,0
  98:	00000993          	li	s3,0
  9c:	00000a13          	li	s4,0
  a0:	00000a93          	li	s5,0
  a4:	00000b13          	li	s6,0
  a8:	00000b93          	li	s7,0
  ac:	00000c13          	li	s8,0
  b0:	00000c93          	li	s9,0
  b4:	00000d13          	li	s10,0
  b8:	00000d93          	li	s11,0
  bc:	00000e13          	li	t3,0
  c0:	00000e93          	li	t4,0
  c4:	00000f13          	li	t5,0
  c8:	00000f93          	li	t6,0
  cc:	f1402573          	csrr	a0,mhartid
  d0:	00051063          	bnez	a0,d0 <reset_vector+0x80>
  d4:	00000297          	auipc	t0,0x0
  d8:	01028293          	addi	t0,t0,16 # e4 <reset_vector+0x94>
  dc:	30529073          	csrw	mtvec,t0
  e0:	74445073          	csrwi	mnstatus,8
  e4:	00000297          	auipc	t0,0x0
  e8:	01028293          	addi	t0,t0,16 # f4 <reset_vector+0xa4>
  ec:	30529073          	csrw	mtvec,t0
  f0:	18005073          	csrwi	satp,0
  f4:	00000297          	auipc	t0,0x0
  f8:	02028293          	addi	t0,t0,32 # 114 <reset_vector+0xc4>
  fc:	30529073          	csrw	mtvec,t0
 100:	800002b7          	lui	t0,0x80000
 104:	fff28293          	addi	t0,t0,-1 # 7fffffff <_end+0x7fffde7f>
 108:	3b029073          	csrw	pmpaddr0,t0
 10c:	01f00293          	li	t0,31
 110:	3a029073          	csrw	pmpcfg0,t0
 114:	30405073          	csrwi	mie,0
 118:	00000297          	auipc	t0,0x0
 11c:	01428293          	addi	t0,t0,20 # 12c <reset_vector+0xdc>
 120:	30529073          	csrw	mtvec,t0
 124:	30205073          	csrwi	medeleg,0
 128:	30305073          	csrwi	mideleg,0
 12c:	00000193          	li	gp,0
 130:	00000297          	auipc	t0,0x0
 134:	ed428293          	addi	t0,t0,-300 # 4 <trap_vector>
 138:	30529073          	csrw	mtvec,t0
 13c:	00100513          	li	a0,1
 140:	01f51513          	slli	a0,a0,0x1f
 144:	00054c63          	bltz	a0,15c <reset_vector+0x10c>
 148:	0ff0000f          	fence
 14c:	00100193          	li	gp,1
 150:	05d00893          	li	a7,93
 154:	00000513          	li	a0,0
 158:	00000073          	ecall
 15c:	00000293          	li	t0,0
 160:	00028a63          	beqz	t0,174 <reset_vector+0x124>
 164:	10529073          	csrw	stvec,t0
 168:	0000b2b7          	lui	t0,0xb
 16c:	10928293          	addi	t0,t0,265 # b109 <_end+0x8f89>
 170:	30229073          	csrw	medeleg,t0
 174:	30005073          	csrwi	mstatus,0
 178:	00002537          	lui	a0,0x2
 17c:	30052073          	csrs	mstatus,a0
 180:	00305073          	csrwi	fcsr,0
 184:	00000297          	auipc	t0,0x0
 188:	01428293          	addi	t0,t0,20 # 198 <test_2>
 18c:	34129073          	csrw	mepc,t0
 190:	f1402573          	csrr	a0,mhartid
 194:	30200073          	mret

00000198 <test_2>:
 198:	00200193          	li	gp,2
 19c:	00002517          	auipc	a0,0x2
 1a0:	e6450513          	addi	a0,a0,-412 # 2000 <test_2_data>
 1a4:	00053507          	fld	fa0,0(a0)
 1a8:	00853587          	fld	fa1,8(a0)
 1ac:	01053607          	fld	fa2,16(a0)
 1b0:	01852683          	lw	a3,24(a0)
 1b4:	01c52303          	lw	t1,28(a0)
 1b8:	62b576c3          	fmadd.d	fa3,fa0,fa1,fa2
 1bc:	00d53027          	fsd	fa3,0(a0)
 1c0:	00452383          	lw	t2,4(a0)
 1c4:	00052503          	lw	a0,0(a0)
 1c8:	001015f3          	fsflags	a1,zero
 1cc:	00000613          	li	a2,0
 1d0:	2ed51e63          	bne	a0,a3,4cc <fail>
 1d4:	2e731c63          	bne	t1,t2,4cc <fail>
 1d8:	2ec59a63          	bne	a1,a2,4cc <fail>

000001dc <test_3>:
 1dc:	00300193          	li	gp,3
 1e0:	00002517          	auipc	a0,0x2
 1e4:	e4050513          	addi	a0,a0,-448 # 2020 <test_3_data>
 1e8:	00053507          	fld	fa0,0(a0)
 1ec:	00853587          	fld	fa1,8(a0)
 1f0:	01053607          	fld	fa2,16(a0)
 1f4:	01852683          	lw	a3,24(a0)
 1f8:	01c52303          	lw	t1,28(a0)
 1fc:	62b576c3          	fmadd.d	fa3,fa0,fa1,fa2
 200:	00d53027          	fsd	fa3,0(a0)
 204:	00452383          	lw	t2,4(a0)
 208:	00052503          	lw	a0,0(a0)
 20c:	001015f3          	fsflags	a1,zero
 210:	00100613          	li	a2,1
 214:	2ad51c63          	bne	a0,a3,4cc <fail>
 218:	2a731a63          	bne	t1,t2,4cc <fail>
 21c:	2ac59863          	bne	a1,a2,4cc <fail>

00000220 <test_4>:
 220:	00400193          	li	gp,4
 224:	00002517          	auipc	a0,0x2
 228:	e1c50513          	addi	a0,a0,-484 # 2040 <test_4_data>
 22c:	00053507          	fld	fa0,0(a0)
 230:	00853587          	fld	fa1,8(a0)
 234:	01053607          	fld	fa2,16(a0)
 238:	01852683          	lw	a3,24(a0)
 23c:	01c52303          	lw	t1,28(a0)
 240:	62b576c3          	fmadd.d	fa3,fa0,fa1,fa2
 244:	00d53027          	fsd	fa3,0(a0)
 248:	00452383          	lw	t2,4(a0)
 24c:	00052503          	lw	a0,0(a0)
 250:	001015f3          	fsflags	a1,zero
 254:	00000613          	li	a2,0
 258:	26d51a63          	bne	a0,a3,4cc <fail>
 25c:	26731863          	bne	t1,t2,4cc <fail>
 260:	26c59663          	bne	a1,a2,4cc <fail>

00000264 <test_5>:
 264:	00500193          	li	gp,5
 268:	00002517          	auipc	a0,0x2
 26c:	df850513          	addi	a0,a0,-520 # 2060 <test_5_data>
 270:	00053507          	fld	fa0,0(a0)
 274:	00853587          	fld	fa1,8(a0)
 278:	01053607          	fld	fa2,16(a0)
 27c:	01852683          	lw	a3,24(a0)
 280:	01c52303          	lw	t1,28(a0)
 284:	62b576cf          	fnmadd.d	fa3,fa0,fa1,fa2
 288:	00d53027          	fsd	fa3,0(a0)
 28c:	00452383          	lw	t2,4(a0)
 290:	00052503          	lw	a0,0(a0)
 294:	001015f3          	fsflags	a1,zero
 298:	00000613          	li	a2,0
 29c:	22d51863          	bne	a0,a3,4cc <fail>
 2a0:	22731663          	bne	t1,t2,4cc <fail>
 2a4:	22c59463          	bne	a1,a2,4cc <fail>

000002a8 <test_6>:
 2a8:	00600193          	li	gp,6
 2ac:	00002517          	auipc	a0,0x2
 2b0:	dd450513          	addi	a0,a0,-556 # 2080 <test_6_data>
 2b4:	00053507          	fld	fa0,0(a0)
 2b8:	00853587          	fld	fa1,8(a0)
 2bc:	01053607          	fld	fa2,16(a0)
 2c0:	01852683          	lw	a3,24(a0)
 2c4:	01c52303          	lw	t1,28(a0)
 2c8:	62b576cf          	fnmadd.d	fa3,fa0,fa1,fa2
 2cc:	00d53027          	fsd	fa3,0(a0)
 2d0:	00452383          	lw	t2,4(a0)
 2d4:	00052503          	lw	a0,0(a0)
 2d8:	001015f3          	fsflags	a1,zero
 2dc:	00100613          	li	a2,1
 2e0:	1ed51663          	bne	a0,a3,4cc <fail>
 2e4:	1e731463          	bne	t1,t2,4cc <fail>
 2e8:	1ec59263          	bne	a1,a2,4cc <fail>

000002ec <test_7>:
 2ec:	00700193          	li	gp,7
 2f0:	00002517          	auipc	a0,0x2
 2f4:	db050513          	addi	a0,a0,-592 # 20a0 <test_7_data>
 2f8:	00053507          	fld	fa0,0(a0)
 2fc:	00853587          	fld	fa1,8(a0)
 300:	01053607          	fld	fa2,16(a0)
 304:	01852683          	lw	a3,24(a0)
 308:	01c52303          	lw	t1,28(a0)
 30c:	62b576cf          	fnmadd.d	fa3,fa0,fa1,fa2
 310:	00d53027          	fsd	fa3,0(a0)
 314:	00452383          	lw	t2,4(a0)
 318:	00052503          	lw	a0,0(a0)
 31c:	001015f3          	fsflags	a1,zero
 320:	00000613          	li	a2,0
 324:	1ad51463          	bne	a0,a3,4cc <fail>
 328:	1a731263          	bne	t1,t2,4cc <fail>
 32c:	1ac59063          	bne	a1,a2,4cc <fail>

00000330 <test_8>:
 330:	00800193          	li	gp,8
 334:	00002517          	auipc	a0,0x2
 338:	d8c50513          	addi	a0,a0,-628 # 20c0 <test_8_data>
 33c:	00053507          	fld	fa0,0(a0)
 340:	00853587          	fld	fa1,8(a0)
 344:	01053607          	fld	fa2,16(a0)
 348:	01852683          	lw	a3,24(a0)
 34c:	01c52303          	lw	t1,28(a0)
 350:	62b576c7          	fmsub.d	fa3,fa0,fa1,fa2
 354:	00d53027          	fsd	fa3,0(a0)
 358:	00452383          	lw	t2,4(a0)
 35c:	00052503          	lw	a0,0(a0)
 360:	001015f3          	fsflags	a1,zero
 364:	00000613          	li	a2,0
 368:	16d51263          	bne	a0,a3,4cc <fail>
 36c:	16731063          	bne	t1,t2,4cc <fail>
 370:	14c59e63          	bne	a1,a2,4cc <fail>

00000374 <test_9>:
 374:	00900193          	li	gp,9
 378:	00002517          	auipc	a0,0x2
 37c:	d6850513          	addi	a0,a0,-664 # 20e0 <test_9_data>
 380:	00053507          	fld	fa0,0(a0)
 384:	00853587          	fld	fa1,8(a0)
 388:	01053607          	fld	fa2,16(a0)
 38c:	01852683          	lw	a3,24(a0)
 390:	01c52303          	lw	t1,28(a0)
 394:	62b576c7          	fmsub.d	fa3,fa0,fa1,fa2
 398:	00d53027          	fsd	fa3,0(a0)
 39c:	00452383          	lw	t2,4(a0)
 3a0:	00052503          	lw	a0,0(a0)
 3a4:	001015f3          	fsflags	a1,zero
 3a8:	00100613          	li	a2,1
 3ac:	12d51063          	bne	a0,a3,4cc <fail>
 3b0:	10731e63          	bne	t1,t2,4cc <fail>
 3b4:	10c59c63          	bne	a1,a2,4cc <fail>

000003b8 <test_10>:
 3b8:	00a00193          	li	gp,10
 3bc:	00002517          	auipc	a0,0x2
 3c0:	d4450513          	addi	a0,a0,-700 # 2100 <test_10_data>
 3c4:	00053507          	fld	fa0,0(a0)
 3c8:	00853587          	fld	fa1,8(a0)
 3cc:	01053607          	fld	fa2,16(a0)
 3d0:	01852683          	lw	a3,24(a0)
 3d4:	01c52303          	lw	t1,28(a0)
 3d8:	62b576c7          	fmsub.d	fa3,fa0,fa1,fa2
 3dc:	00d53027          	fsd	fa3,0(a0)
 3e0:	00452383          	lw	t2,4(a0)
 3e4:	00052503          	lw	a0,0(a0)
 3e8:	001015f3          	fsflags	a1,zero
 3ec:	00000613          	li	a2,0
 3f0:	0cd51e63          	bne	a0,a3,4cc <fail>
 3f4:	0c731c63          	bne	t1,t2,4cc <fail>
 3f8:	0cc59a63          	bne	a1,a2,4cc <fail>

000003fc <test_11>:
 3fc:	00b00193          	li	gp,11
 400:	00002517          	auipc	a0,0x2
 404:	d2050513          	addi	a0,a0,-736 # 2120 <test_11_data>
 408:	00053507          	fld	fa0,0(a0)
 40c:	00853587          	fld	fa1,8(a0)
 410:	01053607          	fld	fa2,16(a0)
 414:	01852683          	lw	a3,24(a0)
 418:	01c52303          	lw	t1,28(a0)
 41c:	62b576cb          	fnmsub.d	fa3,fa0,fa1,fa2
 420:	00d53027          	fsd	fa3,0(a0)
 424:	00452383          	lw	t2,4(a0)
 428:	00052503          	lw	a0,0(a0)
 42c:	001015f3          	fsflags	a1,zero
 430:	00000613          	li	a2,0
 434:	08d51c63          	bne	a0,a3,4cc <fail>
 438:	08731a63          	bne	t1,t2,4cc <fail>
 43c:	08c59863          	bne	a1,a2,4cc <fail>

00000440 <test_12>:
 440:	00c00193          	li	gp,12
 444:	00002517          	auipc	a0,0x2
 448:	cfc50513          	addi	a0,a0,-772 # 2140 <test_12_data>
 44c:	00053507          	fld	fa0,0(a0)
 450:	00853587          	fld	fa1,8(a0)
 454:	01053607          	fld	fa2,16(a0)
 458:	01852683          	lw	a3,24(a0)
 45c:	01c52303          	lw	t1,28(a0)
 460:	62b576cb          	fnmsub.d	fa3,fa0,fa1,fa2
 464:	00d53027          	fsd	fa3,0(a0)
 468:	00452383          	lw	t2,4(a0)
 46c:	00052503          	lw	a0,0(a0)
 470:	001015f3          	fsflags	a1,zero
 474:	00100613          	li	a2,1
 478:	04d51a63          	bne	a0,a3,4cc <fail>
 47c:	04731863          	bne	t1,t2,4cc <fail>
 480:	04c59663          	bne	a1,a2,4cc <fail>

00000484 <test_13>:
 484:	00d00193          	li	gp,13
 488:	00002517          	auipc	a0,0x2
 48c:	cd850513          	addi	a0,a0,-808 # 2160 <test_13_data>
 490:	00053507          	fld	fa0,0(a0)
 494:	00853587          	fld	fa1,8(a0)
 498:	01053607          	fld	fa2,16(a0)
 49c:	01852683          	lw	a3,24(a0)
 4a0:	01c52303          	lw	t1,28(a0)
 4a4:	62b576cb          	fnmsub.d	fa3,fa0,fa1,fa2
 4a8:	00d53027          	fsd	fa3,0(a0)
 4ac:	00452383          	lw	t2,4(a0)
 4b0:	00052503          	lw	a0,0(a0)
 4b4:	001015f3          	fsflags	a1,zero
 4b8:	00000613          	li	a2,0
 4bc:	00d51863          	bne	a0,a3,4cc <fail>
 4c0:	00731663          	bne	t1,t2,4cc <fail>
 4c4:	00c59463          	bne	a1,a2,4cc <fail>
 4c8:	02301063          	bne	zero,gp,4e8 <pass>

000004cc <fail>:
 4cc:	0ff0000f          	fence
 4d0:	00018063          	beqz	gp,4d0 <fail+0x4>
 4d4:	00119193          	slli	gp,gp,0x1
 4d8:	0011e193          	ori	gp,gp,1
 4dc:	05d00893          	li	a7,93
 4e0:	00018513          	mv	a0,gp
 4e4:	00000073          	ecall

000004e8 <pass>:
 4e8:	0ff0000f          	fence
 4ec:	00100193          	li	gp,1
 4f0:	05d00893          	li	a7,93
 4f4:	00000513          	li	a0,0
 4f8:	00000073          	ecall
 4fc:	c0001073          	unimp
 500:	00000013          	nop
 504:	00000013          	nop
 508:	00000013          	nop
 50c:	00000013          	nop
 510:	00000013          	nop
 514:	00000013          	nop
 518:	00000013          	nop
 51c:	00000013          	nop
 520:	00000013          	nop
 524:	00000013          	nop
 528:	00000013          	nop
 52c:	00000013          	nop
 530:	00000013          	nop
 534:	00000013          	nop
 538:	00000013          	nop

セクション .data の逆アセンブル:

00002000 <test_2_data>:
    2000:	0000                	.insn	2, 0x0000
    2002:	0000                	.insn	2, 0x0000
    2004:	0000                	.insn	2, 0x0000
    2006:	3ff0                	.insn	2, 0x3ff0
    2008:	0000                	.insn	2, 0x0000
    200a:	0000                	.insn	2, 0x0000
    200c:	0000                	.insn	2, 0x0000
    200e:	4004                	.insn	2, 0x4004
    2010:	0000                	.insn	2, 0x0000
    2012:	0000                	.insn	2, 0x0000
    2014:	0000                	.insn	2, 0x0000
    2016:	3ff0                	.insn	2, 0x3ff0
    2018:	0000                	.insn	2, 0x0000
    201a:	0000                	.insn	2, 0x0000
    201c:	0000                	.insn	2, 0x0000
    201e:	400c                	.insn	2, 0x400c

00002020 <test_3_data>:
    2020:	0000                	.insn	2, 0x0000
    2022:	0000                	.insn	2, 0x0000
    2024:	0000                	.insn	2, 0x0000
    2026:	bff0                	.insn	2, 0xbff0
    2028:	6666                	.insn	2, 0x6666
    202a:	6666                	.insn	2, 0x6666
    202c:	4c66                	.insn	2, 0x4c66
    202e:	999ac093          	xori	ra,s5,-1639
    2032:	9999                	.insn	2, 0x9999
    2034:	9999                	.insn	2, 0x9999
    2036:	3ff1                	.insn	2, 0x3ff1
    2038:	cccc                	.insn	2, 0xcccc
    203a:	cccc                	.insn	2, 0xcccc
    203c:	50cc                	.insn	2, 0x50cc
    203e:	          	xori	ra,zero,0

00002040 <test_4_data>:
    2040:	0000                	.insn	2, 0x0000
    2042:	0000                	.insn	2, 0x0000
    2044:	0000                	.insn	2, 0x0000
    2046:	4000                	.insn	2, 0x4000
    2048:	0000                	.insn	2, 0x0000
    204a:	0000                	.insn	2, 0x0000
    204c:	0000                	.insn	2, 0x0000
    204e:	c014                	.insn	2, 0xc014
    2050:	0000                	.insn	2, 0x0000
    2052:	0000                	.insn	2, 0x0000
    2054:	0000                	.insn	2, 0x0000
    2056:	c000                	.insn	2, 0xc000
    2058:	0000                	.insn	2, 0x0000
    205a:	0000                	.insn	2, 0x0000
    205c:	0000                	.insn	2, 0x0000
    205e:	c028                	.insn	2, 0xc028

00002060 <test_5_data>:
    2060:	0000                	.insn	2, 0x0000
    2062:	0000                	.insn	2, 0x0000
    2064:	0000                	.insn	2, 0x0000
    2066:	3ff0                	.insn	2, 0x3ff0
    2068:	0000                	.insn	2, 0x0000
    206a:	0000                	.insn	2, 0x0000
    206c:	0000                	.insn	2, 0x0000
    206e:	4004                	.insn	2, 0x4004
    2070:	0000                	.insn	2, 0x0000
    2072:	0000                	.insn	2, 0x0000
    2074:	0000                	.insn	2, 0x0000
    2076:	3ff0                	.insn	2, 0x3ff0
    2078:	0000                	.insn	2, 0x0000
    207a:	0000                	.insn	2, 0x0000
    207c:	0000                	.insn	2, 0x0000
    207e:	c00c                	.insn	2, 0xc00c

00002080 <test_6_data>:
    2080:	0000                	.insn	2, 0x0000
    2082:	0000                	.insn	2, 0x0000
    2084:	0000                	.insn	2, 0x0000
    2086:	bff0                	.insn	2, 0xbff0
    2088:	6666                	.insn	2, 0x6666
    208a:	6666                	.insn	2, 0x6666
    208c:	4c66                	.insn	2, 0x4c66
    208e:	999ac093          	xori	ra,s5,-1639
    2092:	9999                	.insn	2, 0x9999
    2094:	9999                	.insn	2, 0x9999
    2096:	3ff1                	.insn	2, 0x3ff1
    2098:	cccc                	.insn	2, 0xcccc
    209a:	cccc                	.insn	2, 0xcccc
    209c:	50cc                	.insn	2, 0x50cc
    209e:	          	xori	ra,ra,0

000020a0 <test_7_data>:
    20a0:	0000                	.insn	2, 0x0000
    20a2:	0000                	.insn	2, 0x0000
    20a4:	0000                	.insn	2, 0x0000
    20a6:	4000                	.insn	2, 0x4000
    20a8:	0000                	.insn	2, 0x0000
    20aa:	0000                	.insn	2, 0x0000
    20ac:	0000                	.insn	2, 0x0000
    20ae:	c014                	.insn	2, 0xc014
    20b0:	0000                	.insn	2, 0x0000
    20b2:	0000                	.insn	2, 0x0000
    20b4:	0000                	.insn	2, 0x0000
    20b6:	c000                	.insn	2, 0xc000
    20b8:	0000                	.insn	2, 0x0000
    20ba:	0000                	.insn	2, 0x0000
    20bc:	0000                	.insn	2, 0x0000
    20be:	4028                	.insn	2, 0x4028

000020c0 <test_8_data>:
    20c0:	0000                	.insn	2, 0x0000
    20c2:	0000                	.insn	2, 0x0000
    20c4:	0000                	.insn	2, 0x0000
    20c6:	3ff0                	.insn	2, 0x3ff0
    20c8:	0000                	.insn	2, 0x0000
    20ca:	0000                	.insn	2, 0x0000
    20cc:	0000                	.insn	2, 0x0000
    20ce:	4004                	.insn	2, 0x4004
    20d0:	0000                	.insn	2, 0x0000
    20d2:	0000                	.insn	2, 0x0000
    20d4:	0000                	.insn	2, 0x0000
    20d6:	3ff0                	.insn	2, 0x3ff0
    20d8:	0000                	.insn	2, 0x0000
    20da:	0000                	.insn	2, 0x0000
    20dc:	0000                	.insn	2, 0x0000
    20de:	3ff8                	.insn	2, 0x3ff8

000020e0 <test_9_data>:
    20e0:	0000                	.insn	2, 0x0000
    20e2:	0000                	.insn	2, 0x0000
    20e4:	0000                	.insn	2, 0x0000
    20e6:	bff0                	.insn	2, 0xbff0
    20e8:	6666                	.insn	2, 0x6666
    20ea:	6666                	.insn	2, 0x6666
    20ec:	4c66                	.insn	2, 0x4c66
    20ee:	999ac093          	xori	ra,s5,-1639
    20f2:	9999                	.insn	2, 0x9999
    20f4:	9999                	.insn	2, 0x9999
    20f6:	3ff1                	.insn	2, 0x3ff1
    20f8:	0000                	.insn	2, 0x0000
    20fa:	0000                	.insn	2, 0x0000
    20fc:	4800                	.insn	2, 0x4800
    20fe:	          	xori	ra,zero,0

00002100 <test_10_data>:
    2100:	0000                	.insn	2, 0x0000
    2102:	0000                	.insn	2, 0x0000
    2104:	0000                	.insn	2, 0x0000
    2106:	4000                	.insn	2, 0x4000
    2108:	0000                	.insn	2, 0x0000
    210a:	0000                	.insn	2, 0x0000
    210c:	0000                	.insn	2, 0x0000
    210e:	c014                	.insn	2, 0xc014
    2110:	0000                	.insn	2, 0x0000
    2112:	0000                	.insn	2, 0x0000
    2114:	0000                	.insn	2, 0x0000
    2116:	c000                	.insn	2, 0xc000
    2118:	0000                	.insn	2, 0x0000
    211a:	0000                	.insn	2, 0x0000
    211c:	0000                	.insn	2, 0x0000
    211e:	c020                	.insn	2, 0xc020

00002120 <test_11_data>:
    2120:	0000                	.insn	2, 0x0000
    2122:	0000                	.insn	2, 0x0000
    2124:	0000                	.insn	2, 0x0000
    2126:	3ff0                	.insn	2, 0x3ff0
    2128:	0000                	.insn	2, 0x0000
    212a:	0000                	.insn	2, 0x0000
    212c:	0000                	.insn	2, 0x0000
    212e:	4004                	.insn	2, 0x4004
    2130:	0000                	.insn	2, 0x0000
    2132:	0000                	.insn	2, 0x0000
    2134:	0000                	.insn	2, 0x0000
    2136:	3ff0                	.insn	2, 0x3ff0
    2138:	0000                	.insn	2, 0x0000
    213a:	0000                	.insn	2, 0x0000
    213c:	0000                	.insn	2, 0x0000
    213e:	bff8                	.insn	2, 0xbff8

00002140 <test_12_data>:
    2140:	0000                	.insn	2, 0x0000
    2142:	0000                	.insn	2, 0x0000
    2144:	0000                	.insn	2, 0x0000
    2146:	bff0                	.insn	2, 0xbff0
    2148:	6666                	.insn	2, 0x6666
    214a:	6666                	.insn	2, 0x6666
    214c:	4c66                	.insn	2, 0x4c66
    214e:	999ac093          	xori	ra,s5,-1639
    2152:	9999                	.insn	2, 0x9999
    2154:	9999                	.insn	2, 0x9999
    2156:	3ff1                	.insn	2, 0x3ff1
    2158:	0000                	.insn	2, 0x0000
    215a:	0000                	.insn	2, 0x0000
    215c:	4800                	.insn	2, 0x4800
    215e:	          	xori	ra,ra,0

00002160 <test_13_data>:
    2160:	0000                	.insn	2, 0x0000
    2162:	0000                	.insn	2, 0x0000
    2164:	0000                	.insn	2, 0x0000
    2166:	4000                	.insn	2, 0x4000
    2168:	0000                	.insn	2, 0x0000
    216a:	0000                	.insn	2, 0x0000
    216c:	0000                	.insn	2, 0x0000
    216e:	c014                	.insn	2, 0xc014
    2170:	0000                	.insn	2, 0x0000
    2172:	0000                	.insn	2, 0x0000
    2174:	0000                	.insn	2, 0x0000
    2176:	c000                	.insn	2, 0xc000
    2178:	0000                	.insn	2, 0x0000
    217a:	0000                	.insn	2, 0x0000
    217c:	0000                	.insn	2, 0x0000
    217e:	4020                	.insn	2, 0x4020
