
rv32uzbb-p-cpop:     ファイル形式 elf32-littleriscv


セクション .text.init の逆アセンブル:

00000000 <_start>:
   0:	0500006f          	j	50 <reset_vector>

00000004 <trap_vector>:
   4:	34202f73          	csrr	t5,mcause
   8:	00800f93          	li	t6,8
   c:	03ff0863          	beq	t5,t6,3c <write_tohost>
  10:	00900f93          	li	t6,9
  14:	03ff0463          	beq	t5,t6,3c <write_tohost>
  18:	00b00f93          	li	t6,11
  1c:	03ff0063          	beq	t5,t6,3c <write_tohost>
  20:	00000f13          	li	t5,0
  24:	000f0463          	beqz	t5,2c <trap_vector+0x28>
  28:	000f0067          	jr	t5
  2c:	34202f73          	csrr	t5,mcause
  30:	000f5463          	bgez	t5,38 <handle_exception>
  34:	0040006f          	j	38 <handle_exception>

00000038 <handle_exception>:
  38:	5391e193          	ori	gp,gp,1337

0000003c <write_tohost>:
  3c:	00001f17          	auipc	t5,0x1
  40:	fc3f2223          	sw	gp,-60(t5) # 1000 <tohost>
  44:	00001f17          	auipc	t5,0x1
  48:	fc0f2023          	sw	zero,-64(t5) # 1004 <tohost+0x4>
  4c:	ff1ff06f          	j	3c <write_tohost>

00000050 <reset_vector>:
  50:	00000093          	li	ra,0
  54:	00000113          	li	sp,0
  58:	00000193          	li	gp,0
  5c:	00000213          	li	tp,0
  60:	00000293          	li	t0,0
  64:	00000313          	li	t1,0
  68:	00000393          	li	t2,0
  6c:	00000413          	li	s0,0
  70:	00000493          	li	s1,0
  74:	00000513          	li	a0,0
  78:	00000593          	li	a1,0
  7c:	00000613          	li	a2,0
  80:	00000693          	li	a3,0
  84:	00000713          	li	a4,0
  88:	00000793          	li	a5,0
  8c:	00000813          	li	a6,0
  90:	00000893          	li	a7,0
  94:	00000913          	li	s2,0
  98:	00000993          	li	s3,0
  9c:	00000a13          	li	s4,0
  a0:	00000a93          	li	s5,0
  a4:	00000b13          	li	s6,0
  a8:	00000b93          	li	s7,0
  ac:	00000c13          	li	s8,0
  b0:	00000c93          	li	s9,0
  b4:	00000d13          	li	s10,0
  b8:	00000d93          	li	s11,0
  bc:	00000e13          	li	t3,0
  c0:	00000e93          	li	t4,0
  c4:	00000f13          	li	t5,0
  c8:	00000f93          	li	t6,0
  cc:	f1402573          	csrr	a0,mhartid
  d0:	00051063          	bnez	a0,d0 <reset_vector+0x80>
  d4:	00000297          	auipc	t0,0x0
  d8:	01028293          	addi	t0,t0,16 # e4 <reset_vector+0x94>
  dc:	30529073          	csrw	mtvec,t0
  e0:	74445073          	csrwi	mnstatus,8
  e4:	00000297          	auipc	t0,0x0
  e8:	01028293          	addi	t0,t0,16 # f4 <reset_vector+0xa4>
  ec:	30529073          	csrw	mtvec,t0
  f0:	18005073          	csrwi	satp,0
  f4:	00000297          	auipc	t0,0x0
  f8:	02028293          	addi	t0,t0,32 # 114 <reset_vector+0xc4>
  fc:	30529073          	csrw	mtvec,t0
 100:	800002b7          	lui	t0,0x80000
 104:	fff28293          	addi	t0,t0,-1 # 7fffffff <_end+0x7fffdfff>
 108:	3b029073          	csrw	pmpaddr0,t0
 10c:	01f00293          	li	t0,31
 110:	3a029073          	csrw	pmpcfg0,t0
 114:	30405073          	csrwi	mie,0
 118:	00000297          	auipc	t0,0x0
 11c:	01428293          	addi	t0,t0,20 # 12c <reset_vector+0xdc>
 120:	30529073          	csrw	mtvec,t0
 124:	30205073          	csrwi	medeleg,0
 128:	30305073          	csrwi	mideleg,0
 12c:	00000193          	li	gp,0
 130:	00000297          	auipc	t0,0x0
 134:	ed428293          	addi	t0,t0,-300 # 4 <trap_vector>
 138:	30529073          	csrw	mtvec,t0
 13c:	00100513          	li	a0,1
 140:	01f51513          	slli	a0,a0,0x1f
 144:	00054c63          	bltz	a0,15c <reset_vector+0x10c>
 148:	0ff0000f          	fence
 14c:	00100193          	li	gp,1
 150:	05d00893          	li	a7,93
 154:	00000513          	li	a0,0
 158:	00000073          	ecall
 15c:	00000293          	li	t0,0
 160:	00028a63          	beqz	t0,174 <reset_vector+0x124>
 164:	10529073          	csrw	stvec,t0
 168:	0000b2b7          	lui	t0,0xb
 16c:	10928293          	addi	t0,t0,265 # b109 <_end+0x9109>
 170:	30229073          	csrw	medeleg,t0
 174:	30005073          	csrwi	mstatus,0
 178:	00000297          	auipc	t0,0x0
 17c:	01428293          	addi	t0,t0,20 # 18c <test_2>
 180:	34129073          	csrw	mepc,t0
 184:	f1402573          	csrr	a0,mhartid
 188:	30200073          	mret

0000018c <test_2>:
 18c:	00200193          	li	gp,2
 190:	00000093          	li	ra,0
 194:	60209713          	cpop	a4,ra
 198:	00000393          	li	t2,0
 19c:	24771663          	bne	a4,t2,3e8 <fail>

000001a0 <test_3>:
 1a0:	00300193          	li	gp,3
 1a4:	00100093          	li	ra,1
 1a8:	60209713          	cpop	a4,ra
 1ac:	00100393          	li	t2,1
 1b0:	22771c63          	bne	a4,t2,3e8 <fail>

000001b4 <test_4>:
 1b4:	00400193          	li	gp,4
 1b8:	00300093          	li	ra,3
 1bc:	60209713          	cpop	a4,ra
 1c0:	00200393          	li	t2,2
 1c4:	22771263          	bne	a4,t2,3e8 <fail>

000001c8 <test_5>:
 1c8:	00500193          	li	gp,5
 1cc:	ffff80b7          	lui	ra,0xffff8
 1d0:	60209713          	cpop	a4,ra
 1d4:	01100393          	li	t2,17
 1d8:	20771863          	bne	a4,t2,3e8 <fail>

000001dc <test_6>:
 1dc:	00600193          	li	gp,6
 1e0:	008000b7          	lui	ra,0x800
 1e4:	60209713          	cpop	a4,ra
 1e8:	00100393          	li	t2,1
 1ec:	1e771e63          	bne	a4,t2,3e8 <fail>

000001f0 <test_7>:
 1f0:	00700193          	li	gp,7
 1f4:	ffff60b7          	lui	ra,0xffff6
 1f8:	60209713          	cpop	a4,ra
 1fc:	01200393          	li	t2,18
 200:	1e771463          	bne	a4,t2,3e8 <fail>

00000204 <test_8>:
 204:	00800193          	li	gp,8
 208:	000080b7          	lui	ra,0x8
 20c:	fff08093          	addi	ra,ra,-1 # 7fff <_end+0x5fff>
 210:	60209713          	cpop	a4,ra
 214:	00f00393          	li	t2,15
 218:	1c771863          	bne	a4,t2,3e8 <fail>

0000021c <test_9>:
 21c:	00900193          	li	gp,9
 220:	800000b7          	lui	ra,0x80000
 224:	fff08093          	addi	ra,ra,-1 # 7fffffff <_end+0x7fffdfff>
 228:	60209713          	cpop	a4,ra
 22c:	01f00393          	li	t2,31
 230:	1a771c63          	bne	a4,t2,3e8 <fail>

00000234 <test_10>:
 234:	00a00193          	li	gp,10
 238:	000800b7          	lui	ra,0x80
 23c:	fff08093          	addi	ra,ra,-1 # 7ffff <_end+0x7dfff>
 240:	60209713          	cpop	a4,ra
 244:	01300393          	li	t2,19
 248:	1a771063          	bne	a4,t2,3e8 <fail>

0000024c <test_11>:
 24c:	00b00193          	li	gp,11
 250:	800000b7          	lui	ra,0x80000
 254:	60209713          	cpop	a4,ra
 258:	00100393          	li	t2,1
 25c:	18771663          	bne	a4,t2,3e8 <fail>

00000260 <test_12>:
 260:	00c00193          	li	gp,12
 264:	121f50b7          	lui	ra,0x121f5
 268:	60209713          	cpop	a4,ra
 26c:	00900393          	li	t2,9
 270:	16771c63          	bne	a4,t2,3e8 <fail>

00000274 <test_13>:
 274:	00d00193          	li	gp,13
 278:	00000093          	li	ra,0
 27c:	60209713          	cpop	a4,ra
 280:	00000393          	li	t2,0
 284:	16771263          	bne	a4,t2,3e8 <fail>

00000288 <test_14>:
 288:	00e00193          	li	gp,14
 28c:	00e00093          	li	ra,14
 290:	60209713          	cpop	a4,ra
 294:	00300393          	li	t2,3
 298:	14771863          	bne	a4,t2,3e8 <fail>

0000029c <test_15>:
 29c:	00f00193          	li	gp,15
 2a0:	204010b7          	lui	ra,0x20401
 2a4:	34108093          	addi	ra,ra,833 # 20401341 <_end+0x203ff341>
 2a8:	60209713          	cpop	a4,ra
 2ac:	00700393          	li	t2,7
 2b0:	12771c63          	bne	a4,t2,3e8 <fail>

000002b4 <test_16>:
 2b4:	01000193          	li	gp,16
 2b8:	00d00093          	li	ra,13
 2bc:	60209093          	cpop	ra,ra
 2c0:	00300393          	li	t2,3
 2c4:	12709263          	bne	ra,t2,3e8 <fail>

000002c8 <test_17>:
 2c8:	01100193          	li	gp,17
 2cc:	00b00093          	li	ra,11
 2d0:	60209093          	cpop	ra,ra
 2d4:	00300393          	li	t2,3
 2d8:	10709863          	bne	ra,t2,3e8 <fail>

000002dc <test_18>:
 2dc:	01200193          	li	gp,18
 2e0:	00000213          	li	tp,0
 2e4:	00d00093          	li	ra,13
 2e8:	60209713          	cpop	a4,ra
 2ec:	00070313          	mv	t1,a4
 2f0:	00120213          	addi	tp,tp,1 # 1 <_start+0x1>
 2f4:	00200293          	li	t0,2
 2f8:	fe5216e3          	bne	tp,t0,2e4 <test_18+0x8>
 2fc:	00300393          	li	t2,3
 300:	0e731463          	bne	t1,t2,3e8 <fail>

00000304 <test_29>:
 304:	01d00193          	li	gp,29
 308:	00000213          	li	tp,0
 30c:	01300093          	li	ra,19
 310:	60209713          	cpop	a4,ra
 314:	00000013          	nop
 318:	00070313          	mv	t1,a4
 31c:	00120213          	addi	tp,tp,1 # 1 <_start+0x1>
 320:	00200293          	li	t0,2
 324:	fe5214e3          	bne	tp,t0,30c <test_29+0x8>
 328:	00300393          	li	t2,3
 32c:	0a731e63          	bne	t1,t2,3e8 <fail>

00000330 <test_20>:
 330:	01400193          	li	gp,20
 334:	00000213          	li	tp,0
 338:	02200093          	li	ra,34
 33c:	60209713          	cpop	a4,ra
 340:	00000013          	nop
 344:	00000013          	nop
 348:	00070313          	mv	t1,a4
 34c:	00120213          	addi	tp,tp,1 # 1 <_start+0x1>
 350:	00200293          	li	t0,2
 354:	fe5212e3          	bne	tp,t0,338 <test_20+0x8>
 358:	00200393          	li	t2,2
 35c:	08731663          	bne	t1,t2,3e8 <fail>

00000360 <test_21>:
 360:	01500193          	li	gp,21
 364:	007f80b7          	lui	ra,0x7f8
 368:	60209713          	cpop	a4,ra
 36c:	00800393          	li	t2,8
 370:	06771c63          	bne	a4,t2,3e8 <fail>

00000374 <test_22>:
 374:	01600193          	li	gp,22
 378:	008080b7          	lui	ra,0x808
 37c:	60209713          	cpop	a4,ra
 380:	00200393          	li	t2,2
 384:	06771263          	bne	a4,t2,3e8 <fail>

00000388 <test_23>:
 388:	01700193          	li	gp,23
 38c:	018080b7          	lui	ra,0x1808
 390:	60209713          	cpop	a4,ra
 394:	00300393          	li	t2,3
 398:	04771863          	bne	a4,t2,3e8 <fail>

0000039c <test_24>:
 39c:	01800193          	li	gp,24
 3a0:	300080b7          	lui	ra,0x30008
 3a4:	fff08093          	addi	ra,ra,-1 # 30007fff <_end+0x30005fff>
 3a8:	60209713          	cpop	a4,ra
 3ac:	01100393          	li	t2,17
 3b0:	02771c63          	bne	a4,t2,3e8 <fail>

000003b4 <test_25>:
 3b4:	01900193          	li	gp,25
 3b8:	780000b7          	lui	ra,0x78000
 3bc:	fff08093          	addi	ra,ra,-1 # 77ffffff <_end+0x77ffdfff>
 3c0:	60209713          	cpop	a4,ra
 3c4:	01e00393          	li	t2,30
 3c8:	02771063          	bne	a4,t2,3e8 <fail>

000003cc <test_26>:
 3cc:	01a00193          	li	gp,26
 3d0:	000800b7          	lui	ra,0x80
 3d4:	fff08093          	addi	ra,ra,-1 # 7ffff <_end+0x7dfff>
 3d8:	60209713          	cpop	a4,ra
 3dc:	01300393          	li	t2,19
 3e0:	00771463          	bne	a4,t2,3e8 <fail>
 3e4:	02301063          	bne	zero,gp,404 <pass>

000003e8 <fail>:
 3e8:	0ff0000f          	fence
 3ec:	00018063          	beqz	gp,3ec <fail+0x4>
 3f0:	00119193          	slli	gp,gp,0x1
 3f4:	0011e193          	ori	gp,gp,1
 3f8:	05d00893          	li	a7,93
 3fc:	00018513          	mv	a0,gp
 400:	00000073          	ecall

00000404 <pass>:
 404:	0ff0000f          	fence
 408:	00100193          	li	gp,1
 40c:	05d00893          	li	a7,93
 410:	00000513          	li	a0,0
 414:	00000073          	ecall
 418:	c0001073          	unimp
 41c:	00000013          	nop
 420:	00000013          	nop
 424:	00000013          	nop
 428:	00000013          	nop
 42c:	00000013          	nop
 430:	00000013          	nop
 434:	00000013          	nop
 438:	00000013          	nop
