
rv32uzbkb-p-zip:     ファイル形式 elf32-littleriscv


セクション .text.init の逆アセンブル:

00000000 <_start>:
   0:	0500006f          	j	50 <reset_vector>

00000004 <trap_vector>:
   4:	34202f73          	csrr	t5,mcause
   8:	00800f93          	li	t6,8
   c:	03ff0863          	beq	t5,t6,3c <write_tohost>
  10:	00900f93          	li	t6,9
  14:	03ff0463          	beq	t5,t6,3c <write_tohost>
  18:	00b00f93          	li	t6,11
  1c:	03ff0063          	beq	t5,t6,3c <write_tohost>
  20:	00000f13          	li	t5,0
  24:	000f0463          	beqz	t5,2c <trap_vector+0x28>
  28:	000f0067          	jr	t5
  2c:	34202f73          	csrr	t5,mcause
  30:	000f5463          	bgez	t5,38 <handle_exception>
  34:	0040006f          	j	38 <handle_exception>

00000038 <handle_exception>:
  38:	5391e193          	ori	gp,gp,1337

0000003c <write_tohost>:
  3c:	00001f17          	auipc	t5,0x1
  40:	fc3f2223          	sw	gp,-60(t5) # 1000 <tohost>
  44:	00001f17          	auipc	t5,0x1
  48:	fc0f2023          	sw	zero,-64(t5) # 1004 <tohost+0x4>
  4c:	ff1ff06f          	j	3c <write_tohost>

00000050 <reset_vector>:
  50:	00000093          	li	ra,0
  54:	00000113          	li	sp,0
  58:	00000193          	li	gp,0
  5c:	00000213          	li	tp,0
  60:	00000293          	li	t0,0
  64:	00000313          	li	t1,0
  68:	00000393          	li	t2,0
  6c:	00000413          	li	s0,0
  70:	00000493          	li	s1,0
  74:	00000513          	li	a0,0
  78:	00000593          	li	a1,0
  7c:	00000613          	li	a2,0
  80:	00000693          	li	a3,0
  84:	00000713          	li	a4,0
  88:	00000793          	li	a5,0
  8c:	00000813          	li	a6,0
  90:	00000893          	li	a7,0
  94:	00000913          	li	s2,0
  98:	00000993          	li	s3,0
  9c:	00000a13          	li	s4,0
  a0:	00000a93          	li	s5,0
  a4:	00000b13          	li	s6,0
  a8:	00000b93          	li	s7,0
  ac:	00000c13          	li	s8,0
  b0:	00000c93          	li	s9,0
  b4:	00000d13          	li	s10,0
  b8:	00000d93          	li	s11,0
  bc:	00000e13          	li	t3,0
  c0:	00000e93          	li	t4,0
  c4:	00000f13          	li	t5,0
  c8:	00000f93          	li	t6,0
  cc:	f1402573          	csrr	a0,mhartid
  d0:	00051063          	bnez	a0,d0 <reset_vector+0x80>
  d4:	00000297          	auipc	t0,0x0
  d8:	01028293          	addi	t0,t0,16 # e4 <reset_vector+0x94>
  dc:	30529073          	csrw	mtvec,t0
  e0:	74445073          	csrwi	mnstatus,8
  e4:	00000297          	auipc	t0,0x0
  e8:	01028293          	addi	t0,t0,16 # f4 <reset_vector+0xa4>
  ec:	30529073          	csrw	mtvec,t0
  f0:	18005073          	csrwi	satp,0
  f4:	00000297          	auipc	t0,0x0
  f8:	02028293          	addi	t0,t0,32 # 114 <reset_vector+0xc4>
  fc:	30529073          	csrw	mtvec,t0
 100:	800002b7          	lui	t0,0x80000
 104:	fff28293          	addi	t0,t0,-1 # 7fffffff <_end+0x7fffdfff>
 108:	3b029073          	csrw	pmpaddr0,t0
 10c:	01f00293          	li	t0,31
 110:	3a029073          	csrw	pmpcfg0,t0
 114:	30405073          	csrwi	mie,0
 118:	00000297          	auipc	t0,0x0
 11c:	01428293          	addi	t0,t0,20 # 12c <reset_vector+0xdc>
 120:	30529073          	csrw	mtvec,t0
 124:	30205073          	csrwi	medeleg,0
 128:	30305073          	csrwi	mideleg,0
 12c:	00000193          	li	gp,0
 130:	00000297          	auipc	t0,0x0
 134:	ed428293          	addi	t0,t0,-300 # 4 <trap_vector>
 138:	30529073          	csrw	mtvec,t0
 13c:	00100513          	li	a0,1
 140:	01f51513          	slli	a0,a0,0x1f
 144:	00054c63          	bltz	a0,15c <reset_vector+0x10c>
 148:	0ff0000f          	fence
 14c:	00100193          	li	gp,1
 150:	05d00893          	li	a7,93
 154:	00000513          	li	a0,0
 158:	00000073          	ecall
 15c:	00000293          	li	t0,0
 160:	00028a63          	beqz	t0,174 <reset_vector+0x124>
 164:	10529073          	csrw	stvec,t0
 168:	0000b2b7          	lui	t0,0xb
 16c:	10928293          	addi	t0,t0,265 # b109 <_end+0x9109>
 170:	30229073          	csrw	medeleg,t0
 174:	30005073          	csrwi	mstatus,0
 178:	00000297          	auipc	t0,0x0
 17c:	01428293          	addi	t0,t0,20 # 18c <test_2>
 180:	34129073          	csrw	mepc,t0
 184:	f1402573          	csrr	a0,mhartid
 188:	30200073          	mret

0000018c <test_2>:
 18c:	00200193          	li	gp,2
 190:	000100b7          	lui	ra,0x10
 194:	fff08093          	addi	ra,ra,-1 # ffff <_end+0xdfff>
 198:	08f09713          	zip	a4,ra
 19c:	555553b7          	lui	t2,0x55555
 1a0:	55538393          	addi	t2,t2,1365 # 55555555 <_end+0x55553555>
 1a4:	34771463          	bne	a4,t2,4ec <fail>

000001a8 <test_3>:
 1a8:	00300193          	li	gp,3
 1ac:	ffff00b7          	lui	ra,0xffff0
 1b0:	08f09713          	zip	a4,ra
 1b4:	aaaab3b7          	lui	t2,0xaaaab
 1b8:	aaa38393          	addi	t2,t2,-1366 # aaaaaaaa <_end+0xaaaa8aaa>
 1bc:	32771863          	bne	a4,t2,4ec <fail>

000001c0 <test_4>:
 1c0:	00400193          	li	gp,4
 1c4:	00000093          	li	ra,0
 1c8:	08f09713          	zip	a4,ra
 1cc:	00000393          	li	t2,0
 1d0:	30771e63          	bne	a4,t2,4ec <fail>

000001d4 <test_5>:
 1d4:	00500193          	li	gp,5
 1d8:	fff00093          	li	ra,-1
 1dc:	08f09713          	zip	a4,ra
 1e0:	fff00393          	li	t2,-1
 1e4:	30771463          	bne	a4,t2,4ec <fail>

000001e8 <test_6>:
 1e8:	00600193          	li	gp,6
 1ec:	aaaa50b7          	lui	ra,0xaaaa5
 1f0:	55508093          	addi	ra,ra,1365 # aaaa5555 <_end+0xaaaa3555>
 1f4:	08f09713          	zip	a4,ra
 1f8:	9999a3b7          	lui	t2,0x9999a
 1fc:	99938393          	addi	t2,t2,-1639 # 99999999 <_end+0x99997999>
 200:	2e771663          	bne	a4,t2,4ec <fail>

00000204 <test_7>:
 204:	00700193          	li	gp,7
 208:	0f0f10b7          	lui	ra,0xf0f1
 20c:	f0f08093          	addi	ra,ra,-241 # f0f0f0f <_end+0xf0eef0f>
 210:	08f09713          	zip	a4,ra
 214:	00ff03b7          	lui	t2,0xff0
 218:	0ff38393          	addi	t2,t2,255 # ff00ff <_end+0xfee0ff>
 21c:	2c771863          	bne	a4,t2,4ec <fail>

00000220 <test_8>:
 220:	00800193          	li	gp,8
 224:	beffe0b7          	lui	ra,0xbeffe
 228:	36b08093          	addi	ra,ra,875 # beffe36b <_end+0xbeffc36b>
 22c:	08f09713          	zip	a4,ra
 230:	deadc3b7          	lui	t2,0xdeadc
 234:	eef38393          	addi	t2,t2,-273 # deadbeef <_end+0xdead9eef>
 238:	2a771a63          	bne	a4,t2,4ec <fail>

0000023c <test_11>:
 23c:	00b00193          	li	gp,11
 240:	000100b7          	lui	ra,0x10
 244:	fff08093          	addi	ra,ra,-1 # ffff <_end+0xdfff>
 248:	08f09093          	zip	ra,ra
 24c:	555553b7          	lui	t2,0x55555
 250:	55538393          	addi	t2,t2,1365 # 55555555 <_end+0x55553555>
 254:	28709c63          	bne	ra,t2,4ec <fail>

00000258 <test_12>:
 258:	00c00193          	li	gp,12
 25c:	ffff00b7          	lui	ra,0xffff0
 260:	08f09093          	zip	ra,ra
 264:	aaaab3b7          	lui	t2,0xaaaab
 268:	aaa38393          	addi	t2,t2,-1366 # aaaaaaaa <_end+0xaaaa8aaa>
 26c:	28709063          	bne	ra,t2,4ec <fail>

00000270 <test_13>:
 270:	00d00193          	li	gp,13
 274:	00000213          	li	tp,0
 278:	000100b7          	lui	ra,0x10
 27c:	fff08093          	addi	ra,ra,-1 # ffff <_end+0xdfff>
 280:	08f09713          	zip	a4,ra
 284:	00070313          	mv	t1,a4
 288:	00120213          	addi	tp,tp,1 # 1 <_start+0x1>
 28c:	00200293          	li	t0,2
 290:	fe5214e3          	bne	tp,t0,278 <test_13+0x8>
 294:	555553b7          	lui	t2,0x55555
 298:	55538393          	addi	t2,t2,1365 # 55555555 <_end+0x55553555>
 29c:	24731863          	bne	t1,t2,4ec <fail>

000002a0 <test_14>:
 2a0:	00e00193          	li	gp,14
 2a4:	00000213          	li	tp,0
 2a8:	000100b7          	lui	ra,0x10
 2ac:	fff08093          	addi	ra,ra,-1 # ffff <_end+0xdfff>
 2b0:	08f09713          	zip	a4,ra
 2b4:	00000013          	nop
 2b8:	00070313          	mv	t1,a4
 2bc:	00120213          	addi	tp,tp,1 # 1 <_start+0x1>
 2c0:	00200293          	li	t0,2
 2c4:	fe5212e3          	bne	tp,t0,2a8 <test_14+0x8>
 2c8:	555553b7          	lui	t2,0x55555
 2cc:	55538393          	addi	t2,t2,1365 # 55555555 <_end+0x55553555>
 2d0:	20731e63          	bne	t1,t2,4ec <fail>

000002d4 <test_15>:
 2d4:	00f00193          	li	gp,15
 2d8:	00000213          	li	tp,0
 2dc:	000100b7          	lui	ra,0x10
 2e0:	fff08093          	addi	ra,ra,-1 # ffff <_end+0xdfff>
 2e4:	08f09713          	zip	a4,ra
 2e8:	00000013          	nop
 2ec:	00000013          	nop
 2f0:	00070313          	mv	t1,a4
 2f4:	00120213          	addi	tp,tp,1 # 1 <_start+0x1>
 2f8:	00200293          	li	t0,2
 2fc:	fe5210e3          	bne	tp,t0,2dc <test_15+0x8>
 300:	555553b7          	lui	t2,0x55555
 304:	55538393          	addi	t2,t2,1365 # 55555555 <_end+0x55553555>
 308:	1e731263          	bne	t1,t2,4ec <fail>

0000030c <test_16>:
 30c:	01000193          	li	gp,16
 310:	00000213          	li	tp,0
 314:	000100b7          	lui	ra,0x10
 318:	fff08093          	addi	ra,ra,-1 # ffff <_end+0xdfff>
 31c:	08f09713          	zip	a4,ra
 320:	00000013          	nop
 324:	00000013          	nop
 328:	00000013          	nop
 32c:	00070313          	mv	t1,a4
 330:	00120213          	addi	tp,tp,1 # 1 <_start+0x1>
 334:	00200293          	li	t0,2
 338:	fc521ee3          	bne	tp,t0,314 <test_16+0x8>
 33c:	555553b7          	lui	t2,0x55555
 340:	55538393          	addi	t2,t2,1365 # 55555555 <_end+0x55553555>
 344:	1a731463          	bne	t1,t2,4ec <fail>

00000348 <test_17>:
 348:	01100193          	li	gp,17
 34c:	00000213          	li	tp,0
 350:	ffff00b7          	lui	ra,0xffff0
 354:	08f09713          	zip	a4,ra
 358:	00070313          	mv	t1,a4
 35c:	00120213          	addi	tp,tp,1 # 1 <_start+0x1>
 360:	00200293          	li	t0,2
 364:	fe5216e3          	bne	tp,t0,350 <test_17+0x8>
 368:	aaaab3b7          	lui	t2,0xaaaab
 36c:	aaa38393          	addi	t2,t2,-1366 # aaaaaaaa <_end+0xaaaa8aaa>
 370:	16731e63          	bne	t1,t2,4ec <fail>

00000374 <test_18>:
 374:	01200193          	li	gp,18
 378:	00000213          	li	tp,0
 37c:	ffff00b7          	lui	ra,0xffff0
 380:	08f09713          	zip	a4,ra
 384:	00000013          	nop
 388:	00070313          	mv	t1,a4
 38c:	00120213          	addi	tp,tp,1 # 1 <_start+0x1>
 390:	00200293          	li	t0,2
 394:	fe5214e3          	bne	tp,t0,37c <test_18+0x8>
 398:	aaaab3b7          	lui	t2,0xaaaab
 39c:	aaa38393          	addi	t2,t2,-1366 # aaaaaaaa <_end+0xaaaa8aaa>
 3a0:	14731663          	bne	t1,t2,4ec <fail>

000003a4 <test_19>:
 3a4:	01300193          	li	gp,19
 3a8:	00000213          	li	tp,0
 3ac:	ffff00b7          	lui	ra,0xffff0
 3b0:	08f09713          	zip	a4,ra
 3b4:	00000013          	nop
 3b8:	00000013          	nop
 3bc:	00070313          	mv	t1,a4
 3c0:	00120213          	addi	tp,tp,1 # 1 <_start+0x1>
 3c4:	00200293          	li	t0,2
 3c8:	fe5212e3          	bne	tp,t0,3ac <test_19+0x8>
 3cc:	aaaab3b7          	lui	t2,0xaaaab
 3d0:	aaa38393          	addi	t2,t2,-1366 # aaaaaaaa <_end+0xaaaa8aaa>
 3d4:	10731c63          	bne	t1,t2,4ec <fail>

000003d8 <test_20>:
 3d8:	01400193          	li	gp,20
 3dc:	00000213          	li	tp,0
 3e0:	ffff00b7          	lui	ra,0xffff0
 3e4:	08f09713          	zip	a4,ra
 3e8:	00000013          	nop
 3ec:	00000013          	nop
 3f0:	00000013          	nop
 3f4:	00070313          	mv	t1,a4
 3f8:	00120213          	addi	tp,tp,1 # 1 <_start+0x1>
 3fc:	00200293          	li	t0,2
 400:	fe5210e3          	bne	tp,t0,3e0 <test_20+0x8>
 404:	aaaab3b7          	lui	t2,0xaaaab
 408:	aaa38393          	addi	t2,t2,-1366 # aaaaaaaa <_end+0xaaaa8aaa>
 40c:	0e731063          	bne	t1,t2,4ec <fail>

00000410 <test_21>:
 410:	01500193          	li	gp,21
 414:	00000213          	li	tp,0
 418:	aaaa50b7          	lui	ra,0xaaaa5
 41c:	55508093          	addi	ra,ra,1365 # aaaa5555 <_end+0xaaaa3555>
 420:	08f09713          	zip	a4,ra
 424:	00070313          	mv	t1,a4
 428:	00120213          	addi	tp,tp,1 # 1 <_start+0x1>
 42c:	00200293          	li	t0,2
 430:	fe5214e3          	bne	tp,t0,418 <test_21+0x8>
 434:	9999a3b7          	lui	t2,0x9999a
 438:	99938393          	addi	t2,t2,-1639 # 99999999 <_end+0x99997999>
 43c:	0a731863          	bne	t1,t2,4ec <fail>

00000440 <test_22>:
 440:	01600193          	li	gp,22
 444:	00000213          	li	tp,0
 448:	aaaa50b7          	lui	ra,0xaaaa5
 44c:	55508093          	addi	ra,ra,1365 # aaaa5555 <_end+0xaaaa3555>
 450:	08f09713          	zip	a4,ra
 454:	00000013          	nop
 458:	00070313          	mv	t1,a4
 45c:	00120213          	addi	tp,tp,1 # 1 <_start+0x1>
 460:	00200293          	li	t0,2
 464:	fe5212e3          	bne	tp,t0,448 <test_22+0x8>
 468:	9999a3b7          	lui	t2,0x9999a
 46c:	99938393          	addi	t2,t2,-1639 # 99999999 <_end+0x99997999>
 470:	06731e63          	bne	t1,t2,4ec <fail>

00000474 <test_23>:
 474:	01700193          	li	gp,23
 478:	00000213          	li	tp,0
 47c:	aaaa50b7          	lui	ra,0xaaaa5
 480:	55508093          	addi	ra,ra,1365 # aaaa5555 <_end+0xaaaa3555>
 484:	08f09713          	zip	a4,ra
 488:	00000013          	nop
 48c:	00000013          	nop
 490:	00070313          	mv	t1,a4
 494:	00120213          	addi	tp,tp,1 # 1 <_start+0x1>
 498:	00200293          	li	t0,2
 49c:	fe5210e3          	bne	tp,t0,47c <test_23+0x8>
 4a0:	9999a3b7          	lui	t2,0x9999a
 4a4:	99938393          	addi	t2,t2,-1639 # 99999999 <_end+0x99997999>
 4a8:	04731263          	bne	t1,t2,4ec <fail>

000004ac <test_24>:
 4ac:	01800193          	li	gp,24
 4b0:	00000213          	li	tp,0
 4b4:	aaaa50b7          	lui	ra,0xaaaa5
 4b8:	55508093          	addi	ra,ra,1365 # aaaa5555 <_end+0xaaaa3555>
 4bc:	08f09713          	zip	a4,ra
 4c0:	00000013          	nop
 4c4:	00000013          	nop
 4c8:	00000013          	nop
 4cc:	00070313          	mv	t1,a4
 4d0:	00120213          	addi	tp,tp,1 # 1 <_start+0x1>
 4d4:	00200293          	li	t0,2
 4d8:	fc521ee3          	bne	tp,t0,4b4 <test_24+0x8>
 4dc:	9999a3b7          	lui	t2,0x9999a
 4e0:	99938393          	addi	t2,t2,-1639 # 99999999 <_end+0x99997999>
 4e4:	00731463          	bne	t1,t2,4ec <fail>
 4e8:	02301063          	bne	zero,gp,508 <pass>

000004ec <fail>:
 4ec:	0ff0000f          	fence
 4f0:	00018063          	beqz	gp,4f0 <fail+0x4>
 4f4:	00119193          	slli	gp,gp,0x1
 4f8:	0011e193          	ori	gp,gp,1
 4fc:	05d00893          	li	a7,93
 500:	00018513          	mv	a0,gp
 504:	00000073          	ecall

00000508 <pass>:
 508:	0ff0000f          	fence
 50c:	00100193          	li	gp,1
 510:	05d00893          	li	a7,93
 514:	00000513          	li	a0,0
 518:	00000073          	ecall
 51c:	c0001073          	unimp
 520:	00000013          	nop
 524:	00000013          	nop
 528:	00000013          	nop
 52c:	00000013          	nop
 530:	00000013          	nop
 534:	00000013          	nop
 538:	00000013          	nop
