
rv32uc-p-rvc:     ファイル形式 elf32-littleriscv


セクション .text.init の逆アセンブル:

00000000 <_start>:
       0:	0500006f          	j	50 <reset_vector>

00000004 <trap_vector>:
       4:	34202f73          	csrr	t5,mcause
       8:	00800f93          	li	t6,8
       c:	03ff0863          	beq	t5,t6,3c <write_tohost>
      10:	00900f93          	li	t6,9
      14:	03ff0463          	beq	t5,t6,3c <write_tohost>
      18:	00b00f93          	li	t6,11
      1c:	03ff0063          	beq	t5,t6,3c <write_tohost>
      20:	00000f13          	li	t5,0
      24:	000f0463          	beqz	t5,2c <trap_vector+0x28>
      28:	000f0067          	jr	t5
      2c:	34202f73          	csrr	t5,mcause
      30:	000f5463          	bgez	t5,38 <handle_exception>
      34:	0040006f          	j	38 <handle_exception>

00000038 <handle_exception>:
      38:	5391e193          	ori	gp,gp,1337

0000003c <write_tohost>:
      3c:	00003f17          	auipc	t5,0x3
      40:	fc3f2223          	sw	gp,-60(t5) # 3000 <tohost>
      44:	00003f17          	auipc	t5,0x3
      48:	fc0f2023          	sw	zero,-64(t5) # 3004 <tohost+0x4>
      4c:	ff1ff06f          	j	3c <write_tohost>

00000050 <reset_vector>:
      50:	00000093          	li	ra,0
      54:	00000113          	li	sp,0
      58:	00000193          	li	gp,0
      5c:	00000213          	li	tp,0
      60:	00000293          	li	t0,0
      64:	00000313          	li	t1,0
      68:	00000393          	li	t2,0
      6c:	00000413          	li	s0,0
      70:	00000493          	li	s1,0
      74:	00000513          	li	a0,0
      78:	00000593          	li	a1,0
      7c:	00000613          	li	a2,0
      80:	00000693          	li	a3,0
      84:	00000713          	li	a4,0
      88:	00000793          	li	a5,0
      8c:	00000813          	li	a6,0
      90:	00000893          	li	a7,0
      94:	00000913          	li	s2,0
      98:	00000993          	li	s3,0
      9c:	00000a13          	li	s4,0
      a0:	00000a93          	li	s5,0
      a4:	00000b13          	li	s6,0
      a8:	00000b93          	li	s7,0
      ac:	00000c13          	li	s8,0
      b0:	00000c93          	li	s9,0
      b4:	00000d13          	li	s10,0
      b8:	00000d93          	li	s11,0
      bc:	00000e13          	li	t3,0
      c0:	00000e93          	li	t4,0
      c4:	00000f13          	li	t5,0
      c8:	00000f93          	li	t6,0
      cc:	f1402573          	csrr	a0,mhartid
      d0:	00051063          	bnez	a0,d0 <reset_vector+0x80>
      d4:	00000297          	auipc	t0,0x0
      d8:	01028293          	addi	t0,t0,16 # e4 <reset_vector+0x94>
      dc:	30529073          	csrw	mtvec,t0
      e0:	74445073          	csrwi	mnstatus,8
      e4:	00000297          	auipc	t0,0x0
      e8:	01028293          	addi	t0,t0,16 # f4 <reset_vector+0xa4>
      ec:	30529073          	csrw	mtvec,t0
      f0:	18005073          	csrwi	satp,0
      f4:	00000297          	auipc	t0,0x0
      f8:	02028293          	addi	t0,t0,32 # 114 <reset_vector+0xc4>
      fc:	30529073          	csrw	mtvec,t0
     100:	800002b7          	lui	t0,0x80000
     104:	fff28293          	addi	t0,t0,-1 # 7fffffff <_end+0x7fffbfff>
     108:	3b029073          	csrw	pmpaddr0,t0
     10c:	01f00293          	li	t0,31
     110:	3a029073          	csrw	pmpcfg0,t0
     114:	30405073          	csrwi	mie,0
     118:	00000297          	auipc	t0,0x0
     11c:	01428293          	addi	t0,t0,20 # 12c <reset_vector+0xdc>
     120:	30529073          	csrw	mtvec,t0
     124:	30205073          	csrwi	medeleg,0
     128:	30305073          	csrwi	mideleg,0
     12c:	00000193          	li	gp,0
     130:	00000297          	auipc	t0,0x0
     134:	ed428293          	addi	t0,t0,-300 # 4 <trap_vector>
     138:	30529073          	csrw	mtvec,t0
     13c:	00100513          	li	a0,1
     140:	01f51513          	slli	a0,a0,0x1f
     144:	00054c63          	bltz	a0,15c <reset_vector+0x10c>
     148:	0ff0000f          	fence
     14c:	00100193          	li	gp,1
     150:	05d00893          	li	a7,93
     154:	00000513          	li	a0,0
     158:	00000073          	ecall
     15c:	00000293          	li	t0,0
     160:	00028a63          	beqz	t0,174 <reset_vector+0x124>
     164:	10529073          	csrw	stvec,t0
     168:	0000b2b7          	lui	t0,0xb
     16c:	10928293          	addi	t0,t0,265 # b109 <_end+0x7109>
     170:	30229073          	csrw	medeleg,t0
     174:	30005073          	csrwi	mstatus,0
     178:	00000297          	auipc	t0,0x0
     17c:	01428293          	addi	t0,t0,20 # 18c <reset_vector+0x13c>
     180:	34129073          	csrw	mepc,t0
     184:	f1402573          	csrr	a0,mhartid
     188:	30200073          	mret
     18c:	00200193          	li	gp,2
     190:	29a00593          	li	a1,666

00000194 <test_2>:
     194:	00200193          	li	gp,2
     198:	6670106f          	j	1ffe <data+0x1e5e>
     19c:	00000013          	nop

000001a0 <data>:
     1a0:	3210                	.insn	2, 0x3210
     1a2:	7654                	.insn	2, 0x7654
     1a4:	ba98                	.insn	2, 0xba98
     1a6:	fedc                	.insn	2, 0xfedc
     1a8:	3210                	.insn	2, 0x3210
     1aa:	7654                	.insn	2, 0x7654
     1ac:	ba98                	.insn	2, 0xba98
     1ae:	fedc                	.insn	2, 0xfedc
     1b0:	00000013          	nop
     1b4:	00000013          	nop
     1b8:	00000013          	nop
     1bc:	00000013          	nop
     1c0:	00000013          	nop
     1c4:	00000013          	nop
     1c8:	00000013          	nop
     1cc:	00000013          	nop
     1d0:	00000013          	nop
     1d4:	00000013          	nop
     1d8:	00000013          	nop
     1dc:	00000013          	nop
     1e0:	00000013          	nop
     1e4:	00000013          	nop
     1e8:	00000013          	nop
     1ec:	00000013          	nop
     1f0:	00000013          	nop
     1f4:	00000013          	nop
     1f8:	00000013          	nop
     1fc:	00000013          	nop
     200:	00000013          	nop
     204:	00000013          	nop
     208:	00000013          	nop
     20c:	00000013          	nop
     210:	00000013          	nop
     214:	00000013          	nop
     218:	00000013          	nop
     21c:	00000013          	nop
     220:	00000013          	nop
     224:	00000013          	nop
     228:	00000013          	nop
     22c:	00000013          	nop
     230:	00000013          	nop
     234:	00000013          	nop
     238:	00000013          	nop
     23c:	00000013          	nop
     240:	00000013          	nop
     244:	00000013          	nop
     248:	00000013          	nop
     24c:	00000013          	nop
     250:	00000013          	nop
     254:	00000013          	nop
     258:	00000013          	nop
     25c:	00000013          	nop
     260:	00000013          	nop
     264:	00000013          	nop
     268:	00000013          	nop
     26c:	00000013          	nop
     270:	00000013          	nop
     274:	00000013          	nop
     278:	00000013          	nop
     27c:	00000013          	nop
     280:	00000013          	nop
     284:	00000013          	nop
     288:	00000013          	nop
     28c:	00000013          	nop
     290:	00000013          	nop
     294:	00000013          	nop
     298:	00000013          	nop
     29c:	00000013          	nop
     2a0:	00000013          	nop
     2a4:	00000013          	nop
     2a8:	00000013          	nop
     2ac:	00000013          	nop
     2b0:	00000013          	nop
     2b4:	00000013          	nop
     2b8:	00000013          	nop
     2bc:	00000013          	nop
     2c0:	00000013          	nop
     2c4:	00000013          	nop
     2c8:	00000013          	nop
     2cc:	00000013          	nop
     2d0:	00000013          	nop
     2d4:	00000013          	nop
     2d8:	00000013          	nop
     2dc:	00000013          	nop
     2e0:	00000013          	nop
     2e4:	00000013          	nop
     2e8:	00000013          	nop
     2ec:	00000013          	nop
     2f0:	00000013          	nop
     2f4:	00000013          	nop
     2f8:	00000013          	nop
     2fc:	00000013          	nop
     300:	00000013          	nop
     304:	00000013          	nop
     308:	00000013          	nop
     30c:	00000013          	nop
     310:	00000013          	nop
     314:	00000013          	nop
     318:	00000013          	nop
     31c:	00000013          	nop
     320:	00000013          	nop
     324:	00000013          	nop
     328:	00000013          	nop
     32c:	00000013          	nop
     330:	00000013          	nop
     334:	00000013          	nop
     338:	00000013          	nop
     33c:	00000013          	nop
     340:	00000013          	nop
     344:	00000013          	nop
     348:	00000013          	nop
     34c:	00000013          	nop
     350:	00000013          	nop
     354:	00000013          	nop
     358:	00000013          	nop
     35c:	00000013          	nop
     360:	00000013          	nop
     364:	00000013          	nop
     368:	00000013          	nop
     36c:	00000013          	nop
     370:	00000013          	nop
     374:	00000013          	nop
     378:	00000013          	nop
     37c:	00000013          	nop
     380:	00000013          	nop
     384:	00000013          	nop
     388:	00000013          	nop
     38c:	00000013          	nop
     390:	00000013          	nop
     394:	00000013          	nop
     398:	00000013          	nop
     39c:	00000013          	nop
     3a0:	00000013          	nop
     3a4:	00000013          	nop
     3a8:	00000013          	nop
     3ac:	00000013          	nop
     3b0:	00000013          	nop
     3b4:	00000013          	nop
     3b8:	00000013          	nop
     3bc:	00000013          	nop
     3c0:	00000013          	nop
     3c4:	00000013          	nop
     3c8:	00000013          	nop
     3cc:	00000013          	nop
     3d0:	00000013          	nop
     3d4:	00000013          	nop
     3d8:	00000013          	nop
     3dc:	00000013          	nop
     3e0:	00000013          	nop
     3e4:	00000013          	nop
     3e8:	00000013          	nop
     3ec:	00000013          	nop
     3f0:	00000013          	nop
     3f4:	00000013          	nop
     3f8:	00000013          	nop
     3fc:	00000013          	nop
     400:	00000013          	nop
     404:	00000013          	nop
     408:	00000013          	nop
     40c:	00000013          	nop
     410:	00000013          	nop
     414:	00000013          	nop
     418:	00000013          	nop
     41c:	00000013          	nop
     420:	00000013          	nop
     424:	00000013          	nop
     428:	00000013          	nop
     42c:	00000013          	nop
     430:	00000013          	nop
     434:	00000013          	nop
     438:	00000013          	nop
     43c:	00000013          	nop
     440:	00000013          	nop
     444:	00000013          	nop
     448:	00000013          	nop
     44c:	00000013          	nop
     450:	00000013          	nop
     454:	00000013          	nop
     458:	00000013          	nop
     45c:	00000013          	nop
     460:	00000013          	nop
     464:	00000013          	nop
     468:	00000013          	nop
     46c:	00000013          	nop
     470:	00000013          	nop
     474:	00000013          	nop
     478:	00000013          	nop
     47c:	00000013          	nop
     480:	00000013          	nop
     484:	00000013          	nop
     488:	00000013          	nop
     48c:	00000013          	nop
     490:	00000013          	nop
     494:	00000013          	nop
     498:	00000013          	nop
     49c:	00000013          	nop
     4a0:	00000013          	nop
     4a4:	00000013          	nop
     4a8:	00000013          	nop
     4ac:	00000013          	nop
     4b0:	00000013          	nop
     4b4:	00000013          	nop
     4b8:	00000013          	nop
     4bc:	00000013          	nop
     4c0:	00000013          	nop
     4c4:	00000013          	nop
     4c8:	00000013          	nop
     4cc:	00000013          	nop
     4d0:	00000013          	nop
     4d4:	00000013          	nop
     4d8:	00000013          	nop
     4dc:	00000013          	nop
     4e0:	00000013          	nop
     4e4:	00000013          	nop
     4e8:	00000013          	nop
     4ec:	00000013          	nop
     4f0:	00000013          	nop
     4f4:	00000013          	nop
     4f8:	00000013          	nop
     4fc:	00000013          	nop
     500:	00000013          	nop
     504:	00000013          	nop
     508:	00000013          	nop
     50c:	00000013          	nop
     510:	00000013          	nop
     514:	00000013          	nop
     518:	00000013          	nop
     51c:	00000013          	nop
     520:	00000013          	nop
     524:	00000013          	nop
     528:	00000013          	nop
     52c:	00000013          	nop
     530:	00000013          	nop
     534:	00000013          	nop
     538:	00000013          	nop
     53c:	00000013          	nop
     540:	00000013          	nop
     544:	00000013          	nop
     548:	00000013          	nop
     54c:	00000013          	nop
     550:	00000013          	nop
     554:	00000013          	nop
     558:	00000013          	nop
     55c:	00000013          	nop
     560:	00000013          	nop
     564:	00000013          	nop
     568:	00000013          	nop
     56c:	00000013          	nop
     570:	00000013          	nop
     574:	00000013          	nop
     578:	00000013          	nop
     57c:	00000013          	nop
     580:	00000013          	nop
     584:	00000013          	nop
     588:	00000013          	nop
     58c:	00000013          	nop
     590:	00000013          	nop
     594:	00000013          	nop
     598:	00000013          	nop
     59c:	00000013          	nop
     5a0:	00000013          	nop
     5a4:	00000013          	nop
     5a8:	00000013          	nop
     5ac:	00000013          	nop
     5b0:	00000013          	nop
     5b4:	00000013          	nop
     5b8:	00000013          	nop
     5bc:	00000013          	nop
     5c0:	00000013          	nop
     5c4:	00000013          	nop
     5c8:	00000013          	nop
     5cc:	00000013          	nop
     5d0:	00000013          	nop
     5d4:	00000013          	nop
     5d8:	00000013          	nop
     5dc:	00000013          	nop
     5e0:	00000013          	nop
     5e4:	00000013          	nop
     5e8:	00000013          	nop
     5ec:	00000013          	nop
     5f0:	00000013          	nop
     5f4:	00000013          	nop
     5f8:	00000013          	nop
     5fc:	00000013          	nop
     600:	00000013          	nop
     604:	00000013          	nop
     608:	00000013          	nop
     60c:	00000013          	nop
     610:	00000013          	nop
     614:	00000013          	nop
     618:	00000013          	nop
     61c:	00000013          	nop
     620:	00000013          	nop
     624:	00000013          	nop
     628:	00000013          	nop
     62c:	00000013          	nop
     630:	00000013          	nop
     634:	00000013          	nop
     638:	00000013          	nop
     63c:	00000013          	nop
     640:	00000013          	nop
     644:	00000013          	nop
     648:	00000013          	nop
     64c:	00000013          	nop
     650:	00000013          	nop
     654:	00000013          	nop
     658:	00000013          	nop
     65c:	00000013          	nop
     660:	00000013          	nop
     664:	00000013          	nop
     668:	00000013          	nop
     66c:	00000013          	nop
     670:	00000013          	nop
     674:	00000013          	nop
     678:	00000013          	nop
     67c:	00000013          	nop
     680:	00000013          	nop
     684:	00000013          	nop
     688:	00000013          	nop
     68c:	00000013          	nop
     690:	00000013          	nop
     694:	00000013          	nop
     698:	00000013          	nop
     69c:	00000013          	nop
     6a0:	00000013          	nop
     6a4:	00000013          	nop
     6a8:	00000013          	nop
     6ac:	00000013          	nop
     6b0:	00000013          	nop
     6b4:	00000013          	nop
     6b8:	00000013          	nop
     6bc:	00000013          	nop
     6c0:	00000013          	nop
     6c4:	00000013          	nop
     6c8:	00000013          	nop
     6cc:	00000013          	nop
     6d0:	00000013          	nop
     6d4:	00000013          	nop
     6d8:	00000013          	nop
     6dc:	00000013          	nop
     6e0:	00000013          	nop
     6e4:	00000013          	nop
     6e8:	00000013          	nop
     6ec:	00000013          	nop
     6f0:	00000013          	nop
     6f4:	00000013          	nop
     6f8:	00000013          	nop
     6fc:	00000013          	nop
     700:	00000013          	nop
     704:	00000013          	nop
     708:	00000013          	nop
     70c:	00000013          	nop
     710:	00000013          	nop
     714:	00000013          	nop
     718:	00000013          	nop
     71c:	00000013          	nop
     720:	00000013          	nop
     724:	00000013          	nop
     728:	00000013          	nop
     72c:	00000013          	nop
     730:	00000013          	nop
     734:	00000013          	nop
     738:	00000013          	nop
     73c:	00000013          	nop
     740:	00000013          	nop
     744:	00000013          	nop
     748:	00000013          	nop
     74c:	00000013          	nop
     750:	00000013          	nop
     754:	00000013          	nop
     758:	00000013          	nop
     75c:	00000013          	nop
     760:	00000013          	nop
     764:	00000013          	nop
     768:	00000013          	nop
     76c:	00000013          	nop
     770:	00000013          	nop
     774:	00000013          	nop
     778:	00000013          	nop
     77c:	00000013          	nop
     780:	00000013          	nop
     784:	00000013          	nop
     788:	00000013          	nop
     78c:	00000013          	nop
     790:	00000013          	nop
     794:	00000013          	nop
     798:	00000013          	nop
     79c:	00000013          	nop
     7a0:	00000013          	nop
     7a4:	00000013          	nop
     7a8:	00000013          	nop
     7ac:	00000013          	nop
     7b0:	00000013          	nop
     7b4:	00000013          	nop
     7b8:	00000013          	nop
     7bc:	00000013          	nop
     7c0:	00000013          	nop
     7c4:	00000013          	nop
     7c8:	00000013          	nop
     7cc:	00000013          	nop
     7d0:	00000013          	nop
     7d4:	00000013          	nop
     7d8:	00000013          	nop
     7dc:	00000013          	nop
     7e0:	00000013          	nop
     7e4:	00000013          	nop
     7e8:	00000013          	nop
     7ec:	00000013          	nop
     7f0:	00000013          	nop
     7f4:	00000013          	nop
     7f8:	00000013          	nop
     7fc:	00000013          	nop
     800:	00000013          	nop
     804:	00000013          	nop
     808:	00000013          	nop
     80c:	00000013          	nop
     810:	00000013          	nop
     814:	00000013          	nop
     818:	00000013          	nop
     81c:	00000013          	nop
     820:	00000013          	nop
     824:	00000013          	nop
     828:	00000013          	nop
     82c:	00000013          	nop
     830:	00000013          	nop
     834:	00000013          	nop
     838:	00000013          	nop
     83c:	00000013          	nop
     840:	00000013          	nop
     844:	00000013          	nop
     848:	00000013          	nop
     84c:	00000013          	nop
     850:	00000013          	nop
     854:	00000013          	nop
     858:	00000013          	nop
     85c:	00000013          	nop
     860:	00000013          	nop
     864:	00000013          	nop
     868:	00000013          	nop
     86c:	00000013          	nop
     870:	00000013          	nop
     874:	00000013          	nop
     878:	00000013          	nop
     87c:	00000013          	nop
     880:	00000013          	nop
     884:	00000013          	nop
     888:	00000013          	nop
     88c:	00000013          	nop
     890:	00000013          	nop
     894:	00000013          	nop
     898:	00000013          	nop
     89c:	00000013          	nop
     8a0:	00000013          	nop
     8a4:	00000013          	nop
     8a8:	00000013          	nop
     8ac:	00000013          	nop
     8b0:	00000013          	nop
     8b4:	00000013          	nop
     8b8:	00000013          	nop
     8bc:	00000013          	nop
     8c0:	00000013          	nop
     8c4:	00000013          	nop
     8c8:	00000013          	nop
     8cc:	00000013          	nop
     8d0:	00000013          	nop
     8d4:	00000013          	nop
     8d8:	00000013          	nop
     8dc:	00000013          	nop
     8e0:	00000013          	nop
     8e4:	00000013          	nop
     8e8:	00000013          	nop
     8ec:	00000013          	nop
     8f0:	00000013          	nop
     8f4:	00000013          	nop
     8f8:	00000013          	nop
     8fc:	00000013          	nop
     900:	00000013          	nop
     904:	00000013          	nop
     908:	00000013          	nop
     90c:	00000013          	nop
     910:	00000013          	nop
     914:	00000013          	nop
     918:	00000013          	nop
     91c:	00000013          	nop
     920:	00000013          	nop
     924:	00000013          	nop
     928:	00000013          	nop
     92c:	00000013          	nop
     930:	00000013          	nop
     934:	00000013          	nop
     938:	00000013          	nop
     93c:	00000013          	nop
     940:	00000013          	nop
     944:	00000013          	nop
     948:	00000013          	nop
     94c:	00000013          	nop
     950:	00000013          	nop
     954:	00000013          	nop
     958:	00000013          	nop
     95c:	00000013          	nop
     960:	00000013          	nop
     964:	00000013          	nop
     968:	00000013          	nop
     96c:	00000013          	nop
     970:	00000013          	nop
     974:	00000013          	nop
     978:	00000013          	nop
     97c:	00000013          	nop
     980:	00000013          	nop
     984:	00000013          	nop
     988:	00000013          	nop
     98c:	00000013          	nop
     990:	00000013          	nop
     994:	00000013          	nop
     998:	00000013          	nop
     99c:	00000013          	nop
     9a0:	00000013          	nop
     9a4:	00000013          	nop
     9a8:	00000013          	nop
     9ac:	00000013          	nop
     9b0:	00000013          	nop
     9b4:	00000013          	nop
     9b8:	00000013          	nop
     9bc:	00000013          	nop
     9c0:	00000013          	nop
     9c4:	00000013          	nop
     9c8:	00000013          	nop
     9cc:	00000013          	nop
     9d0:	00000013          	nop
     9d4:	00000013          	nop
     9d8:	00000013          	nop
     9dc:	00000013          	nop
     9e0:	00000013          	nop
     9e4:	00000013          	nop
     9e8:	00000013          	nop
     9ec:	00000013          	nop
     9f0:	00000013          	nop
     9f4:	00000013          	nop
     9f8:	00000013          	nop
     9fc:	00000013          	nop
     a00:	00000013          	nop
     a04:	00000013          	nop
     a08:	00000013          	nop
     a0c:	00000013          	nop
     a10:	00000013          	nop
     a14:	00000013          	nop
     a18:	00000013          	nop
     a1c:	00000013          	nop
     a20:	00000013          	nop
     a24:	00000013          	nop
     a28:	00000013          	nop
     a2c:	00000013          	nop
     a30:	00000013          	nop
     a34:	00000013          	nop
     a38:	00000013          	nop
     a3c:	00000013          	nop
     a40:	00000013          	nop
     a44:	00000013          	nop
     a48:	00000013          	nop
     a4c:	00000013          	nop
     a50:	00000013          	nop
     a54:	00000013          	nop
     a58:	00000013          	nop
     a5c:	00000013          	nop
     a60:	00000013          	nop
     a64:	00000013          	nop
     a68:	00000013          	nop
     a6c:	00000013          	nop
     a70:	00000013          	nop
     a74:	00000013          	nop
     a78:	00000013          	nop
     a7c:	00000013          	nop
     a80:	00000013          	nop
     a84:	00000013          	nop
     a88:	00000013          	nop
     a8c:	00000013          	nop
     a90:	00000013          	nop
     a94:	00000013          	nop
     a98:	00000013          	nop
     a9c:	00000013          	nop
     aa0:	00000013          	nop
     aa4:	00000013          	nop
     aa8:	00000013          	nop
     aac:	00000013          	nop
     ab0:	00000013          	nop
     ab4:	00000013          	nop
     ab8:	00000013          	nop
     abc:	00000013          	nop
     ac0:	00000013          	nop
     ac4:	00000013          	nop
     ac8:	00000013          	nop
     acc:	00000013          	nop
     ad0:	00000013          	nop
     ad4:	00000013          	nop
     ad8:	00000013          	nop
     adc:	00000013          	nop
     ae0:	00000013          	nop
     ae4:	00000013          	nop
     ae8:	00000013          	nop
     aec:	00000013          	nop
     af0:	00000013          	nop
     af4:	00000013          	nop
     af8:	00000013          	nop
     afc:	00000013          	nop
     b00:	00000013          	nop
     b04:	00000013          	nop
     b08:	00000013          	nop
     b0c:	00000013          	nop
     b10:	00000013          	nop
     b14:	00000013          	nop
     b18:	00000013          	nop
     b1c:	00000013          	nop
     b20:	00000013          	nop
     b24:	00000013          	nop
     b28:	00000013          	nop
     b2c:	00000013          	nop
     b30:	00000013          	nop
     b34:	00000013          	nop
     b38:	00000013          	nop
     b3c:	00000013          	nop
     b40:	00000013          	nop
     b44:	00000013          	nop
     b48:	00000013          	nop
     b4c:	00000013          	nop
     b50:	00000013          	nop
     b54:	00000013          	nop
     b58:	00000013          	nop
     b5c:	00000013          	nop
     b60:	00000013          	nop
     b64:	00000013          	nop
     b68:	00000013          	nop
     b6c:	00000013          	nop
     b70:	00000013          	nop
     b74:	00000013          	nop
     b78:	00000013          	nop
     b7c:	00000013          	nop
     b80:	00000013          	nop
     b84:	00000013          	nop
     b88:	00000013          	nop
     b8c:	00000013          	nop
     b90:	00000013          	nop
     b94:	00000013          	nop
     b98:	00000013          	nop
     b9c:	00000013          	nop
     ba0:	00000013          	nop
     ba4:	00000013          	nop
     ba8:	00000013          	nop
     bac:	00000013          	nop
     bb0:	00000013          	nop
     bb4:	00000013          	nop
     bb8:	00000013          	nop
     bbc:	00000013          	nop
     bc0:	00000013          	nop
     bc4:	00000013          	nop
     bc8:	00000013          	nop
     bcc:	00000013          	nop
     bd0:	00000013          	nop
     bd4:	00000013          	nop
     bd8:	00000013          	nop
     bdc:	00000013          	nop
     be0:	00000013          	nop
     be4:	00000013          	nop
     be8:	00000013          	nop
     bec:	00000013          	nop
     bf0:	00000013          	nop
     bf4:	00000013          	nop
     bf8:	00000013          	nop
     bfc:	00000013          	nop
     c00:	00000013          	nop
     c04:	00000013          	nop
     c08:	00000013          	nop
     c0c:	00000013          	nop
     c10:	00000013          	nop
     c14:	00000013          	nop
     c18:	00000013          	nop
     c1c:	00000013          	nop
     c20:	00000013          	nop
     c24:	00000013          	nop
     c28:	00000013          	nop
     c2c:	00000013          	nop
     c30:	00000013          	nop
     c34:	00000013          	nop
     c38:	00000013          	nop
     c3c:	00000013          	nop
     c40:	00000013          	nop
     c44:	00000013          	nop
     c48:	00000013          	nop
     c4c:	00000013          	nop
     c50:	00000013          	nop
     c54:	00000013          	nop
     c58:	00000013          	nop
     c5c:	00000013          	nop
     c60:	00000013          	nop
     c64:	00000013          	nop
     c68:	00000013          	nop
     c6c:	00000013          	nop
     c70:	00000013          	nop
     c74:	00000013          	nop
     c78:	00000013          	nop
     c7c:	00000013          	nop
     c80:	00000013          	nop
     c84:	00000013          	nop
     c88:	00000013          	nop
     c8c:	00000013          	nop
     c90:	00000013          	nop
     c94:	00000013          	nop
     c98:	00000013          	nop
     c9c:	00000013          	nop
     ca0:	00000013          	nop
     ca4:	00000013          	nop
     ca8:	00000013          	nop
     cac:	00000013          	nop
     cb0:	00000013          	nop
     cb4:	00000013          	nop
     cb8:	00000013          	nop
     cbc:	00000013          	nop
     cc0:	00000013          	nop
     cc4:	00000013          	nop
     cc8:	00000013          	nop
     ccc:	00000013          	nop
     cd0:	00000013          	nop
     cd4:	00000013          	nop
     cd8:	00000013          	nop
     cdc:	00000013          	nop
     ce0:	00000013          	nop
     ce4:	00000013          	nop
     ce8:	00000013          	nop
     cec:	00000013          	nop
     cf0:	00000013          	nop
     cf4:	00000013          	nop
     cf8:	00000013          	nop
     cfc:	00000013          	nop
     d00:	00000013          	nop
     d04:	00000013          	nop
     d08:	00000013          	nop
     d0c:	00000013          	nop
     d10:	00000013          	nop
     d14:	00000013          	nop
     d18:	00000013          	nop
     d1c:	00000013          	nop
     d20:	00000013          	nop
     d24:	00000013          	nop
     d28:	00000013          	nop
     d2c:	00000013          	nop
     d30:	00000013          	nop
     d34:	00000013          	nop
     d38:	00000013          	nop
     d3c:	00000013          	nop
     d40:	00000013          	nop
     d44:	00000013          	nop
     d48:	00000013          	nop
     d4c:	00000013          	nop
     d50:	00000013          	nop
     d54:	00000013          	nop
     d58:	00000013          	nop
     d5c:	00000013          	nop
     d60:	00000013          	nop
     d64:	00000013          	nop
     d68:	00000013          	nop
     d6c:	00000013          	nop
     d70:	00000013          	nop
     d74:	00000013          	nop
     d78:	00000013          	nop
     d7c:	00000013          	nop
     d80:	00000013          	nop
     d84:	00000013          	nop
     d88:	00000013          	nop
     d8c:	00000013          	nop
     d90:	00000013          	nop
     d94:	00000013          	nop
     d98:	00000013          	nop
     d9c:	00000013          	nop
     da0:	00000013          	nop
     da4:	00000013          	nop
     da8:	00000013          	nop
     dac:	00000013          	nop
     db0:	00000013          	nop
     db4:	00000013          	nop
     db8:	00000013          	nop
     dbc:	00000013          	nop
     dc0:	00000013          	nop
     dc4:	00000013          	nop
     dc8:	00000013          	nop
     dcc:	00000013          	nop
     dd0:	00000013          	nop
     dd4:	00000013          	nop
     dd8:	00000013          	nop
     ddc:	00000013          	nop
     de0:	00000013          	nop
     de4:	00000013          	nop
     de8:	00000013          	nop
     dec:	00000013          	nop
     df0:	00000013          	nop
     df4:	00000013          	nop
     df8:	00000013          	nop
     dfc:	00000013          	nop
     e00:	00000013          	nop
     e04:	00000013          	nop
     e08:	00000013          	nop
     e0c:	00000013          	nop
     e10:	00000013          	nop
     e14:	00000013          	nop
     e18:	00000013          	nop
     e1c:	00000013          	nop
     e20:	00000013          	nop
     e24:	00000013          	nop
     e28:	00000013          	nop
     e2c:	00000013          	nop
     e30:	00000013          	nop
     e34:	00000013          	nop
     e38:	00000013          	nop
     e3c:	00000013          	nop
     e40:	00000013          	nop
     e44:	00000013          	nop
     e48:	00000013          	nop
     e4c:	00000013          	nop
     e50:	00000013          	nop
     e54:	00000013          	nop
     e58:	00000013          	nop
     e5c:	00000013          	nop
     e60:	00000013          	nop
     e64:	00000013          	nop
     e68:	00000013          	nop
     e6c:	00000013          	nop
     e70:	00000013          	nop
     e74:	00000013          	nop
     e78:	00000013          	nop
     e7c:	00000013          	nop
     e80:	00000013          	nop
     e84:	00000013          	nop
     e88:	00000013          	nop
     e8c:	00000013          	nop
     e90:	00000013          	nop
     e94:	00000013          	nop
     e98:	00000013          	nop
     e9c:	00000013          	nop
     ea0:	00000013          	nop
     ea4:	00000013          	nop
     ea8:	00000013          	nop
     eac:	00000013          	nop
     eb0:	00000013          	nop
     eb4:	00000013          	nop
     eb8:	00000013          	nop
     ebc:	00000013          	nop
     ec0:	00000013          	nop
     ec4:	00000013          	nop
     ec8:	00000013          	nop
     ecc:	00000013          	nop
     ed0:	00000013          	nop
     ed4:	00000013          	nop
     ed8:	00000013          	nop
     edc:	00000013          	nop
     ee0:	00000013          	nop
     ee4:	00000013          	nop
     ee8:	00000013          	nop
     eec:	00000013          	nop
     ef0:	00000013          	nop
     ef4:	00000013          	nop
     ef8:	00000013          	nop
     efc:	00000013          	nop
     f00:	00000013          	nop
     f04:	00000013          	nop
     f08:	00000013          	nop
     f0c:	00000013          	nop
     f10:	00000013          	nop
     f14:	00000013          	nop
     f18:	00000013          	nop
     f1c:	00000013          	nop
     f20:	00000013          	nop
     f24:	00000013          	nop
     f28:	00000013          	nop
     f2c:	00000013          	nop
     f30:	00000013          	nop
     f34:	00000013          	nop
     f38:	00000013          	nop
     f3c:	00000013          	nop
     f40:	00000013          	nop
     f44:	00000013          	nop
     f48:	00000013          	nop
     f4c:	00000013          	nop
     f50:	00000013          	nop
     f54:	00000013          	nop
     f58:	00000013          	nop
     f5c:	00000013          	nop
     f60:	00000013          	nop
     f64:	00000013          	nop
     f68:	00000013          	nop
     f6c:	00000013          	nop
     f70:	00000013          	nop
     f74:	00000013          	nop
     f78:	00000013          	nop
     f7c:	00000013          	nop
     f80:	00000013          	nop
     f84:	00000013          	nop
     f88:	00000013          	nop
     f8c:	00000013          	nop
     f90:	00000013          	nop
     f94:	00000013          	nop
     f98:	00000013          	nop
     f9c:	00000013          	nop
     fa0:	00000013          	nop
     fa4:	00000013          	nop
     fa8:	00000013          	nop
     fac:	00000013          	nop
     fb0:	00000013          	nop
     fb4:	00000013          	nop
     fb8:	00000013          	nop
     fbc:	00000013          	nop
     fc0:	00000013          	nop
     fc4:	00000013          	nop
     fc8:	00000013          	nop
     fcc:	00000013          	nop
     fd0:	00000013          	nop
     fd4:	00000013          	nop
     fd8:	00000013          	nop
     fdc:	00000013          	nop
     fe0:	00000013          	nop
     fe4:	00000013          	nop
     fe8:	00000013          	nop
     fec:	00000013          	nop
     ff0:	00000013          	nop
     ff4:	00000013          	nop
     ff8:	00000013          	nop
     ffc:	00000013          	nop
    1000:	0000                	.insn	2, 0x0000
    1002:	0000                	.insn	2, 0x0000
    1004:	0000                	.insn	2, 0x0000
    1006:	0000                	.insn	2, 0x0000
    1008:	0000                	.insn	2, 0x0000
    100a:	0000                	.insn	2, 0x0000
    100c:	0000                	.insn	2, 0x0000
    100e:	0000                	.insn	2, 0x0000
    1010:	0000                	.insn	2, 0x0000
    1012:	0000                	.insn	2, 0x0000
    1014:	0000                	.insn	2, 0x0000
    1016:	0000                	.insn	2, 0x0000
    1018:	0000                	.insn	2, 0x0000
    101a:	0000                	.insn	2, 0x0000
    101c:	0000                	.insn	2, 0x0000
    101e:	0000                	.insn	2, 0x0000
    1020:	0000                	.insn	2, 0x0000
    1022:	0000                	.insn	2, 0x0000
    1024:	0000                	.insn	2, 0x0000
    1026:	0000                	.insn	2, 0x0000
    1028:	0000                	.insn	2, 0x0000
    102a:	0000                	.insn	2, 0x0000
    102c:	0000                	.insn	2, 0x0000
    102e:	0000                	.insn	2, 0x0000
    1030:	0000                	.insn	2, 0x0000
    1032:	0000                	.insn	2, 0x0000
    1034:	0000                	.insn	2, 0x0000
    1036:	0000                	.insn	2, 0x0000
    1038:	0000                	.insn	2, 0x0000
    103a:	0000                	.insn	2, 0x0000
    103c:	0000                	.insn	2, 0x0000
    103e:	0000                	.insn	2, 0x0000
    1040:	0000                	.insn	2, 0x0000
    1042:	0000                	.insn	2, 0x0000
    1044:	0000                	.insn	2, 0x0000
    1046:	0000                	.insn	2, 0x0000
    1048:	0000                	.insn	2, 0x0000
    104a:	0000                	.insn	2, 0x0000
    104c:	0000                	.insn	2, 0x0000
    104e:	0000                	.insn	2, 0x0000
    1050:	0000                	.insn	2, 0x0000
    1052:	0000                	.insn	2, 0x0000
    1054:	0000                	.insn	2, 0x0000
    1056:	0000                	.insn	2, 0x0000
    1058:	0000                	.insn	2, 0x0000
    105a:	0000                	.insn	2, 0x0000
    105c:	0000                	.insn	2, 0x0000
    105e:	0000                	.insn	2, 0x0000
    1060:	0000                	.insn	2, 0x0000
    1062:	0000                	.insn	2, 0x0000
    1064:	0000                	.insn	2, 0x0000
    1066:	0000                	.insn	2, 0x0000
    1068:	0000                	.insn	2, 0x0000
    106a:	0000                	.insn	2, 0x0000
    106c:	0000                	.insn	2, 0x0000
    106e:	0000                	.insn	2, 0x0000
    1070:	0000                	.insn	2, 0x0000
    1072:	0000                	.insn	2, 0x0000
    1074:	0000                	.insn	2, 0x0000
    1076:	0000                	.insn	2, 0x0000
    1078:	0000                	.insn	2, 0x0000
    107a:	0000                	.insn	2, 0x0000
    107c:	0000                	.insn	2, 0x0000
    107e:	0000                	.insn	2, 0x0000
    1080:	0000                	.insn	2, 0x0000
    1082:	0000                	.insn	2, 0x0000
    1084:	0000                	.insn	2, 0x0000
    1086:	0000                	.insn	2, 0x0000
    1088:	0000                	.insn	2, 0x0000
    108a:	0000                	.insn	2, 0x0000
    108c:	0000                	.insn	2, 0x0000
    108e:	0000                	.insn	2, 0x0000
    1090:	0000                	.insn	2, 0x0000
    1092:	0000                	.insn	2, 0x0000
    1094:	0000                	.insn	2, 0x0000
    1096:	0000                	.insn	2, 0x0000
    1098:	0000                	.insn	2, 0x0000
    109a:	0000                	.insn	2, 0x0000
    109c:	0000                	.insn	2, 0x0000
    109e:	0000                	.insn	2, 0x0000
    10a0:	0000                	.insn	2, 0x0000
    10a2:	0000                	.insn	2, 0x0000
    10a4:	0000                	.insn	2, 0x0000
    10a6:	0000                	.insn	2, 0x0000
    10a8:	0000                	.insn	2, 0x0000
    10aa:	0000                	.insn	2, 0x0000
    10ac:	0000                	.insn	2, 0x0000
    10ae:	0000                	.insn	2, 0x0000
    10b0:	0000                	.insn	2, 0x0000
    10b2:	0000                	.insn	2, 0x0000
    10b4:	0000                	.insn	2, 0x0000
    10b6:	0000                	.insn	2, 0x0000
    10b8:	0000                	.insn	2, 0x0000
    10ba:	0000                	.insn	2, 0x0000
    10bc:	0000                	.insn	2, 0x0000
    10be:	0000                	.insn	2, 0x0000
    10c0:	0000                	.insn	2, 0x0000
    10c2:	0000                	.insn	2, 0x0000
    10c4:	0000                	.insn	2, 0x0000
    10c6:	0000                	.insn	2, 0x0000
    10c8:	0000                	.insn	2, 0x0000
    10ca:	0000                	.insn	2, 0x0000
    10cc:	0000                	.insn	2, 0x0000
    10ce:	0000                	.insn	2, 0x0000
    10d0:	0000                	.insn	2, 0x0000
    10d2:	0000                	.insn	2, 0x0000
    10d4:	0000                	.insn	2, 0x0000
    10d6:	0000                	.insn	2, 0x0000
    10d8:	0000                	.insn	2, 0x0000
    10da:	0000                	.insn	2, 0x0000
    10dc:	0000                	.insn	2, 0x0000
    10de:	0000                	.insn	2, 0x0000
    10e0:	0000                	.insn	2, 0x0000
    10e2:	0000                	.insn	2, 0x0000
    10e4:	0000                	.insn	2, 0x0000
    10e6:	0000                	.insn	2, 0x0000
    10e8:	0000                	.insn	2, 0x0000
    10ea:	0000                	.insn	2, 0x0000
    10ec:	0000                	.insn	2, 0x0000
    10ee:	0000                	.insn	2, 0x0000
    10f0:	0000                	.insn	2, 0x0000
    10f2:	0000                	.insn	2, 0x0000
    10f4:	0000                	.insn	2, 0x0000
    10f6:	0000                	.insn	2, 0x0000
    10f8:	0000                	.insn	2, 0x0000
    10fa:	0000                	.insn	2, 0x0000
    10fc:	0000                	.insn	2, 0x0000
    10fe:	0000                	.insn	2, 0x0000
    1100:	0000                	.insn	2, 0x0000
    1102:	0000                	.insn	2, 0x0000
    1104:	0000                	.insn	2, 0x0000
    1106:	0000                	.insn	2, 0x0000
    1108:	0000                	.insn	2, 0x0000
    110a:	0000                	.insn	2, 0x0000
    110c:	0000                	.insn	2, 0x0000
    110e:	0000                	.insn	2, 0x0000
    1110:	0000                	.insn	2, 0x0000
    1112:	0000                	.insn	2, 0x0000
    1114:	0000                	.insn	2, 0x0000
    1116:	0000                	.insn	2, 0x0000
    1118:	0000                	.insn	2, 0x0000
    111a:	0000                	.insn	2, 0x0000
    111c:	0000                	.insn	2, 0x0000
    111e:	0000                	.insn	2, 0x0000
    1120:	0000                	.insn	2, 0x0000
    1122:	0000                	.insn	2, 0x0000
    1124:	0000                	.insn	2, 0x0000
    1126:	0000                	.insn	2, 0x0000
    1128:	0000                	.insn	2, 0x0000
    112a:	0000                	.insn	2, 0x0000
    112c:	0000                	.insn	2, 0x0000
    112e:	0000                	.insn	2, 0x0000
    1130:	0000                	.insn	2, 0x0000
    1132:	0000                	.insn	2, 0x0000
    1134:	0000                	.insn	2, 0x0000
    1136:	0000                	.insn	2, 0x0000
    1138:	0000                	.insn	2, 0x0000
    113a:	0000                	.insn	2, 0x0000
    113c:	0000                	.insn	2, 0x0000
    113e:	0000                	.insn	2, 0x0000
    1140:	0000                	.insn	2, 0x0000
    1142:	0000                	.insn	2, 0x0000
    1144:	0000                	.insn	2, 0x0000
    1146:	0000                	.insn	2, 0x0000
    1148:	0000                	.insn	2, 0x0000
    114a:	0000                	.insn	2, 0x0000
    114c:	0000                	.insn	2, 0x0000
    114e:	0000                	.insn	2, 0x0000
    1150:	0000                	.insn	2, 0x0000
    1152:	0000                	.insn	2, 0x0000
    1154:	0000                	.insn	2, 0x0000
    1156:	0000                	.insn	2, 0x0000
    1158:	0000                	.insn	2, 0x0000
    115a:	0000                	.insn	2, 0x0000
    115c:	0000                	.insn	2, 0x0000
    115e:	0000                	.insn	2, 0x0000
    1160:	0000                	.insn	2, 0x0000
    1162:	0000                	.insn	2, 0x0000
    1164:	0000                	.insn	2, 0x0000
    1166:	0000                	.insn	2, 0x0000
    1168:	0000                	.insn	2, 0x0000
    116a:	0000                	.insn	2, 0x0000
    116c:	0000                	.insn	2, 0x0000
    116e:	0000                	.insn	2, 0x0000
    1170:	0000                	.insn	2, 0x0000
    1172:	0000                	.insn	2, 0x0000
    1174:	0000                	.insn	2, 0x0000
    1176:	0000                	.insn	2, 0x0000
    1178:	0000                	.insn	2, 0x0000
    117a:	0000                	.insn	2, 0x0000
    117c:	0000                	.insn	2, 0x0000
    117e:	0000                	.insn	2, 0x0000
    1180:	0000                	.insn	2, 0x0000
    1182:	0000                	.insn	2, 0x0000
    1184:	0000                	.insn	2, 0x0000
    1186:	0000                	.insn	2, 0x0000
    1188:	0000                	.insn	2, 0x0000
    118a:	0000                	.insn	2, 0x0000
    118c:	0000                	.insn	2, 0x0000
    118e:	0000                	.insn	2, 0x0000
    1190:	0000                	.insn	2, 0x0000
    1192:	0000                	.insn	2, 0x0000
    1194:	0000                	.insn	2, 0x0000
    1196:	0000                	.insn	2, 0x0000
    1198:	0000                	.insn	2, 0x0000
    119a:	0000                	.insn	2, 0x0000
    119c:	0000                	.insn	2, 0x0000
    119e:	0000                	.insn	2, 0x0000
    11a0:	0000                	.insn	2, 0x0000
    11a2:	0000                	.insn	2, 0x0000
    11a4:	0000                	.insn	2, 0x0000
    11a6:	0000                	.insn	2, 0x0000
    11a8:	0000                	.insn	2, 0x0000
    11aa:	0000                	.insn	2, 0x0000
    11ac:	0000                	.insn	2, 0x0000
    11ae:	0000                	.insn	2, 0x0000
    11b0:	0000                	.insn	2, 0x0000
    11b2:	0000                	.insn	2, 0x0000
    11b4:	0000                	.insn	2, 0x0000
    11b6:	0000                	.insn	2, 0x0000
    11b8:	0000                	.insn	2, 0x0000
    11ba:	0000                	.insn	2, 0x0000
    11bc:	0000                	.insn	2, 0x0000
    11be:	0000                	.insn	2, 0x0000
    11c0:	0000                	.insn	2, 0x0000
    11c2:	0000                	.insn	2, 0x0000
    11c4:	0000                	.insn	2, 0x0000
    11c6:	0000                	.insn	2, 0x0000
    11c8:	0000                	.insn	2, 0x0000
    11ca:	0000                	.insn	2, 0x0000
    11cc:	0000                	.insn	2, 0x0000
    11ce:	0000                	.insn	2, 0x0000
    11d0:	0000                	.insn	2, 0x0000
    11d2:	0000                	.insn	2, 0x0000
    11d4:	0000                	.insn	2, 0x0000
    11d6:	0000                	.insn	2, 0x0000
    11d8:	0000                	.insn	2, 0x0000
    11da:	0000                	.insn	2, 0x0000
    11dc:	0000                	.insn	2, 0x0000
    11de:	0000                	.insn	2, 0x0000
    11e0:	0000                	.insn	2, 0x0000
    11e2:	0000                	.insn	2, 0x0000
    11e4:	0000                	.insn	2, 0x0000
    11e6:	0000                	.insn	2, 0x0000
    11e8:	0000                	.insn	2, 0x0000
    11ea:	0000                	.insn	2, 0x0000
    11ec:	0000                	.insn	2, 0x0000
    11ee:	0000                	.insn	2, 0x0000
    11f0:	0000                	.insn	2, 0x0000
    11f2:	0000                	.insn	2, 0x0000
    11f4:	0000                	.insn	2, 0x0000
    11f6:	0000                	.insn	2, 0x0000
    11f8:	0000                	.insn	2, 0x0000
    11fa:	0000                	.insn	2, 0x0000
    11fc:	0000                	.insn	2, 0x0000
    11fe:	0000                	.insn	2, 0x0000
    1200:	0000                	.insn	2, 0x0000
    1202:	0000                	.insn	2, 0x0000
    1204:	0000                	.insn	2, 0x0000
    1206:	0000                	.insn	2, 0x0000
    1208:	0000                	.insn	2, 0x0000
    120a:	0000                	.insn	2, 0x0000
    120c:	0000                	.insn	2, 0x0000
    120e:	0000                	.insn	2, 0x0000
    1210:	0000                	.insn	2, 0x0000
    1212:	0000                	.insn	2, 0x0000
    1214:	0000                	.insn	2, 0x0000
    1216:	0000                	.insn	2, 0x0000
    1218:	0000                	.insn	2, 0x0000
    121a:	0000                	.insn	2, 0x0000
    121c:	0000                	.insn	2, 0x0000
    121e:	0000                	.insn	2, 0x0000
    1220:	0000                	.insn	2, 0x0000
    1222:	0000                	.insn	2, 0x0000
    1224:	0000                	.insn	2, 0x0000
    1226:	0000                	.insn	2, 0x0000
    1228:	0000                	.insn	2, 0x0000
    122a:	0000                	.insn	2, 0x0000
    122c:	0000                	.insn	2, 0x0000
    122e:	0000                	.insn	2, 0x0000
    1230:	0000                	.insn	2, 0x0000
    1232:	0000                	.insn	2, 0x0000
    1234:	0000                	.insn	2, 0x0000
    1236:	0000                	.insn	2, 0x0000
    1238:	0000                	.insn	2, 0x0000
    123a:	0000                	.insn	2, 0x0000
    123c:	0000                	.insn	2, 0x0000
    123e:	0000                	.insn	2, 0x0000
    1240:	0000                	.insn	2, 0x0000
    1242:	0000                	.insn	2, 0x0000
    1244:	0000                	.insn	2, 0x0000
    1246:	0000                	.insn	2, 0x0000
    1248:	0000                	.insn	2, 0x0000
    124a:	0000                	.insn	2, 0x0000
    124c:	0000                	.insn	2, 0x0000
    124e:	0000                	.insn	2, 0x0000
    1250:	0000                	.insn	2, 0x0000
    1252:	0000                	.insn	2, 0x0000
    1254:	0000                	.insn	2, 0x0000
    1256:	0000                	.insn	2, 0x0000
    1258:	0000                	.insn	2, 0x0000
    125a:	0000                	.insn	2, 0x0000
    125c:	0000                	.insn	2, 0x0000
    125e:	0000                	.insn	2, 0x0000
    1260:	0000                	.insn	2, 0x0000
    1262:	0000                	.insn	2, 0x0000
    1264:	0000                	.insn	2, 0x0000
    1266:	0000                	.insn	2, 0x0000
    1268:	0000                	.insn	2, 0x0000
    126a:	0000                	.insn	2, 0x0000
    126c:	0000                	.insn	2, 0x0000
    126e:	0000                	.insn	2, 0x0000
    1270:	0000                	.insn	2, 0x0000
    1272:	0000                	.insn	2, 0x0000
    1274:	0000                	.insn	2, 0x0000
    1276:	0000                	.insn	2, 0x0000
    1278:	0000                	.insn	2, 0x0000
    127a:	0000                	.insn	2, 0x0000
    127c:	0000                	.insn	2, 0x0000
    127e:	0000                	.insn	2, 0x0000
    1280:	0000                	.insn	2, 0x0000
    1282:	0000                	.insn	2, 0x0000
    1284:	0000                	.insn	2, 0x0000
    1286:	0000                	.insn	2, 0x0000
    1288:	0000                	.insn	2, 0x0000
    128a:	0000                	.insn	2, 0x0000
    128c:	0000                	.insn	2, 0x0000
    128e:	0000                	.insn	2, 0x0000
    1290:	0000                	.insn	2, 0x0000
    1292:	0000                	.insn	2, 0x0000
    1294:	0000                	.insn	2, 0x0000
    1296:	0000                	.insn	2, 0x0000
    1298:	0000                	.insn	2, 0x0000
    129a:	0000                	.insn	2, 0x0000
    129c:	0000                	.insn	2, 0x0000
    129e:	0000                	.insn	2, 0x0000
    12a0:	0000                	.insn	2, 0x0000
    12a2:	0000                	.insn	2, 0x0000
    12a4:	0000                	.insn	2, 0x0000
    12a6:	0000                	.insn	2, 0x0000
    12a8:	0000                	.insn	2, 0x0000
    12aa:	0000                	.insn	2, 0x0000
    12ac:	0000                	.insn	2, 0x0000
    12ae:	0000                	.insn	2, 0x0000
    12b0:	0000                	.insn	2, 0x0000
    12b2:	0000                	.insn	2, 0x0000
    12b4:	0000                	.insn	2, 0x0000
    12b6:	0000                	.insn	2, 0x0000
    12b8:	0000                	.insn	2, 0x0000
    12ba:	0000                	.insn	2, 0x0000
    12bc:	0000                	.insn	2, 0x0000
    12be:	0000                	.insn	2, 0x0000
    12c0:	0000                	.insn	2, 0x0000
    12c2:	0000                	.insn	2, 0x0000
    12c4:	0000                	.insn	2, 0x0000
    12c6:	0000                	.insn	2, 0x0000
    12c8:	0000                	.insn	2, 0x0000
    12ca:	0000                	.insn	2, 0x0000
    12cc:	0000                	.insn	2, 0x0000
    12ce:	0000                	.insn	2, 0x0000
    12d0:	0000                	.insn	2, 0x0000
    12d2:	0000                	.insn	2, 0x0000
    12d4:	0000                	.insn	2, 0x0000
    12d6:	0000                	.insn	2, 0x0000
    12d8:	0000                	.insn	2, 0x0000
    12da:	0000                	.insn	2, 0x0000
    12dc:	0000                	.insn	2, 0x0000
    12de:	0000                	.insn	2, 0x0000
    12e0:	0000                	.insn	2, 0x0000
    12e2:	0000                	.insn	2, 0x0000
    12e4:	0000                	.insn	2, 0x0000
    12e6:	0000                	.insn	2, 0x0000
    12e8:	0000                	.insn	2, 0x0000
    12ea:	0000                	.insn	2, 0x0000
    12ec:	0000                	.insn	2, 0x0000
    12ee:	0000                	.insn	2, 0x0000
    12f0:	0000                	.insn	2, 0x0000
    12f2:	0000                	.insn	2, 0x0000
    12f4:	0000                	.insn	2, 0x0000
    12f6:	0000                	.insn	2, 0x0000
    12f8:	0000                	.insn	2, 0x0000
    12fa:	0000                	.insn	2, 0x0000
    12fc:	0000                	.insn	2, 0x0000
    12fe:	0000                	.insn	2, 0x0000
    1300:	0000                	.insn	2, 0x0000
    1302:	0000                	.insn	2, 0x0000
    1304:	0000                	.insn	2, 0x0000
    1306:	0000                	.insn	2, 0x0000
    1308:	0000                	.insn	2, 0x0000
    130a:	0000                	.insn	2, 0x0000
    130c:	0000                	.insn	2, 0x0000
    130e:	0000                	.insn	2, 0x0000
    1310:	0000                	.insn	2, 0x0000
    1312:	0000                	.insn	2, 0x0000
    1314:	0000                	.insn	2, 0x0000
    1316:	0000                	.insn	2, 0x0000
    1318:	0000                	.insn	2, 0x0000
    131a:	0000                	.insn	2, 0x0000
    131c:	0000                	.insn	2, 0x0000
    131e:	0000                	.insn	2, 0x0000
    1320:	0000                	.insn	2, 0x0000
    1322:	0000                	.insn	2, 0x0000
    1324:	0000                	.insn	2, 0x0000
    1326:	0000                	.insn	2, 0x0000
    1328:	0000                	.insn	2, 0x0000
    132a:	0000                	.insn	2, 0x0000
    132c:	0000                	.insn	2, 0x0000
    132e:	0000                	.insn	2, 0x0000
    1330:	0000                	.insn	2, 0x0000
    1332:	0000                	.insn	2, 0x0000
    1334:	0000                	.insn	2, 0x0000
    1336:	0000                	.insn	2, 0x0000
    1338:	0000                	.insn	2, 0x0000
    133a:	0000                	.insn	2, 0x0000
    133c:	0000                	.insn	2, 0x0000
    133e:	0000                	.insn	2, 0x0000
    1340:	0000                	.insn	2, 0x0000
    1342:	0000                	.insn	2, 0x0000
    1344:	0000                	.insn	2, 0x0000
    1346:	0000                	.insn	2, 0x0000
    1348:	0000                	.insn	2, 0x0000
    134a:	0000                	.insn	2, 0x0000
    134c:	0000                	.insn	2, 0x0000
    134e:	0000                	.insn	2, 0x0000
    1350:	0000                	.insn	2, 0x0000
    1352:	0000                	.insn	2, 0x0000
    1354:	0000                	.insn	2, 0x0000
    1356:	0000                	.insn	2, 0x0000
    1358:	0000                	.insn	2, 0x0000
    135a:	0000                	.insn	2, 0x0000
    135c:	0000                	.insn	2, 0x0000
    135e:	0000                	.insn	2, 0x0000
    1360:	0000                	.insn	2, 0x0000
    1362:	0000                	.insn	2, 0x0000
    1364:	0000                	.insn	2, 0x0000
    1366:	0000                	.insn	2, 0x0000
    1368:	0000                	.insn	2, 0x0000
    136a:	0000                	.insn	2, 0x0000
    136c:	0000                	.insn	2, 0x0000
    136e:	0000                	.insn	2, 0x0000
    1370:	0000                	.insn	2, 0x0000
    1372:	0000                	.insn	2, 0x0000
    1374:	0000                	.insn	2, 0x0000
    1376:	0000                	.insn	2, 0x0000
    1378:	0000                	.insn	2, 0x0000
    137a:	0000                	.insn	2, 0x0000
    137c:	0000                	.insn	2, 0x0000
    137e:	0000                	.insn	2, 0x0000
    1380:	0000                	.insn	2, 0x0000
    1382:	0000                	.insn	2, 0x0000
    1384:	0000                	.insn	2, 0x0000
    1386:	0000                	.insn	2, 0x0000
    1388:	0000                	.insn	2, 0x0000
    138a:	0000                	.insn	2, 0x0000
    138c:	0000                	.insn	2, 0x0000
    138e:	0000                	.insn	2, 0x0000
    1390:	0000                	.insn	2, 0x0000
    1392:	0000                	.insn	2, 0x0000
    1394:	0000                	.insn	2, 0x0000
    1396:	0000                	.insn	2, 0x0000
    1398:	0000                	.insn	2, 0x0000
    139a:	0000                	.insn	2, 0x0000
    139c:	0000                	.insn	2, 0x0000
    139e:	0000                	.insn	2, 0x0000
    13a0:	0000                	.insn	2, 0x0000
    13a2:	0000                	.insn	2, 0x0000
    13a4:	0000                	.insn	2, 0x0000
    13a6:	0000                	.insn	2, 0x0000
    13a8:	0000                	.insn	2, 0x0000
    13aa:	0000                	.insn	2, 0x0000
    13ac:	0000                	.insn	2, 0x0000
    13ae:	0000                	.insn	2, 0x0000
    13b0:	0000                	.insn	2, 0x0000
    13b2:	0000                	.insn	2, 0x0000
    13b4:	0000                	.insn	2, 0x0000
    13b6:	0000                	.insn	2, 0x0000
    13b8:	0000                	.insn	2, 0x0000
    13ba:	0000                	.insn	2, 0x0000
    13bc:	0000                	.insn	2, 0x0000
    13be:	0000                	.insn	2, 0x0000
    13c0:	0000                	.insn	2, 0x0000
    13c2:	0000                	.insn	2, 0x0000
    13c4:	0000                	.insn	2, 0x0000
    13c6:	0000                	.insn	2, 0x0000
    13c8:	0000                	.insn	2, 0x0000
    13ca:	0000                	.insn	2, 0x0000
    13cc:	0000                	.insn	2, 0x0000
    13ce:	0000                	.insn	2, 0x0000
    13d0:	0000                	.insn	2, 0x0000
    13d2:	0000                	.insn	2, 0x0000
    13d4:	0000                	.insn	2, 0x0000
    13d6:	0000                	.insn	2, 0x0000
    13d8:	0000                	.insn	2, 0x0000
    13da:	0000                	.insn	2, 0x0000
    13dc:	0000                	.insn	2, 0x0000
    13de:	0000                	.insn	2, 0x0000
    13e0:	0000                	.insn	2, 0x0000
    13e2:	0000                	.insn	2, 0x0000
    13e4:	0000                	.insn	2, 0x0000
    13e6:	0000                	.insn	2, 0x0000
    13e8:	0000                	.insn	2, 0x0000
    13ea:	0000                	.insn	2, 0x0000
    13ec:	0000                	.insn	2, 0x0000
    13ee:	0000                	.insn	2, 0x0000
    13f0:	0000                	.insn	2, 0x0000
    13f2:	0000                	.insn	2, 0x0000
    13f4:	0000                	.insn	2, 0x0000
    13f6:	0000                	.insn	2, 0x0000
    13f8:	0000                	.insn	2, 0x0000
    13fa:	0000                	.insn	2, 0x0000
    13fc:	0000                	.insn	2, 0x0000
    13fe:	0000                	.insn	2, 0x0000
    1400:	0000                	.insn	2, 0x0000
    1402:	0000                	.insn	2, 0x0000
    1404:	0000                	.insn	2, 0x0000
    1406:	0000                	.insn	2, 0x0000
    1408:	0000                	.insn	2, 0x0000
    140a:	0000                	.insn	2, 0x0000
    140c:	0000                	.insn	2, 0x0000
    140e:	0000                	.insn	2, 0x0000
    1410:	0000                	.insn	2, 0x0000
    1412:	0000                	.insn	2, 0x0000
    1414:	0000                	.insn	2, 0x0000
    1416:	0000                	.insn	2, 0x0000
    1418:	0000                	.insn	2, 0x0000
    141a:	0000                	.insn	2, 0x0000
    141c:	0000                	.insn	2, 0x0000
    141e:	0000                	.insn	2, 0x0000
    1420:	0000                	.insn	2, 0x0000
    1422:	0000                	.insn	2, 0x0000
    1424:	0000                	.insn	2, 0x0000
    1426:	0000                	.insn	2, 0x0000
    1428:	0000                	.insn	2, 0x0000
    142a:	0000                	.insn	2, 0x0000
    142c:	0000                	.insn	2, 0x0000
    142e:	0000                	.insn	2, 0x0000
    1430:	0000                	.insn	2, 0x0000
    1432:	0000                	.insn	2, 0x0000
    1434:	0000                	.insn	2, 0x0000
    1436:	0000                	.insn	2, 0x0000
    1438:	0000                	.insn	2, 0x0000
    143a:	0000                	.insn	2, 0x0000
    143c:	0000                	.insn	2, 0x0000
    143e:	0000                	.insn	2, 0x0000
    1440:	0000                	.insn	2, 0x0000
    1442:	0000                	.insn	2, 0x0000
    1444:	0000                	.insn	2, 0x0000
    1446:	0000                	.insn	2, 0x0000
    1448:	0000                	.insn	2, 0x0000
    144a:	0000                	.insn	2, 0x0000
    144c:	0000                	.insn	2, 0x0000
    144e:	0000                	.insn	2, 0x0000
    1450:	0000                	.insn	2, 0x0000
    1452:	0000                	.insn	2, 0x0000
    1454:	0000                	.insn	2, 0x0000
    1456:	0000                	.insn	2, 0x0000
    1458:	0000                	.insn	2, 0x0000
    145a:	0000                	.insn	2, 0x0000
    145c:	0000                	.insn	2, 0x0000
    145e:	0000                	.insn	2, 0x0000
    1460:	0000                	.insn	2, 0x0000
    1462:	0000                	.insn	2, 0x0000
    1464:	0000                	.insn	2, 0x0000
    1466:	0000                	.insn	2, 0x0000
    1468:	0000                	.insn	2, 0x0000
    146a:	0000                	.insn	2, 0x0000
    146c:	0000                	.insn	2, 0x0000
    146e:	0000                	.insn	2, 0x0000
    1470:	0000                	.insn	2, 0x0000
    1472:	0000                	.insn	2, 0x0000
    1474:	0000                	.insn	2, 0x0000
    1476:	0000                	.insn	2, 0x0000
    1478:	0000                	.insn	2, 0x0000
    147a:	0000                	.insn	2, 0x0000
    147c:	0000                	.insn	2, 0x0000
    147e:	0000                	.insn	2, 0x0000
    1480:	0000                	.insn	2, 0x0000
    1482:	0000                	.insn	2, 0x0000
    1484:	0000                	.insn	2, 0x0000
    1486:	0000                	.insn	2, 0x0000
    1488:	0000                	.insn	2, 0x0000
    148a:	0000                	.insn	2, 0x0000
    148c:	0000                	.insn	2, 0x0000
    148e:	0000                	.insn	2, 0x0000
    1490:	0000                	.insn	2, 0x0000
    1492:	0000                	.insn	2, 0x0000
    1494:	0000                	.insn	2, 0x0000
    1496:	0000                	.insn	2, 0x0000
    1498:	0000                	.insn	2, 0x0000
    149a:	0000                	.insn	2, 0x0000
    149c:	0000                	.insn	2, 0x0000
    149e:	0000                	.insn	2, 0x0000
    14a0:	0000                	.insn	2, 0x0000
    14a2:	0000                	.insn	2, 0x0000
    14a4:	0000                	.insn	2, 0x0000
    14a6:	0000                	.insn	2, 0x0000
    14a8:	0000                	.insn	2, 0x0000
    14aa:	0000                	.insn	2, 0x0000
    14ac:	0000                	.insn	2, 0x0000
    14ae:	0000                	.insn	2, 0x0000
    14b0:	0000                	.insn	2, 0x0000
    14b2:	0000                	.insn	2, 0x0000
    14b4:	0000                	.insn	2, 0x0000
    14b6:	0000                	.insn	2, 0x0000
    14b8:	0000                	.insn	2, 0x0000
    14ba:	0000                	.insn	2, 0x0000
    14bc:	0000                	.insn	2, 0x0000
    14be:	0000                	.insn	2, 0x0000
    14c0:	0000                	.insn	2, 0x0000
    14c2:	0000                	.insn	2, 0x0000
    14c4:	0000                	.insn	2, 0x0000
    14c6:	0000                	.insn	2, 0x0000
    14c8:	0000                	.insn	2, 0x0000
    14ca:	0000                	.insn	2, 0x0000
    14cc:	0000                	.insn	2, 0x0000
    14ce:	0000                	.insn	2, 0x0000
    14d0:	0000                	.insn	2, 0x0000
    14d2:	0000                	.insn	2, 0x0000
    14d4:	0000                	.insn	2, 0x0000
    14d6:	0000                	.insn	2, 0x0000
    14d8:	0000                	.insn	2, 0x0000
    14da:	0000                	.insn	2, 0x0000
    14dc:	0000                	.insn	2, 0x0000
    14de:	0000                	.insn	2, 0x0000
    14e0:	0000                	.insn	2, 0x0000
    14e2:	0000                	.insn	2, 0x0000
    14e4:	0000                	.insn	2, 0x0000
    14e6:	0000                	.insn	2, 0x0000
    14e8:	0000                	.insn	2, 0x0000
    14ea:	0000                	.insn	2, 0x0000
    14ec:	0000                	.insn	2, 0x0000
    14ee:	0000                	.insn	2, 0x0000
    14f0:	0000                	.insn	2, 0x0000
    14f2:	0000                	.insn	2, 0x0000
    14f4:	0000                	.insn	2, 0x0000
    14f6:	0000                	.insn	2, 0x0000
    14f8:	0000                	.insn	2, 0x0000
    14fa:	0000                	.insn	2, 0x0000
    14fc:	0000                	.insn	2, 0x0000
    14fe:	0000                	.insn	2, 0x0000
    1500:	0000                	.insn	2, 0x0000
    1502:	0000                	.insn	2, 0x0000
    1504:	0000                	.insn	2, 0x0000
    1506:	0000                	.insn	2, 0x0000
    1508:	0000                	.insn	2, 0x0000
    150a:	0000                	.insn	2, 0x0000
    150c:	0000                	.insn	2, 0x0000
    150e:	0000                	.insn	2, 0x0000
    1510:	0000                	.insn	2, 0x0000
    1512:	0000                	.insn	2, 0x0000
    1514:	0000                	.insn	2, 0x0000
    1516:	0000                	.insn	2, 0x0000
    1518:	0000                	.insn	2, 0x0000
    151a:	0000                	.insn	2, 0x0000
    151c:	0000                	.insn	2, 0x0000
    151e:	0000                	.insn	2, 0x0000
    1520:	0000                	.insn	2, 0x0000
    1522:	0000                	.insn	2, 0x0000
    1524:	0000                	.insn	2, 0x0000
    1526:	0000                	.insn	2, 0x0000
    1528:	0000                	.insn	2, 0x0000
    152a:	0000                	.insn	2, 0x0000
    152c:	0000                	.insn	2, 0x0000
    152e:	0000                	.insn	2, 0x0000
    1530:	0000                	.insn	2, 0x0000
    1532:	0000                	.insn	2, 0x0000
    1534:	0000                	.insn	2, 0x0000
    1536:	0000                	.insn	2, 0x0000
    1538:	0000                	.insn	2, 0x0000
    153a:	0000                	.insn	2, 0x0000
    153c:	0000                	.insn	2, 0x0000
    153e:	0000                	.insn	2, 0x0000
    1540:	0000                	.insn	2, 0x0000
    1542:	0000                	.insn	2, 0x0000
    1544:	0000                	.insn	2, 0x0000
    1546:	0000                	.insn	2, 0x0000
    1548:	0000                	.insn	2, 0x0000
    154a:	0000                	.insn	2, 0x0000
    154c:	0000                	.insn	2, 0x0000
    154e:	0000                	.insn	2, 0x0000
    1550:	0000                	.insn	2, 0x0000
    1552:	0000                	.insn	2, 0x0000
    1554:	0000                	.insn	2, 0x0000
    1556:	0000                	.insn	2, 0x0000
    1558:	0000                	.insn	2, 0x0000
    155a:	0000                	.insn	2, 0x0000
    155c:	0000                	.insn	2, 0x0000
    155e:	0000                	.insn	2, 0x0000
    1560:	0000                	.insn	2, 0x0000
    1562:	0000                	.insn	2, 0x0000
    1564:	0000                	.insn	2, 0x0000
    1566:	0000                	.insn	2, 0x0000
    1568:	0000                	.insn	2, 0x0000
    156a:	0000                	.insn	2, 0x0000
    156c:	0000                	.insn	2, 0x0000
    156e:	0000                	.insn	2, 0x0000
    1570:	0000                	.insn	2, 0x0000
    1572:	0000                	.insn	2, 0x0000
    1574:	0000                	.insn	2, 0x0000
    1576:	0000                	.insn	2, 0x0000
    1578:	0000                	.insn	2, 0x0000
    157a:	0000                	.insn	2, 0x0000
    157c:	0000                	.insn	2, 0x0000
    157e:	0000                	.insn	2, 0x0000
    1580:	0000                	.insn	2, 0x0000
    1582:	0000                	.insn	2, 0x0000
    1584:	0000                	.insn	2, 0x0000
    1586:	0000                	.insn	2, 0x0000
    1588:	0000                	.insn	2, 0x0000
    158a:	0000                	.insn	2, 0x0000
    158c:	0000                	.insn	2, 0x0000
    158e:	0000                	.insn	2, 0x0000
    1590:	0000                	.insn	2, 0x0000
    1592:	0000                	.insn	2, 0x0000
    1594:	0000                	.insn	2, 0x0000
    1596:	0000                	.insn	2, 0x0000
    1598:	0000                	.insn	2, 0x0000
    159a:	0000                	.insn	2, 0x0000
    159c:	0000                	.insn	2, 0x0000
    159e:	0000                	.insn	2, 0x0000
    15a0:	0000                	.insn	2, 0x0000
    15a2:	0000                	.insn	2, 0x0000
    15a4:	0000                	.insn	2, 0x0000
    15a6:	0000                	.insn	2, 0x0000
    15a8:	0000                	.insn	2, 0x0000
    15aa:	0000                	.insn	2, 0x0000
    15ac:	0000                	.insn	2, 0x0000
    15ae:	0000                	.insn	2, 0x0000
    15b0:	0000                	.insn	2, 0x0000
    15b2:	0000                	.insn	2, 0x0000
    15b4:	0000                	.insn	2, 0x0000
    15b6:	0000                	.insn	2, 0x0000
    15b8:	0000                	.insn	2, 0x0000
    15ba:	0000                	.insn	2, 0x0000
    15bc:	0000                	.insn	2, 0x0000
    15be:	0000                	.insn	2, 0x0000
    15c0:	0000                	.insn	2, 0x0000
    15c2:	0000                	.insn	2, 0x0000
    15c4:	0000                	.insn	2, 0x0000
    15c6:	0000                	.insn	2, 0x0000
    15c8:	0000                	.insn	2, 0x0000
    15ca:	0000                	.insn	2, 0x0000
    15cc:	0000                	.insn	2, 0x0000
    15ce:	0000                	.insn	2, 0x0000
    15d0:	0000                	.insn	2, 0x0000
    15d2:	0000                	.insn	2, 0x0000
    15d4:	0000                	.insn	2, 0x0000
    15d6:	0000                	.insn	2, 0x0000
    15d8:	0000                	.insn	2, 0x0000
    15da:	0000                	.insn	2, 0x0000
    15dc:	0000                	.insn	2, 0x0000
    15de:	0000                	.insn	2, 0x0000
    15e0:	0000                	.insn	2, 0x0000
    15e2:	0000                	.insn	2, 0x0000
    15e4:	0000                	.insn	2, 0x0000
    15e6:	0000                	.insn	2, 0x0000
    15e8:	0000                	.insn	2, 0x0000
    15ea:	0000                	.insn	2, 0x0000
    15ec:	0000                	.insn	2, 0x0000
    15ee:	0000                	.insn	2, 0x0000
    15f0:	0000                	.insn	2, 0x0000
    15f2:	0000                	.insn	2, 0x0000
    15f4:	0000                	.insn	2, 0x0000
    15f6:	0000                	.insn	2, 0x0000
    15f8:	0000                	.insn	2, 0x0000
    15fa:	0000                	.insn	2, 0x0000
    15fc:	0000                	.insn	2, 0x0000
    15fe:	0000                	.insn	2, 0x0000
    1600:	0000                	.insn	2, 0x0000
    1602:	0000                	.insn	2, 0x0000
    1604:	0000                	.insn	2, 0x0000
    1606:	0000                	.insn	2, 0x0000
    1608:	0000                	.insn	2, 0x0000
    160a:	0000                	.insn	2, 0x0000
    160c:	0000                	.insn	2, 0x0000
    160e:	0000                	.insn	2, 0x0000
    1610:	0000                	.insn	2, 0x0000
    1612:	0000                	.insn	2, 0x0000
    1614:	0000                	.insn	2, 0x0000
    1616:	0000                	.insn	2, 0x0000
    1618:	0000                	.insn	2, 0x0000
    161a:	0000                	.insn	2, 0x0000
    161c:	0000                	.insn	2, 0x0000
    161e:	0000                	.insn	2, 0x0000
    1620:	0000                	.insn	2, 0x0000
    1622:	0000                	.insn	2, 0x0000
    1624:	0000                	.insn	2, 0x0000
    1626:	0000                	.insn	2, 0x0000
    1628:	0000                	.insn	2, 0x0000
    162a:	0000                	.insn	2, 0x0000
    162c:	0000                	.insn	2, 0x0000
    162e:	0000                	.insn	2, 0x0000
    1630:	0000                	.insn	2, 0x0000
    1632:	0000                	.insn	2, 0x0000
    1634:	0000                	.insn	2, 0x0000
    1636:	0000                	.insn	2, 0x0000
    1638:	0000                	.insn	2, 0x0000
    163a:	0000                	.insn	2, 0x0000
    163c:	0000                	.insn	2, 0x0000
    163e:	0000                	.insn	2, 0x0000
    1640:	0000                	.insn	2, 0x0000
    1642:	0000                	.insn	2, 0x0000
    1644:	0000                	.insn	2, 0x0000
    1646:	0000                	.insn	2, 0x0000
    1648:	0000                	.insn	2, 0x0000
    164a:	0000                	.insn	2, 0x0000
    164c:	0000                	.insn	2, 0x0000
    164e:	0000                	.insn	2, 0x0000
    1650:	0000                	.insn	2, 0x0000
    1652:	0000                	.insn	2, 0x0000
    1654:	0000                	.insn	2, 0x0000
    1656:	0000                	.insn	2, 0x0000
    1658:	0000                	.insn	2, 0x0000
    165a:	0000                	.insn	2, 0x0000
    165c:	0000                	.insn	2, 0x0000
    165e:	0000                	.insn	2, 0x0000
    1660:	0000                	.insn	2, 0x0000
    1662:	0000                	.insn	2, 0x0000
    1664:	0000                	.insn	2, 0x0000
    1666:	0000                	.insn	2, 0x0000
    1668:	0000                	.insn	2, 0x0000
    166a:	0000                	.insn	2, 0x0000
    166c:	0000                	.insn	2, 0x0000
    166e:	0000                	.insn	2, 0x0000
    1670:	0000                	.insn	2, 0x0000
    1672:	0000                	.insn	2, 0x0000
    1674:	0000                	.insn	2, 0x0000
    1676:	0000                	.insn	2, 0x0000
    1678:	0000                	.insn	2, 0x0000
    167a:	0000                	.insn	2, 0x0000
    167c:	0000                	.insn	2, 0x0000
    167e:	0000                	.insn	2, 0x0000
    1680:	0000                	.insn	2, 0x0000
    1682:	0000                	.insn	2, 0x0000
    1684:	0000                	.insn	2, 0x0000
    1686:	0000                	.insn	2, 0x0000
    1688:	0000                	.insn	2, 0x0000
    168a:	0000                	.insn	2, 0x0000
    168c:	0000                	.insn	2, 0x0000
    168e:	0000                	.insn	2, 0x0000
    1690:	0000                	.insn	2, 0x0000
    1692:	0000                	.insn	2, 0x0000
    1694:	0000                	.insn	2, 0x0000
    1696:	0000                	.insn	2, 0x0000
    1698:	0000                	.insn	2, 0x0000
    169a:	0000                	.insn	2, 0x0000
    169c:	0000                	.insn	2, 0x0000
    169e:	0000                	.insn	2, 0x0000
    16a0:	0000                	.insn	2, 0x0000
    16a2:	0000                	.insn	2, 0x0000
    16a4:	0000                	.insn	2, 0x0000
    16a6:	0000                	.insn	2, 0x0000
    16a8:	0000                	.insn	2, 0x0000
    16aa:	0000                	.insn	2, 0x0000
    16ac:	0000                	.insn	2, 0x0000
    16ae:	0000                	.insn	2, 0x0000
    16b0:	0000                	.insn	2, 0x0000
    16b2:	0000                	.insn	2, 0x0000
    16b4:	0000                	.insn	2, 0x0000
    16b6:	0000                	.insn	2, 0x0000
    16b8:	0000                	.insn	2, 0x0000
    16ba:	0000                	.insn	2, 0x0000
    16bc:	0000                	.insn	2, 0x0000
    16be:	0000                	.insn	2, 0x0000
    16c0:	0000                	.insn	2, 0x0000
    16c2:	0000                	.insn	2, 0x0000
    16c4:	0000                	.insn	2, 0x0000
    16c6:	0000                	.insn	2, 0x0000
    16c8:	0000                	.insn	2, 0x0000
    16ca:	0000                	.insn	2, 0x0000
    16cc:	0000                	.insn	2, 0x0000
    16ce:	0000                	.insn	2, 0x0000
    16d0:	0000                	.insn	2, 0x0000
    16d2:	0000                	.insn	2, 0x0000
    16d4:	0000                	.insn	2, 0x0000
    16d6:	0000                	.insn	2, 0x0000
    16d8:	0000                	.insn	2, 0x0000
    16da:	0000                	.insn	2, 0x0000
    16dc:	0000                	.insn	2, 0x0000
    16de:	0000                	.insn	2, 0x0000
    16e0:	0000                	.insn	2, 0x0000
    16e2:	0000                	.insn	2, 0x0000
    16e4:	0000                	.insn	2, 0x0000
    16e6:	0000                	.insn	2, 0x0000
    16e8:	0000                	.insn	2, 0x0000
    16ea:	0000                	.insn	2, 0x0000
    16ec:	0000                	.insn	2, 0x0000
    16ee:	0000                	.insn	2, 0x0000
    16f0:	0000                	.insn	2, 0x0000
    16f2:	0000                	.insn	2, 0x0000
    16f4:	0000                	.insn	2, 0x0000
    16f6:	0000                	.insn	2, 0x0000
    16f8:	0000                	.insn	2, 0x0000
    16fa:	0000                	.insn	2, 0x0000
    16fc:	0000                	.insn	2, 0x0000
    16fe:	0000                	.insn	2, 0x0000
    1700:	0000                	.insn	2, 0x0000
    1702:	0000                	.insn	2, 0x0000
    1704:	0000                	.insn	2, 0x0000
    1706:	0000                	.insn	2, 0x0000
    1708:	0000                	.insn	2, 0x0000
    170a:	0000                	.insn	2, 0x0000
    170c:	0000                	.insn	2, 0x0000
    170e:	0000                	.insn	2, 0x0000
    1710:	0000                	.insn	2, 0x0000
    1712:	0000                	.insn	2, 0x0000
    1714:	0000                	.insn	2, 0x0000
    1716:	0000                	.insn	2, 0x0000
    1718:	0000                	.insn	2, 0x0000
    171a:	0000                	.insn	2, 0x0000
    171c:	0000                	.insn	2, 0x0000
    171e:	0000                	.insn	2, 0x0000
    1720:	0000                	.insn	2, 0x0000
    1722:	0000                	.insn	2, 0x0000
    1724:	0000                	.insn	2, 0x0000
    1726:	0000                	.insn	2, 0x0000
    1728:	0000                	.insn	2, 0x0000
    172a:	0000                	.insn	2, 0x0000
    172c:	0000                	.insn	2, 0x0000
    172e:	0000                	.insn	2, 0x0000
    1730:	0000                	.insn	2, 0x0000
    1732:	0000                	.insn	2, 0x0000
    1734:	0000                	.insn	2, 0x0000
    1736:	0000                	.insn	2, 0x0000
    1738:	0000                	.insn	2, 0x0000
    173a:	0000                	.insn	2, 0x0000
    173c:	0000                	.insn	2, 0x0000
    173e:	0000                	.insn	2, 0x0000
    1740:	0000                	.insn	2, 0x0000
    1742:	0000                	.insn	2, 0x0000
    1744:	0000                	.insn	2, 0x0000
    1746:	0000                	.insn	2, 0x0000
    1748:	0000                	.insn	2, 0x0000
    174a:	0000                	.insn	2, 0x0000
    174c:	0000                	.insn	2, 0x0000
    174e:	0000                	.insn	2, 0x0000
    1750:	0000                	.insn	2, 0x0000
    1752:	0000                	.insn	2, 0x0000
    1754:	0000                	.insn	2, 0x0000
    1756:	0000                	.insn	2, 0x0000
    1758:	0000                	.insn	2, 0x0000
    175a:	0000                	.insn	2, 0x0000
    175c:	0000                	.insn	2, 0x0000
    175e:	0000                	.insn	2, 0x0000
    1760:	0000                	.insn	2, 0x0000
    1762:	0000                	.insn	2, 0x0000
    1764:	0000                	.insn	2, 0x0000
    1766:	0000                	.insn	2, 0x0000
    1768:	0000                	.insn	2, 0x0000
    176a:	0000                	.insn	2, 0x0000
    176c:	0000                	.insn	2, 0x0000
    176e:	0000                	.insn	2, 0x0000
    1770:	0000                	.insn	2, 0x0000
    1772:	0000                	.insn	2, 0x0000
    1774:	0000                	.insn	2, 0x0000
    1776:	0000                	.insn	2, 0x0000
    1778:	0000                	.insn	2, 0x0000
    177a:	0000                	.insn	2, 0x0000
    177c:	0000                	.insn	2, 0x0000
    177e:	0000                	.insn	2, 0x0000
    1780:	0000                	.insn	2, 0x0000
    1782:	0000                	.insn	2, 0x0000
    1784:	0000                	.insn	2, 0x0000
    1786:	0000                	.insn	2, 0x0000
    1788:	0000                	.insn	2, 0x0000
    178a:	0000                	.insn	2, 0x0000
    178c:	0000                	.insn	2, 0x0000
    178e:	0000                	.insn	2, 0x0000
    1790:	0000                	.insn	2, 0x0000
    1792:	0000                	.insn	2, 0x0000
    1794:	0000                	.insn	2, 0x0000
    1796:	0000                	.insn	2, 0x0000
    1798:	0000                	.insn	2, 0x0000
    179a:	0000                	.insn	2, 0x0000
    179c:	0000                	.insn	2, 0x0000
    179e:	0000                	.insn	2, 0x0000
    17a0:	0000                	.insn	2, 0x0000
    17a2:	0000                	.insn	2, 0x0000
    17a4:	0000                	.insn	2, 0x0000
    17a6:	0000                	.insn	2, 0x0000
    17a8:	0000                	.insn	2, 0x0000
    17aa:	0000                	.insn	2, 0x0000
    17ac:	0000                	.insn	2, 0x0000
    17ae:	0000                	.insn	2, 0x0000
    17b0:	0000                	.insn	2, 0x0000
    17b2:	0000                	.insn	2, 0x0000
    17b4:	0000                	.insn	2, 0x0000
    17b6:	0000                	.insn	2, 0x0000
    17b8:	0000                	.insn	2, 0x0000
    17ba:	0000                	.insn	2, 0x0000
    17bc:	0000                	.insn	2, 0x0000
    17be:	0000                	.insn	2, 0x0000
    17c0:	0000                	.insn	2, 0x0000
    17c2:	0000                	.insn	2, 0x0000
    17c4:	0000                	.insn	2, 0x0000
    17c6:	0000                	.insn	2, 0x0000
    17c8:	0000                	.insn	2, 0x0000
    17ca:	0000                	.insn	2, 0x0000
    17cc:	0000                	.insn	2, 0x0000
    17ce:	0000                	.insn	2, 0x0000
    17d0:	0000                	.insn	2, 0x0000
    17d2:	0000                	.insn	2, 0x0000
    17d4:	0000                	.insn	2, 0x0000
    17d6:	0000                	.insn	2, 0x0000
    17d8:	0000                	.insn	2, 0x0000
    17da:	0000                	.insn	2, 0x0000
    17dc:	0000                	.insn	2, 0x0000
    17de:	0000                	.insn	2, 0x0000
    17e0:	0000                	.insn	2, 0x0000
    17e2:	0000                	.insn	2, 0x0000
    17e4:	0000                	.insn	2, 0x0000
    17e6:	0000                	.insn	2, 0x0000
    17e8:	0000                	.insn	2, 0x0000
    17ea:	0000                	.insn	2, 0x0000
    17ec:	0000                	.insn	2, 0x0000
    17ee:	0000                	.insn	2, 0x0000
    17f0:	0000                	.insn	2, 0x0000
    17f2:	0000                	.insn	2, 0x0000
    17f4:	0000                	.insn	2, 0x0000
    17f6:	0000                	.insn	2, 0x0000
    17f8:	0000                	.insn	2, 0x0000
    17fa:	0000                	.insn	2, 0x0000
    17fc:	0000                	.insn	2, 0x0000
    17fe:	0000                	.insn	2, 0x0000
    1800:	0000                	.insn	2, 0x0000
    1802:	0000                	.insn	2, 0x0000
    1804:	0000                	.insn	2, 0x0000
    1806:	0000                	.insn	2, 0x0000
    1808:	0000                	.insn	2, 0x0000
    180a:	0000                	.insn	2, 0x0000
    180c:	0000                	.insn	2, 0x0000
    180e:	0000                	.insn	2, 0x0000
    1810:	0000                	.insn	2, 0x0000
    1812:	0000                	.insn	2, 0x0000
    1814:	0000                	.insn	2, 0x0000
    1816:	0000                	.insn	2, 0x0000
    1818:	0000                	.insn	2, 0x0000
    181a:	0000                	.insn	2, 0x0000
    181c:	0000                	.insn	2, 0x0000
    181e:	0000                	.insn	2, 0x0000
    1820:	0000                	.insn	2, 0x0000
    1822:	0000                	.insn	2, 0x0000
    1824:	0000                	.insn	2, 0x0000
    1826:	0000                	.insn	2, 0x0000
    1828:	0000                	.insn	2, 0x0000
    182a:	0000                	.insn	2, 0x0000
    182c:	0000                	.insn	2, 0x0000
    182e:	0000                	.insn	2, 0x0000
    1830:	0000                	.insn	2, 0x0000
    1832:	0000                	.insn	2, 0x0000
    1834:	0000                	.insn	2, 0x0000
    1836:	0000                	.insn	2, 0x0000
    1838:	0000                	.insn	2, 0x0000
    183a:	0000                	.insn	2, 0x0000
    183c:	0000                	.insn	2, 0x0000
    183e:	0000                	.insn	2, 0x0000
    1840:	0000                	.insn	2, 0x0000
    1842:	0000                	.insn	2, 0x0000
    1844:	0000                	.insn	2, 0x0000
    1846:	0000                	.insn	2, 0x0000
    1848:	0000                	.insn	2, 0x0000
    184a:	0000                	.insn	2, 0x0000
    184c:	0000                	.insn	2, 0x0000
    184e:	0000                	.insn	2, 0x0000
    1850:	0000                	.insn	2, 0x0000
    1852:	0000                	.insn	2, 0x0000
    1854:	0000                	.insn	2, 0x0000
    1856:	0000                	.insn	2, 0x0000
    1858:	0000                	.insn	2, 0x0000
    185a:	0000                	.insn	2, 0x0000
    185c:	0000                	.insn	2, 0x0000
    185e:	0000                	.insn	2, 0x0000
    1860:	0000                	.insn	2, 0x0000
    1862:	0000                	.insn	2, 0x0000
    1864:	0000                	.insn	2, 0x0000
    1866:	0000                	.insn	2, 0x0000
    1868:	0000                	.insn	2, 0x0000
    186a:	0000                	.insn	2, 0x0000
    186c:	0000                	.insn	2, 0x0000
    186e:	0000                	.insn	2, 0x0000
    1870:	0000                	.insn	2, 0x0000
    1872:	0000                	.insn	2, 0x0000
    1874:	0000                	.insn	2, 0x0000
    1876:	0000                	.insn	2, 0x0000
    1878:	0000                	.insn	2, 0x0000
    187a:	0000                	.insn	2, 0x0000
    187c:	0000                	.insn	2, 0x0000
    187e:	0000                	.insn	2, 0x0000
    1880:	0000                	.insn	2, 0x0000
    1882:	0000                	.insn	2, 0x0000
    1884:	0000                	.insn	2, 0x0000
    1886:	0000                	.insn	2, 0x0000
    1888:	0000                	.insn	2, 0x0000
    188a:	0000                	.insn	2, 0x0000
    188c:	0000                	.insn	2, 0x0000
    188e:	0000                	.insn	2, 0x0000
    1890:	0000                	.insn	2, 0x0000
    1892:	0000                	.insn	2, 0x0000
    1894:	0000                	.insn	2, 0x0000
    1896:	0000                	.insn	2, 0x0000
    1898:	0000                	.insn	2, 0x0000
    189a:	0000                	.insn	2, 0x0000
    189c:	0000                	.insn	2, 0x0000
    189e:	0000                	.insn	2, 0x0000
    18a0:	0000                	.insn	2, 0x0000
    18a2:	0000                	.insn	2, 0x0000
    18a4:	0000                	.insn	2, 0x0000
    18a6:	0000                	.insn	2, 0x0000
    18a8:	0000                	.insn	2, 0x0000
    18aa:	0000                	.insn	2, 0x0000
    18ac:	0000                	.insn	2, 0x0000
    18ae:	0000                	.insn	2, 0x0000
    18b0:	0000                	.insn	2, 0x0000
    18b2:	0000                	.insn	2, 0x0000
    18b4:	0000                	.insn	2, 0x0000
    18b6:	0000                	.insn	2, 0x0000
    18b8:	0000                	.insn	2, 0x0000
    18ba:	0000                	.insn	2, 0x0000
    18bc:	0000                	.insn	2, 0x0000
    18be:	0000                	.insn	2, 0x0000
    18c0:	0000                	.insn	2, 0x0000
    18c2:	0000                	.insn	2, 0x0000
    18c4:	0000                	.insn	2, 0x0000
    18c6:	0000                	.insn	2, 0x0000
    18c8:	0000                	.insn	2, 0x0000
    18ca:	0000                	.insn	2, 0x0000
    18cc:	0000                	.insn	2, 0x0000
    18ce:	0000                	.insn	2, 0x0000
    18d0:	0000                	.insn	2, 0x0000
    18d2:	0000                	.insn	2, 0x0000
    18d4:	0000                	.insn	2, 0x0000
    18d6:	0000                	.insn	2, 0x0000
    18d8:	0000                	.insn	2, 0x0000
    18da:	0000                	.insn	2, 0x0000
    18dc:	0000                	.insn	2, 0x0000
    18de:	0000                	.insn	2, 0x0000
    18e0:	0000                	.insn	2, 0x0000
    18e2:	0000                	.insn	2, 0x0000
    18e4:	0000                	.insn	2, 0x0000
    18e6:	0000                	.insn	2, 0x0000
    18e8:	0000                	.insn	2, 0x0000
    18ea:	0000                	.insn	2, 0x0000
    18ec:	0000                	.insn	2, 0x0000
    18ee:	0000                	.insn	2, 0x0000
    18f0:	0000                	.insn	2, 0x0000
    18f2:	0000                	.insn	2, 0x0000
    18f4:	0000                	.insn	2, 0x0000
    18f6:	0000                	.insn	2, 0x0000
    18f8:	0000                	.insn	2, 0x0000
    18fa:	0000                	.insn	2, 0x0000
    18fc:	0000                	.insn	2, 0x0000
    18fe:	0000                	.insn	2, 0x0000
    1900:	0000                	.insn	2, 0x0000
    1902:	0000                	.insn	2, 0x0000
    1904:	0000                	.insn	2, 0x0000
    1906:	0000                	.insn	2, 0x0000
    1908:	0000                	.insn	2, 0x0000
    190a:	0000                	.insn	2, 0x0000
    190c:	0000                	.insn	2, 0x0000
    190e:	0000                	.insn	2, 0x0000
    1910:	0000                	.insn	2, 0x0000
    1912:	0000                	.insn	2, 0x0000
    1914:	0000                	.insn	2, 0x0000
    1916:	0000                	.insn	2, 0x0000
    1918:	0000                	.insn	2, 0x0000
    191a:	0000                	.insn	2, 0x0000
    191c:	0000                	.insn	2, 0x0000
    191e:	0000                	.insn	2, 0x0000
    1920:	0000                	.insn	2, 0x0000
    1922:	0000                	.insn	2, 0x0000
    1924:	0000                	.insn	2, 0x0000
    1926:	0000                	.insn	2, 0x0000
    1928:	0000                	.insn	2, 0x0000
    192a:	0000                	.insn	2, 0x0000
    192c:	0000                	.insn	2, 0x0000
    192e:	0000                	.insn	2, 0x0000
    1930:	0000                	.insn	2, 0x0000
    1932:	0000                	.insn	2, 0x0000
    1934:	0000                	.insn	2, 0x0000
    1936:	0000                	.insn	2, 0x0000
    1938:	0000                	.insn	2, 0x0000
    193a:	0000                	.insn	2, 0x0000
    193c:	0000                	.insn	2, 0x0000
    193e:	0000                	.insn	2, 0x0000
    1940:	0000                	.insn	2, 0x0000
    1942:	0000                	.insn	2, 0x0000
    1944:	0000                	.insn	2, 0x0000
    1946:	0000                	.insn	2, 0x0000
    1948:	0000                	.insn	2, 0x0000
    194a:	0000                	.insn	2, 0x0000
    194c:	0000                	.insn	2, 0x0000
    194e:	0000                	.insn	2, 0x0000
    1950:	0000                	.insn	2, 0x0000
    1952:	0000                	.insn	2, 0x0000
    1954:	0000                	.insn	2, 0x0000
    1956:	0000                	.insn	2, 0x0000
    1958:	0000                	.insn	2, 0x0000
    195a:	0000                	.insn	2, 0x0000
    195c:	0000                	.insn	2, 0x0000
    195e:	0000                	.insn	2, 0x0000
    1960:	0000                	.insn	2, 0x0000
    1962:	0000                	.insn	2, 0x0000
    1964:	0000                	.insn	2, 0x0000
    1966:	0000                	.insn	2, 0x0000
    1968:	0000                	.insn	2, 0x0000
    196a:	0000                	.insn	2, 0x0000
    196c:	0000                	.insn	2, 0x0000
    196e:	0000                	.insn	2, 0x0000
    1970:	0000                	.insn	2, 0x0000
    1972:	0000                	.insn	2, 0x0000
    1974:	0000                	.insn	2, 0x0000
    1976:	0000                	.insn	2, 0x0000
    1978:	0000                	.insn	2, 0x0000
    197a:	0000                	.insn	2, 0x0000
    197c:	0000                	.insn	2, 0x0000
    197e:	0000                	.insn	2, 0x0000
    1980:	0000                	.insn	2, 0x0000
    1982:	0000                	.insn	2, 0x0000
    1984:	0000                	.insn	2, 0x0000
    1986:	0000                	.insn	2, 0x0000
    1988:	0000                	.insn	2, 0x0000
    198a:	0000                	.insn	2, 0x0000
    198c:	0000                	.insn	2, 0x0000
    198e:	0000                	.insn	2, 0x0000
    1990:	0000                	.insn	2, 0x0000
    1992:	0000                	.insn	2, 0x0000
    1994:	0000                	.insn	2, 0x0000
    1996:	0000                	.insn	2, 0x0000
    1998:	0000                	.insn	2, 0x0000
    199a:	0000                	.insn	2, 0x0000
    199c:	0000                	.insn	2, 0x0000
    199e:	0000                	.insn	2, 0x0000
    19a0:	0000                	.insn	2, 0x0000
    19a2:	0000                	.insn	2, 0x0000
    19a4:	0000                	.insn	2, 0x0000
    19a6:	0000                	.insn	2, 0x0000
    19a8:	0000                	.insn	2, 0x0000
    19aa:	0000                	.insn	2, 0x0000
    19ac:	0000                	.insn	2, 0x0000
    19ae:	0000                	.insn	2, 0x0000
    19b0:	0000                	.insn	2, 0x0000
    19b2:	0000                	.insn	2, 0x0000
    19b4:	0000                	.insn	2, 0x0000
    19b6:	0000                	.insn	2, 0x0000
    19b8:	0000                	.insn	2, 0x0000
    19ba:	0000                	.insn	2, 0x0000
    19bc:	0000                	.insn	2, 0x0000
    19be:	0000                	.insn	2, 0x0000
    19c0:	0000                	.insn	2, 0x0000
    19c2:	0000                	.insn	2, 0x0000
    19c4:	0000                	.insn	2, 0x0000
    19c6:	0000                	.insn	2, 0x0000
    19c8:	0000                	.insn	2, 0x0000
    19ca:	0000                	.insn	2, 0x0000
    19cc:	0000                	.insn	2, 0x0000
    19ce:	0000                	.insn	2, 0x0000
    19d0:	0000                	.insn	2, 0x0000
    19d2:	0000                	.insn	2, 0x0000
    19d4:	0000                	.insn	2, 0x0000
    19d6:	0000                	.insn	2, 0x0000
    19d8:	0000                	.insn	2, 0x0000
    19da:	0000                	.insn	2, 0x0000
    19dc:	0000                	.insn	2, 0x0000
    19de:	0000                	.insn	2, 0x0000
    19e0:	0000                	.insn	2, 0x0000
    19e2:	0000                	.insn	2, 0x0000
    19e4:	0000                	.insn	2, 0x0000
    19e6:	0000                	.insn	2, 0x0000
    19e8:	0000                	.insn	2, 0x0000
    19ea:	0000                	.insn	2, 0x0000
    19ec:	0000                	.insn	2, 0x0000
    19ee:	0000                	.insn	2, 0x0000
    19f0:	0000                	.insn	2, 0x0000
    19f2:	0000                	.insn	2, 0x0000
    19f4:	0000                	.insn	2, 0x0000
    19f6:	0000                	.insn	2, 0x0000
    19f8:	0000                	.insn	2, 0x0000
    19fa:	0000                	.insn	2, 0x0000
    19fc:	0000                	.insn	2, 0x0000
    19fe:	0000                	.insn	2, 0x0000
    1a00:	0000                	.insn	2, 0x0000
    1a02:	0000                	.insn	2, 0x0000
    1a04:	0000                	.insn	2, 0x0000
    1a06:	0000                	.insn	2, 0x0000
    1a08:	0000                	.insn	2, 0x0000
    1a0a:	0000                	.insn	2, 0x0000
    1a0c:	0000                	.insn	2, 0x0000
    1a0e:	0000                	.insn	2, 0x0000
    1a10:	0000                	.insn	2, 0x0000
    1a12:	0000                	.insn	2, 0x0000
    1a14:	0000                	.insn	2, 0x0000
    1a16:	0000                	.insn	2, 0x0000
    1a18:	0000                	.insn	2, 0x0000
    1a1a:	0000                	.insn	2, 0x0000
    1a1c:	0000                	.insn	2, 0x0000
    1a1e:	0000                	.insn	2, 0x0000
    1a20:	0000                	.insn	2, 0x0000
    1a22:	0000                	.insn	2, 0x0000
    1a24:	0000                	.insn	2, 0x0000
    1a26:	0000                	.insn	2, 0x0000
    1a28:	0000                	.insn	2, 0x0000
    1a2a:	0000                	.insn	2, 0x0000
    1a2c:	0000                	.insn	2, 0x0000
    1a2e:	0000                	.insn	2, 0x0000
    1a30:	0000                	.insn	2, 0x0000
    1a32:	0000                	.insn	2, 0x0000
    1a34:	0000                	.insn	2, 0x0000
    1a36:	0000                	.insn	2, 0x0000
    1a38:	0000                	.insn	2, 0x0000
    1a3a:	0000                	.insn	2, 0x0000
    1a3c:	0000                	.insn	2, 0x0000
    1a3e:	0000                	.insn	2, 0x0000
    1a40:	0000                	.insn	2, 0x0000
    1a42:	0000                	.insn	2, 0x0000
    1a44:	0000                	.insn	2, 0x0000
    1a46:	0000                	.insn	2, 0x0000
    1a48:	0000                	.insn	2, 0x0000
    1a4a:	0000                	.insn	2, 0x0000
    1a4c:	0000                	.insn	2, 0x0000
    1a4e:	0000                	.insn	2, 0x0000
    1a50:	0000                	.insn	2, 0x0000
    1a52:	0000                	.insn	2, 0x0000
    1a54:	0000                	.insn	2, 0x0000
    1a56:	0000                	.insn	2, 0x0000
    1a58:	0000                	.insn	2, 0x0000
    1a5a:	0000                	.insn	2, 0x0000
    1a5c:	0000                	.insn	2, 0x0000
    1a5e:	0000                	.insn	2, 0x0000
    1a60:	0000                	.insn	2, 0x0000
    1a62:	0000                	.insn	2, 0x0000
    1a64:	0000                	.insn	2, 0x0000
    1a66:	0000                	.insn	2, 0x0000
    1a68:	0000                	.insn	2, 0x0000
    1a6a:	0000                	.insn	2, 0x0000
    1a6c:	0000                	.insn	2, 0x0000
    1a6e:	0000                	.insn	2, 0x0000
    1a70:	0000                	.insn	2, 0x0000
    1a72:	0000                	.insn	2, 0x0000
    1a74:	0000                	.insn	2, 0x0000
    1a76:	0000                	.insn	2, 0x0000
    1a78:	0000                	.insn	2, 0x0000
    1a7a:	0000                	.insn	2, 0x0000
    1a7c:	0000                	.insn	2, 0x0000
    1a7e:	0000                	.insn	2, 0x0000
    1a80:	0000                	.insn	2, 0x0000
    1a82:	0000                	.insn	2, 0x0000
    1a84:	0000                	.insn	2, 0x0000
    1a86:	0000                	.insn	2, 0x0000
    1a88:	0000                	.insn	2, 0x0000
    1a8a:	0000                	.insn	2, 0x0000
    1a8c:	0000                	.insn	2, 0x0000
    1a8e:	0000                	.insn	2, 0x0000
    1a90:	0000                	.insn	2, 0x0000
    1a92:	0000                	.insn	2, 0x0000
    1a94:	0000                	.insn	2, 0x0000
    1a96:	0000                	.insn	2, 0x0000
    1a98:	0000                	.insn	2, 0x0000
    1a9a:	0000                	.insn	2, 0x0000
    1a9c:	0000                	.insn	2, 0x0000
    1a9e:	0000                	.insn	2, 0x0000
    1aa0:	0000                	.insn	2, 0x0000
    1aa2:	0000                	.insn	2, 0x0000
    1aa4:	0000                	.insn	2, 0x0000
    1aa6:	0000                	.insn	2, 0x0000
    1aa8:	0000                	.insn	2, 0x0000
    1aaa:	0000                	.insn	2, 0x0000
    1aac:	0000                	.insn	2, 0x0000
    1aae:	0000                	.insn	2, 0x0000
    1ab0:	0000                	.insn	2, 0x0000
    1ab2:	0000                	.insn	2, 0x0000
    1ab4:	0000                	.insn	2, 0x0000
    1ab6:	0000                	.insn	2, 0x0000
    1ab8:	0000                	.insn	2, 0x0000
    1aba:	0000                	.insn	2, 0x0000
    1abc:	0000                	.insn	2, 0x0000
    1abe:	0000                	.insn	2, 0x0000
    1ac0:	0000                	.insn	2, 0x0000
    1ac2:	0000                	.insn	2, 0x0000
    1ac4:	0000                	.insn	2, 0x0000
    1ac6:	0000                	.insn	2, 0x0000
    1ac8:	0000                	.insn	2, 0x0000
    1aca:	0000                	.insn	2, 0x0000
    1acc:	0000                	.insn	2, 0x0000
    1ace:	0000                	.insn	2, 0x0000
    1ad0:	0000                	.insn	2, 0x0000
    1ad2:	0000                	.insn	2, 0x0000
    1ad4:	0000                	.insn	2, 0x0000
    1ad6:	0000                	.insn	2, 0x0000
    1ad8:	0000                	.insn	2, 0x0000
    1ada:	0000                	.insn	2, 0x0000
    1adc:	0000                	.insn	2, 0x0000
    1ade:	0000                	.insn	2, 0x0000
    1ae0:	0000                	.insn	2, 0x0000
    1ae2:	0000                	.insn	2, 0x0000
    1ae4:	0000                	.insn	2, 0x0000
    1ae6:	0000                	.insn	2, 0x0000
    1ae8:	0000                	.insn	2, 0x0000
    1aea:	0000                	.insn	2, 0x0000
    1aec:	0000                	.insn	2, 0x0000
    1aee:	0000                	.insn	2, 0x0000
    1af0:	0000                	.insn	2, 0x0000
    1af2:	0000                	.insn	2, 0x0000
    1af4:	0000                	.insn	2, 0x0000
    1af6:	0000                	.insn	2, 0x0000
    1af8:	0000                	.insn	2, 0x0000
    1afa:	0000                	.insn	2, 0x0000
    1afc:	0000                	.insn	2, 0x0000
    1afe:	0000                	.insn	2, 0x0000
    1b00:	0000                	.insn	2, 0x0000
    1b02:	0000                	.insn	2, 0x0000
    1b04:	0000                	.insn	2, 0x0000
    1b06:	0000                	.insn	2, 0x0000
    1b08:	0000                	.insn	2, 0x0000
    1b0a:	0000                	.insn	2, 0x0000
    1b0c:	0000                	.insn	2, 0x0000
    1b0e:	0000                	.insn	2, 0x0000
    1b10:	0000                	.insn	2, 0x0000
    1b12:	0000                	.insn	2, 0x0000
    1b14:	0000                	.insn	2, 0x0000
    1b16:	0000                	.insn	2, 0x0000
    1b18:	0000                	.insn	2, 0x0000
    1b1a:	0000                	.insn	2, 0x0000
    1b1c:	0000                	.insn	2, 0x0000
    1b1e:	0000                	.insn	2, 0x0000
    1b20:	0000                	.insn	2, 0x0000
    1b22:	0000                	.insn	2, 0x0000
    1b24:	0000                	.insn	2, 0x0000
    1b26:	0000                	.insn	2, 0x0000
    1b28:	0000                	.insn	2, 0x0000
    1b2a:	0000                	.insn	2, 0x0000
    1b2c:	0000                	.insn	2, 0x0000
    1b2e:	0000                	.insn	2, 0x0000
    1b30:	0000                	.insn	2, 0x0000
    1b32:	0000                	.insn	2, 0x0000
    1b34:	0000                	.insn	2, 0x0000
    1b36:	0000                	.insn	2, 0x0000
    1b38:	0000                	.insn	2, 0x0000
    1b3a:	0000                	.insn	2, 0x0000
    1b3c:	0000                	.insn	2, 0x0000
    1b3e:	0000                	.insn	2, 0x0000
    1b40:	0000                	.insn	2, 0x0000
    1b42:	0000                	.insn	2, 0x0000
    1b44:	0000                	.insn	2, 0x0000
    1b46:	0000                	.insn	2, 0x0000
    1b48:	0000                	.insn	2, 0x0000
    1b4a:	0000                	.insn	2, 0x0000
    1b4c:	0000                	.insn	2, 0x0000
    1b4e:	0000                	.insn	2, 0x0000
    1b50:	0000                	.insn	2, 0x0000
    1b52:	0000                	.insn	2, 0x0000
    1b54:	0000                	.insn	2, 0x0000
    1b56:	0000                	.insn	2, 0x0000
    1b58:	0000                	.insn	2, 0x0000
    1b5a:	0000                	.insn	2, 0x0000
    1b5c:	0000                	.insn	2, 0x0000
    1b5e:	0000                	.insn	2, 0x0000
    1b60:	0000                	.insn	2, 0x0000
    1b62:	0000                	.insn	2, 0x0000
    1b64:	0000                	.insn	2, 0x0000
    1b66:	0000                	.insn	2, 0x0000
    1b68:	0000                	.insn	2, 0x0000
    1b6a:	0000                	.insn	2, 0x0000
    1b6c:	0000                	.insn	2, 0x0000
    1b6e:	0000                	.insn	2, 0x0000
    1b70:	0000                	.insn	2, 0x0000
    1b72:	0000                	.insn	2, 0x0000
    1b74:	0000                	.insn	2, 0x0000
    1b76:	0000                	.insn	2, 0x0000
    1b78:	0000                	.insn	2, 0x0000
    1b7a:	0000                	.insn	2, 0x0000
    1b7c:	0000                	.insn	2, 0x0000
    1b7e:	0000                	.insn	2, 0x0000
    1b80:	0000                	.insn	2, 0x0000
    1b82:	0000                	.insn	2, 0x0000
    1b84:	0000                	.insn	2, 0x0000
    1b86:	0000                	.insn	2, 0x0000
    1b88:	0000                	.insn	2, 0x0000
    1b8a:	0000                	.insn	2, 0x0000
    1b8c:	0000                	.insn	2, 0x0000
    1b8e:	0000                	.insn	2, 0x0000
    1b90:	0000                	.insn	2, 0x0000
    1b92:	0000                	.insn	2, 0x0000
    1b94:	0000                	.insn	2, 0x0000
    1b96:	0000                	.insn	2, 0x0000
    1b98:	0000                	.insn	2, 0x0000
    1b9a:	0000                	.insn	2, 0x0000
    1b9c:	0000                	.insn	2, 0x0000
    1b9e:	0000                	.insn	2, 0x0000
    1ba0:	0000                	.insn	2, 0x0000
    1ba2:	0000                	.insn	2, 0x0000
    1ba4:	0000                	.insn	2, 0x0000
    1ba6:	0000                	.insn	2, 0x0000
    1ba8:	0000                	.insn	2, 0x0000
    1baa:	0000                	.insn	2, 0x0000
    1bac:	0000                	.insn	2, 0x0000
    1bae:	0000                	.insn	2, 0x0000
    1bb0:	0000                	.insn	2, 0x0000
    1bb2:	0000                	.insn	2, 0x0000
    1bb4:	0000                	.insn	2, 0x0000
    1bb6:	0000                	.insn	2, 0x0000
    1bb8:	0000                	.insn	2, 0x0000
    1bba:	0000                	.insn	2, 0x0000
    1bbc:	0000                	.insn	2, 0x0000
    1bbe:	0000                	.insn	2, 0x0000
    1bc0:	0000                	.insn	2, 0x0000
    1bc2:	0000                	.insn	2, 0x0000
    1bc4:	0000                	.insn	2, 0x0000
    1bc6:	0000                	.insn	2, 0x0000
    1bc8:	0000                	.insn	2, 0x0000
    1bca:	0000                	.insn	2, 0x0000
    1bcc:	0000                	.insn	2, 0x0000
    1bce:	0000                	.insn	2, 0x0000
    1bd0:	0000                	.insn	2, 0x0000
    1bd2:	0000                	.insn	2, 0x0000
    1bd4:	0000                	.insn	2, 0x0000
    1bd6:	0000                	.insn	2, 0x0000
    1bd8:	0000                	.insn	2, 0x0000
    1bda:	0000                	.insn	2, 0x0000
    1bdc:	0000                	.insn	2, 0x0000
    1bde:	0000                	.insn	2, 0x0000
    1be0:	0000                	.insn	2, 0x0000
    1be2:	0000                	.insn	2, 0x0000
    1be4:	0000                	.insn	2, 0x0000
    1be6:	0000                	.insn	2, 0x0000
    1be8:	0000                	.insn	2, 0x0000
    1bea:	0000                	.insn	2, 0x0000
    1bec:	0000                	.insn	2, 0x0000
    1bee:	0000                	.insn	2, 0x0000
    1bf0:	0000                	.insn	2, 0x0000
    1bf2:	0000                	.insn	2, 0x0000
    1bf4:	0000                	.insn	2, 0x0000
    1bf6:	0000                	.insn	2, 0x0000
    1bf8:	0000                	.insn	2, 0x0000
    1bfa:	0000                	.insn	2, 0x0000
    1bfc:	0000                	.insn	2, 0x0000
    1bfe:	0000                	.insn	2, 0x0000
    1c00:	0000                	.insn	2, 0x0000
    1c02:	0000                	.insn	2, 0x0000
    1c04:	0000                	.insn	2, 0x0000
    1c06:	0000                	.insn	2, 0x0000
    1c08:	0000                	.insn	2, 0x0000
    1c0a:	0000                	.insn	2, 0x0000
    1c0c:	0000                	.insn	2, 0x0000
    1c0e:	0000                	.insn	2, 0x0000
    1c10:	0000                	.insn	2, 0x0000
    1c12:	0000                	.insn	2, 0x0000
    1c14:	0000                	.insn	2, 0x0000
    1c16:	0000                	.insn	2, 0x0000
    1c18:	0000                	.insn	2, 0x0000
    1c1a:	0000                	.insn	2, 0x0000
    1c1c:	0000                	.insn	2, 0x0000
    1c1e:	0000                	.insn	2, 0x0000
    1c20:	0000                	.insn	2, 0x0000
    1c22:	0000                	.insn	2, 0x0000
    1c24:	0000                	.insn	2, 0x0000
    1c26:	0000                	.insn	2, 0x0000
    1c28:	0000                	.insn	2, 0x0000
    1c2a:	0000                	.insn	2, 0x0000
    1c2c:	0000                	.insn	2, 0x0000
    1c2e:	0000                	.insn	2, 0x0000
    1c30:	0000                	.insn	2, 0x0000
    1c32:	0000                	.insn	2, 0x0000
    1c34:	0000                	.insn	2, 0x0000
    1c36:	0000                	.insn	2, 0x0000
    1c38:	0000                	.insn	2, 0x0000
    1c3a:	0000                	.insn	2, 0x0000
    1c3c:	0000                	.insn	2, 0x0000
    1c3e:	0000                	.insn	2, 0x0000
    1c40:	0000                	.insn	2, 0x0000
    1c42:	0000                	.insn	2, 0x0000
    1c44:	0000                	.insn	2, 0x0000
    1c46:	0000                	.insn	2, 0x0000
    1c48:	0000                	.insn	2, 0x0000
    1c4a:	0000                	.insn	2, 0x0000
    1c4c:	0000                	.insn	2, 0x0000
    1c4e:	0000                	.insn	2, 0x0000
    1c50:	0000                	.insn	2, 0x0000
    1c52:	0000                	.insn	2, 0x0000
    1c54:	0000                	.insn	2, 0x0000
    1c56:	0000                	.insn	2, 0x0000
    1c58:	0000                	.insn	2, 0x0000
    1c5a:	0000                	.insn	2, 0x0000
    1c5c:	0000                	.insn	2, 0x0000
    1c5e:	0000                	.insn	2, 0x0000
    1c60:	0000                	.insn	2, 0x0000
    1c62:	0000                	.insn	2, 0x0000
    1c64:	0000                	.insn	2, 0x0000
    1c66:	0000                	.insn	2, 0x0000
    1c68:	0000                	.insn	2, 0x0000
    1c6a:	0000                	.insn	2, 0x0000
    1c6c:	0000                	.insn	2, 0x0000
    1c6e:	0000                	.insn	2, 0x0000
    1c70:	0000                	.insn	2, 0x0000
    1c72:	0000                	.insn	2, 0x0000
    1c74:	0000                	.insn	2, 0x0000
    1c76:	0000                	.insn	2, 0x0000
    1c78:	0000                	.insn	2, 0x0000
    1c7a:	0000                	.insn	2, 0x0000
    1c7c:	0000                	.insn	2, 0x0000
    1c7e:	0000                	.insn	2, 0x0000
    1c80:	0000                	.insn	2, 0x0000
    1c82:	0000                	.insn	2, 0x0000
    1c84:	0000                	.insn	2, 0x0000
    1c86:	0000                	.insn	2, 0x0000
    1c88:	0000                	.insn	2, 0x0000
    1c8a:	0000                	.insn	2, 0x0000
    1c8c:	0000                	.insn	2, 0x0000
    1c8e:	0000                	.insn	2, 0x0000
    1c90:	0000                	.insn	2, 0x0000
    1c92:	0000                	.insn	2, 0x0000
    1c94:	0000                	.insn	2, 0x0000
    1c96:	0000                	.insn	2, 0x0000
    1c98:	0000                	.insn	2, 0x0000
    1c9a:	0000                	.insn	2, 0x0000
    1c9c:	0000                	.insn	2, 0x0000
    1c9e:	0000                	.insn	2, 0x0000
    1ca0:	0000                	.insn	2, 0x0000
    1ca2:	0000                	.insn	2, 0x0000
    1ca4:	0000                	.insn	2, 0x0000
    1ca6:	0000                	.insn	2, 0x0000
    1ca8:	0000                	.insn	2, 0x0000
    1caa:	0000                	.insn	2, 0x0000
    1cac:	0000                	.insn	2, 0x0000
    1cae:	0000                	.insn	2, 0x0000
    1cb0:	0000                	.insn	2, 0x0000
    1cb2:	0000                	.insn	2, 0x0000
    1cb4:	0000                	.insn	2, 0x0000
    1cb6:	0000                	.insn	2, 0x0000
    1cb8:	0000                	.insn	2, 0x0000
    1cba:	0000                	.insn	2, 0x0000
    1cbc:	0000                	.insn	2, 0x0000
    1cbe:	0000                	.insn	2, 0x0000
    1cc0:	0000                	.insn	2, 0x0000
    1cc2:	0000                	.insn	2, 0x0000
    1cc4:	0000                	.insn	2, 0x0000
    1cc6:	0000                	.insn	2, 0x0000
    1cc8:	0000                	.insn	2, 0x0000
    1cca:	0000                	.insn	2, 0x0000
    1ccc:	0000                	.insn	2, 0x0000
    1cce:	0000                	.insn	2, 0x0000
    1cd0:	0000                	.insn	2, 0x0000
    1cd2:	0000                	.insn	2, 0x0000
    1cd4:	0000                	.insn	2, 0x0000
    1cd6:	0000                	.insn	2, 0x0000
    1cd8:	0000                	.insn	2, 0x0000
    1cda:	0000                	.insn	2, 0x0000
    1cdc:	0000                	.insn	2, 0x0000
    1cde:	0000                	.insn	2, 0x0000
    1ce0:	0000                	.insn	2, 0x0000
    1ce2:	0000                	.insn	2, 0x0000
    1ce4:	0000                	.insn	2, 0x0000
    1ce6:	0000                	.insn	2, 0x0000
    1ce8:	0000                	.insn	2, 0x0000
    1cea:	0000                	.insn	2, 0x0000
    1cec:	0000                	.insn	2, 0x0000
    1cee:	0000                	.insn	2, 0x0000
    1cf0:	0000                	.insn	2, 0x0000
    1cf2:	0000                	.insn	2, 0x0000
    1cf4:	0000                	.insn	2, 0x0000
    1cf6:	0000                	.insn	2, 0x0000
    1cf8:	0000                	.insn	2, 0x0000
    1cfa:	0000                	.insn	2, 0x0000
    1cfc:	0000                	.insn	2, 0x0000
    1cfe:	0000                	.insn	2, 0x0000
    1d00:	0000                	.insn	2, 0x0000
    1d02:	0000                	.insn	2, 0x0000
    1d04:	0000                	.insn	2, 0x0000
    1d06:	0000                	.insn	2, 0x0000
    1d08:	0000                	.insn	2, 0x0000
    1d0a:	0000                	.insn	2, 0x0000
    1d0c:	0000                	.insn	2, 0x0000
    1d0e:	0000                	.insn	2, 0x0000
    1d10:	0000                	.insn	2, 0x0000
    1d12:	0000                	.insn	2, 0x0000
    1d14:	0000                	.insn	2, 0x0000
    1d16:	0000                	.insn	2, 0x0000
    1d18:	0000                	.insn	2, 0x0000
    1d1a:	0000                	.insn	2, 0x0000
    1d1c:	0000                	.insn	2, 0x0000
    1d1e:	0000                	.insn	2, 0x0000
    1d20:	0000                	.insn	2, 0x0000
    1d22:	0000                	.insn	2, 0x0000
    1d24:	0000                	.insn	2, 0x0000
    1d26:	0000                	.insn	2, 0x0000
    1d28:	0000                	.insn	2, 0x0000
    1d2a:	0000                	.insn	2, 0x0000
    1d2c:	0000                	.insn	2, 0x0000
    1d2e:	0000                	.insn	2, 0x0000
    1d30:	0000                	.insn	2, 0x0000
    1d32:	0000                	.insn	2, 0x0000
    1d34:	0000                	.insn	2, 0x0000
    1d36:	0000                	.insn	2, 0x0000
    1d38:	0000                	.insn	2, 0x0000
    1d3a:	0000                	.insn	2, 0x0000
    1d3c:	0000                	.insn	2, 0x0000
    1d3e:	0000                	.insn	2, 0x0000
    1d40:	0000                	.insn	2, 0x0000
    1d42:	0000                	.insn	2, 0x0000
    1d44:	0000                	.insn	2, 0x0000
    1d46:	0000                	.insn	2, 0x0000
    1d48:	0000                	.insn	2, 0x0000
    1d4a:	0000                	.insn	2, 0x0000
    1d4c:	0000                	.insn	2, 0x0000
    1d4e:	0000                	.insn	2, 0x0000
    1d50:	0000                	.insn	2, 0x0000
    1d52:	0000                	.insn	2, 0x0000
    1d54:	0000                	.insn	2, 0x0000
    1d56:	0000                	.insn	2, 0x0000
    1d58:	0000                	.insn	2, 0x0000
    1d5a:	0000                	.insn	2, 0x0000
    1d5c:	0000                	.insn	2, 0x0000
    1d5e:	0000                	.insn	2, 0x0000
    1d60:	0000                	.insn	2, 0x0000
    1d62:	0000                	.insn	2, 0x0000
    1d64:	0000                	.insn	2, 0x0000
    1d66:	0000                	.insn	2, 0x0000
    1d68:	0000                	.insn	2, 0x0000
    1d6a:	0000                	.insn	2, 0x0000
    1d6c:	0000                	.insn	2, 0x0000
    1d6e:	0000                	.insn	2, 0x0000
    1d70:	0000                	.insn	2, 0x0000
    1d72:	0000                	.insn	2, 0x0000
    1d74:	0000                	.insn	2, 0x0000
    1d76:	0000                	.insn	2, 0x0000
    1d78:	0000                	.insn	2, 0x0000
    1d7a:	0000                	.insn	2, 0x0000
    1d7c:	0000                	.insn	2, 0x0000
    1d7e:	0000                	.insn	2, 0x0000
    1d80:	0000                	.insn	2, 0x0000
    1d82:	0000                	.insn	2, 0x0000
    1d84:	0000                	.insn	2, 0x0000
    1d86:	0000                	.insn	2, 0x0000
    1d88:	0000                	.insn	2, 0x0000
    1d8a:	0000                	.insn	2, 0x0000
    1d8c:	0000                	.insn	2, 0x0000
    1d8e:	0000                	.insn	2, 0x0000
    1d90:	0000                	.insn	2, 0x0000
    1d92:	0000                	.insn	2, 0x0000
    1d94:	0000                	.insn	2, 0x0000
    1d96:	0000                	.insn	2, 0x0000
    1d98:	0000                	.insn	2, 0x0000
    1d9a:	0000                	.insn	2, 0x0000
    1d9c:	0000                	.insn	2, 0x0000
    1d9e:	0000                	.insn	2, 0x0000
    1da0:	0000                	.insn	2, 0x0000
    1da2:	0000                	.insn	2, 0x0000
    1da4:	0000                	.insn	2, 0x0000
    1da6:	0000                	.insn	2, 0x0000
    1da8:	0000                	.insn	2, 0x0000
    1daa:	0000                	.insn	2, 0x0000
    1dac:	0000                	.insn	2, 0x0000
    1dae:	0000                	.insn	2, 0x0000
    1db0:	0000                	.insn	2, 0x0000
    1db2:	0000                	.insn	2, 0x0000
    1db4:	0000                	.insn	2, 0x0000
    1db6:	0000                	.insn	2, 0x0000
    1db8:	0000                	.insn	2, 0x0000
    1dba:	0000                	.insn	2, 0x0000
    1dbc:	0000                	.insn	2, 0x0000
    1dbe:	0000                	.insn	2, 0x0000
    1dc0:	0000                	.insn	2, 0x0000
    1dc2:	0000                	.insn	2, 0x0000
    1dc4:	0000                	.insn	2, 0x0000
    1dc6:	0000                	.insn	2, 0x0000
    1dc8:	0000                	.insn	2, 0x0000
    1dca:	0000                	.insn	2, 0x0000
    1dcc:	0000                	.insn	2, 0x0000
    1dce:	0000                	.insn	2, 0x0000
    1dd0:	0000                	.insn	2, 0x0000
    1dd2:	0000                	.insn	2, 0x0000
    1dd4:	0000                	.insn	2, 0x0000
    1dd6:	0000                	.insn	2, 0x0000
    1dd8:	0000                	.insn	2, 0x0000
    1dda:	0000                	.insn	2, 0x0000
    1ddc:	0000                	.insn	2, 0x0000
    1dde:	0000                	.insn	2, 0x0000
    1de0:	0000                	.insn	2, 0x0000
    1de2:	0000                	.insn	2, 0x0000
    1de4:	0000                	.insn	2, 0x0000
    1de6:	0000                	.insn	2, 0x0000
    1de8:	0000                	.insn	2, 0x0000
    1dea:	0000                	.insn	2, 0x0000
    1dec:	0000                	.insn	2, 0x0000
    1dee:	0000                	.insn	2, 0x0000
    1df0:	0000                	.insn	2, 0x0000
    1df2:	0000                	.insn	2, 0x0000
    1df4:	0000                	.insn	2, 0x0000
    1df6:	0000                	.insn	2, 0x0000
    1df8:	0000                	.insn	2, 0x0000
    1dfa:	0000                	.insn	2, 0x0000
    1dfc:	0000                	.insn	2, 0x0000
    1dfe:	0000                	.insn	2, 0x0000
    1e00:	0000                	.insn	2, 0x0000
    1e02:	0000                	.insn	2, 0x0000
    1e04:	0000                	.insn	2, 0x0000
    1e06:	0000                	.insn	2, 0x0000
    1e08:	0000                	.insn	2, 0x0000
    1e0a:	0000                	.insn	2, 0x0000
    1e0c:	0000                	.insn	2, 0x0000
    1e0e:	0000                	.insn	2, 0x0000
    1e10:	0000                	.insn	2, 0x0000
    1e12:	0000                	.insn	2, 0x0000
    1e14:	0000                	.insn	2, 0x0000
    1e16:	0000                	.insn	2, 0x0000
    1e18:	0000                	.insn	2, 0x0000
    1e1a:	0000                	.insn	2, 0x0000
    1e1c:	0000                	.insn	2, 0x0000
    1e1e:	0000                	.insn	2, 0x0000
    1e20:	0000                	.insn	2, 0x0000
    1e22:	0000                	.insn	2, 0x0000
    1e24:	0000                	.insn	2, 0x0000
    1e26:	0000                	.insn	2, 0x0000
    1e28:	0000                	.insn	2, 0x0000
    1e2a:	0000                	.insn	2, 0x0000
    1e2c:	0000                	.insn	2, 0x0000
    1e2e:	0000                	.insn	2, 0x0000
    1e30:	0000                	.insn	2, 0x0000
    1e32:	0000                	.insn	2, 0x0000
    1e34:	0000                	.insn	2, 0x0000
    1e36:	0000                	.insn	2, 0x0000
    1e38:	0000                	.insn	2, 0x0000
    1e3a:	0000                	.insn	2, 0x0000
    1e3c:	0000                	.insn	2, 0x0000
    1e3e:	0000                	.insn	2, 0x0000
    1e40:	0000                	.insn	2, 0x0000
    1e42:	0000                	.insn	2, 0x0000
    1e44:	0000                	.insn	2, 0x0000
    1e46:	0000                	.insn	2, 0x0000
    1e48:	0000                	.insn	2, 0x0000
    1e4a:	0000                	.insn	2, 0x0000
    1e4c:	0000                	.insn	2, 0x0000
    1e4e:	0000                	.insn	2, 0x0000
    1e50:	0000                	.insn	2, 0x0000
    1e52:	0000                	.insn	2, 0x0000
    1e54:	0000                	.insn	2, 0x0000
    1e56:	0000                	.insn	2, 0x0000
    1e58:	0000                	.insn	2, 0x0000
    1e5a:	0000                	.insn	2, 0x0000
    1e5c:	0000                	.insn	2, 0x0000
    1e5e:	0000                	.insn	2, 0x0000
    1e60:	0000                	.insn	2, 0x0000
    1e62:	0000                	.insn	2, 0x0000
    1e64:	0000                	.insn	2, 0x0000
    1e66:	0000                	.insn	2, 0x0000
    1e68:	0000                	.insn	2, 0x0000
    1e6a:	0000                	.insn	2, 0x0000
    1e6c:	0000                	.insn	2, 0x0000
    1e6e:	0000                	.insn	2, 0x0000
    1e70:	0000                	.insn	2, 0x0000
    1e72:	0000                	.insn	2, 0x0000
    1e74:	0000                	.insn	2, 0x0000
    1e76:	0000                	.insn	2, 0x0000
    1e78:	0000                	.insn	2, 0x0000
    1e7a:	0000                	.insn	2, 0x0000
    1e7c:	0000                	.insn	2, 0x0000
    1e7e:	0000                	.insn	2, 0x0000
    1e80:	0000                	.insn	2, 0x0000
    1e82:	0000                	.insn	2, 0x0000
    1e84:	0000                	.insn	2, 0x0000
    1e86:	0000                	.insn	2, 0x0000
    1e88:	0000                	.insn	2, 0x0000
    1e8a:	0000                	.insn	2, 0x0000
    1e8c:	0000                	.insn	2, 0x0000
    1e8e:	0000                	.insn	2, 0x0000
    1e90:	0000                	.insn	2, 0x0000
    1e92:	0000                	.insn	2, 0x0000
    1e94:	0000                	.insn	2, 0x0000
    1e96:	0000                	.insn	2, 0x0000
    1e98:	0000                	.insn	2, 0x0000
    1e9a:	0000                	.insn	2, 0x0000
    1e9c:	0000                	.insn	2, 0x0000
    1e9e:	0000                	.insn	2, 0x0000
    1ea0:	0000                	.insn	2, 0x0000
    1ea2:	0000                	.insn	2, 0x0000
    1ea4:	0000                	.insn	2, 0x0000
    1ea6:	0000                	.insn	2, 0x0000
    1ea8:	0000                	.insn	2, 0x0000
    1eaa:	0000                	.insn	2, 0x0000
    1eac:	0000                	.insn	2, 0x0000
    1eae:	0000                	.insn	2, 0x0000
    1eb0:	0000                	.insn	2, 0x0000
    1eb2:	0000                	.insn	2, 0x0000
    1eb4:	0000                	.insn	2, 0x0000
    1eb6:	0000                	.insn	2, 0x0000
    1eb8:	0000                	.insn	2, 0x0000
    1eba:	0000                	.insn	2, 0x0000
    1ebc:	0000                	.insn	2, 0x0000
    1ebe:	0000                	.insn	2, 0x0000
    1ec0:	0000                	.insn	2, 0x0000
    1ec2:	0000                	.insn	2, 0x0000
    1ec4:	0000                	.insn	2, 0x0000
    1ec6:	0000                	.insn	2, 0x0000
    1ec8:	0000                	.insn	2, 0x0000
    1eca:	0000                	.insn	2, 0x0000
    1ecc:	0000                	.insn	2, 0x0000
    1ece:	0000                	.insn	2, 0x0000
    1ed0:	0000                	.insn	2, 0x0000
    1ed2:	0000                	.insn	2, 0x0000
    1ed4:	0000                	.insn	2, 0x0000
    1ed6:	0000                	.insn	2, 0x0000
    1ed8:	0000                	.insn	2, 0x0000
    1eda:	0000                	.insn	2, 0x0000
    1edc:	0000                	.insn	2, 0x0000
    1ede:	0000                	.insn	2, 0x0000
    1ee0:	0000                	.insn	2, 0x0000
    1ee2:	0000                	.insn	2, 0x0000
    1ee4:	0000                	.insn	2, 0x0000
    1ee6:	0000                	.insn	2, 0x0000
    1ee8:	0000                	.insn	2, 0x0000
    1eea:	0000                	.insn	2, 0x0000
    1eec:	0000                	.insn	2, 0x0000
    1eee:	0000                	.insn	2, 0x0000
    1ef0:	0000                	.insn	2, 0x0000
    1ef2:	0000                	.insn	2, 0x0000
    1ef4:	0000                	.insn	2, 0x0000
    1ef6:	0000                	.insn	2, 0x0000
    1ef8:	0000                	.insn	2, 0x0000
    1efa:	0000                	.insn	2, 0x0000
    1efc:	0000                	.insn	2, 0x0000
    1efe:	0000                	.insn	2, 0x0000
    1f00:	0000                	.insn	2, 0x0000
    1f02:	0000                	.insn	2, 0x0000
    1f04:	0000                	.insn	2, 0x0000
    1f06:	0000                	.insn	2, 0x0000
    1f08:	0000                	.insn	2, 0x0000
    1f0a:	0000                	.insn	2, 0x0000
    1f0c:	0000                	.insn	2, 0x0000
    1f0e:	0000                	.insn	2, 0x0000
    1f10:	0000                	.insn	2, 0x0000
    1f12:	0000                	.insn	2, 0x0000
    1f14:	0000                	.insn	2, 0x0000
    1f16:	0000                	.insn	2, 0x0000
    1f18:	0000                	.insn	2, 0x0000
    1f1a:	0000                	.insn	2, 0x0000
    1f1c:	0000                	.insn	2, 0x0000
    1f1e:	0000                	.insn	2, 0x0000
    1f20:	0000                	.insn	2, 0x0000
    1f22:	0000                	.insn	2, 0x0000
    1f24:	0000                	.insn	2, 0x0000
    1f26:	0000                	.insn	2, 0x0000
    1f28:	0000                	.insn	2, 0x0000
    1f2a:	0000                	.insn	2, 0x0000
    1f2c:	0000                	.insn	2, 0x0000
    1f2e:	0000                	.insn	2, 0x0000
    1f30:	0000                	.insn	2, 0x0000
    1f32:	0000                	.insn	2, 0x0000
    1f34:	0000                	.insn	2, 0x0000
    1f36:	0000                	.insn	2, 0x0000
    1f38:	0000                	.insn	2, 0x0000
    1f3a:	0000                	.insn	2, 0x0000
    1f3c:	0000                	.insn	2, 0x0000
    1f3e:	0000                	.insn	2, 0x0000
    1f40:	0000                	.insn	2, 0x0000
    1f42:	0000                	.insn	2, 0x0000
    1f44:	0000                	.insn	2, 0x0000
    1f46:	0000                	.insn	2, 0x0000
    1f48:	0000                	.insn	2, 0x0000
    1f4a:	0000                	.insn	2, 0x0000
    1f4c:	0000                	.insn	2, 0x0000
    1f4e:	0000                	.insn	2, 0x0000
    1f50:	0000                	.insn	2, 0x0000
    1f52:	0000                	.insn	2, 0x0000
    1f54:	0000                	.insn	2, 0x0000
    1f56:	0000                	.insn	2, 0x0000
    1f58:	0000                	.insn	2, 0x0000
    1f5a:	0000                	.insn	2, 0x0000
    1f5c:	0000                	.insn	2, 0x0000
    1f5e:	0000                	.insn	2, 0x0000
    1f60:	0000                	.insn	2, 0x0000
    1f62:	0000                	.insn	2, 0x0000
    1f64:	0000                	.insn	2, 0x0000
    1f66:	0000                	.insn	2, 0x0000
    1f68:	0000                	.insn	2, 0x0000
    1f6a:	0000                	.insn	2, 0x0000
    1f6c:	0000                	.insn	2, 0x0000
    1f6e:	0000                	.insn	2, 0x0000
    1f70:	0000                	.insn	2, 0x0000
    1f72:	0000                	.insn	2, 0x0000
    1f74:	0000                	.insn	2, 0x0000
    1f76:	0000                	.insn	2, 0x0000
    1f78:	0000                	.insn	2, 0x0000
    1f7a:	0000                	.insn	2, 0x0000
    1f7c:	0000                	.insn	2, 0x0000
    1f7e:	0000                	.insn	2, 0x0000
    1f80:	0000                	.insn	2, 0x0000
    1f82:	0000                	.insn	2, 0x0000
    1f84:	0000                	.insn	2, 0x0000
    1f86:	0000                	.insn	2, 0x0000
    1f88:	0000                	.insn	2, 0x0000
    1f8a:	0000                	.insn	2, 0x0000
    1f8c:	0000                	.insn	2, 0x0000
    1f8e:	0000                	.insn	2, 0x0000
    1f90:	0000                	.insn	2, 0x0000
    1f92:	0000                	.insn	2, 0x0000
    1f94:	0000                	.insn	2, 0x0000
    1f96:	0000                	.insn	2, 0x0000
    1f98:	0000                	.insn	2, 0x0000
    1f9a:	0000                	.insn	2, 0x0000
    1f9c:	0000                	.insn	2, 0x0000
    1f9e:	0000                	.insn	2, 0x0000
    1fa0:	0000                	.insn	2, 0x0000
    1fa2:	0000                	.insn	2, 0x0000
    1fa4:	0000                	.insn	2, 0x0000
    1fa6:	0000                	.insn	2, 0x0000
    1fa8:	0000                	.insn	2, 0x0000
    1faa:	0000                	.insn	2, 0x0000
    1fac:	0000                	.insn	2, 0x0000
    1fae:	0000                	.insn	2, 0x0000
    1fb0:	0000                	.insn	2, 0x0000
    1fb2:	0000                	.insn	2, 0x0000
    1fb4:	0000                	.insn	2, 0x0000
    1fb6:	0000                	.insn	2, 0x0000
    1fb8:	0000                	.insn	2, 0x0000
    1fba:	0000                	.insn	2, 0x0000
    1fbc:	0000                	.insn	2, 0x0000
    1fbe:	0000                	.insn	2, 0x0000
    1fc0:	0000                	.insn	2, 0x0000
    1fc2:	0000                	.insn	2, 0x0000
    1fc4:	0000                	.insn	2, 0x0000
    1fc6:	0000                	.insn	2, 0x0000
    1fc8:	0000                	.insn	2, 0x0000
    1fca:	0000                	.insn	2, 0x0000
    1fcc:	0000                	.insn	2, 0x0000
    1fce:	0000                	.insn	2, 0x0000
    1fd0:	0000                	.insn	2, 0x0000
    1fd2:	0000                	.insn	2, 0x0000
    1fd4:	0000                	.insn	2, 0x0000
    1fd6:	0000                	.insn	2, 0x0000
    1fd8:	0000                	.insn	2, 0x0000
    1fda:	0000                	.insn	2, 0x0000
    1fdc:	0000                	.insn	2, 0x0000
    1fde:	0000                	.insn	2, 0x0000
    1fe0:	0000                	.insn	2, 0x0000
    1fe2:	0000                	.insn	2, 0x0000
    1fe4:	0000                	.insn	2, 0x0000
    1fe6:	0000                	.insn	2, 0x0000
    1fe8:	0000                	.insn	2, 0x0000
    1fea:	0000                	.insn	2, 0x0000
    1fec:	0000                	.insn	2, 0x0000
    1fee:	0000                	.insn	2, 0x0000
    1ff0:	0000                	.insn	2, 0x0000
    1ff2:	0000                	.insn	2, 0x0000
    1ff4:	0000                	.insn	2, 0x0000
    1ff6:	0000                	.insn	2, 0x0000
    1ff8:	0000                	.insn	2, 0x0000
    1ffa:	0000                	.insn	2, 0x0000
    1ffc:	0000                	.insn	2, 0x0000
    1ffe:	00158593          	addi	a1,a1,1
    2002:	29b00393          	li	t2,667
    2006:	22759d63          	bne	a1,t2,2240 <fail>
    200a:	00001137          	lui	sp,0x1
    200e:	23410113          	addi	sp,sp,564 # 1234 <data+0x1094>

00002012 <test_3>:
    2012:	00300193          	li	gp,3
    2016:	1fe8                	addi	a0,sp,1020
    2018:	000013b7          	lui	t2,0x1
    201c:	63038393          	addi	t2,t2,1584 # 1630 <data+0x1490>
    2020:	22751063          	bne	a0,t2,2240 <fail>

00002024 <test_4>:
    2024:	00400193          	li	gp,4
    2028:	617d                	addi	sp,sp,496
    202a:	0001                	nop
    202c:	000013b7          	lui	t2,0x1
    2030:	42438393          	addi	t2,t2,1060 # 1424 <data+0x1284>
    2034:	20711663          	bne	sp,t2,2240 <fail>

00002038 <test_5>:
    2038:	00500193          	li	gp,5
    203c:	7101                	addi	sp,sp,-512
    203e:	0001                	nop
    2040:	000013b7          	lui	t2,0x1
    2044:	22438393          	addi	t2,t2,548 # 1224 <data+0x1084>
    2048:	1e711c63          	bne	sp,t2,2240 <fail>
    204c:	ffffe597          	auipc	a1,0xffffe
    2050:	15458593          	addi	a1,a1,340 # 1a0 <data>

00002054 <test_6>:
    2054:	00600193          	li	gp,6
    2058:	41c8                	lw	a0,4(a1)
    205a:	0505                	addi	a0,a0,1
    205c:	c1c8                	sw	a0,4(a1)
    205e:	41d0                	lw	a2,4(a1)
    2060:	fedcc3b7          	lui	t2,0xfedcc
    2064:	a9938393          	addi	t2,t2,-1383 # fedcba99 <_end+0xfedc7a99>
    2068:	1c761c63          	bne	a2,t2,2240 <fail>

0000206c <test_8>:
    206c:	00800193          	li	gp,8
    2070:	00106513          	ori	a0,zero,1
    2074:	1541                	addi	a0,a0,-16
    2076:	0001                	nop
    2078:	ff100393          	li	t2,-15
    207c:	1c751263          	bne	a0,t2,2240 <fail>

00002080 <test_9>:
    2080:	00900193          	li	gp,9
    2084:	00106793          	ori	a5,zero,1
    2088:	57c1                	li	a5,-16
    208a:	0001                	nop
    208c:	ff000393          	li	t2,-16
    2090:	1a779863          	bne	a5,t2,2240 <fail>

00002094 <test_11>:
    2094:	00b00193          	li	gp,11
    2098:	7405                	lui	s0,0xfffe1
    209a:	8431                	srai	s0,s0,0xc
    209c:	fe100393          	li	t2,-31
    20a0:	1a741063          	bne	s0,t2,2240 <fail>

000020a4 <test_12>:
    20a4:	00c00193          	li	gp,12
    20a8:	7405                	lui	s0,0xfffe1
    20aa:	8031                	srli	s0,s0,0xc
    20ac:	001003b7          	lui	t2,0x100
    20b0:	fe138393          	addi	t2,t2,-31 # fffe1 <_end+0xfbfe1>
    20b4:	18741663          	bne	s0,t2,2240 <fail>

000020b8 <test_14>:
    20b8:	00e00193          	li	gp,14
    20bc:	5479                	li	s0,-2
    20be:	983d                	andi	s0,s0,-17
    20c0:	fee00393          	li	t2,-18
    20c4:	16741e63          	bne	s0,t2,2240 <fail>

000020c8 <test_15>:
    20c8:	00f00193          	li	gp,15
    20cc:	44d1                	li	s1,20
    20ce:	4519                	li	a0,6
    20d0:	8c89                	sub	s1,s1,a0
    20d2:	0001                	nop
    20d4:	00e00393          	li	t2,14
    20d8:	16749463          	bne	s1,t2,2240 <fail>

000020dc <test_16>:
    20dc:	01000193          	li	gp,16
    20e0:	44d1                	li	s1,20
    20e2:	4519                	li	a0,6
    20e4:	8ca9                	xor	s1,s1,a0
    20e6:	0001                	nop
    20e8:	01200393          	li	t2,18
    20ec:	14749a63          	bne	s1,t2,2240 <fail>

000020f0 <test_17>:
    20f0:	01100193          	li	gp,17
    20f4:	44d1                	li	s1,20
    20f6:	4519                	li	a0,6
    20f8:	8cc9                	or	s1,s1,a0
    20fa:	0001                	nop
    20fc:	01600393          	li	t2,22
    2100:	14749063          	bne	s1,t2,2240 <fail>

00002104 <test_18>:
    2104:	01200193          	li	gp,18
    2108:	44d1                	li	s1,20
    210a:	4519                	li	a0,6
    210c:	8ce9                	and	s1,s1,a0
    210e:	0001                	nop
    2110:	00400393          	li	t2,4
    2114:	12749663          	bne	s1,t2,2240 <fail>

00002118 <test_21>:
    2118:	01500193          	li	gp,21
    211c:	6405                	lui	s0,0x1
    211e:	23440413          	addi	s0,s0,564 # 1234 <data+0x1094>
    2122:	0412                	slli	s0,s0,0x4
    2124:	000123b7          	lui	t2,0x12
    2128:	34038393          	addi	t2,t2,832 # 12340 <_end+0xe340>
    212c:	10741a63          	bne	s0,t2,2240 <fail>

00002130 <test_30>:
    2130:	01e00193          	li	gp,30
    2134:	4081                	li	ra,0
    2136:	a011                	j	213a <test_30+0xa>
    2138:	a011                	j	213c <test_30+0xc>
    213a:	a011                	j	213e <test_30+0xe>
    213c:	a211                	j	2240 <fail>
    213e:	0001                	nop
    2140:	00000393          	li	t2,0
    2144:	0e709e63          	bne	ra,t2,2240 <fail>

00002148 <test_31>:
    2148:	01f00193          	li	gp,31
    214c:	4501                	li	a0,0
    214e:	c111                	beqz	a0,2152 <test_31+0xa>
    2150:	a011                	j	2154 <test_31+0xc>
    2152:	a011                	j	2156 <test_31+0xe>
    2154:	a0f5                	j	2240 <fail>
    2156:	0001                	nop
    2158:	00000393          	li	t2,0
    215c:	0e701263          	bne	zero,t2,2240 <fail>

00002160 <test_32>:
    2160:	02000193          	li	gp,32
    2164:	4505                	li	a0,1
    2166:	e111                	bnez	a0,216a <test_32+0xa>
    2168:	a011                	j	216c <test_32+0xc>
    216a:	a011                	j	216e <test_32+0xe>
    216c:	a8d1                	j	2240 <fail>
    216e:	0001                	nop
    2170:	00000393          	li	t2,0
    2174:	0c701663          	bne	zero,t2,2240 <fail>

00002178 <test_33>:
    2178:	02100193          	li	gp,33
    217c:	4505                	li	a0,1
    217e:	c111                	beqz	a0,2182 <test_33+0xa>
    2180:	a011                	j	2184 <test_33+0xc>
    2182:	a87d                	j	2240 <fail>
    2184:	00000393          	li	t2,0
    2188:	0a701c63          	bne	zero,t2,2240 <fail>

0000218c <test_34>:
    218c:	02200193          	li	gp,34
    2190:	4501                	li	a0,0
    2192:	e111                	bnez	a0,2196 <test_34+0xa>
    2194:	a011                	j	2198 <test_34+0xc>
    2196:	a06d                	j	2240 <fail>
    2198:	00000393          	li	t2,0
    219c:	0a701263          	bne	zero,t2,2240 <fail>

000021a0 <test_35>:
    21a0:	02300193          	li	gp,35
    21a4:	00000297          	auipc	t0,0x0
    21a8:	00e28293          	addi	t0,t0,14 # 21b2 <test_35+0x12>
    21ac:	4081                	li	ra,0
    21ae:	8282                	jr	t0
    21b0:	a011                	j	21b4 <test_35+0x14>
    21b2:	a011                	j	21b6 <test_35+0x16>
    21b4:	a071                	j	2240 <fail>
    21b6:	0001                	nop
    21b8:	00000393          	li	t2,0
    21bc:	08709263          	bne	ra,t2,2240 <fail>

000021c0 <test_36>:
    21c0:	02400193          	li	gp,36
    21c4:	00000297          	auipc	t0,0x0
    21c8:	00e28293          	addi	t0,t0,14 # 21d2 <test_36+0x12>
    21cc:	4081                	li	ra,0
    21ce:	9282                	jalr	t0
    21d0:	a011                	j	21d4 <test_36+0x14>
    21d2:	a011                	j	21d6 <test_36+0x16>
    21d4:	a0b5                	j	2240 <fail>
    21d6:	405080b3          	sub	ra,ra,t0
    21da:	0001                	nop
    21dc:	ffe00393          	li	t2,-2
    21e0:	06709063          	bne	ra,t2,2240 <fail>

000021e4 <test_37>:
    21e4:	02500193          	li	gp,37
    21e8:	00000297          	auipc	t0,0x0
    21ec:	00e28293          	addi	t0,t0,14 # 21f6 <test_37+0x12>
    21f0:	4081                	li	ra,0
    21f2:	2011                	jal	21f6 <test_37+0x12>
    21f4:	a011                	j	21f8 <test_37+0x14>
    21f6:	a011                	j	21fa <test_37+0x16>
    21f8:	a0a1                	j	2240 <fail>
    21fa:	405080b3          	sub	ra,ra,t0
    21fe:	0001                	nop
    2200:	ffe00393          	li	t2,-2
    2204:	02709e63          	bne	ra,t2,2240 <fail>
    2208:	ffffe117          	auipc	sp,0xffffe
    220c:	f9810113          	addi	sp,sp,-104 # 1a0 <data>

00002210 <test_40>:
    2210:	02800193          	li	gp,40
    2214:	4532                	lw	a0,12(sp)
    2216:	0505                	addi	a0,a0,1
    2218:	c62a                	sw	a0,12(sp)
    221a:	4632                	lw	a2,12(sp)
    221c:	fedcc3b7          	lui	t2,0xfedcc
    2220:	a9938393          	addi	t2,t2,-1383 # fedcba99 <_end+0xfedc7a99>
    2224:	00761e63          	bne	a2,t2,2240 <fail>

00002228 <test_42>:
    2228:	02a00193          	li	gp,42
    222c:	12300513          	li	a0,291
    2230:	82aa                	mv	t0,a0
    2232:	92aa                	add	t0,t0,a0
    2234:	24600393          	li	t2,582
    2238:	00729463          	bne	t0,t2,2240 <fail>
    223c:	02301063          	bne	zero,gp,225c <pass>

00002240 <fail>:
    2240:	0ff0000f          	fence
    2244:	00018063          	beqz	gp,2244 <fail+0x4>
    2248:	00119193          	slli	gp,gp,0x1
    224c:	0011e193          	ori	gp,gp,1
    2250:	05d00893          	li	a7,93
    2254:	00018513          	mv	a0,gp
    2258:	00000073          	ecall

0000225c <pass>:
    225c:	0ff0000f          	fence
    2260:	00100193          	li	gp,1
    2264:	05d00893          	li	a7,93
    2268:	00000513          	li	a0,0
    226c:	00000073          	ecall
    2270:	c0001073          	unimp
    2274:	00000013          	nop
    2278:	00000013          	nop
    227c:	00000013          	nop
    2280:	00000013          	nop
    2284:	00000013          	nop
    2288:	00000013          	nop
    228c:	00000013          	nop
    2290:	00000013          	nop
    2294:	00000013          	nop
    2298:	00000013          	nop
    229c:	00000013          	nop
    22a0:	00000013          	nop
    22a4:	00000013          	nop
    22a8:	00000013          	nop
    22ac:	00000013          	nop
    22b0:	00000013          	nop
    22b4:	00000013          	nop
    22b8:	00000013          	nop
    22bc:	00000013          	nop
    22c0:	00000013          	nop
    22c4:	00000013          	nop
    22c8:	00000013          	nop
    22cc:	00000013          	nop
    22d0:	00000013          	nop
    22d4:	00000013          	nop
    22d8:	00000013          	nop
    22dc:	00000013          	nop
    22e0:	00000013          	nop
    22e4:	00000013          	nop
    22e8:	00000013          	nop
    22ec:	00000013          	nop
    22f0:	00000013          	nop
    22f4:	00000013          	nop
    22f8:	00000013          	nop
    22fc:	00000013          	nop
    2300:	00000013          	nop
    2304:	00000013          	nop
    2308:	00000013          	nop
    230c:	00000013          	nop
    2310:	00000013          	nop
    2314:	00000013          	nop
    2318:	00000013          	nop
    231c:	00000013          	nop
    2320:	00000013          	nop
    2324:	00000013          	nop
    2328:	00000013          	nop
    232c:	00000013          	nop
    2330:	00000013          	nop
    2334:	00000013          	nop
    2338:	00000013          	nop
    233c:	00000013          	nop
    2340:	00000013          	nop
    2344:	00000013          	nop
    2348:	00000013          	nop
    234c:	00000013          	nop
    2350:	00000013          	nop
    2354:	00000013          	nop
    2358:	00000013          	nop
    235c:	00000013          	nop
    2360:	00000013          	nop
    2364:	00000013          	nop
    2368:	00000013          	nop
    236c:	00000013          	nop
    2370:	00000013          	nop
    2374:	00000013          	nop
    2378:	00000013          	nop
    237c:	00000013          	nop
    2380:	00000013          	nop
    2384:	00000013          	nop
    2388:	00000013          	nop
    238c:	00000013          	nop
    2390:	00000013          	nop
    2394:	00000013          	nop
    2398:	00000013          	nop
    239c:	00000013          	nop
    23a0:	00000013          	nop
    23a4:	00000013          	nop
    23a8:	00000013          	nop
    23ac:	00000013          	nop
    23b0:	00000013          	nop
    23b4:	00000013          	nop
    23b8:	00000013          	nop
    23bc:	00000013          	nop
    23c0:	00000013          	nop
    23c4:	00000013          	nop
    23c8:	00000013          	nop
    23cc:	00000013          	nop
    23d0:	00000013          	nop
    23d4:	00000013          	nop
    23d8:	00000013          	nop
    23dc:	00000013          	nop
    23e0:	00000013          	nop
    23e4:	00000013          	nop
    23e8:	00000013          	nop
    23ec:	00000013          	nop
    23f0:	00000013          	nop
    23f4:	00000013          	nop
    23f8:	00000013          	nop
    23fc:	00000013          	nop
    2400:	00000013          	nop
    2404:	00000013          	nop
    2408:	00000013          	nop
    240c:	00000013          	nop
    2410:	00000013          	nop
    2414:	00000013          	nop
    2418:	00000013          	nop
    241c:	00000013          	nop
    2420:	00000013          	nop
    2424:	00000013          	nop
    2428:	00000013          	nop
    242c:	00000013          	nop
    2430:	00000013          	nop
    2434:	00000013          	nop
    2438:	00000013          	nop
    243c:	00000013          	nop
    2440:	00000013          	nop
    2444:	00000013          	nop
    2448:	00000013          	nop
    244c:	00000013          	nop
    2450:	00000013          	nop
    2454:	00000013          	nop
    2458:	00000013          	nop
    245c:	00000013          	nop
    2460:	00000013          	nop
    2464:	00000013          	nop
    2468:	00000013          	nop
    246c:	00000013          	nop
    2470:	00000013          	nop
    2474:	00000013          	nop
    2478:	00000013          	nop
    247c:	00000013          	nop
    2480:	00000013          	nop
    2484:	00000013          	nop
    2488:	00000013          	nop
    248c:	00000013          	nop
    2490:	00000013          	nop
    2494:	00000013          	nop
    2498:	00000013          	nop
    249c:	00000013          	nop
    24a0:	00000013          	nop
    24a4:	00000013          	nop
    24a8:	00000013          	nop
    24ac:	00000013          	nop
    24b0:	00000013          	nop
    24b4:	00000013          	nop
    24b8:	00000013          	nop
    24bc:	00000013          	nop
    24c0:	00000013          	nop
    24c4:	00000013          	nop
    24c8:	00000013          	nop
    24cc:	00000013          	nop
    24d0:	00000013          	nop
    24d4:	00000013          	nop
    24d8:	00000013          	nop
    24dc:	00000013          	nop
    24e0:	00000013          	nop
    24e4:	00000013          	nop
    24e8:	00000013          	nop
    24ec:	00000013          	nop
    24f0:	00000013          	nop
    24f4:	00000013          	nop
    24f8:	00000013          	nop
    24fc:	00000013          	nop
    2500:	00000013          	nop
    2504:	00000013          	nop
    2508:	00000013          	nop
    250c:	00000013          	nop
    2510:	00000013          	nop
    2514:	00000013          	nop
    2518:	00000013          	nop
    251c:	00000013          	nop
    2520:	00000013          	nop
    2524:	00000013          	nop
    2528:	00000013          	nop
    252c:	00000013          	nop
    2530:	00000013          	nop
    2534:	00000013          	nop
    2538:	00000013          	nop
    253c:	00000013          	nop
    2540:	00000013          	nop
    2544:	00000013          	nop
    2548:	00000013          	nop
    254c:	00000013          	nop
    2550:	00000013          	nop
    2554:	00000013          	nop
    2558:	00000013          	nop
    255c:	00000013          	nop
    2560:	00000013          	nop
    2564:	00000013          	nop
    2568:	00000013          	nop
    256c:	00000013          	nop
    2570:	00000013          	nop
    2574:	00000013          	nop
    2578:	00000013          	nop
    257c:	00000013          	nop
    2580:	00000013          	nop
    2584:	00000013          	nop
    2588:	00000013          	nop
    258c:	00000013          	nop
    2590:	00000013          	nop
    2594:	00000013          	nop
    2598:	00000013          	nop
    259c:	00000013          	nop
    25a0:	00000013          	nop
    25a4:	00000013          	nop
    25a8:	00000013          	nop
    25ac:	00000013          	nop
    25b0:	00000013          	nop
    25b4:	00000013          	nop
    25b8:	00000013          	nop
    25bc:	00000013          	nop
    25c0:	00000013          	nop
    25c4:	00000013          	nop
    25c8:	00000013          	nop
    25cc:	00000013          	nop
    25d0:	00000013          	nop
    25d4:	00000013          	nop
    25d8:	00000013          	nop
    25dc:	00000013          	nop
    25e0:	00000013          	nop
    25e4:	00000013          	nop
    25e8:	00000013          	nop
    25ec:	00000013          	nop
    25f0:	00000013          	nop
    25f4:	00000013          	nop
    25f8:	00000013          	nop
    25fc:	00000013          	nop
    2600:	00000013          	nop
    2604:	00000013          	nop
    2608:	00000013          	nop
    260c:	00000013          	nop
    2610:	00000013          	nop
    2614:	00000013          	nop
    2618:	00000013          	nop
    261c:	00000013          	nop
    2620:	00000013          	nop
    2624:	00000013          	nop
    2628:	00000013          	nop
    262c:	00000013          	nop
    2630:	00000013          	nop
    2634:	00000013          	nop
    2638:	00000013          	nop
    263c:	00000013          	nop
    2640:	00000013          	nop
    2644:	00000013          	nop
    2648:	00000013          	nop
    264c:	00000013          	nop
    2650:	00000013          	nop
    2654:	00000013          	nop
    2658:	00000013          	nop
    265c:	00000013          	nop
    2660:	00000013          	nop
    2664:	00000013          	nop
    2668:	00000013          	nop
    266c:	00000013          	nop
    2670:	00000013          	nop
    2674:	00000013          	nop
    2678:	00000013          	nop
    267c:	00000013          	nop
    2680:	00000013          	nop
    2684:	00000013          	nop
    2688:	00000013          	nop
    268c:	00000013          	nop
    2690:	00000013          	nop
    2694:	00000013          	nop
    2698:	00000013          	nop
    269c:	00000013          	nop
    26a0:	00000013          	nop
    26a4:	00000013          	nop
    26a8:	00000013          	nop
    26ac:	00000013          	nop
    26b0:	00000013          	nop
    26b4:	00000013          	nop
    26b8:	00000013          	nop
    26bc:	00000013          	nop
    26c0:	00000013          	nop
    26c4:	00000013          	nop
    26c8:	00000013          	nop
    26cc:	00000013          	nop
    26d0:	00000013          	nop
    26d4:	00000013          	nop
    26d8:	00000013          	nop
    26dc:	00000013          	nop
    26e0:	00000013          	nop
    26e4:	00000013          	nop
    26e8:	00000013          	nop
    26ec:	00000013          	nop
    26f0:	00000013          	nop
    26f4:	00000013          	nop
    26f8:	00000013          	nop
    26fc:	00000013          	nop
    2700:	00000013          	nop
    2704:	00000013          	nop
    2708:	00000013          	nop
    270c:	00000013          	nop
    2710:	00000013          	nop
    2714:	00000013          	nop
    2718:	00000013          	nop
    271c:	00000013          	nop
    2720:	00000013          	nop
    2724:	00000013          	nop
    2728:	00000013          	nop
    272c:	00000013          	nop
    2730:	00000013          	nop
    2734:	00000013          	nop
    2738:	00000013          	nop
    273c:	00000013          	nop
    2740:	00000013          	nop
    2744:	00000013          	nop
    2748:	00000013          	nop
    274c:	00000013          	nop
    2750:	00000013          	nop
    2754:	00000013          	nop
    2758:	00000013          	nop
    275c:	00000013          	nop
    2760:	00000013          	nop
    2764:	00000013          	nop
    2768:	00000013          	nop
    276c:	00000013          	nop
    2770:	00000013          	nop
    2774:	00000013          	nop
    2778:	00000013          	nop
    277c:	00000013          	nop
    2780:	00000013          	nop
    2784:	00000013          	nop
    2788:	00000013          	nop
    278c:	00000013          	nop
    2790:	00000013          	nop
    2794:	00000013          	nop
    2798:	00000013          	nop
    279c:	00000013          	nop
    27a0:	00000013          	nop
    27a4:	00000013          	nop
    27a8:	00000013          	nop
    27ac:	00000013          	nop
    27b0:	00000013          	nop
    27b4:	00000013          	nop
    27b8:	00000013          	nop
    27bc:	00000013          	nop
    27c0:	00000013          	nop
    27c4:	00000013          	nop
    27c8:	00000013          	nop
    27cc:	00000013          	nop
    27d0:	00000013          	nop
    27d4:	00000013          	nop
    27d8:	00000013          	nop
    27dc:	00000013          	nop
    27e0:	00000013          	nop
    27e4:	00000013          	nop
    27e8:	00000013          	nop
    27ec:	00000013          	nop
    27f0:	00000013          	nop
    27f4:	00000013          	nop
    27f8:	00000013          	nop
    27fc:	00000013          	nop
    2800:	00000013          	nop
    2804:	00000013          	nop
    2808:	00000013          	nop
    280c:	00000013          	nop
    2810:	00000013          	nop
    2814:	00000013          	nop
    2818:	00000013          	nop
    281c:	00000013          	nop
    2820:	00000013          	nop
    2824:	00000013          	nop
    2828:	00000013          	nop
    282c:	00000013          	nop
    2830:	00000013          	nop
    2834:	00000013          	nop
    2838:	00000013          	nop
    283c:	00000013          	nop
    2840:	00000013          	nop
    2844:	00000013          	nop
    2848:	00000013          	nop
    284c:	00000013          	nop
    2850:	00000013          	nop
    2854:	00000013          	nop
    2858:	00000013          	nop
    285c:	00000013          	nop
    2860:	00000013          	nop
    2864:	00000013          	nop
    2868:	00000013          	nop
    286c:	00000013          	nop
    2870:	00000013          	nop
    2874:	00000013          	nop
    2878:	00000013          	nop
    287c:	00000013          	nop
    2880:	00000013          	nop
    2884:	00000013          	nop
    2888:	00000013          	nop
    288c:	00000013          	nop
    2890:	00000013          	nop
    2894:	00000013          	nop
    2898:	00000013          	nop
    289c:	00000013          	nop
    28a0:	00000013          	nop
    28a4:	00000013          	nop
    28a8:	00000013          	nop
    28ac:	00000013          	nop
    28b0:	00000013          	nop
    28b4:	00000013          	nop
    28b8:	00000013          	nop
    28bc:	00000013          	nop
    28c0:	00000013          	nop
    28c4:	00000013          	nop
    28c8:	00000013          	nop
    28cc:	00000013          	nop
    28d0:	00000013          	nop
    28d4:	00000013          	nop
    28d8:	00000013          	nop
    28dc:	00000013          	nop
    28e0:	00000013          	nop
    28e4:	00000013          	nop
    28e8:	00000013          	nop
    28ec:	00000013          	nop
    28f0:	00000013          	nop
    28f4:	00000013          	nop
    28f8:	00000013          	nop
    28fc:	00000013          	nop
    2900:	00000013          	nop
    2904:	00000013          	nop
    2908:	00000013          	nop
    290c:	00000013          	nop
    2910:	00000013          	nop
    2914:	00000013          	nop
    2918:	00000013          	nop
    291c:	00000013          	nop
    2920:	00000013          	nop
    2924:	00000013          	nop
    2928:	00000013          	nop
    292c:	00000013          	nop
    2930:	00000013          	nop
    2934:	00000013          	nop
    2938:	00000013          	nop
    293c:	00000013          	nop
    2940:	00000013          	nop
    2944:	00000013          	nop
    2948:	00000013          	nop
    294c:	00000013          	nop
    2950:	00000013          	nop
    2954:	00000013          	nop
    2958:	00000013          	nop
    295c:	00000013          	nop
    2960:	00000013          	nop
    2964:	00000013          	nop
    2968:	00000013          	nop
    296c:	00000013          	nop
    2970:	00000013          	nop
    2974:	00000013          	nop
    2978:	00000013          	nop
    297c:	00000013          	nop
    2980:	00000013          	nop
    2984:	00000013          	nop
    2988:	00000013          	nop
    298c:	00000013          	nop
    2990:	00000013          	nop
    2994:	00000013          	nop
    2998:	00000013          	nop
    299c:	00000013          	nop
    29a0:	00000013          	nop
    29a4:	00000013          	nop
    29a8:	00000013          	nop
    29ac:	00000013          	nop
    29b0:	00000013          	nop
    29b4:	00000013          	nop
    29b8:	00000013          	nop
    29bc:	00000013          	nop
    29c0:	00000013          	nop
    29c4:	00000013          	nop
    29c8:	00000013          	nop
    29cc:	00000013          	nop
    29d0:	00000013          	nop
    29d4:	00000013          	nop
    29d8:	00000013          	nop
    29dc:	00000013          	nop
    29e0:	00000013          	nop
    29e4:	00000013          	nop
    29e8:	00000013          	nop
    29ec:	00000013          	nop
    29f0:	00000013          	nop
    29f4:	00000013          	nop
    29f8:	00000013          	nop
    29fc:	00000013          	nop
    2a00:	00000013          	nop
    2a04:	00000013          	nop
    2a08:	00000013          	nop
    2a0c:	00000013          	nop
    2a10:	00000013          	nop
    2a14:	00000013          	nop
    2a18:	00000013          	nop
    2a1c:	00000013          	nop
    2a20:	00000013          	nop
    2a24:	00000013          	nop
    2a28:	00000013          	nop
    2a2c:	00000013          	nop
    2a30:	00000013          	nop
    2a34:	00000013          	nop
    2a38:	00000013          	nop
    2a3c:	00000013          	nop
    2a40:	00000013          	nop
    2a44:	00000013          	nop
    2a48:	00000013          	nop
    2a4c:	00000013          	nop
    2a50:	00000013          	nop
    2a54:	00000013          	nop
    2a58:	00000013          	nop
    2a5c:	00000013          	nop
    2a60:	00000013          	nop
    2a64:	00000013          	nop
    2a68:	00000013          	nop
    2a6c:	00000013          	nop
    2a70:	00000013          	nop
    2a74:	00000013          	nop
    2a78:	00000013          	nop
    2a7c:	00000013          	nop
    2a80:	00000013          	nop
    2a84:	00000013          	nop
    2a88:	00000013          	nop
    2a8c:	00000013          	nop
    2a90:	00000013          	nop
    2a94:	00000013          	nop
    2a98:	00000013          	nop
    2a9c:	00000013          	nop
    2aa0:	00000013          	nop
    2aa4:	00000013          	nop
    2aa8:	00000013          	nop
    2aac:	00000013          	nop
    2ab0:	00000013          	nop
    2ab4:	00000013          	nop
    2ab8:	00000013          	nop
    2abc:	00000013          	nop
    2ac0:	00000013          	nop
    2ac4:	00000013          	nop
    2ac8:	00000013          	nop
    2acc:	00000013          	nop
    2ad0:	00000013          	nop
    2ad4:	00000013          	nop
    2ad8:	00000013          	nop
    2adc:	00000013          	nop
    2ae0:	00000013          	nop
    2ae4:	00000013          	nop
    2ae8:	00000013          	nop
    2aec:	00000013          	nop
    2af0:	00000013          	nop
    2af4:	00000013          	nop
    2af8:	00000013          	nop
    2afc:	00000013          	nop
    2b00:	00000013          	nop
    2b04:	00000013          	nop
    2b08:	00000013          	nop
    2b0c:	00000013          	nop
    2b10:	00000013          	nop
    2b14:	00000013          	nop
    2b18:	00000013          	nop
    2b1c:	00000013          	nop
    2b20:	00000013          	nop
    2b24:	00000013          	nop
    2b28:	00000013          	nop
    2b2c:	00000013          	nop
    2b30:	00000013          	nop
    2b34:	00000013          	nop
    2b38:	00000013          	nop
    2b3c:	00000013          	nop
    2b40:	00000013          	nop
    2b44:	00000013          	nop
    2b48:	00000013          	nop
    2b4c:	00000013          	nop
    2b50:	00000013          	nop
    2b54:	00000013          	nop
    2b58:	00000013          	nop
    2b5c:	00000013          	nop
    2b60:	00000013          	nop
    2b64:	00000013          	nop
    2b68:	00000013          	nop
    2b6c:	00000013          	nop
    2b70:	00000013          	nop
    2b74:	00000013          	nop
    2b78:	00000013          	nop
    2b7c:	00000013          	nop
    2b80:	00000013          	nop
    2b84:	00000013          	nop
    2b88:	00000013          	nop
    2b8c:	00000013          	nop
    2b90:	00000013          	nop
    2b94:	00000013          	nop
    2b98:	00000013          	nop
    2b9c:	00000013          	nop
    2ba0:	00000013          	nop
    2ba4:	00000013          	nop
    2ba8:	00000013          	nop
    2bac:	00000013          	nop
    2bb0:	00000013          	nop
    2bb4:	00000013          	nop
    2bb8:	00000013          	nop
    2bbc:	00000013          	nop
    2bc0:	00000013          	nop
    2bc4:	00000013          	nop
    2bc8:	00000013          	nop
    2bcc:	00000013          	nop
    2bd0:	00000013          	nop
    2bd4:	00000013          	nop
    2bd8:	00000013          	nop
    2bdc:	00000013          	nop
    2be0:	00000013          	nop
    2be4:	00000013          	nop
    2be8:	00000013          	nop
    2bec:	00000013          	nop
    2bf0:	00000013          	nop
    2bf4:	00000013          	nop
    2bf8:	00000013          	nop
    2bfc:	00000013          	nop
    2c00:	00000013          	nop
    2c04:	00000013          	nop
    2c08:	00000013          	nop
    2c0c:	00000013          	nop
    2c10:	00000013          	nop
    2c14:	00000013          	nop
    2c18:	00000013          	nop
    2c1c:	00000013          	nop
    2c20:	00000013          	nop
    2c24:	00000013          	nop
    2c28:	00000013          	nop
    2c2c:	00000013          	nop
    2c30:	00000013          	nop
    2c34:	00000013          	nop
    2c38:	00000013          	nop
    2c3c:	00000013          	nop
    2c40:	00000013          	nop
    2c44:	00000013          	nop
    2c48:	00000013          	nop
    2c4c:	00000013          	nop
    2c50:	00000013          	nop
    2c54:	00000013          	nop
    2c58:	00000013          	nop
    2c5c:	00000013          	nop
    2c60:	00000013          	nop
    2c64:	00000013          	nop
    2c68:	00000013          	nop
    2c6c:	00000013          	nop
    2c70:	00000013          	nop
    2c74:	00000013          	nop
    2c78:	00000013          	nop
    2c7c:	00000013          	nop
    2c80:	00000013          	nop
    2c84:	00000013          	nop
    2c88:	00000013          	nop
    2c8c:	00000013          	nop
    2c90:	00000013          	nop
    2c94:	00000013          	nop
    2c98:	00000013          	nop
    2c9c:	00000013          	nop
    2ca0:	00000013          	nop
    2ca4:	00000013          	nop
    2ca8:	00000013          	nop
    2cac:	00000013          	nop
    2cb0:	00000013          	nop
    2cb4:	00000013          	nop
    2cb8:	00000013          	nop
    2cbc:	00000013          	nop
    2cc0:	00000013          	nop
    2cc4:	00000013          	nop
    2cc8:	00000013          	nop
    2ccc:	00000013          	nop
    2cd0:	00000013          	nop
    2cd4:	00000013          	nop
    2cd8:	00000013          	nop
    2cdc:	00000013          	nop
    2ce0:	00000013          	nop
    2ce4:	00000013          	nop
    2ce8:	00000013          	nop
    2cec:	00000013          	nop
    2cf0:	00000013          	nop
    2cf4:	00000013          	nop
    2cf8:	00000013          	nop
    2cfc:	00000013          	nop
    2d00:	00000013          	nop
    2d04:	00000013          	nop
    2d08:	00000013          	nop
    2d0c:	00000013          	nop
    2d10:	00000013          	nop
    2d14:	00000013          	nop
    2d18:	00000013          	nop
    2d1c:	00000013          	nop
    2d20:	00000013          	nop
    2d24:	00000013          	nop
    2d28:	00000013          	nop
    2d2c:	00000013          	nop
    2d30:	00000013          	nop
    2d34:	00000013          	nop
    2d38:	00000013          	nop
    2d3c:	00000013          	nop
    2d40:	00000013          	nop
    2d44:	00000013          	nop
    2d48:	00000013          	nop
    2d4c:	00000013          	nop
    2d50:	00000013          	nop
    2d54:	00000013          	nop
    2d58:	00000013          	nop
    2d5c:	00000013          	nop
    2d60:	00000013          	nop
    2d64:	00000013          	nop
    2d68:	00000013          	nop
    2d6c:	00000013          	nop
    2d70:	00000013          	nop
    2d74:	00000013          	nop
    2d78:	00000013          	nop
    2d7c:	00000013          	nop
    2d80:	00000013          	nop
    2d84:	00000013          	nop
    2d88:	00000013          	nop
    2d8c:	00000013          	nop
    2d90:	00000013          	nop
    2d94:	00000013          	nop
    2d98:	00000013          	nop
    2d9c:	00000013          	nop
    2da0:	00000013          	nop
    2da4:	00000013          	nop
    2da8:	00000013          	nop
    2dac:	00000013          	nop
    2db0:	00000013          	nop
    2db4:	00000013          	nop
    2db8:	00000013          	nop
    2dbc:	00000013          	nop
    2dc0:	00000013          	nop
    2dc4:	00000013          	nop
    2dc8:	00000013          	nop
    2dcc:	00000013          	nop
    2dd0:	00000013          	nop
    2dd4:	00000013          	nop
    2dd8:	00000013          	nop
    2ddc:	00000013          	nop
    2de0:	00000013          	nop
    2de4:	00000013          	nop
    2de8:	00000013          	nop
    2dec:	00000013          	nop
    2df0:	00000013          	nop
    2df4:	00000013          	nop
    2df8:	00000013          	nop
