
rv32uc-v-rvc:     ファイル形式 elf32-littleriscv


セクション .text.init の逆アセンブル:

00000000 <_start>:
   0:	00c0006f          	j	c <handle_reset>

00000004 <nmi_vector>:
   4:	3640206f          	j	2368 <wtf>

00000008 <trap_vector>:
   8:	3600206f          	j	2368 <wtf>

0000000c <handle_reset>:
   c:	00000093          	li	ra,0
  10:	00000113          	li	sp,0
  14:	00000193          	li	gp,0
  18:	00000213          	li	tp,0
  1c:	00000293          	li	t0,0
  20:	00000313          	li	t1,0
  24:	00000393          	li	t2,0
  28:	00000413          	li	s0,0
  2c:	00000493          	li	s1,0
  30:	00000513          	li	a0,0
  34:	00000593          	li	a1,0
  38:	00000613          	li	a2,0
  3c:	00000693          	li	a3,0
  40:	00000713          	li	a4,0
  44:	00000793          	li	a5,0
  48:	00000813          	li	a6,0
  4c:	00000893          	li	a7,0
  50:	00000913          	li	s2,0
  54:	00000993          	li	s3,0
  58:	00000a13          	li	s4,0
  5c:	00000a93          	li	s5,0
  60:	00000b13          	li	s6,0
  64:	00000b93          	li	s7,0
  68:	00000c13          	li	s8,0
  6c:	00000c93          	li	s9,0
  70:	00000d13          	li	s10,0
  74:	00000d93          	li	s11,0
  78:	00000e13          	li	t3,0
  7c:	00000e93          	li	t4,0
  80:	00000f13          	li	t5,0
  84:	00000f93          	li	t6,0
  88:	00000297          	auipc	t0,0x0
  8c:	01028293          	addi	t0,t0,16 # 98 <handle_reset+0x8c>
  90:	30529073          	csrw	mtvec,t0
  94:	74445073          	csrwi	mnstatus,8
  98:	00000297          	auipc	t0,0x0
  9c:	f7028293          	addi	t0,t0,-144 # 8 <trap_vector>
  a0:	30529073          	csrw	mtvec,t0
  a4:	0000e117          	auipc	sp,0xe
  a8:	ecc10113          	addi	sp,sp,-308 # df70 <freelist_head+0x3f6c>
  ac:	f14022f3          	csrr	t0,mhartid
  b0:	00c29293          	slli	t0,t0,0xc
  b4:	00510133          	add	sp,sp,t0
  b8:	34011073          	csrw	mscratch,sp
  bc:	745020ef          	jal	3000 <extra_boot>
  c0:	00003517          	auipc	a0,0x3
  c4:	f5450513          	addi	a0,a0,-172 # 3014 <userstart>
  c8:	7440206f          	j	280c <vm_boot>

000000cc <pop_tf>:
  cc:	08452283          	lw	t0,132(a0)
  d0:	14129073          	csrw	sepc,t0
  d4:	00452083          	lw	ra,4(a0)
  d8:	00852103          	lw	sp,8(a0)
  dc:	00c52183          	lw	gp,12(a0)
  e0:	01052203          	lw	tp,16(a0)
  e4:	01452283          	lw	t0,20(a0)
  e8:	01852303          	lw	t1,24(a0)
  ec:	01c52383          	lw	t2,28(a0)
  f0:	02052403          	lw	s0,32(a0)
  f4:	02452483          	lw	s1,36(a0)
  f8:	02c52583          	lw	a1,44(a0)
  fc:	03052603          	lw	a2,48(a0)
 100:	03452683          	lw	a3,52(a0)
 104:	03852703          	lw	a4,56(a0)
 108:	03c52783          	lw	a5,60(a0)
 10c:	04052803          	lw	a6,64(a0)
 110:	04452883          	lw	a7,68(a0)
 114:	04852903          	lw	s2,72(a0)
 118:	04c52983          	lw	s3,76(a0)
 11c:	05052a03          	lw	s4,80(a0)
 120:	05452a83          	lw	s5,84(a0)
 124:	05852b03          	lw	s6,88(a0)
 128:	05c52b83          	lw	s7,92(a0)
 12c:	06052c03          	lw	s8,96(a0)
 130:	06452c83          	lw	s9,100(a0)
 134:	06852d03          	lw	s10,104(a0)
 138:	06c52d83          	lw	s11,108(a0)
 13c:	07052e03          	lw	t3,112(a0)
 140:	07452e83          	lw	t4,116(a0)
 144:	07852f03          	lw	t5,120(a0)
 148:	07c52f83          	lw	t6,124(a0)
 14c:	02852503          	lw	a0,40(a0)
 150:	10200073          	sret

00000154 <trap_entry>:
 154:	14011173          	csrrw	sp,sscratch,sp
 158:	00112223          	sw	ra,4(sp)
 15c:	00312623          	sw	gp,12(sp)
 160:	00412823          	sw	tp,16(sp)
 164:	00512a23          	sw	t0,20(sp)
 168:	00612c23          	sw	t1,24(sp)
 16c:	00712e23          	sw	t2,28(sp)
 170:	02812023          	sw	s0,32(sp)
 174:	02912223          	sw	s1,36(sp)
 178:	02a12423          	sw	a0,40(sp)
 17c:	02b12623          	sw	a1,44(sp)
 180:	02c12823          	sw	a2,48(sp)
 184:	02d12a23          	sw	a3,52(sp)
 188:	02e12c23          	sw	a4,56(sp)
 18c:	02f12e23          	sw	a5,60(sp)
 190:	05012023          	sw	a6,64(sp)
 194:	05112223          	sw	a7,68(sp)
 198:	05212423          	sw	s2,72(sp)
 19c:	05312623          	sw	s3,76(sp)
 1a0:	05412823          	sw	s4,80(sp)
 1a4:	05512a23          	sw	s5,84(sp)
 1a8:	05612c23          	sw	s6,88(sp)
 1ac:	05712e23          	sw	s7,92(sp)
 1b0:	07812023          	sw	s8,96(sp)
 1b4:	07912223          	sw	s9,100(sp)
 1b8:	07a12423          	sw	s10,104(sp)
 1bc:	07b12623          	sw	s11,108(sp)
 1c0:	07c12823          	sw	t3,112(sp)
 1c4:	07d12a23          	sw	t4,116(sp)
 1c8:	07e12c23          	sw	t5,120(sp)
 1cc:	07f12e23          	sw	t6,124(sp)
 1d0:	140112f3          	csrrw	t0,sscratch,sp
 1d4:	00512423          	sw	t0,8(sp)
 1d8:	100022f3          	csrr	t0,sstatus
 1dc:	08512023          	sw	t0,128(sp)
 1e0:	141022f3          	csrr	t0,sepc
 1e4:	08512223          	sw	t0,132(sp)
 1e8:	143022f3          	csrr	t0,stval
 1ec:	08512423          	sw	t0,136(sp)
 1f0:	142022f3          	csrr	t0,scause
 1f4:	08512623          	sw	t0,140(sp)
 1f8:	00010513          	mv	a0,sp
 1fc:	3fc0206f          	j	25f8 <handle_trap>

セクション .text の逆アセンブル:

00002000 <memcpy>:
    2000:	00c5e7b3          	or	a5,a1,a2
    2004:	00f567b3          	or	a5,a0,a5
    2008:	0037f793          	andi	a5,a5,3
    200c:	00c506b3          	add	a3,a0,a2
    2010:	02078463          	beqz	a5,2038 <memcpy+0x38>
    2014:	00c58633          	add	a2,a1,a2
    2018:	00050793          	mv	a5,a0
    201c:	02d57e63          	bgeu	a0,a3,2058 <memcpy+0x58>
    2020:	0005c703          	lbu	a4,0(a1)
    2024:	00158593          	addi	a1,a1,1
    2028:	00178793          	addi	a5,a5,1
    202c:	fee78fa3          	sb	a4,-1(a5)
    2030:	feb618e3          	bne	a2,a1,2020 <memcpy+0x20>
    2034:	00008067          	ret
    2038:	fed57ee3          	bgeu	a0,a3,2034 <memcpy+0x34>
    203c:	00050793          	mv	a5,a0
    2040:	0005a703          	lw	a4,0(a1)
    2044:	00478793          	addi	a5,a5,4
    2048:	00458593          	addi	a1,a1,4
    204c:	fee7ae23          	sw	a4,-4(a5)
    2050:	fed7e8e3          	bltu	a5,a3,2040 <memcpy+0x40>
    2054:	00008067          	ret
    2058:	00008067          	ret

0000205c <memset>:
    205c:	00c567b3          	or	a5,a0,a2
    2060:	0037f793          	andi	a5,a5,3
    2064:	00050813          	mv	a6,a0
    2068:	00c50733          	add	a4,a0,a2
    206c:	00078863          	beqz	a5,207c <memset+0x20>
    2070:	02e57a63          	bgeu	a0,a4,20a4 <memset+0x48>
    2074:	0ff5f593          	zext.b	a1,a1
    2078:	fe5ff06f          	j	205c <memset>
    207c:	02e57463          	bgeu	a0,a4,20a4 <memset+0x48>
    2080:	0ff5f593          	zext.b	a1,a1
    2084:	00859693          	slli	a3,a1,0x8
    2088:	00b686b3          	add	a3,a3,a1
    208c:	01069793          	slli	a5,a3,0x10
    2090:	00f686b3          	add	a3,a3,a5
    2094:	00050793          	mv	a5,a0
    2098:	00478793          	addi	a5,a5,4
    209c:	fed7ae23          	sw	a3,-4(a5)
    20a0:	fee7ece3          	bltu	a5,a4,2098 <memset+0x3c>
    20a4:	00080513          	mv	a0,a6
    20a8:	00008067          	ret

000020ac <strlen>:
    20ac:	00054783          	lbu	a5,0(a0)
    20b0:	00078e63          	beqz	a5,20cc <strlen+0x20>
    20b4:	00050793          	mv	a5,a0
    20b8:	0017c703          	lbu	a4,1(a5)
    20bc:	00178793          	addi	a5,a5,1
    20c0:	fe071ce3          	bnez	a4,20b8 <strlen+0xc>
    20c4:	40a78533          	sub	a0,a5,a0
    20c8:	00008067          	ret
    20cc:	00000513          	li	a0,0
    20d0:	00008067          	ret

000020d4 <strcmp>:
    20d4:	00050693          	mv	a3,a0
    20d8:	0006c783          	lbu	a5,0(a3)
    20dc:	0005c603          	lbu	a2,0(a1)
    20e0:	00168693          	addi	a3,a3,1
    20e4:	00f03733          	snez	a4,a5
    20e8:	40c78533          	sub	a0,a5,a2
    20ec:	00153793          	seqz	a5,a0
    20f0:	00f777b3          	and	a5,a4,a5
    20f4:	00158593          	addi	a1,a1,1
    20f8:	fe0790e3          	bnez	a5,20d8 <strcmp+0x4>
    20fc:	00008067          	ret

00002100 <memcmp>:
    2100:	00b567b3          	or	a5,a0,a1
    2104:	0037f793          	andi	a5,a5,3
    2108:	02079e63          	bnez	a5,2144 <memcmp+0x44>
    210c:	ffc67813          	andi	a6,a2,-4
    2110:	01050833          	add	a6,a0,a6
    2114:	03057863          	bgeu	a0,a6,2144 <memcmp+0x44>
    2118:	00050793          	mv	a5,a0
    211c:	0100006f          	j	212c <memcmp+0x2c>
    2120:	00478793          	addi	a5,a5,4
    2124:	00458593          	addi	a1,a1,4
    2128:	0107f863          	bgeu	a5,a6,2138 <memcmp+0x38>
    212c:	0007a683          	lw	a3,0(a5)
    2130:	0005a703          	lw	a4,0(a1)
    2134:	fee686e3          	beq	a3,a4,2120 <memcmp+0x20>
    2138:	40a78533          	sub	a0,a5,a0
    213c:	40a60633          	sub	a2,a2,a0
    2140:	00078513          	mv	a0,a5
    2144:	00c58633          	add	a2,a1,a2
    2148:	0140006f          	j	215c <memcmp+0x5c>
    214c:	fff54783          	lbu	a5,-1(a0)
    2150:	0005c703          	lbu	a4,0(a1)
    2154:	00158593          	addi	a1,a1,1
    2158:	00e79a63          	bne	a5,a4,216c <memcmp+0x6c>
    215c:	00150513          	addi	a0,a0,1
    2160:	feb616e3          	bne	a2,a1,214c <memcmp+0x4c>
    2164:	00000513          	li	a0,0
    2168:	00008067          	ret
    216c:	40e78533          	sub	a0,a5,a4
    2170:	00008067          	ret

00002174 <strcpy>:
    2174:	00050793          	mv	a5,a0
    2178:	0005c703          	lbu	a4,0(a1)
    217c:	00158593          	addi	a1,a1,1
    2180:	00178793          	addi	a5,a5,1
    2184:	fee78fa3          	sb	a4,-1(a5)
    2188:	fe0718e3          	bnez	a4,2178 <strcpy+0x4>
    218c:	00008067          	ret

00002190 <atol>:
    2190:	00054703          	lbu	a4,0(a0)
    2194:	02000693          	li	a3,32
    2198:	00050793          	mv	a5,a0
    219c:	00d71863          	bne	a4,a3,21ac <atol+0x1c>
    21a0:	0017c703          	lbu	a4,1(a5)
    21a4:	00178793          	addi	a5,a5,1
    21a8:	fed70ce3          	beq	a4,a3,21a0 <atol+0x10>
    21ac:	fd570693          	addi	a3,a4,-43
    21b0:	0fd6f693          	andi	a3,a3,253
    21b4:	04069463          	bnez	a3,21fc <atol+0x6c>
    21b8:	0017c683          	lbu	a3,1(a5)
    21bc:	fd370713          	addi	a4,a4,-45
    21c0:	00173613          	seqz	a2,a4
    21c4:	04068663          	beqz	a3,2210 <atol+0x80>
    21c8:	00178793          	addi	a5,a5,1
    21cc:	00000513          	li	a0,0
    21d0:	00178793          	addi	a5,a5,1
    21d4:	fd068593          	addi	a1,a3,-48
    21d8:	00251713          	slli	a4,a0,0x2
    21dc:	0007c683          	lbu	a3,0(a5)
    21e0:	00a70733          	add	a4,a4,a0
    21e4:	00171713          	slli	a4,a4,0x1
    21e8:	00e58533          	add	a0,a1,a4
    21ec:	fe0692e3          	bnez	a3,21d0 <atol+0x40>
    21f0:	00060463          	beqz	a2,21f8 <atol+0x68>
    21f4:	40a00533          	neg	a0,a0
    21f8:	00008067          	ret
    21fc:	0007c683          	lbu	a3,0(a5)
    2200:	00000613          	li	a2,0
    2204:	fc0694e3          	bnez	a3,21cc <atol+0x3c>
    2208:	00000513          	li	a0,0
    220c:	00008067          	ret
    2210:	00000513          	li	a0,0
    2214:	fddff06f          	j	21f0 <atol+0x60>

00002218 <cputstring>:
    2218:	00054783          	lbu	a5,0(a0)
    221c:	0a078863          	beqz	a5,22cc <cputstring+0xb4>
    2220:	fb010113          	addi	sp,sp,-80
    2224:	00c10e13          	addi	t3,sp,12
    2228:	01010313          	addi	t1,sp,16
    222c:	00000e93          	li	t4,0
    2230:	00000393          	li	t2,0
    2234:	fffff617          	auipc	a2,0xfffff
    2238:	dcc60613          	addi	a2,a2,-564 # 1000 <tohost>
    223c:	fffff697          	auipc	a3,0xfffff
    2240:	e0468693          	addi	a3,a3,-508 # 1040 <fromhost>
    2244:	04000f13          	li	t5,64
    2248:	00000f93          	li	t6,0
    224c:	00100813          	li	a6,1
    2250:	00000893          	li	a7,0
    2254:	00f12623          	sw	a5,12(sp)
    2258:	01e12823          	sw	t5,16(sp)
    225c:	01f12a23          	sw	t6,20(sp)
    2260:	01012c23          	sw	a6,24(sp)
    2264:	01112e23          	sw	a7,28(sp)
    2268:	03c12023          	sw	t3,32(sp)
    226c:	03d12223          	sw	t4,36(sp)
    2270:	03012423          	sw	a6,40(sp)
    2274:	03112623          	sw	a7,44(sp)
    2278:	00062703          	lw	a4,0(a2)
    227c:	00462783          	lw	a5,4(a2)
    2280:	00150513          	addi	a0,a0,1
    2284:	00f76733          	or	a4,a4,a5
    2288:	00070e63          	beqz	a4,22a4 <cputstring+0x8c>
    228c:	0006a023          	sw	zero,0(a3)
    2290:	0006a223          	sw	zero,4(a3)
    2294:	00062703          	lw	a4,0(a2)
    2298:	00462783          	lw	a5,4(a2)
    229c:	00f76733          	or	a4,a4,a5
    22a0:	fe0716e3          	bnez	a4,228c <cputstring+0x74>
    22a4:	00662023          	sw	t1,0(a2)
    22a8:	00762223          	sw	t2,4(a2)
    22ac:	0006a703          	lw	a4,0(a3)
    22b0:	0046a783          	lw	a5,4(a3)
    22b4:	00f76733          	or	a4,a4,a5
    22b8:	fe070ae3          	beqz	a4,22ac <cputstring+0x94>
    22bc:	00054783          	lbu	a5,0(a0)
    22c0:	f8079ae3          	bnez	a5,2254 <cputstring+0x3c>
    22c4:	05010113          	addi	sp,sp,80
    22c8:	00008067          	ret
    22cc:	00008067          	ret

000022d0 <terminate>:
    22d0:	fffff697          	auipc	a3,0xfffff
    22d4:	d3068693          	addi	a3,a3,-720 # 1000 <tohost>
    22d8:	0006a703          	lw	a4,0(a3)
    22dc:	0046a783          	lw	a5,4(a3)
    22e0:	00050813          	mv	a6,a0
    22e4:	41f55893          	srai	a7,a0,0x1f
    22e8:	00f76733          	or	a4,a4,a5
    22ec:	02070263          	beqz	a4,2310 <terminate+0x40>
    22f0:	fffff617          	auipc	a2,0xfffff
    22f4:	d5060613          	addi	a2,a2,-688 # 1040 <fromhost>
    22f8:	00062023          	sw	zero,0(a2)
    22fc:	00062223          	sw	zero,4(a2)
    2300:	0006a703          	lw	a4,0(a3)
    2304:	0046a783          	lw	a5,4(a3)
    2308:	00f76733          	or	a4,a4,a5
    230c:	fe0716e3          	bnez	a4,22f8 <terminate+0x28>
    2310:	0106a023          	sw	a6,0(a3)
    2314:	0116a223          	sw	a7,4(a3)
    2318:	0000006f          	j	2318 <terminate+0x48>

0000231c <terminate.constprop.0>:
    231c:	fffff697          	auipc	a3,0xfffff
    2320:	ce468693          	addi	a3,a3,-796 # 1000 <tohost>
    2324:	0006a703          	lw	a4,0(a3)
    2328:	0046a783          	lw	a5,4(a3)
    232c:	00f76733          	or	a4,a4,a5
    2330:	02070263          	beqz	a4,2354 <terminate.constprop.0+0x38>
    2334:	fffff617          	auipc	a2,0xfffff
    2338:	d0c60613          	addi	a2,a2,-756 # 1040 <fromhost>
    233c:	00062023          	sw	zero,0(a2)
    2340:	00062223          	sw	zero,4(a2)
    2344:	0006a703          	lw	a4,0(a3)
    2348:	0046a783          	lw	a5,4(a3)
    234c:	00f76733          	or	a4,a4,a5
    2350:	fe0716e3          	bnez	a4,233c <terminate.constprop.0+0x20>
    2354:	00300713          	li	a4,3
    2358:	00000793          	li	a5,0
    235c:	00e6a023          	sw	a4,0(a3)
    2360:	00f6a223          	sw	a5,4(a3)
    2364:	0000006f          	j	2364 <terminate.constprop.0+0x48>

00002368 <wtf>:
    2368:	ff010113          	addi	sp,sp,-16
    236c:	34900513          	li	a0,841
    2370:	00112623          	sw	ra,12(sp)
    2374:	f5dff0ef          	jal	22d0 <terminate>

00002378 <printhex>:
    2378:	fd010113          	addi	sp,sp,-48
    237c:	00050713          	mv	a4,a0
    2380:	02112623          	sw	ra,44(sp)
    2384:	00c10513          	addi	a0,sp,12
    2388:	01b10613          	addi	a2,sp,27
    238c:	00900813          	li	a6,9
    2390:	0080006f          	j	2398 <printhex+0x20>
    2394:	fff60613          	addi	a2,a2,-1
    2398:	00f77693          	andi	a3,a4,15
    239c:	00d837b3          	sltu	a5,a6,a3
    23a0:	40f007b3          	neg	a5,a5
    23a4:	0277f793          	andi	a5,a5,39
    23a8:	03078793          	addi	a5,a5,48
    23ac:	00f686b3          	add	a3,a3,a5
    23b0:	00475713          	srli	a4,a4,0x4
    23b4:	01c59793          	slli	a5,a1,0x1c
    23b8:	00d60023          	sb	a3,0(a2)
    23bc:	00e78733          	add	a4,a5,a4
    23c0:	0045d593          	srli	a1,a1,0x4
    23c4:	fcc518e3          	bne	a0,a2,2394 <printhex+0x1c>
    23c8:	00010e23          	sb	zero,28(sp)
    23cc:	e4dff0ef          	jal	2218 <cputstring>
    23d0:	02c12083          	lw	ra,44(sp)
    23d4:	03010113          	addi	sp,sp,48
    23d8:	00008067          	ret

000023dc <handle_fault>:
    23dc:	fd010113          	addi	sp,sp,-48
    23e0:	00100793          	li	a5,1
    23e4:	fffff737          	lui	a4,0xfffff
    23e8:	00f12e23          	sw	a5,28(sp)
    23ec:	02112623          	sw	ra,44(sp)
    23f0:	00012c23          	sw	zero,24(sp)
    23f4:	00e506b3          	add	a3,a0,a4
    23f8:	0003e7b7          	lui	a5,0x3e
    23fc:	1af6fa63          	bgeu	a3,a5,25b0 <handle_fault+0x1d4>
    2400:	00e577b3          	and	a5,a0,a4
    2404:	00c7d893          	srli	a7,a5,0xc
    2408:	40088713          	addi	a4,a7,1024
    240c:	00271693          	slli	a3,a4,0x2
    2410:	00006817          	auipc	a6,0x6
    2414:	bf080813          	addi	a6,a6,-1040 # 8000 <pt>
    2418:	00d806b3          	add	a3,a6,a3
    241c:	0006a683          	lw	a3,0(a3)
    2420:	12069263          	bnez	a3,2544 <handle_fault+0x168>
    2424:	00008697          	auipc	a3,0x8
    2428:	be06a683          	lw	a3,-1056(a3) # a004 <freelist_head>
    242c:	02812423          	sw	s0,40(sp)
    2430:	1a068463          	beqz	a3,25d8 <handle_fault+0x1fc>
    2434:	0046a603          	lw	a2,4(a3)
    2438:	00008597          	auipc	a1,0x8
    243c:	bc85a583          	lw	a1,-1080(a1) # a000 <freelist_tail>
    2440:	00008517          	auipc	a0,0x8
    2444:	bcc52223          	sw	a2,-1084(a0) # a004 <freelist_head>
    2448:	14b60e63          	beq	a2,a1,25a4 <handle_fault+0x1c8>
    244c:	00078513          	mv	a0,a5
    2450:	01c10613          	addi	a2,sp,28
    2454:	01810593          	addi	a1,sp,24
    2458:	0006a403          	lw	s0,0(a3)
    245c:	00e12623          	sw	a4,12(sp)
    2460:	01112423          	sw	a7,8(sp)
    2464:	00f12223          	sw	a5,4(sp)
    2468:	00d12023          	sw	a3,0(sp)
    246c:	3a1000ef          	jal	300c <pf_filter>
    2470:	00012683          	lw	a3,0(sp)
    2474:	00412783          	lw	a5,4(sp)
    2478:	00812883          	lw	a7,8(sp)
    247c:	00c12703          	lw	a4,12(sp)
    2480:	00006817          	auipc	a6,0x6
    2484:	b8080813          	addi	a6,a6,-1152 # 8000 <pt>
    2488:	0e051e63          	bnez	a0,2584 <handle_fault+0x1a8>
    248c:	00c45613          	srli	a2,s0,0xc
    2490:	00a61613          	slli	a2,a2,0xa
    2494:	01f66613          	ori	a2,a2,31
    2498:	00271593          	slli	a1,a4,0x2
    249c:	00b805b3          	add	a1,a6,a1
    24a0:	0c066513          	ori	a0,a2,192
    24a4:	00a5a023          	sw	a0,0(a1)
    24a8:	12078073          	sfence.vma	a5
    24ac:	00005597          	auipc	a1,0x5
    24b0:	b5458593          	addi	a1,a1,-1196 # 7000 <user_mapping>
    24b4:	00389893          	slli	a7,a7,0x3
    24b8:	011585b3          	add	a1,a1,a7
    24bc:	0005a503          	lw	a0,0(a1)
    24c0:	12051463          	bnez	a0,25e8 <handle_fault+0x20c>
    24c4:	0006a883          	lw	a7,0(a3)
    24c8:	00040537          	lui	a0,0x40
    24cc:	0115a023          	sw	a7,0(a1)
    24d0:	0046a683          	lw	a3,4(a3)
    24d4:	00d5a223          	sw	a3,4(a1)
    24d8:	10052573          	csrrs	a0,sstatus,a0
    24dc:	ffc006b7          	lui	a3,0xffc00
    24e0:	00d786b3          	add	a3,a5,a3
    24e4:	000018b7          	lui	a7,0x1
    24e8:	011688b3          	add	a7,a3,a7
    24ec:	00078593          	mv	a1,a5
    24f0:	0086a303          	lw	t1,8(a3) # ffc00008 <freelist_head+0xffbf6004>
    24f4:	0006ae83          	lw	t4,0(a3)
    24f8:	0046ae03          	lw	t3,4(a3)
    24fc:	0065a423          	sw	t1,8(a1)
    2500:	01d5a023          	sw	t4,0(a1)
    2504:	01c5a223          	sw	t3,4(a1)
    2508:	00c6a303          	lw	t1,12(a3)
    250c:	01068693          	addi	a3,a3,16
    2510:	01058593          	addi	a1,a1,16
    2514:	fe65ae23          	sw	t1,-4(a1)
    2518:	fd169ce3          	bne	a3,a7,24f0 <handle_fault+0x114>
    251c:	10051073          	csrw	sstatus,a0
    2520:	00271713          	slli	a4,a4,0x2
    2524:	00e80733          	add	a4,a6,a4
    2528:	00c72023          	sw	a2,0(a4) # fffff000 <freelist_head+0xffff4ffc>
    252c:	12078073          	sfence.vma	a5
    2530:	0000100f          	fence.i
    2534:	02812403          	lw	s0,40(sp)
    2538:	02c12083          	lw	ra,44(sp)
    253c:	03010113          	addi	sp,sp,48
    2540:	00008067          	ret
    2544:	0406f613          	andi	a2,a3,64
    2548:	04060a63          	beqz	a2,259c <handle_fault+0x1c0>
    254c:	0076d613          	srli	a2,a3,0x7
    2550:	ff158593          	addi	a1,a1,-15
    2554:	0015b593          	seqz	a1,a1
    2558:	fff64613          	not	a2,a2
    255c:	00b67633          	and	a2,a2,a1
    2560:	0806e693          	ori	a3,a3,128
    2564:	06060063          	beqz	a2,25c4 <handle_fault+0x1e8>
    2568:	00271713          	slli	a4,a4,0x2
    256c:	00e80733          	add	a4,a6,a4
    2570:	00d72023          	sw	a3,0(a4)
    2574:	12078073          	sfence.vma	a5
    2578:	02c12083          	lw	ra,44(sp)
    257c:	03010113          	addi	sp,sp,48
    2580:	00008067          	ret
    2584:	0006a603          	lw	a2,0(a3)
    2588:	01812583          	lw	a1,24(sp)
    258c:	00c65613          	srli	a2,a2,0xc
    2590:	00a61613          	slli	a2,a2,0xa
    2594:	00b66633          	or	a2,a2,a1
    2598:	f01ff06f          	j	2498 <handle_fault+0xbc>
    259c:	0406e693          	ori	a3,a3,64
    25a0:	fc9ff06f          	j	2568 <handle_fault+0x18c>
    25a4:	00008617          	auipc	a2,0x8
    25a8:	a4062e23          	sw	zero,-1444(a2) # a000 <freelist_tail>
    25ac:	ea1ff06f          	j	244c <handle_fault+0x70>
    25b0:	00004517          	auipc	a0,0x4
    25b4:	a0850513          	addi	a0,a0,-1528 # 5fb8 <pass+0xd68>
    25b8:	02812423          	sw	s0,40(sp)
    25bc:	c5dff0ef          	jal	2218 <cputstring>
    25c0:	d5dff0ef          	jal	231c <terminate.constprop.0>
    25c4:	00004517          	auipc	a0,0x4
    25c8:	a4050513          	addi	a0,a0,-1472 # 6004 <pass+0xdb4>
    25cc:	02812423          	sw	s0,40(sp)
    25d0:	c49ff0ef          	jal	2218 <cputstring>
    25d4:	d49ff0ef          	jal	231c <terminate.constprop.0>
    25d8:	00004517          	auipc	a0,0x4
    25dc:	a7450513          	addi	a0,a0,-1420 # 604c <pass+0xdfc>
    25e0:	c39ff0ef          	jal	2218 <cputstring>
    25e4:	d39ff0ef          	jal	231c <terminate.constprop.0>
    25e8:	00004517          	auipc	a0,0x4
    25ec:	a7c50513          	addi	a0,a0,-1412 # 6064 <pass+0xe14>
    25f0:	c29ff0ef          	jal	2218 <cputstring>
    25f4:	d29ff0ef          	jal	231c <terminate.constprop.0>

000025f8 <handle_trap>:
    25f8:	fe010113          	addi	sp,sp,-32
    25fc:	00812c23          	sw	s0,24(sp)
    2600:	00112e23          	sw	ra,28(sp)
    2604:	00050413          	mv	s0,a0
    2608:	1fd000ef          	jal	3004 <trap_filter>
    260c:	08051063          	bnez	a0,268c <handle_trap+0x94>
    2610:	08c42583          	lw	a1,140(s0)
    2614:	00800793          	li	a5,8
    2618:	08f58463          	beq	a1,a5,26a0 <handle_trap+0xa8>
    261c:	00200793          	li	a5,2
    2620:	02f58c63          	beq	a1,a5,2658 <handle_trap+0x60>
    2624:	ff458793          	addi	a5,a1,-12
    2628:	ff158713          	addi	a4,a1,-15
    262c:	0027b793          	sltiu	a5,a5,2
    2630:	00173713          	seqz	a4,a4
    2634:	00e7e7b3          	or	a5,a5,a4
    2638:	18078663          	beqz	a5,27c4 <handle_trap+0x1cc>
    263c:	08842503          	lw	a0,136(s0)
    2640:	d9dff0ef          	jal	23dc <handle_fault>
    2644:	00040513          	mv	a0,s0
    2648:	01812403          	lw	s0,24(sp)
    264c:	01c12083          	lw	ra,28(sp)
    2650:	02010113          	addi	sp,sp,32
    2654:	a79fd06f          	j	cc <pop_tf>
    2658:	08442783          	lw	a5,132(s0)
    265c:	0037f713          	andi	a4,a5,3
    2660:	16071c63          	bnez	a4,27d8 <handle_trap+0x1e0>
    2664:	0007a703          	lw	a4,0(a5) # 3e000 <freelist_head+0x33ffc>
    2668:	008007ef          	jal	a5,2670 <handle_trap+0x78>
    266c:	00301073          	fscsr	zero
    2670:	0007a783          	lw	a5,0(a5)
    2674:	00912a23          	sw	s1,20(sp)
    2678:	02f70063          	beq	a4,a5,2698 <handle_trap+0xa0>
    267c:	00004517          	auipc	a0,0x4
    2680:	ab050513          	addi	a0,a0,-1360 # 612c <pass+0xedc>
    2684:	b95ff0ef          	jal	2218 <cputstring>
    2688:	c95ff0ef          	jal	231c <terminate.constprop.0>
    268c:	00040513          	mv	a0,s0
    2690:	a3dfd0ef          	jal	cc <pop_tf>
    2694:	f7dff06f          	j	2610 <handle_trap+0x18>
    2698:	00100513          	li	a0,1
    269c:	c35ff0ef          	jal	22d0 <terminate>
    26a0:	02842783          	lw	a5,40(s0)
    26a4:	00001437          	lui	s0,0x1
    26a8:	00912a23          	sw	s1,20(sp)
    26ac:	00040893          	mv	a7,s0
    26b0:	00078493          	mv	s1,a5
    26b4:	00005817          	auipc	a6,0x5
    26b8:	94c80813          	addi	a6,a6,-1716 # 7000 <user_mapping>
    26bc:	0003f337          	lui	t1,0x3f
    26c0:	00c45793          	srli	a5,s0,0xc
    26c4:	00379713          	slli	a4,a5,0x3
    26c8:	00e806b3          	add	a3,a6,a4
    26cc:	0006a683          	lw	a3,0(a3)
    26d0:	0c068a63          	beqz	a3,27a4 <handle_trap+0x1ac>
    26d4:	40078793          	addi	a5,a5,1024
    26d8:	00006697          	auipc	a3,0x6
    26dc:	92868693          	addi	a3,a3,-1752 # 8000 <pt>
    26e0:	00279793          	slli	a5,a5,0x2
    26e4:	00f687b3          	add	a5,a3,a5
    26e8:	0007a783          	lw	a5,0(a5)
    26ec:	0407f693          	andi	a3,a5,64
    26f0:	0e068e63          	beqz	a3,27ec <handle_trap+0x1f4>
    26f4:	00f12623          	sw	a5,12(sp)
    26f8:	00e12223          	sw	a4,4(sp)
    26fc:	000407b7          	lui	a5,0x40
    2700:	1007a6f3          	csrrs	a3,sstatus,a5
    2704:	ffc007b7          	lui	a5,0xffc00
    2708:	00f405b3          	add	a1,s0,a5
    270c:	00040513          	mv	a0,s0
    2710:	00001637          	lui	a2,0x1
    2714:	00d12023          	sw	a3,0(sp)
    2718:	00b12423          	sw	a1,8(sp)
    271c:	9e5ff0ef          	jal	2100 <memcmp>
    2720:	00012683          	lw	a3,0(sp)
    2724:	00412703          	lw	a4,4(sp)
    2728:	00005817          	auipc	a6,0x5
    272c:	8d880813          	addi	a6,a6,-1832 # 7000 <user_mapping>
    2730:	000018b7          	lui	a7,0x1
    2734:	00008e17          	auipc	t3,0x8
    2738:	8cce0e13          	addi	t3,t3,-1844 # a000 <freelist_tail>
    273c:	0003f337          	lui	t1,0x3f
    2740:	04050463          	beqz	a0,2788 <handle_trap+0x190>
    2744:	00c12783          	lw	a5,12(sp)
    2748:	00812583          	lw	a1,8(sp)
    274c:	0807f793          	andi	a5,a5,128
    2750:	0a078663          	beqz	a5,27fc <handle_trap+0x204>
    2754:	00040793          	mv	a5,s0
    2758:	01140633          	add	a2,s0,a7
    275c:	0087a503          	lw	a0,8(a5) # ffc00008 <freelist_head+0xffbf6004>
    2760:	0007af03          	lw	t5,0(a5)
    2764:	0047ae83          	lw	t4,4(a5)
    2768:	00a5a423          	sw	a0,8(a1)
    276c:	01e5a023          	sw	t5,0(a1)
    2770:	01d5a223          	sw	t4,4(a1)
    2774:	00c7a503          	lw	a0,12(a5)
    2778:	01078793          	addi	a5,a5,16
    277c:	01058593          	addi	a1,a1,16
    2780:	fea5ae23          	sw	a0,-4(a1)
    2784:	fcc79ce3          	bne	a5,a2,275c <handle_trap+0x164>
    2788:	00e80733          	add	a4,a6,a4
    278c:	10069073          	csrw	sstatus,a3
    2790:	000e2783          	lw	a5,0(t3)
    2794:	00072023          	sw	zero,0(a4)
    2798:	00078e63          	beqz	a5,27b4 <handle_trap+0x1bc>
    279c:	00e7a223          	sw	a4,4(a5)
    27a0:	00ee2023          	sw	a4,0(t3)
    27a4:	01140433          	add	s0,s0,a7
    27a8:	f0641ce3          	bne	s0,t1,26c0 <handle_trap+0xc8>
    27ac:	00048513          	mv	a0,s1
    27b0:	b21ff0ef          	jal	22d0 <terminate>
    27b4:	00ee2023          	sw	a4,0(t3)
    27b8:	00008797          	auipc	a5,0x8
    27bc:	84e7a623          	sw	a4,-1972(a5) # a004 <freelist_head>
    27c0:	fe5ff06f          	j	27a4 <handle_trap+0x1ac>
    27c4:	00004517          	auipc	a0,0x4
    27c8:	99450513          	addi	a0,a0,-1644 # 6158 <pass+0xf08>
    27cc:	00912a23          	sw	s1,20(sp)
    27d0:	a49ff0ef          	jal	2218 <cputstring>
    27d4:	b49ff0ef          	jal	231c <terminate.constprop.0>
    27d8:	00004517          	auipc	a0,0x4
    27dc:	93050513          	addi	a0,a0,-1744 # 6108 <pass+0xeb8>
    27e0:	00912a23          	sw	s1,20(sp)
    27e4:	a35ff0ef          	jal	2218 <cputstring>
    27e8:	b35ff0ef          	jal	231c <terminate.constprop.0>
    27ec:	00004517          	auipc	a0,0x4
    27f0:	8b450513          	addi	a0,a0,-1868 # 60a0 <pass+0xe50>
    27f4:	a25ff0ef          	jal	2218 <cputstring>
    27f8:	b25ff0ef          	jal	231c <terminate.constprop.0>
    27fc:	00004517          	auipc	a0,0x4
    2800:	8d850513          	addi	a0,a0,-1832 # 60d4 <pass+0xe84>
    2804:	a15ff0ef          	jal	2218 <cputstring>
    2808:	b15ff0ef          	jal	231c <terminate.constprop.0>

0000280c <vm_boot>:
    280c:	f14027f3          	csrr	a5,mhartid
    2810:	16079a63          	bnez	a5,2984 <vm_boot+0x178>
    2814:	f6010113          	addi	sp,sp,-160
    2818:	08812c23          	sw	s0,152(sp)
    281c:	00050413          	mv	s0,a0
    2820:	00006517          	auipc	a0,0x6
    2824:	7e050513          	addi	a0,a0,2016 # 9000 <pt+0x1000>
    2828:	00c55713          	srli	a4,a0,0xc
    282c:	00005597          	auipc	a1,0x5
    2830:	7d458593          	addi	a1,a1,2004 # 8000 <pt>
    2834:	00a71713          	slli	a4,a4,0xa
    2838:	20000637          	lui	a2,0x20000
    283c:	08112e23          	sw	ra,156(sp)
    2840:	0cf60613          	addi	a2,a2,207 # 200000cf <freelist_head+0x1fff60cb>
    2844:	00176713          	ori	a4,a4,1
    2848:	00c5d693          	srli	a3,a1,0xc
    284c:	800007b7          	lui	a5,0x80000
    2850:	00e5a023          	sw	a4,0(a1)
    2854:	fec52e23          	sw	a2,-4(a0)
    2858:	00f6e733          	or	a4,a3,a5
    285c:	18071073          	csrw	satp,a4
    2860:	180026f3          	csrr	a3,satp
    2864:	18d71063          	bne	a4,a3,29e4 <vm_boot+0x1d8>
    2868:	12078073          	sfence.vma	a5
    286c:	01f00713          	li	a4,31
    2870:	fff78793          	addi	a5,a5,-1 # 7fffffff <freelist_head+0x7fff5ffb>
    2874:	00000297          	auipc	t0,0x0
    2878:	01428293          	addi	t0,t0,20 # 2888 <vm_boot+0x7c>
    287c:	305292f3          	csrrw	t0,mtvec,t0
    2880:	3b079073          	csrw	pmpaddr0,a5
    2884:	3a071073          	csrw	pmpcfg0,a4
    2888:	30529073          	csrw	mtvec,t0
    288c:	7fbfe797          	auipc	a5,0x7fbfe
    2890:	8c878793          	addi	a5,a5,-1848 # 7fc00154 <freelist_head+0x7fbf6150>
    2894:	10579073          	csrw	stvec,a5
    2898:	340027f3          	csrr	a5,mscratch
    289c:	7fc00737          	lui	a4,0x7fc00
    28a0:	00e787b3          	add	a5,a5,a4
    28a4:	14079073          	csrw	sscratch,a5
    28a8:	0000b7b7          	lui	a5,0xb
    28ac:	10078793          	addi	a5,a5,256 # b100 <freelist_head+0x10fc>
    28b0:	30279073          	csrw	medeleg,a5
    28b4:	0001e7b7          	lui	a5,0x1e
    28b8:	60078793          	addi	a5,a5,1536 # 1e600 <freelist_head+0x145fc>
    28bc:	30079073          	csrw	mstatus,a5
    28c0:	30405073          	csrwi	mie,0
    28c4:	7fc05797          	auipc	a5,0x7fc05
    28c8:	93478793          	addi	a5,a5,-1740 # 7fc071f8 <freelist_head+0x7fbfd1f4>
    28cc:	00007717          	auipc	a4,0x7
    28d0:	72f72c23          	sw	a5,1848(a4) # a004 <freelist_head>
    28d4:	7fc05797          	auipc	a5,0x7fc05
    28d8:	b1478793          	addi	a5,a5,-1260 # 7fc073e8 <freelist_head+0x7fbfd3e4>
    28dc:	00007717          	auipc	a4,0x7
    28e0:	72f72223          	sw	a5,1828(a4) # a000 <freelist_tail>
    28e4:	00080337          	lui	t1,0x80
    28e8:	7fc008b7          	lui	a7,0x7fc00
    28ec:	03f30313          	addi	t1,t1,63 # 8003f <freelist_head+0x7603b>
    28f0:	00888893          	addi	a7,a7,8 # 7fc00008 <freelist_head+0x7fbf6004>
    28f4:	00005717          	auipc	a4,0x5
    28f8:	90470713          	addi	a4,a4,-1788 # 71f8 <freelist_nodes>
    28fc:	00005e17          	auipc	t3,0x5
    2900:	af4e0e13          	addi	t3,t3,-1292 # 73f0 <freelist_nodes+0x1f8>
    2904:	01d00793          	li	a5,29
    2908:	00000593          	li	a1,0
    290c:	01f59693          	slli	a3,a1,0x1f
    2910:	0017d613          	srli	a2,a5,0x1
    2914:	00c68633          	add	a2,a3,a2
    2918:	00f646b3          	xor	a3,a2,a5
    291c:	006787b3          	add	a5,a5,t1
    2920:	00c79793          	slli	a5,a5,0xc
    2924:	01170833          	add	a6,a4,a7
    2928:	00569693          	slli	a3,a3,0x5
    292c:	00f72023          	sw	a5,0(a4)
    2930:	0206f693          	andi	a3,a3,32
    2934:	01072223          	sw	a6,4(a4)
    2938:	00870713          	addi	a4,a4,8
    293c:	0015d593          	srli	a1,a1,0x1
    2940:	00d667b3          	or	a5,a2,a3
    2944:	fcee14e3          	bne	t3,a4,290c <vm_boot+0x100>
    2948:	00010513          	mv	a0,sp
    294c:	09000613          	li	a2,144
    2950:	00000593          	li	a1,0
    2954:	00005797          	auipc	a5,0x5
    2958:	a807ac23          	sw	zero,-1384(a5) # 73ec <freelist_nodes+0x1f4>
    295c:	f00ff0ef          	jal	205c <memset>
    2960:	800007b7          	lui	a5,0x80000
    2964:	00f40433          	add	s0,s0,a5
    2968:	00010513          	mv	a0,sp
    296c:	08812223          	sw	s0,132(sp)
    2970:	f5cfd0ef          	jal	cc <pop_tf>
    2974:	09c12083          	lw	ra,156(sp)
    2978:	09812403          	lw	s0,152(sp)
    297c:	0a010113          	addi	sp,sp,160
    2980:	00008067          	ret
    2984:	077307b7          	lui	a5,0x7730
    2988:	00080637          	lui	a2,0x80
    298c:	04778793          	addi	a5,a5,71 # 7730047 <freelist_head+0x7726043>
    2990:	ffc60613          	addi	a2,a2,-4 # 7fffc <freelist_head+0x75ff8>
    2994:	00000713          	li	a4,0
    2998:	80000837          	lui	a6,0x80000
    299c:	40000537          	lui	a0,0x40000
    29a0:	02c0006f          	j	29cc <vm_boot+0x1c0>
    29a4:	0006a02f          	amoadd.w	zero,zero,(a3)
    29a8:	01f71593          	slli	a1,a4,0x1f
    29ac:	0017d693          	srli	a3,a5,0x1
    29b0:	00d586b3          	add	a3,a1,a3
    29b4:	00d7c7b3          	xor	a5,a5,a3
    29b8:	01e79793          	slli	a5,a5,0x1e
    29bc:	00a7f7b3          	and	a5,a5,a0
    29c0:	00175713          	srli	a4,a4,0x1
    29c4:	00e7e733          	or	a4,a5,a4
    29c8:	00068793          	mv	a5,a3
    29cc:	00c7f6b3          	and	a3,a5,a2
    29d0:	0017f593          	andi	a1,a5,1
    29d4:	010686b3          	add	a3,a3,a6
    29d8:	fc0596e3          	bnez	a1,29a4 <vm_boot+0x198>
    29dc:	0006a003          	lw	zero,0(a3)
    29e0:	fc9ff06f          	j	29a8 <vm_boot+0x19c>
    29e4:	00003517          	auipc	a0,0x3
    29e8:	7a050513          	addi	a0,a0,1952 # 6184 <pass+0xf34>
    29ec:	82dff0ef          	jal	2218 <cputstring>
    29f0:	92dff0ef          	jal	231c <terminate.constprop.0>
    29f4:	0000                	.insn	2, 0x0000
    29f6:	0000                	.insn	2, 0x0000
    29f8:	0000                	.insn	2, 0x0000
    29fa:	0000                	.insn	2, 0x0000
    29fc:	0000                	.insn	2, 0x0000
    29fe:	0000                	.insn	2, 0x0000
    2a00:	0000                	.insn	2, 0x0000
    2a02:	0000                	.insn	2, 0x0000
    2a04:	0000                	.insn	2, 0x0000
    2a06:	0000                	.insn	2, 0x0000
    2a08:	0000                	.insn	2, 0x0000
    2a0a:	0000                	.insn	2, 0x0000
    2a0c:	0000                	.insn	2, 0x0000
    2a0e:	0000                	.insn	2, 0x0000
    2a10:	0000                	.insn	2, 0x0000
    2a12:	0000                	.insn	2, 0x0000
    2a14:	0000                	.insn	2, 0x0000
    2a16:	0000                	.insn	2, 0x0000
    2a18:	0000                	.insn	2, 0x0000
    2a1a:	0000                	.insn	2, 0x0000
    2a1c:	0000                	.insn	2, 0x0000
    2a1e:	0000                	.insn	2, 0x0000
    2a20:	0000                	.insn	2, 0x0000
    2a22:	0000                	.insn	2, 0x0000
    2a24:	0000                	.insn	2, 0x0000
    2a26:	0000                	.insn	2, 0x0000
    2a28:	0000                	.insn	2, 0x0000
    2a2a:	0000                	.insn	2, 0x0000
    2a2c:	0000                	.insn	2, 0x0000
    2a2e:	0000                	.insn	2, 0x0000
    2a30:	0000                	.insn	2, 0x0000
    2a32:	0000                	.insn	2, 0x0000
    2a34:	0000                	.insn	2, 0x0000
    2a36:	0000                	.insn	2, 0x0000
    2a38:	0000                	.insn	2, 0x0000
    2a3a:	0000                	.insn	2, 0x0000
    2a3c:	0000                	.insn	2, 0x0000
    2a3e:	0000                	.insn	2, 0x0000
    2a40:	0000                	.insn	2, 0x0000
    2a42:	0000                	.insn	2, 0x0000
    2a44:	0000                	.insn	2, 0x0000
    2a46:	0000                	.insn	2, 0x0000
    2a48:	0000                	.insn	2, 0x0000
    2a4a:	0000                	.insn	2, 0x0000
    2a4c:	0000                	.insn	2, 0x0000
    2a4e:	0000                	.insn	2, 0x0000
    2a50:	0000                	.insn	2, 0x0000
    2a52:	0000                	.insn	2, 0x0000
    2a54:	0000                	.insn	2, 0x0000
    2a56:	0000                	.insn	2, 0x0000
    2a58:	0000                	.insn	2, 0x0000
    2a5a:	0000                	.insn	2, 0x0000
    2a5c:	0000                	.insn	2, 0x0000
    2a5e:	0000                	.insn	2, 0x0000
    2a60:	0000                	.insn	2, 0x0000
    2a62:	0000                	.insn	2, 0x0000
    2a64:	0000                	.insn	2, 0x0000
    2a66:	0000                	.insn	2, 0x0000
    2a68:	0000                	.insn	2, 0x0000
    2a6a:	0000                	.insn	2, 0x0000
    2a6c:	0000                	.insn	2, 0x0000
    2a6e:	0000                	.insn	2, 0x0000
    2a70:	0000                	.insn	2, 0x0000
    2a72:	0000                	.insn	2, 0x0000
    2a74:	0000                	.insn	2, 0x0000
    2a76:	0000                	.insn	2, 0x0000
    2a78:	0000                	.insn	2, 0x0000
    2a7a:	0000                	.insn	2, 0x0000
    2a7c:	0000                	.insn	2, 0x0000
    2a7e:	0000                	.insn	2, 0x0000
    2a80:	0000                	.insn	2, 0x0000
    2a82:	0000                	.insn	2, 0x0000
    2a84:	0000                	.insn	2, 0x0000
    2a86:	0000                	.insn	2, 0x0000
    2a88:	0000                	.insn	2, 0x0000
    2a8a:	0000                	.insn	2, 0x0000
    2a8c:	0000                	.insn	2, 0x0000
    2a8e:	0000                	.insn	2, 0x0000
    2a90:	0000                	.insn	2, 0x0000
    2a92:	0000                	.insn	2, 0x0000
    2a94:	0000                	.insn	2, 0x0000
    2a96:	0000                	.insn	2, 0x0000
    2a98:	0000                	.insn	2, 0x0000
    2a9a:	0000                	.insn	2, 0x0000
    2a9c:	0000                	.insn	2, 0x0000
    2a9e:	0000                	.insn	2, 0x0000
    2aa0:	0000                	.insn	2, 0x0000
    2aa2:	0000                	.insn	2, 0x0000
    2aa4:	0000                	.insn	2, 0x0000
    2aa6:	0000                	.insn	2, 0x0000
    2aa8:	0000                	.insn	2, 0x0000
    2aaa:	0000                	.insn	2, 0x0000
    2aac:	0000                	.insn	2, 0x0000
    2aae:	0000                	.insn	2, 0x0000
    2ab0:	0000                	.insn	2, 0x0000
    2ab2:	0000                	.insn	2, 0x0000
    2ab4:	0000                	.insn	2, 0x0000
    2ab6:	0000                	.insn	2, 0x0000
    2ab8:	0000                	.insn	2, 0x0000
    2aba:	0000                	.insn	2, 0x0000
    2abc:	0000                	.insn	2, 0x0000
    2abe:	0000                	.insn	2, 0x0000
    2ac0:	0000                	.insn	2, 0x0000
    2ac2:	0000                	.insn	2, 0x0000
    2ac4:	0000                	.insn	2, 0x0000
    2ac6:	0000                	.insn	2, 0x0000
    2ac8:	0000                	.insn	2, 0x0000
    2aca:	0000                	.insn	2, 0x0000
    2acc:	0000                	.insn	2, 0x0000
    2ace:	0000                	.insn	2, 0x0000
    2ad0:	0000                	.insn	2, 0x0000
    2ad2:	0000                	.insn	2, 0x0000
    2ad4:	0000                	.insn	2, 0x0000
    2ad6:	0000                	.insn	2, 0x0000
    2ad8:	0000                	.insn	2, 0x0000
    2ada:	0000                	.insn	2, 0x0000
    2adc:	0000                	.insn	2, 0x0000
    2ade:	0000                	.insn	2, 0x0000
    2ae0:	0000                	.insn	2, 0x0000
    2ae2:	0000                	.insn	2, 0x0000
    2ae4:	0000                	.insn	2, 0x0000
    2ae6:	0000                	.insn	2, 0x0000
    2ae8:	0000                	.insn	2, 0x0000
    2aea:	0000                	.insn	2, 0x0000
    2aec:	0000                	.insn	2, 0x0000
    2aee:	0000                	.insn	2, 0x0000
    2af0:	0000                	.insn	2, 0x0000
    2af2:	0000                	.insn	2, 0x0000
    2af4:	0000                	.insn	2, 0x0000
    2af6:	0000                	.insn	2, 0x0000
    2af8:	0000                	.insn	2, 0x0000
    2afa:	0000                	.insn	2, 0x0000
    2afc:	0000                	.insn	2, 0x0000
    2afe:	0000                	.insn	2, 0x0000
    2b00:	0000                	.insn	2, 0x0000
    2b02:	0000                	.insn	2, 0x0000
    2b04:	0000                	.insn	2, 0x0000
    2b06:	0000                	.insn	2, 0x0000
    2b08:	0000                	.insn	2, 0x0000
    2b0a:	0000                	.insn	2, 0x0000
    2b0c:	0000                	.insn	2, 0x0000
    2b0e:	0000                	.insn	2, 0x0000
    2b10:	0000                	.insn	2, 0x0000
    2b12:	0000                	.insn	2, 0x0000
    2b14:	0000                	.insn	2, 0x0000
    2b16:	0000                	.insn	2, 0x0000
    2b18:	0000                	.insn	2, 0x0000
    2b1a:	0000                	.insn	2, 0x0000
    2b1c:	0000                	.insn	2, 0x0000
    2b1e:	0000                	.insn	2, 0x0000
    2b20:	0000                	.insn	2, 0x0000
    2b22:	0000                	.insn	2, 0x0000
    2b24:	0000                	.insn	2, 0x0000
    2b26:	0000                	.insn	2, 0x0000
    2b28:	0000                	.insn	2, 0x0000
    2b2a:	0000                	.insn	2, 0x0000
    2b2c:	0000                	.insn	2, 0x0000
    2b2e:	0000                	.insn	2, 0x0000
    2b30:	0000                	.insn	2, 0x0000
    2b32:	0000                	.insn	2, 0x0000
    2b34:	0000                	.insn	2, 0x0000
    2b36:	0000                	.insn	2, 0x0000
    2b38:	0000                	.insn	2, 0x0000
    2b3a:	0000                	.insn	2, 0x0000
    2b3c:	0000                	.insn	2, 0x0000
    2b3e:	0000                	.insn	2, 0x0000
    2b40:	0000                	.insn	2, 0x0000
    2b42:	0000                	.insn	2, 0x0000
    2b44:	0000                	.insn	2, 0x0000
    2b46:	0000                	.insn	2, 0x0000
    2b48:	0000                	.insn	2, 0x0000
    2b4a:	0000                	.insn	2, 0x0000
    2b4c:	0000                	.insn	2, 0x0000
    2b4e:	0000                	.insn	2, 0x0000
    2b50:	0000                	.insn	2, 0x0000
    2b52:	0000                	.insn	2, 0x0000
    2b54:	0000                	.insn	2, 0x0000
    2b56:	0000                	.insn	2, 0x0000
    2b58:	0000                	.insn	2, 0x0000
    2b5a:	0000                	.insn	2, 0x0000
    2b5c:	0000                	.insn	2, 0x0000
    2b5e:	0000                	.insn	2, 0x0000
    2b60:	0000                	.insn	2, 0x0000
    2b62:	0000                	.insn	2, 0x0000
    2b64:	0000                	.insn	2, 0x0000
    2b66:	0000                	.insn	2, 0x0000
    2b68:	0000                	.insn	2, 0x0000
    2b6a:	0000                	.insn	2, 0x0000
    2b6c:	0000                	.insn	2, 0x0000
    2b6e:	0000                	.insn	2, 0x0000
    2b70:	0000                	.insn	2, 0x0000
    2b72:	0000                	.insn	2, 0x0000
    2b74:	0000                	.insn	2, 0x0000
    2b76:	0000                	.insn	2, 0x0000
    2b78:	0000                	.insn	2, 0x0000
    2b7a:	0000                	.insn	2, 0x0000
    2b7c:	0000                	.insn	2, 0x0000
    2b7e:	0000                	.insn	2, 0x0000
    2b80:	0000                	.insn	2, 0x0000
    2b82:	0000                	.insn	2, 0x0000
    2b84:	0000                	.insn	2, 0x0000
    2b86:	0000                	.insn	2, 0x0000
    2b88:	0000                	.insn	2, 0x0000
    2b8a:	0000                	.insn	2, 0x0000
    2b8c:	0000                	.insn	2, 0x0000
    2b8e:	0000                	.insn	2, 0x0000
    2b90:	0000                	.insn	2, 0x0000
    2b92:	0000                	.insn	2, 0x0000
    2b94:	0000                	.insn	2, 0x0000
    2b96:	0000                	.insn	2, 0x0000
    2b98:	0000                	.insn	2, 0x0000
    2b9a:	0000                	.insn	2, 0x0000
    2b9c:	0000                	.insn	2, 0x0000
    2b9e:	0000                	.insn	2, 0x0000
    2ba0:	0000                	.insn	2, 0x0000
    2ba2:	0000                	.insn	2, 0x0000
    2ba4:	0000                	.insn	2, 0x0000
    2ba6:	0000                	.insn	2, 0x0000
    2ba8:	0000                	.insn	2, 0x0000
    2baa:	0000                	.insn	2, 0x0000
    2bac:	0000                	.insn	2, 0x0000
    2bae:	0000                	.insn	2, 0x0000
    2bb0:	0000                	.insn	2, 0x0000
    2bb2:	0000                	.insn	2, 0x0000
    2bb4:	0000                	.insn	2, 0x0000
    2bb6:	0000                	.insn	2, 0x0000
    2bb8:	0000                	.insn	2, 0x0000
    2bba:	0000                	.insn	2, 0x0000
    2bbc:	0000                	.insn	2, 0x0000
    2bbe:	0000                	.insn	2, 0x0000
    2bc0:	0000                	.insn	2, 0x0000
    2bc2:	0000                	.insn	2, 0x0000
    2bc4:	0000                	.insn	2, 0x0000
    2bc6:	0000                	.insn	2, 0x0000
    2bc8:	0000                	.insn	2, 0x0000
    2bca:	0000                	.insn	2, 0x0000
    2bcc:	0000                	.insn	2, 0x0000
    2bce:	0000                	.insn	2, 0x0000
    2bd0:	0000                	.insn	2, 0x0000
    2bd2:	0000                	.insn	2, 0x0000
    2bd4:	0000                	.insn	2, 0x0000
    2bd6:	0000                	.insn	2, 0x0000
    2bd8:	0000                	.insn	2, 0x0000
    2bda:	0000                	.insn	2, 0x0000
    2bdc:	0000                	.insn	2, 0x0000
    2bde:	0000                	.insn	2, 0x0000
    2be0:	0000                	.insn	2, 0x0000
    2be2:	0000                	.insn	2, 0x0000
    2be4:	0000                	.insn	2, 0x0000
    2be6:	0000                	.insn	2, 0x0000
    2be8:	0000                	.insn	2, 0x0000
    2bea:	0000                	.insn	2, 0x0000
    2bec:	0000                	.insn	2, 0x0000
    2bee:	0000                	.insn	2, 0x0000
    2bf0:	0000                	.insn	2, 0x0000
    2bf2:	0000                	.insn	2, 0x0000
    2bf4:	0000                	.insn	2, 0x0000
    2bf6:	0000                	.insn	2, 0x0000
    2bf8:	0000                	.insn	2, 0x0000
    2bfa:	0000                	.insn	2, 0x0000
    2bfc:	0000                	.insn	2, 0x0000
    2bfe:	0000                	.insn	2, 0x0000
    2c00:	0000                	.insn	2, 0x0000
    2c02:	0000                	.insn	2, 0x0000
    2c04:	0000                	.insn	2, 0x0000
    2c06:	0000                	.insn	2, 0x0000
    2c08:	0000                	.insn	2, 0x0000
    2c0a:	0000                	.insn	2, 0x0000
    2c0c:	0000                	.insn	2, 0x0000
    2c0e:	0000                	.insn	2, 0x0000
    2c10:	0000                	.insn	2, 0x0000
    2c12:	0000                	.insn	2, 0x0000
    2c14:	0000                	.insn	2, 0x0000
    2c16:	0000                	.insn	2, 0x0000
    2c18:	0000                	.insn	2, 0x0000
    2c1a:	0000                	.insn	2, 0x0000
    2c1c:	0000                	.insn	2, 0x0000
    2c1e:	0000                	.insn	2, 0x0000
    2c20:	0000                	.insn	2, 0x0000
    2c22:	0000                	.insn	2, 0x0000
    2c24:	0000                	.insn	2, 0x0000
    2c26:	0000                	.insn	2, 0x0000
    2c28:	0000                	.insn	2, 0x0000
    2c2a:	0000                	.insn	2, 0x0000
    2c2c:	0000                	.insn	2, 0x0000
    2c2e:	0000                	.insn	2, 0x0000
    2c30:	0000                	.insn	2, 0x0000
    2c32:	0000                	.insn	2, 0x0000
    2c34:	0000                	.insn	2, 0x0000
    2c36:	0000                	.insn	2, 0x0000
    2c38:	0000                	.insn	2, 0x0000
    2c3a:	0000                	.insn	2, 0x0000
    2c3c:	0000                	.insn	2, 0x0000
    2c3e:	0000                	.insn	2, 0x0000
    2c40:	0000                	.insn	2, 0x0000
    2c42:	0000                	.insn	2, 0x0000
    2c44:	0000                	.insn	2, 0x0000
    2c46:	0000                	.insn	2, 0x0000
    2c48:	0000                	.insn	2, 0x0000
    2c4a:	0000                	.insn	2, 0x0000
    2c4c:	0000                	.insn	2, 0x0000
    2c4e:	0000                	.insn	2, 0x0000
    2c50:	0000                	.insn	2, 0x0000
    2c52:	0000                	.insn	2, 0x0000
    2c54:	0000                	.insn	2, 0x0000
    2c56:	0000                	.insn	2, 0x0000
    2c58:	0000                	.insn	2, 0x0000
    2c5a:	0000                	.insn	2, 0x0000
    2c5c:	0000                	.insn	2, 0x0000
    2c5e:	0000                	.insn	2, 0x0000
    2c60:	0000                	.insn	2, 0x0000
    2c62:	0000                	.insn	2, 0x0000
    2c64:	0000                	.insn	2, 0x0000
    2c66:	0000                	.insn	2, 0x0000
    2c68:	0000                	.insn	2, 0x0000
    2c6a:	0000                	.insn	2, 0x0000
    2c6c:	0000                	.insn	2, 0x0000
    2c6e:	0000                	.insn	2, 0x0000
    2c70:	0000                	.insn	2, 0x0000
    2c72:	0000                	.insn	2, 0x0000
    2c74:	0000                	.insn	2, 0x0000
    2c76:	0000                	.insn	2, 0x0000
    2c78:	0000                	.insn	2, 0x0000
    2c7a:	0000                	.insn	2, 0x0000
    2c7c:	0000                	.insn	2, 0x0000
    2c7e:	0000                	.insn	2, 0x0000
    2c80:	0000                	.insn	2, 0x0000
    2c82:	0000                	.insn	2, 0x0000
    2c84:	0000                	.insn	2, 0x0000
    2c86:	0000                	.insn	2, 0x0000
    2c88:	0000                	.insn	2, 0x0000
    2c8a:	0000                	.insn	2, 0x0000
    2c8c:	0000                	.insn	2, 0x0000
    2c8e:	0000                	.insn	2, 0x0000
    2c90:	0000                	.insn	2, 0x0000
    2c92:	0000                	.insn	2, 0x0000
    2c94:	0000                	.insn	2, 0x0000
    2c96:	0000                	.insn	2, 0x0000
    2c98:	0000                	.insn	2, 0x0000
    2c9a:	0000                	.insn	2, 0x0000
    2c9c:	0000                	.insn	2, 0x0000
    2c9e:	0000                	.insn	2, 0x0000
    2ca0:	0000                	.insn	2, 0x0000
    2ca2:	0000                	.insn	2, 0x0000
    2ca4:	0000                	.insn	2, 0x0000
    2ca6:	0000                	.insn	2, 0x0000
    2ca8:	0000                	.insn	2, 0x0000
    2caa:	0000                	.insn	2, 0x0000
    2cac:	0000                	.insn	2, 0x0000
    2cae:	0000                	.insn	2, 0x0000
    2cb0:	0000                	.insn	2, 0x0000
    2cb2:	0000                	.insn	2, 0x0000
    2cb4:	0000                	.insn	2, 0x0000
    2cb6:	0000                	.insn	2, 0x0000
    2cb8:	0000                	.insn	2, 0x0000
    2cba:	0000                	.insn	2, 0x0000
    2cbc:	0000                	.insn	2, 0x0000
    2cbe:	0000                	.insn	2, 0x0000
    2cc0:	0000                	.insn	2, 0x0000
    2cc2:	0000                	.insn	2, 0x0000
    2cc4:	0000                	.insn	2, 0x0000
    2cc6:	0000                	.insn	2, 0x0000
    2cc8:	0000                	.insn	2, 0x0000
    2cca:	0000                	.insn	2, 0x0000
    2ccc:	0000                	.insn	2, 0x0000
    2cce:	0000                	.insn	2, 0x0000
    2cd0:	0000                	.insn	2, 0x0000
    2cd2:	0000                	.insn	2, 0x0000
    2cd4:	0000                	.insn	2, 0x0000
    2cd6:	0000                	.insn	2, 0x0000
    2cd8:	0000                	.insn	2, 0x0000
    2cda:	0000                	.insn	2, 0x0000
    2cdc:	0000                	.insn	2, 0x0000
    2cde:	0000                	.insn	2, 0x0000
    2ce0:	0000                	.insn	2, 0x0000
    2ce2:	0000                	.insn	2, 0x0000
    2ce4:	0000                	.insn	2, 0x0000
    2ce6:	0000                	.insn	2, 0x0000
    2ce8:	0000                	.insn	2, 0x0000
    2cea:	0000                	.insn	2, 0x0000
    2cec:	0000                	.insn	2, 0x0000
    2cee:	0000                	.insn	2, 0x0000
    2cf0:	0000                	.insn	2, 0x0000
    2cf2:	0000                	.insn	2, 0x0000
    2cf4:	0000                	.insn	2, 0x0000
    2cf6:	0000                	.insn	2, 0x0000
    2cf8:	0000                	.insn	2, 0x0000
    2cfa:	0000                	.insn	2, 0x0000
    2cfc:	0000                	.insn	2, 0x0000
    2cfe:	0000                	.insn	2, 0x0000
    2d00:	0000                	.insn	2, 0x0000
    2d02:	0000                	.insn	2, 0x0000
    2d04:	0000                	.insn	2, 0x0000
    2d06:	0000                	.insn	2, 0x0000
    2d08:	0000                	.insn	2, 0x0000
    2d0a:	0000                	.insn	2, 0x0000
    2d0c:	0000                	.insn	2, 0x0000
    2d0e:	0000                	.insn	2, 0x0000
    2d10:	0000                	.insn	2, 0x0000
    2d12:	0000                	.insn	2, 0x0000
    2d14:	0000                	.insn	2, 0x0000
    2d16:	0000                	.insn	2, 0x0000
    2d18:	0000                	.insn	2, 0x0000
    2d1a:	0000                	.insn	2, 0x0000
    2d1c:	0000                	.insn	2, 0x0000
    2d1e:	0000                	.insn	2, 0x0000
    2d20:	0000                	.insn	2, 0x0000
    2d22:	0000                	.insn	2, 0x0000
    2d24:	0000                	.insn	2, 0x0000
    2d26:	0000                	.insn	2, 0x0000
    2d28:	0000                	.insn	2, 0x0000
    2d2a:	0000                	.insn	2, 0x0000
    2d2c:	0000                	.insn	2, 0x0000
    2d2e:	0000                	.insn	2, 0x0000
    2d30:	0000                	.insn	2, 0x0000
    2d32:	0000                	.insn	2, 0x0000
    2d34:	0000                	.insn	2, 0x0000
    2d36:	0000                	.insn	2, 0x0000
    2d38:	0000                	.insn	2, 0x0000
    2d3a:	0000                	.insn	2, 0x0000
    2d3c:	0000                	.insn	2, 0x0000
    2d3e:	0000                	.insn	2, 0x0000
    2d40:	0000                	.insn	2, 0x0000
    2d42:	0000                	.insn	2, 0x0000
    2d44:	0000                	.insn	2, 0x0000
    2d46:	0000                	.insn	2, 0x0000
    2d48:	0000                	.insn	2, 0x0000
    2d4a:	0000                	.insn	2, 0x0000
    2d4c:	0000                	.insn	2, 0x0000
    2d4e:	0000                	.insn	2, 0x0000
    2d50:	0000                	.insn	2, 0x0000
    2d52:	0000                	.insn	2, 0x0000
    2d54:	0000                	.insn	2, 0x0000
    2d56:	0000                	.insn	2, 0x0000
    2d58:	0000                	.insn	2, 0x0000
    2d5a:	0000                	.insn	2, 0x0000
    2d5c:	0000                	.insn	2, 0x0000
    2d5e:	0000                	.insn	2, 0x0000
    2d60:	0000                	.insn	2, 0x0000
    2d62:	0000                	.insn	2, 0x0000
    2d64:	0000                	.insn	2, 0x0000
    2d66:	0000                	.insn	2, 0x0000
    2d68:	0000                	.insn	2, 0x0000
    2d6a:	0000                	.insn	2, 0x0000
    2d6c:	0000                	.insn	2, 0x0000
    2d6e:	0000                	.insn	2, 0x0000
    2d70:	0000                	.insn	2, 0x0000
    2d72:	0000                	.insn	2, 0x0000
    2d74:	0000                	.insn	2, 0x0000
    2d76:	0000                	.insn	2, 0x0000
    2d78:	0000                	.insn	2, 0x0000
    2d7a:	0000                	.insn	2, 0x0000
    2d7c:	0000                	.insn	2, 0x0000
    2d7e:	0000                	.insn	2, 0x0000
    2d80:	0000                	.insn	2, 0x0000
    2d82:	0000                	.insn	2, 0x0000
    2d84:	0000                	.insn	2, 0x0000
    2d86:	0000                	.insn	2, 0x0000
    2d88:	0000                	.insn	2, 0x0000
    2d8a:	0000                	.insn	2, 0x0000
    2d8c:	0000                	.insn	2, 0x0000
    2d8e:	0000                	.insn	2, 0x0000
    2d90:	0000                	.insn	2, 0x0000
    2d92:	0000                	.insn	2, 0x0000
    2d94:	0000                	.insn	2, 0x0000
    2d96:	0000                	.insn	2, 0x0000
    2d98:	0000                	.insn	2, 0x0000
    2d9a:	0000                	.insn	2, 0x0000
    2d9c:	0000                	.insn	2, 0x0000
    2d9e:	0000                	.insn	2, 0x0000
    2da0:	0000                	.insn	2, 0x0000
    2da2:	0000                	.insn	2, 0x0000
    2da4:	0000                	.insn	2, 0x0000
    2da6:	0000                	.insn	2, 0x0000
    2da8:	0000                	.insn	2, 0x0000
    2daa:	0000                	.insn	2, 0x0000
    2dac:	0000                	.insn	2, 0x0000
    2dae:	0000                	.insn	2, 0x0000
    2db0:	0000                	.insn	2, 0x0000
    2db2:	0000                	.insn	2, 0x0000
    2db4:	0000                	.insn	2, 0x0000
    2db6:	0000                	.insn	2, 0x0000
    2db8:	0000                	.insn	2, 0x0000
    2dba:	0000                	.insn	2, 0x0000
    2dbc:	0000                	.insn	2, 0x0000
    2dbe:	0000                	.insn	2, 0x0000
    2dc0:	0000                	.insn	2, 0x0000
    2dc2:	0000                	.insn	2, 0x0000
    2dc4:	0000                	.insn	2, 0x0000
    2dc6:	0000                	.insn	2, 0x0000
    2dc8:	0000                	.insn	2, 0x0000
    2dca:	0000                	.insn	2, 0x0000
    2dcc:	0000                	.insn	2, 0x0000
    2dce:	0000                	.insn	2, 0x0000
    2dd0:	0000                	.insn	2, 0x0000
    2dd2:	0000                	.insn	2, 0x0000
    2dd4:	0000                	.insn	2, 0x0000
    2dd6:	0000                	.insn	2, 0x0000
    2dd8:	0000                	.insn	2, 0x0000
    2dda:	0000                	.insn	2, 0x0000
    2ddc:	0000                	.insn	2, 0x0000
    2dde:	0000                	.insn	2, 0x0000
    2de0:	0000                	.insn	2, 0x0000
    2de2:	0000                	.insn	2, 0x0000
    2de4:	0000                	.insn	2, 0x0000
    2de6:	0000                	.insn	2, 0x0000
    2de8:	0000                	.insn	2, 0x0000
    2dea:	0000                	.insn	2, 0x0000
    2dec:	0000                	.insn	2, 0x0000
    2dee:	0000                	.insn	2, 0x0000
    2df0:	0000                	.insn	2, 0x0000
    2df2:	0000                	.insn	2, 0x0000
    2df4:	0000                	.insn	2, 0x0000
    2df6:	0000                	.insn	2, 0x0000
    2df8:	0000                	.insn	2, 0x0000
    2dfa:	0000                	.insn	2, 0x0000
    2dfc:	0000                	.insn	2, 0x0000
    2dfe:	0000                	.insn	2, 0x0000
    2e00:	0000                	.insn	2, 0x0000
    2e02:	0000                	.insn	2, 0x0000
    2e04:	0000                	.insn	2, 0x0000
    2e06:	0000                	.insn	2, 0x0000
    2e08:	0000                	.insn	2, 0x0000
    2e0a:	0000                	.insn	2, 0x0000
    2e0c:	0000                	.insn	2, 0x0000
    2e0e:	0000                	.insn	2, 0x0000
    2e10:	0000                	.insn	2, 0x0000
    2e12:	0000                	.insn	2, 0x0000
    2e14:	0000                	.insn	2, 0x0000
    2e16:	0000                	.insn	2, 0x0000
    2e18:	0000                	.insn	2, 0x0000
    2e1a:	0000                	.insn	2, 0x0000
    2e1c:	0000                	.insn	2, 0x0000
    2e1e:	0000                	.insn	2, 0x0000
    2e20:	0000                	.insn	2, 0x0000
    2e22:	0000                	.insn	2, 0x0000
    2e24:	0000                	.insn	2, 0x0000
    2e26:	0000                	.insn	2, 0x0000
    2e28:	0000                	.insn	2, 0x0000
    2e2a:	0000                	.insn	2, 0x0000
    2e2c:	0000                	.insn	2, 0x0000
    2e2e:	0000                	.insn	2, 0x0000
    2e30:	0000                	.insn	2, 0x0000
    2e32:	0000                	.insn	2, 0x0000
    2e34:	0000                	.insn	2, 0x0000
    2e36:	0000                	.insn	2, 0x0000
    2e38:	0000                	.insn	2, 0x0000
    2e3a:	0000                	.insn	2, 0x0000
    2e3c:	0000                	.insn	2, 0x0000
    2e3e:	0000                	.insn	2, 0x0000
    2e40:	0000                	.insn	2, 0x0000
    2e42:	0000                	.insn	2, 0x0000
    2e44:	0000                	.insn	2, 0x0000
    2e46:	0000                	.insn	2, 0x0000
    2e48:	0000                	.insn	2, 0x0000
    2e4a:	0000                	.insn	2, 0x0000
    2e4c:	0000                	.insn	2, 0x0000
    2e4e:	0000                	.insn	2, 0x0000
    2e50:	0000                	.insn	2, 0x0000
    2e52:	0000                	.insn	2, 0x0000
    2e54:	0000                	.insn	2, 0x0000
    2e56:	0000                	.insn	2, 0x0000
    2e58:	0000                	.insn	2, 0x0000
    2e5a:	0000                	.insn	2, 0x0000
    2e5c:	0000                	.insn	2, 0x0000
    2e5e:	0000                	.insn	2, 0x0000
    2e60:	0000                	.insn	2, 0x0000
    2e62:	0000                	.insn	2, 0x0000
    2e64:	0000                	.insn	2, 0x0000
    2e66:	0000                	.insn	2, 0x0000
    2e68:	0000                	.insn	2, 0x0000
    2e6a:	0000                	.insn	2, 0x0000
    2e6c:	0000                	.insn	2, 0x0000
    2e6e:	0000                	.insn	2, 0x0000
    2e70:	0000                	.insn	2, 0x0000
    2e72:	0000                	.insn	2, 0x0000
    2e74:	0000                	.insn	2, 0x0000
    2e76:	0000                	.insn	2, 0x0000
    2e78:	0000                	.insn	2, 0x0000
    2e7a:	0000                	.insn	2, 0x0000
    2e7c:	0000                	.insn	2, 0x0000
    2e7e:	0000                	.insn	2, 0x0000
    2e80:	0000                	.insn	2, 0x0000
    2e82:	0000                	.insn	2, 0x0000
    2e84:	0000                	.insn	2, 0x0000
    2e86:	0000                	.insn	2, 0x0000
    2e88:	0000                	.insn	2, 0x0000
    2e8a:	0000                	.insn	2, 0x0000
    2e8c:	0000                	.insn	2, 0x0000
    2e8e:	0000                	.insn	2, 0x0000
    2e90:	0000                	.insn	2, 0x0000
    2e92:	0000                	.insn	2, 0x0000
    2e94:	0000                	.insn	2, 0x0000
    2e96:	0000                	.insn	2, 0x0000
    2e98:	0000                	.insn	2, 0x0000
    2e9a:	0000                	.insn	2, 0x0000
    2e9c:	0000                	.insn	2, 0x0000
    2e9e:	0000                	.insn	2, 0x0000
    2ea0:	0000                	.insn	2, 0x0000
    2ea2:	0000                	.insn	2, 0x0000
    2ea4:	0000                	.insn	2, 0x0000
    2ea6:	0000                	.insn	2, 0x0000
    2ea8:	0000                	.insn	2, 0x0000
    2eaa:	0000                	.insn	2, 0x0000
    2eac:	0000                	.insn	2, 0x0000
    2eae:	0000                	.insn	2, 0x0000
    2eb0:	0000                	.insn	2, 0x0000
    2eb2:	0000                	.insn	2, 0x0000
    2eb4:	0000                	.insn	2, 0x0000
    2eb6:	0000                	.insn	2, 0x0000
    2eb8:	0000                	.insn	2, 0x0000
    2eba:	0000                	.insn	2, 0x0000
    2ebc:	0000                	.insn	2, 0x0000
    2ebe:	0000                	.insn	2, 0x0000
    2ec0:	0000                	.insn	2, 0x0000
    2ec2:	0000                	.insn	2, 0x0000
    2ec4:	0000                	.insn	2, 0x0000
    2ec6:	0000                	.insn	2, 0x0000
    2ec8:	0000                	.insn	2, 0x0000
    2eca:	0000                	.insn	2, 0x0000
    2ecc:	0000                	.insn	2, 0x0000
    2ece:	0000                	.insn	2, 0x0000
    2ed0:	0000                	.insn	2, 0x0000
    2ed2:	0000                	.insn	2, 0x0000
    2ed4:	0000                	.insn	2, 0x0000
    2ed6:	0000                	.insn	2, 0x0000
    2ed8:	0000                	.insn	2, 0x0000
    2eda:	0000                	.insn	2, 0x0000
    2edc:	0000                	.insn	2, 0x0000
    2ede:	0000                	.insn	2, 0x0000
    2ee0:	0000                	.insn	2, 0x0000
    2ee2:	0000                	.insn	2, 0x0000
    2ee4:	0000                	.insn	2, 0x0000
    2ee6:	0000                	.insn	2, 0x0000
    2ee8:	0000                	.insn	2, 0x0000
    2eea:	0000                	.insn	2, 0x0000
    2eec:	0000                	.insn	2, 0x0000
    2eee:	0000                	.insn	2, 0x0000
    2ef0:	0000                	.insn	2, 0x0000
    2ef2:	0000                	.insn	2, 0x0000
    2ef4:	0000                	.insn	2, 0x0000
    2ef6:	0000                	.insn	2, 0x0000
    2ef8:	0000                	.insn	2, 0x0000
    2efa:	0000                	.insn	2, 0x0000
    2efc:	0000                	.insn	2, 0x0000
    2efe:	0000                	.insn	2, 0x0000
    2f00:	0000                	.insn	2, 0x0000
    2f02:	0000                	.insn	2, 0x0000
    2f04:	0000                	.insn	2, 0x0000
    2f06:	0000                	.insn	2, 0x0000
    2f08:	0000                	.insn	2, 0x0000
    2f0a:	0000                	.insn	2, 0x0000
    2f0c:	0000                	.insn	2, 0x0000
    2f0e:	0000                	.insn	2, 0x0000
    2f10:	0000                	.insn	2, 0x0000
    2f12:	0000                	.insn	2, 0x0000
    2f14:	0000                	.insn	2, 0x0000
    2f16:	0000                	.insn	2, 0x0000
    2f18:	0000                	.insn	2, 0x0000
    2f1a:	0000                	.insn	2, 0x0000
    2f1c:	0000                	.insn	2, 0x0000
    2f1e:	0000                	.insn	2, 0x0000
    2f20:	0000                	.insn	2, 0x0000
    2f22:	0000                	.insn	2, 0x0000
    2f24:	0000                	.insn	2, 0x0000
    2f26:	0000                	.insn	2, 0x0000
    2f28:	0000                	.insn	2, 0x0000
    2f2a:	0000                	.insn	2, 0x0000
    2f2c:	0000                	.insn	2, 0x0000
    2f2e:	0000                	.insn	2, 0x0000
    2f30:	0000                	.insn	2, 0x0000
    2f32:	0000                	.insn	2, 0x0000
    2f34:	0000                	.insn	2, 0x0000
    2f36:	0000                	.insn	2, 0x0000
    2f38:	0000                	.insn	2, 0x0000
    2f3a:	0000                	.insn	2, 0x0000
    2f3c:	0000                	.insn	2, 0x0000
    2f3e:	0000                	.insn	2, 0x0000
    2f40:	0000                	.insn	2, 0x0000
    2f42:	0000                	.insn	2, 0x0000
    2f44:	0000                	.insn	2, 0x0000
    2f46:	0000                	.insn	2, 0x0000
    2f48:	0000                	.insn	2, 0x0000
    2f4a:	0000                	.insn	2, 0x0000
    2f4c:	0000                	.insn	2, 0x0000
    2f4e:	0000                	.insn	2, 0x0000
    2f50:	0000                	.insn	2, 0x0000
    2f52:	0000                	.insn	2, 0x0000
    2f54:	0000                	.insn	2, 0x0000
    2f56:	0000                	.insn	2, 0x0000
    2f58:	0000                	.insn	2, 0x0000
    2f5a:	0000                	.insn	2, 0x0000
    2f5c:	0000                	.insn	2, 0x0000
    2f5e:	0000                	.insn	2, 0x0000
    2f60:	0000                	.insn	2, 0x0000
    2f62:	0000                	.insn	2, 0x0000
    2f64:	0000                	.insn	2, 0x0000
    2f66:	0000                	.insn	2, 0x0000
    2f68:	0000                	.insn	2, 0x0000
    2f6a:	0000                	.insn	2, 0x0000
    2f6c:	0000                	.insn	2, 0x0000
    2f6e:	0000                	.insn	2, 0x0000
    2f70:	0000                	.insn	2, 0x0000
    2f72:	0000                	.insn	2, 0x0000
    2f74:	0000                	.insn	2, 0x0000
    2f76:	0000                	.insn	2, 0x0000
    2f78:	0000                	.insn	2, 0x0000
    2f7a:	0000                	.insn	2, 0x0000
    2f7c:	0000                	.insn	2, 0x0000
    2f7e:	0000                	.insn	2, 0x0000
    2f80:	0000                	.insn	2, 0x0000
    2f82:	0000                	.insn	2, 0x0000
    2f84:	0000                	.insn	2, 0x0000
    2f86:	0000                	.insn	2, 0x0000
    2f88:	0000                	.insn	2, 0x0000
    2f8a:	0000                	.insn	2, 0x0000
    2f8c:	0000                	.insn	2, 0x0000
    2f8e:	0000                	.insn	2, 0x0000
    2f90:	0000                	.insn	2, 0x0000
    2f92:	0000                	.insn	2, 0x0000
    2f94:	0000                	.insn	2, 0x0000
    2f96:	0000                	.insn	2, 0x0000
    2f98:	0000                	.insn	2, 0x0000
    2f9a:	0000                	.insn	2, 0x0000
    2f9c:	0000                	.insn	2, 0x0000
    2f9e:	0000                	.insn	2, 0x0000
    2fa0:	0000                	.insn	2, 0x0000
    2fa2:	0000                	.insn	2, 0x0000
    2fa4:	0000                	.insn	2, 0x0000
    2fa6:	0000                	.insn	2, 0x0000
    2fa8:	0000                	.insn	2, 0x0000
    2faa:	0000                	.insn	2, 0x0000
    2fac:	0000                	.insn	2, 0x0000
    2fae:	0000                	.insn	2, 0x0000
    2fb0:	0000                	.insn	2, 0x0000
    2fb2:	0000                	.insn	2, 0x0000
    2fb4:	0000                	.insn	2, 0x0000
    2fb6:	0000                	.insn	2, 0x0000
    2fb8:	0000                	.insn	2, 0x0000
    2fba:	0000                	.insn	2, 0x0000
    2fbc:	0000                	.insn	2, 0x0000
    2fbe:	0000                	.insn	2, 0x0000
    2fc0:	0000                	.insn	2, 0x0000
    2fc2:	0000                	.insn	2, 0x0000
    2fc4:	0000                	.insn	2, 0x0000
    2fc6:	0000                	.insn	2, 0x0000
    2fc8:	0000                	.insn	2, 0x0000
    2fca:	0000                	.insn	2, 0x0000
    2fcc:	0000                	.insn	2, 0x0000
    2fce:	0000                	.insn	2, 0x0000
    2fd0:	0000                	.insn	2, 0x0000
    2fd2:	0000                	.insn	2, 0x0000
    2fd4:	0000                	.insn	2, 0x0000
    2fd6:	0000                	.insn	2, 0x0000
    2fd8:	0000                	.insn	2, 0x0000
    2fda:	0000                	.insn	2, 0x0000
    2fdc:	0000                	.insn	2, 0x0000
    2fde:	0000                	.insn	2, 0x0000
    2fe0:	0000                	.insn	2, 0x0000
    2fe2:	0000                	.insn	2, 0x0000
    2fe4:	0000                	.insn	2, 0x0000
    2fe6:	0000                	.insn	2, 0x0000
    2fe8:	0000                	.insn	2, 0x0000
    2fea:	0000                	.insn	2, 0x0000
    2fec:	0000                	.insn	2, 0x0000
    2fee:	0000                	.insn	2, 0x0000
    2ff0:	0000                	.insn	2, 0x0000
    2ff2:	0000                	.insn	2, 0x0000
    2ff4:	0000                	.insn	2, 0x0000
    2ff6:	0000                	.insn	2, 0x0000
    2ff8:	0000                	.insn	2, 0x0000
    2ffa:	0000                	.insn	2, 0x0000
    2ffc:	0000                	.insn	2, 0x0000
    2ffe:	0000                	.insn	2, 0x0000

00003000 <extra_boot>:
    3000:	00008067          	ret

00003004 <trap_filter>:
    3004:	00000513          	li	a0,0
    3008:	00008067          	ret

0000300c <pf_filter>:
    300c:	00000513          	li	a0,0
    3010:	00008067          	ret

00003014 <userstart>:
    3014:	00200193          	li	gp,2
    3018:	29a00593          	li	a1,666

0000301c <test_2>:
    301c:	00200193          	li	gp,2
    3020:	7df0106f          	j	4ffe <data+0x1fd6>
    3024:	00000013          	nop

00003028 <data>:
    3028:	3210                	.insn	2, 0x3210
    302a:	7654                	.insn	2, 0x7654
    302c:	ba98                	.insn	2, 0xba98
    302e:	fedc                	.insn	2, 0xfedc
    3030:	3210                	.insn	2, 0x3210
    3032:	7654                	.insn	2, 0x7654
    3034:	ba98                	.insn	2, 0xba98
    3036:	fedc                	.insn	2, 0xfedc
    3038:	00000013          	nop
    303c:	00000013          	nop
    3040:	00000013          	nop
    3044:	00000013          	nop
    3048:	00000013          	nop
    304c:	00000013          	nop
    3050:	00000013          	nop
    3054:	00000013          	nop
    3058:	00000013          	nop
    305c:	00000013          	nop
    3060:	00000013          	nop
    3064:	00000013          	nop
    3068:	00000013          	nop
    306c:	00000013          	nop
    3070:	00000013          	nop
    3074:	00000013          	nop
    3078:	00000013          	nop
    307c:	00000013          	nop
    3080:	00000013          	nop
    3084:	00000013          	nop
    3088:	00000013          	nop
    308c:	00000013          	nop
    3090:	00000013          	nop
    3094:	00000013          	nop
    3098:	00000013          	nop
    309c:	00000013          	nop
    30a0:	00000013          	nop
    30a4:	00000013          	nop
    30a8:	00000013          	nop
    30ac:	00000013          	nop
    30b0:	00000013          	nop
    30b4:	00000013          	nop
    30b8:	00000013          	nop
    30bc:	00000013          	nop
    30c0:	00000013          	nop
    30c4:	00000013          	nop
    30c8:	00000013          	nop
    30cc:	00000013          	nop
    30d0:	00000013          	nop
    30d4:	00000013          	nop
    30d8:	00000013          	nop
    30dc:	00000013          	nop
    30e0:	00000013          	nop
    30e4:	00000013          	nop
    30e8:	00000013          	nop
    30ec:	00000013          	nop
    30f0:	00000013          	nop
    30f4:	00000013          	nop
    30f8:	00000013          	nop
    30fc:	00000013          	nop
    3100:	00000013          	nop
    3104:	00000013          	nop
    3108:	00000013          	nop
    310c:	00000013          	nop
    3110:	00000013          	nop
    3114:	00000013          	nop
    3118:	00000013          	nop
    311c:	00000013          	nop
    3120:	00000013          	nop
    3124:	00000013          	nop
    3128:	00000013          	nop
    312c:	00000013          	nop
    3130:	00000013          	nop
    3134:	00000013          	nop
    3138:	00000013          	nop
    313c:	00000013          	nop
    3140:	00000013          	nop
    3144:	00000013          	nop
    3148:	00000013          	nop
    314c:	00000013          	nop
    3150:	00000013          	nop
    3154:	00000013          	nop
    3158:	00000013          	nop
    315c:	00000013          	nop
    3160:	00000013          	nop
    3164:	00000013          	nop
    3168:	00000013          	nop
    316c:	00000013          	nop
    3170:	00000013          	nop
    3174:	00000013          	nop
    3178:	00000013          	nop
    317c:	00000013          	nop
    3180:	00000013          	nop
    3184:	00000013          	nop
    3188:	00000013          	nop
    318c:	00000013          	nop
    3190:	00000013          	nop
    3194:	00000013          	nop
    3198:	00000013          	nop
    319c:	00000013          	nop
    31a0:	00000013          	nop
    31a4:	00000013          	nop
    31a8:	00000013          	nop
    31ac:	00000013          	nop
    31b0:	00000013          	nop
    31b4:	00000013          	nop
    31b8:	00000013          	nop
    31bc:	00000013          	nop
    31c0:	00000013          	nop
    31c4:	00000013          	nop
    31c8:	00000013          	nop
    31cc:	00000013          	nop
    31d0:	00000013          	nop
    31d4:	00000013          	nop
    31d8:	00000013          	nop
    31dc:	00000013          	nop
    31e0:	00000013          	nop
    31e4:	00000013          	nop
    31e8:	00000013          	nop
    31ec:	00000013          	nop
    31f0:	00000013          	nop
    31f4:	00000013          	nop
    31f8:	00000013          	nop
    31fc:	00000013          	nop
    3200:	00000013          	nop
    3204:	00000013          	nop
    3208:	00000013          	nop
    320c:	00000013          	nop
    3210:	00000013          	nop
    3214:	00000013          	nop
    3218:	00000013          	nop
    321c:	00000013          	nop
    3220:	00000013          	nop
    3224:	00000013          	nop
    3228:	00000013          	nop
    322c:	00000013          	nop
    3230:	00000013          	nop
    3234:	00000013          	nop
    3238:	00000013          	nop
    323c:	00000013          	nop
    3240:	00000013          	nop
    3244:	00000013          	nop
    3248:	00000013          	nop
    324c:	00000013          	nop
    3250:	00000013          	nop
    3254:	00000013          	nop
    3258:	00000013          	nop
    325c:	00000013          	nop
    3260:	00000013          	nop
    3264:	00000013          	nop
    3268:	00000013          	nop
    326c:	00000013          	nop
    3270:	00000013          	nop
    3274:	00000013          	nop
    3278:	00000013          	nop
    327c:	00000013          	nop
    3280:	00000013          	nop
    3284:	00000013          	nop
    3288:	00000013          	nop
    328c:	00000013          	nop
    3290:	00000013          	nop
    3294:	00000013          	nop
    3298:	00000013          	nop
    329c:	00000013          	nop
    32a0:	00000013          	nop
    32a4:	00000013          	nop
    32a8:	00000013          	nop
    32ac:	00000013          	nop
    32b0:	00000013          	nop
    32b4:	00000013          	nop
    32b8:	00000013          	nop
    32bc:	00000013          	nop
    32c0:	00000013          	nop
    32c4:	00000013          	nop
    32c8:	00000013          	nop
    32cc:	00000013          	nop
    32d0:	00000013          	nop
    32d4:	00000013          	nop
    32d8:	00000013          	nop
    32dc:	00000013          	nop
    32e0:	00000013          	nop
    32e4:	00000013          	nop
    32e8:	00000013          	nop
    32ec:	00000013          	nop
    32f0:	00000013          	nop
    32f4:	00000013          	nop
    32f8:	00000013          	nop
    32fc:	00000013          	nop
    3300:	00000013          	nop
    3304:	00000013          	nop
    3308:	00000013          	nop
    330c:	00000013          	nop
    3310:	00000013          	nop
    3314:	00000013          	nop
    3318:	00000013          	nop
    331c:	00000013          	nop
    3320:	00000013          	nop
    3324:	00000013          	nop
    3328:	00000013          	nop
    332c:	00000013          	nop
    3330:	00000013          	nop
    3334:	00000013          	nop
    3338:	00000013          	nop
    333c:	00000013          	nop
    3340:	00000013          	nop
    3344:	00000013          	nop
    3348:	00000013          	nop
    334c:	00000013          	nop
    3350:	00000013          	nop
    3354:	00000013          	nop
    3358:	00000013          	nop
    335c:	00000013          	nop
    3360:	00000013          	nop
    3364:	00000013          	nop
    3368:	00000013          	nop
    336c:	00000013          	nop
    3370:	00000013          	nop
    3374:	00000013          	nop
    3378:	00000013          	nop
    337c:	00000013          	nop
    3380:	00000013          	nop
    3384:	00000013          	nop
    3388:	00000013          	nop
    338c:	00000013          	nop
    3390:	00000013          	nop
    3394:	00000013          	nop
    3398:	00000013          	nop
    339c:	00000013          	nop
    33a0:	00000013          	nop
    33a4:	00000013          	nop
    33a8:	00000013          	nop
    33ac:	00000013          	nop
    33b0:	00000013          	nop
    33b4:	00000013          	nop
    33b8:	00000013          	nop
    33bc:	00000013          	nop
    33c0:	00000013          	nop
    33c4:	00000013          	nop
    33c8:	00000013          	nop
    33cc:	00000013          	nop
    33d0:	00000013          	nop
    33d4:	00000013          	nop
    33d8:	00000013          	nop
    33dc:	00000013          	nop
    33e0:	00000013          	nop
    33e4:	00000013          	nop
    33e8:	00000013          	nop
    33ec:	00000013          	nop
    33f0:	00000013          	nop
    33f4:	00000013          	nop
    33f8:	00000013          	nop
    33fc:	00000013          	nop
    3400:	00000013          	nop
    3404:	00000013          	nop
    3408:	00000013          	nop
    340c:	00000013          	nop
    3410:	00000013          	nop
    3414:	00000013          	nop
    3418:	00000013          	nop
    341c:	00000013          	nop
    3420:	00000013          	nop
    3424:	00000013          	nop
    3428:	00000013          	nop
    342c:	00000013          	nop
    3430:	00000013          	nop
    3434:	00000013          	nop
    3438:	00000013          	nop
    343c:	00000013          	nop
    3440:	00000013          	nop
    3444:	00000013          	nop
    3448:	00000013          	nop
    344c:	00000013          	nop
    3450:	00000013          	nop
    3454:	00000013          	nop
    3458:	00000013          	nop
    345c:	00000013          	nop
    3460:	00000013          	nop
    3464:	00000013          	nop
    3468:	00000013          	nop
    346c:	00000013          	nop
    3470:	00000013          	nop
    3474:	00000013          	nop
    3478:	00000013          	nop
    347c:	00000013          	nop
    3480:	00000013          	nop
    3484:	00000013          	nop
    3488:	00000013          	nop
    348c:	00000013          	nop
    3490:	00000013          	nop
    3494:	00000013          	nop
    3498:	00000013          	nop
    349c:	00000013          	nop
    34a0:	00000013          	nop
    34a4:	00000013          	nop
    34a8:	00000013          	nop
    34ac:	00000013          	nop
    34b0:	00000013          	nop
    34b4:	00000013          	nop
    34b8:	00000013          	nop
    34bc:	00000013          	nop
    34c0:	00000013          	nop
    34c4:	00000013          	nop
    34c8:	00000013          	nop
    34cc:	00000013          	nop
    34d0:	00000013          	nop
    34d4:	00000013          	nop
    34d8:	00000013          	nop
    34dc:	00000013          	nop
    34e0:	00000013          	nop
    34e4:	00000013          	nop
    34e8:	00000013          	nop
    34ec:	00000013          	nop
    34f0:	00000013          	nop
    34f4:	00000013          	nop
    34f8:	00000013          	nop
    34fc:	00000013          	nop
    3500:	00000013          	nop
    3504:	00000013          	nop
    3508:	00000013          	nop
    350c:	00000013          	nop
    3510:	00000013          	nop
    3514:	00000013          	nop
    3518:	00000013          	nop
    351c:	00000013          	nop
    3520:	00000013          	nop
    3524:	00000013          	nop
    3528:	00000013          	nop
    352c:	00000013          	nop
    3530:	00000013          	nop
    3534:	00000013          	nop
    3538:	00000013          	nop
    353c:	00000013          	nop
    3540:	00000013          	nop
    3544:	00000013          	nop
    3548:	00000013          	nop
    354c:	00000013          	nop
    3550:	00000013          	nop
    3554:	00000013          	nop
    3558:	00000013          	nop
    355c:	00000013          	nop
    3560:	00000013          	nop
    3564:	00000013          	nop
    3568:	00000013          	nop
    356c:	00000013          	nop
    3570:	00000013          	nop
    3574:	00000013          	nop
    3578:	00000013          	nop
    357c:	00000013          	nop
    3580:	00000013          	nop
    3584:	00000013          	nop
    3588:	00000013          	nop
    358c:	00000013          	nop
    3590:	00000013          	nop
    3594:	00000013          	nop
    3598:	00000013          	nop
    359c:	00000013          	nop
    35a0:	00000013          	nop
    35a4:	00000013          	nop
    35a8:	00000013          	nop
    35ac:	00000013          	nop
    35b0:	00000013          	nop
    35b4:	00000013          	nop
    35b8:	00000013          	nop
    35bc:	00000013          	nop
    35c0:	00000013          	nop
    35c4:	00000013          	nop
    35c8:	00000013          	nop
    35cc:	00000013          	nop
    35d0:	00000013          	nop
    35d4:	00000013          	nop
    35d8:	00000013          	nop
    35dc:	00000013          	nop
    35e0:	00000013          	nop
    35e4:	00000013          	nop
    35e8:	00000013          	nop
    35ec:	00000013          	nop
    35f0:	00000013          	nop
    35f4:	00000013          	nop
    35f8:	00000013          	nop
    35fc:	00000013          	nop
    3600:	00000013          	nop
    3604:	00000013          	nop
    3608:	00000013          	nop
    360c:	00000013          	nop
    3610:	00000013          	nop
    3614:	00000013          	nop
    3618:	00000013          	nop
    361c:	00000013          	nop
    3620:	00000013          	nop
    3624:	00000013          	nop
    3628:	00000013          	nop
    362c:	00000013          	nop
    3630:	00000013          	nop
    3634:	00000013          	nop
    3638:	00000013          	nop
    363c:	00000013          	nop
    3640:	00000013          	nop
    3644:	00000013          	nop
    3648:	00000013          	nop
    364c:	00000013          	nop
    3650:	00000013          	nop
    3654:	00000013          	nop
    3658:	00000013          	nop
    365c:	00000013          	nop
    3660:	00000013          	nop
    3664:	00000013          	nop
    3668:	00000013          	nop
    366c:	00000013          	nop
    3670:	00000013          	nop
    3674:	00000013          	nop
    3678:	00000013          	nop
    367c:	00000013          	nop
    3680:	00000013          	nop
    3684:	00000013          	nop
    3688:	00000013          	nop
    368c:	00000013          	nop
    3690:	00000013          	nop
    3694:	00000013          	nop
    3698:	00000013          	nop
    369c:	00000013          	nop
    36a0:	00000013          	nop
    36a4:	00000013          	nop
    36a8:	00000013          	nop
    36ac:	00000013          	nop
    36b0:	00000013          	nop
    36b4:	00000013          	nop
    36b8:	00000013          	nop
    36bc:	00000013          	nop
    36c0:	00000013          	nop
    36c4:	00000013          	nop
    36c8:	00000013          	nop
    36cc:	00000013          	nop
    36d0:	00000013          	nop
    36d4:	00000013          	nop
    36d8:	00000013          	nop
    36dc:	00000013          	nop
    36e0:	00000013          	nop
    36e4:	00000013          	nop
    36e8:	00000013          	nop
    36ec:	00000013          	nop
    36f0:	00000013          	nop
    36f4:	00000013          	nop
    36f8:	00000013          	nop
    36fc:	00000013          	nop
    3700:	00000013          	nop
    3704:	00000013          	nop
    3708:	00000013          	nop
    370c:	00000013          	nop
    3710:	00000013          	nop
    3714:	00000013          	nop
    3718:	00000013          	nop
    371c:	00000013          	nop
    3720:	00000013          	nop
    3724:	00000013          	nop
    3728:	00000013          	nop
    372c:	00000013          	nop
    3730:	00000013          	nop
    3734:	00000013          	nop
    3738:	00000013          	nop
    373c:	00000013          	nop
    3740:	00000013          	nop
    3744:	00000013          	nop
    3748:	00000013          	nop
    374c:	00000013          	nop
    3750:	00000013          	nop
    3754:	00000013          	nop
    3758:	00000013          	nop
    375c:	00000013          	nop
    3760:	00000013          	nop
    3764:	00000013          	nop
    3768:	00000013          	nop
    376c:	00000013          	nop
    3770:	00000013          	nop
    3774:	00000013          	nop
    3778:	00000013          	nop
    377c:	00000013          	nop
    3780:	00000013          	nop
    3784:	00000013          	nop
    3788:	00000013          	nop
    378c:	00000013          	nop
    3790:	00000013          	nop
    3794:	00000013          	nop
    3798:	00000013          	nop
    379c:	00000013          	nop
    37a0:	00000013          	nop
    37a4:	00000013          	nop
    37a8:	00000013          	nop
    37ac:	00000013          	nop
    37b0:	00000013          	nop
    37b4:	00000013          	nop
    37b8:	00000013          	nop
    37bc:	00000013          	nop
    37c0:	00000013          	nop
    37c4:	00000013          	nop
    37c8:	00000013          	nop
    37cc:	00000013          	nop
    37d0:	00000013          	nop
    37d4:	00000013          	nop
    37d8:	00000013          	nop
    37dc:	00000013          	nop
    37e0:	00000013          	nop
    37e4:	00000013          	nop
    37e8:	00000013          	nop
    37ec:	00000013          	nop
    37f0:	00000013          	nop
    37f4:	00000013          	nop
    37f8:	00000013          	nop
    37fc:	00000013          	nop
    3800:	00000013          	nop
    3804:	00000013          	nop
    3808:	00000013          	nop
    380c:	00000013          	nop
    3810:	00000013          	nop
    3814:	00000013          	nop
    3818:	00000013          	nop
    381c:	00000013          	nop
    3820:	00000013          	nop
    3824:	00000013          	nop
    3828:	00000013          	nop
    382c:	00000013          	nop
    3830:	00000013          	nop
    3834:	00000013          	nop
    3838:	00000013          	nop
    383c:	00000013          	nop
    3840:	00000013          	nop
    3844:	00000013          	nop
    3848:	00000013          	nop
    384c:	00000013          	nop
    3850:	00000013          	nop
    3854:	00000013          	nop
    3858:	00000013          	nop
    385c:	00000013          	nop
    3860:	00000013          	nop
    3864:	00000013          	nop
    3868:	00000013          	nop
    386c:	00000013          	nop
    3870:	00000013          	nop
    3874:	00000013          	nop
    3878:	00000013          	nop
    387c:	00000013          	nop
    3880:	00000013          	nop
    3884:	00000013          	nop
    3888:	00000013          	nop
    388c:	00000013          	nop
    3890:	00000013          	nop
    3894:	00000013          	nop
    3898:	00000013          	nop
    389c:	00000013          	nop
    38a0:	00000013          	nop
    38a4:	00000013          	nop
    38a8:	00000013          	nop
    38ac:	00000013          	nop
    38b0:	00000013          	nop
    38b4:	00000013          	nop
    38b8:	00000013          	nop
    38bc:	00000013          	nop
    38c0:	00000013          	nop
    38c4:	00000013          	nop
    38c8:	00000013          	nop
    38cc:	00000013          	nop
    38d0:	00000013          	nop
    38d4:	00000013          	nop
    38d8:	00000013          	nop
    38dc:	00000013          	nop
    38e0:	00000013          	nop
    38e4:	00000013          	nop
    38e8:	00000013          	nop
    38ec:	00000013          	nop
    38f0:	00000013          	nop
    38f4:	00000013          	nop
    38f8:	00000013          	nop
    38fc:	00000013          	nop
    3900:	00000013          	nop
    3904:	00000013          	nop
    3908:	00000013          	nop
    390c:	00000013          	nop
    3910:	00000013          	nop
    3914:	00000013          	nop
    3918:	00000013          	nop
    391c:	00000013          	nop
    3920:	00000013          	nop
    3924:	00000013          	nop
    3928:	00000013          	nop
    392c:	00000013          	nop
    3930:	00000013          	nop
    3934:	00000013          	nop
    3938:	00000013          	nop
    393c:	00000013          	nop
    3940:	00000013          	nop
    3944:	00000013          	nop
    3948:	00000013          	nop
    394c:	00000013          	nop
    3950:	00000013          	nop
    3954:	00000013          	nop
    3958:	00000013          	nop
    395c:	00000013          	nop
    3960:	00000013          	nop
    3964:	00000013          	nop
    3968:	00000013          	nop
    396c:	00000013          	nop
    3970:	00000013          	nop
    3974:	00000013          	nop
    3978:	00000013          	nop
    397c:	00000013          	nop
    3980:	00000013          	nop
    3984:	00000013          	nop
    3988:	00000013          	nop
    398c:	00000013          	nop
    3990:	00000013          	nop
    3994:	00000013          	nop
    3998:	00000013          	nop
    399c:	00000013          	nop
    39a0:	00000013          	nop
    39a4:	00000013          	nop
    39a8:	00000013          	nop
    39ac:	00000013          	nop
    39b0:	00000013          	nop
    39b4:	00000013          	nop
    39b8:	00000013          	nop
    39bc:	00000013          	nop
    39c0:	00000013          	nop
    39c4:	00000013          	nop
    39c8:	00000013          	nop
    39cc:	00000013          	nop
    39d0:	00000013          	nop
    39d4:	00000013          	nop
    39d8:	00000013          	nop
    39dc:	00000013          	nop
    39e0:	00000013          	nop
    39e4:	00000013          	nop
    39e8:	00000013          	nop
    39ec:	00000013          	nop
    39f0:	00000013          	nop
    39f4:	00000013          	nop
    39f8:	00000013          	nop
    39fc:	00000013          	nop
    3a00:	00000013          	nop
    3a04:	00000013          	nop
    3a08:	00000013          	nop
    3a0c:	00000013          	nop
    3a10:	00000013          	nop
    3a14:	00000013          	nop
    3a18:	00000013          	nop
    3a1c:	00000013          	nop
    3a20:	00000013          	nop
    3a24:	00000013          	nop
    3a28:	00000013          	nop
    3a2c:	00000013          	nop
    3a30:	00000013          	nop
    3a34:	00000013          	nop
    3a38:	00000013          	nop
    3a3c:	00000013          	nop
    3a40:	00000013          	nop
    3a44:	00000013          	nop
    3a48:	00000013          	nop
    3a4c:	00000013          	nop
    3a50:	00000013          	nop
    3a54:	00000013          	nop
    3a58:	00000013          	nop
    3a5c:	00000013          	nop
    3a60:	00000013          	nop
    3a64:	00000013          	nop
    3a68:	00000013          	nop
    3a6c:	00000013          	nop
    3a70:	00000013          	nop
    3a74:	00000013          	nop
    3a78:	00000013          	nop
    3a7c:	00000013          	nop
    3a80:	00000013          	nop
    3a84:	00000013          	nop
    3a88:	00000013          	nop
    3a8c:	00000013          	nop
    3a90:	00000013          	nop
    3a94:	00000013          	nop
    3a98:	00000013          	nop
    3a9c:	00000013          	nop
    3aa0:	00000013          	nop
    3aa4:	00000013          	nop
    3aa8:	00000013          	nop
    3aac:	00000013          	nop
    3ab0:	00000013          	nop
    3ab4:	00000013          	nop
    3ab8:	00000013          	nop
    3abc:	00000013          	nop
    3ac0:	00000013          	nop
    3ac4:	00000013          	nop
    3ac8:	00000013          	nop
    3acc:	00000013          	nop
    3ad0:	00000013          	nop
    3ad4:	00000013          	nop
    3ad8:	00000013          	nop
    3adc:	00000013          	nop
    3ae0:	00000013          	nop
    3ae4:	00000013          	nop
    3ae8:	00000013          	nop
    3aec:	00000013          	nop
    3af0:	00000013          	nop
    3af4:	00000013          	nop
    3af8:	00000013          	nop
    3afc:	00000013          	nop
    3b00:	00000013          	nop
    3b04:	00000013          	nop
    3b08:	00000013          	nop
    3b0c:	00000013          	nop
    3b10:	00000013          	nop
    3b14:	00000013          	nop
    3b18:	00000013          	nop
    3b1c:	00000013          	nop
    3b20:	00000013          	nop
    3b24:	00000013          	nop
    3b28:	00000013          	nop
    3b2c:	00000013          	nop
    3b30:	00000013          	nop
    3b34:	00000013          	nop
    3b38:	00000013          	nop
    3b3c:	00000013          	nop
    3b40:	00000013          	nop
    3b44:	00000013          	nop
    3b48:	00000013          	nop
    3b4c:	00000013          	nop
    3b50:	00000013          	nop
    3b54:	00000013          	nop
    3b58:	00000013          	nop
    3b5c:	00000013          	nop
    3b60:	00000013          	nop
    3b64:	00000013          	nop
    3b68:	00000013          	nop
    3b6c:	00000013          	nop
    3b70:	00000013          	nop
    3b74:	00000013          	nop
    3b78:	00000013          	nop
    3b7c:	00000013          	nop
    3b80:	00000013          	nop
    3b84:	00000013          	nop
    3b88:	00000013          	nop
    3b8c:	00000013          	nop
    3b90:	00000013          	nop
    3b94:	00000013          	nop
    3b98:	00000013          	nop
    3b9c:	00000013          	nop
    3ba0:	00000013          	nop
    3ba4:	00000013          	nop
    3ba8:	00000013          	nop
    3bac:	00000013          	nop
    3bb0:	00000013          	nop
    3bb4:	00000013          	nop
    3bb8:	00000013          	nop
    3bbc:	00000013          	nop
    3bc0:	00000013          	nop
    3bc4:	00000013          	nop
    3bc8:	00000013          	nop
    3bcc:	00000013          	nop
    3bd0:	00000013          	nop
    3bd4:	00000013          	nop
    3bd8:	00000013          	nop
    3bdc:	00000013          	nop
    3be0:	00000013          	nop
    3be4:	00000013          	nop
    3be8:	00000013          	nop
    3bec:	00000013          	nop
    3bf0:	00000013          	nop
    3bf4:	00000013          	nop
    3bf8:	00000013          	nop
    3bfc:	00000013          	nop
    3c00:	00000013          	nop
    3c04:	00000013          	nop
    3c08:	00000013          	nop
    3c0c:	00000013          	nop
    3c10:	00000013          	nop
    3c14:	00000013          	nop
    3c18:	00000013          	nop
    3c1c:	00000013          	nop
    3c20:	00000013          	nop
    3c24:	00000013          	nop
    3c28:	00000013          	nop
    3c2c:	00000013          	nop
    3c30:	00000013          	nop
    3c34:	00000013          	nop
    3c38:	00000013          	nop
    3c3c:	00000013          	nop
    3c40:	00000013          	nop
    3c44:	00000013          	nop
    3c48:	00000013          	nop
    3c4c:	00000013          	nop
    3c50:	00000013          	nop
    3c54:	00000013          	nop
    3c58:	00000013          	nop
    3c5c:	00000013          	nop
    3c60:	00000013          	nop
    3c64:	00000013          	nop
    3c68:	00000013          	nop
    3c6c:	00000013          	nop
    3c70:	00000013          	nop
    3c74:	00000013          	nop
    3c78:	00000013          	nop
    3c7c:	00000013          	nop
    3c80:	00000013          	nop
    3c84:	00000013          	nop
    3c88:	00000013          	nop
    3c8c:	00000013          	nop
    3c90:	00000013          	nop
    3c94:	00000013          	nop
    3c98:	00000013          	nop
    3c9c:	00000013          	nop
    3ca0:	00000013          	nop
    3ca4:	00000013          	nop
    3ca8:	00000013          	nop
    3cac:	00000013          	nop
    3cb0:	00000013          	nop
    3cb4:	00000013          	nop
    3cb8:	00000013          	nop
    3cbc:	00000013          	nop
    3cc0:	00000013          	nop
    3cc4:	00000013          	nop
    3cc8:	00000013          	nop
    3ccc:	00000013          	nop
    3cd0:	00000013          	nop
    3cd4:	00000013          	nop
    3cd8:	00000013          	nop
    3cdc:	00000013          	nop
    3ce0:	00000013          	nop
    3ce4:	00000013          	nop
    3ce8:	00000013          	nop
    3cec:	00000013          	nop
    3cf0:	00000013          	nop
    3cf4:	00000013          	nop
    3cf8:	00000013          	nop
    3cfc:	00000013          	nop
    3d00:	00000013          	nop
    3d04:	00000013          	nop
    3d08:	00000013          	nop
    3d0c:	00000013          	nop
    3d10:	00000013          	nop
    3d14:	00000013          	nop
    3d18:	00000013          	nop
    3d1c:	00000013          	nop
    3d20:	00000013          	nop
    3d24:	00000013          	nop
    3d28:	00000013          	nop
    3d2c:	00000013          	nop
    3d30:	00000013          	nop
    3d34:	00000013          	nop
    3d38:	00000013          	nop
    3d3c:	00000013          	nop
    3d40:	00000013          	nop
    3d44:	00000013          	nop
    3d48:	00000013          	nop
    3d4c:	00000013          	nop
    3d50:	00000013          	nop
    3d54:	00000013          	nop
    3d58:	00000013          	nop
    3d5c:	00000013          	nop
    3d60:	00000013          	nop
    3d64:	00000013          	nop
    3d68:	00000013          	nop
    3d6c:	00000013          	nop
    3d70:	00000013          	nop
    3d74:	00000013          	nop
    3d78:	00000013          	nop
    3d7c:	00000013          	nop
    3d80:	00000013          	nop
    3d84:	00000013          	nop
    3d88:	00000013          	nop
    3d8c:	00000013          	nop
    3d90:	00000013          	nop
    3d94:	00000013          	nop
    3d98:	00000013          	nop
    3d9c:	00000013          	nop
    3da0:	00000013          	nop
    3da4:	00000013          	nop
    3da8:	00000013          	nop
    3dac:	00000013          	nop
    3db0:	00000013          	nop
    3db4:	00000013          	nop
    3db8:	00000013          	nop
    3dbc:	00000013          	nop
    3dc0:	00000013          	nop
    3dc4:	00000013          	nop
    3dc8:	00000013          	nop
    3dcc:	00000013          	nop
    3dd0:	00000013          	nop
    3dd4:	00000013          	nop
    3dd8:	00000013          	nop
    3ddc:	00000013          	nop
    3de0:	00000013          	nop
    3de4:	00000013          	nop
    3de8:	00000013          	nop
    3dec:	00000013          	nop
    3df0:	00000013          	nop
    3df4:	00000013          	nop
    3df8:	00000013          	nop
    3dfc:	00000013          	nop
    3e00:	00000013          	nop
    3e04:	00000013          	nop
    3e08:	00000013          	nop
    3e0c:	00000013          	nop
    3e10:	00000013          	nop
    3e14:	00000013          	nop
    3e18:	00000013          	nop
    3e1c:	00000013          	nop
    3e20:	00000013          	nop
    3e24:	00000013          	nop
    3e28:	00000013          	nop
    3e2c:	00000013          	nop
    3e30:	00000013          	nop
    3e34:	00000013          	nop
    3e38:	00000013          	nop
    3e3c:	00000013          	nop
    3e40:	00000013          	nop
    3e44:	00000013          	nop
    3e48:	00000013          	nop
    3e4c:	00000013          	nop
    3e50:	00000013          	nop
    3e54:	00000013          	nop
    3e58:	00000013          	nop
    3e5c:	00000013          	nop
    3e60:	00000013          	nop
    3e64:	00000013          	nop
    3e68:	00000013          	nop
    3e6c:	00000013          	nop
    3e70:	00000013          	nop
    3e74:	00000013          	nop
    3e78:	00000013          	nop
    3e7c:	00000013          	nop
    3e80:	00000013          	nop
    3e84:	00000013          	nop
    3e88:	00000013          	nop
    3e8c:	00000013          	nop
    3e90:	00000013          	nop
    3e94:	00000013          	nop
    3e98:	00000013          	nop
    3e9c:	00000013          	nop
    3ea0:	00000013          	nop
    3ea4:	00000013          	nop
    3ea8:	00000013          	nop
    3eac:	00000013          	nop
    3eb0:	00000013          	nop
    3eb4:	00000013          	nop
    3eb8:	00000013          	nop
    3ebc:	00000013          	nop
    3ec0:	00000013          	nop
    3ec4:	00000013          	nop
    3ec8:	00000013          	nop
    3ecc:	00000013          	nop
    3ed0:	00000013          	nop
    3ed4:	00000013          	nop
    3ed8:	00000013          	nop
    3edc:	00000013          	nop
    3ee0:	00000013          	nop
    3ee4:	00000013          	nop
    3ee8:	00000013          	nop
    3eec:	00000013          	nop
    3ef0:	00000013          	nop
    3ef4:	00000013          	nop
    3ef8:	00000013          	nop
    3efc:	00000013          	nop
    3f00:	00000013          	nop
    3f04:	00000013          	nop
    3f08:	00000013          	nop
    3f0c:	00000013          	nop
    3f10:	00000013          	nop
    3f14:	00000013          	nop
    3f18:	00000013          	nop
    3f1c:	00000013          	nop
    3f20:	00000013          	nop
    3f24:	00000013          	nop
    3f28:	00000013          	nop
    3f2c:	00000013          	nop
    3f30:	00000013          	nop
    3f34:	00000013          	nop
    3f38:	00000013          	nop
    3f3c:	00000013          	nop
    3f40:	00000013          	nop
    3f44:	00000013          	nop
    3f48:	00000013          	nop
    3f4c:	00000013          	nop
    3f50:	00000013          	nop
    3f54:	00000013          	nop
    3f58:	00000013          	nop
    3f5c:	00000013          	nop
    3f60:	00000013          	nop
    3f64:	00000013          	nop
    3f68:	00000013          	nop
    3f6c:	00000013          	nop
    3f70:	00000013          	nop
    3f74:	00000013          	nop
    3f78:	00000013          	nop
    3f7c:	00000013          	nop
    3f80:	00000013          	nop
    3f84:	00000013          	nop
    3f88:	00000013          	nop
    3f8c:	00000013          	nop
    3f90:	00000013          	nop
    3f94:	00000013          	nop
    3f98:	00000013          	nop
    3f9c:	00000013          	nop
    3fa0:	00000013          	nop
    3fa4:	00000013          	nop
    3fa8:	00000013          	nop
    3fac:	00000013          	nop
    3fb0:	00000013          	nop
    3fb4:	00000013          	nop
    3fb8:	00000013          	nop
    3fbc:	00000013          	nop
    3fc0:	00000013          	nop
    3fc4:	00000013          	nop
    3fc8:	00000013          	nop
    3fcc:	00000013          	nop
    3fd0:	00000013          	nop
    3fd4:	00000013          	nop
    3fd8:	00000013          	nop
    3fdc:	00000013          	nop
    3fe0:	00000013          	nop
    3fe4:	00000013          	nop
    3fe8:	00000013          	nop
    3fec:	00000013          	nop
    3ff0:	00000013          	nop
    3ff4:	00000013          	nop
    3ff8:	00000013          	nop
    3ffc:	00000013          	nop
    4000:	0000                	.insn	2, 0x0000
    4002:	0000                	.insn	2, 0x0000
    4004:	0000                	.insn	2, 0x0000
    4006:	0000                	.insn	2, 0x0000
    4008:	0000                	.insn	2, 0x0000
    400a:	0000                	.insn	2, 0x0000
    400c:	0000                	.insn	2, 0x0000
    400e:	0000                	.insn	2, 0x0000
    4010:	0000                	.insn	2, 0x0000
    4012:	0000                	.insn	2, 0x0000
    4014:	0000                	.insn	2, 0x0000
    4016:	0000                	.insn	2, 0x0000
    4018:	0000                	.insn	2, 0x0000
    401a:	0000                	.insn	2, 0x0000
    401c:	0000                	.insn	2, 0x0000
    401e:	0000                	.insn	2, 0x0000
    4020:	0000                	.insn	2, 0x0000
    4022:	0000                	.insn	2, 0x0000
    4024:	0000                	.insn	2, 0x0000
    4026:	0000                	.insn	2, 0x0000
    4028:	0000                	.insn	2, 0x0000
    402a:	0000                	.insn	2, 0x0000
    402c:	0000                	.insn	2, 0x0000
    402e:	0000                	.insn	2, 0x0000
    4030:	0000                	.insn	2, 0x0000
    4032:	0000                	.insn	2, 0x0000
    4034:	0000                	.insn	2, 0x0000
    4036:	0000                	.insn	2, 0x0000
    4038:	0000                	.insn	2, 0x0000
    403a:	0000                	.insn	2, 0x0000
    403c:	0000                	.insn	2, 0x0000
    403e:	0000                	.insn	2, 0x0000
    4040:	0000                	.insn	2, 0x0000
    4042:	0000                	.insn	2, 0x0000
    4044:	0000                	.insn	2, 0x0000
    4046:	0000                	.insn	2, 0x0000
    4048:	0000                	.insn	2, 0x0000
    404a:	0000                	.insn	2, 0x0000
    404c:	0000                	.insn	2, 0x0000
    404e:	0000                	.insn	2, 0x0000
    4050:	0000                	.insn	2, 0x0000
    4052:	0000                	.insn	2, 0x0000
    4054:	0000                	.insn	2, 0x0000
    4056:	0000                	.insn	2, 0x0000
    4058:	0000                	.insn	2, 0x0000
    405a:	0000                	.insn	2, 0x0000
    405c:	0000                	.insn	2, 0x0000
    405e:	0000                	.insn	2, 0x0000
    4060:	0000                	.insn	2, 0x0000
    4062:	0000                	.insn	2, 0x0000
    4064:	0000                	.insn	2, 0x0000
    4066:	0000                	.insn	2, 0x0000
    4068:	0000                	.insn	2, 0x0000
    406a:	0000                	.insn	2, 0x0000
    406c:	0000                	.insn	2, 0x0000
    406e:	0000                	.insn	2, 0x0000
    4070:	0000                	.insn	2, 0x0000
    4072:	0000                	.insn	2, 0x0000
    4074:	0000                	.insn	2, 0x0000
    4076:	0000                	.insn	2, 0x0000
    4078:	0000                	.insn	2, 0x0000
    407a:	0000                	.insn	2, 0x0000
    407c:	0000                	.insn	2, 0x0000
    407e:	0000                	.insn	2, 0x0000
    4080:	0000                	.insn	2, 0x0000
    4082:	0000                	.insn	2, 0x0000
    4084:	0000                	.insn	2, 0x0000
    4086:	0000                	.insn	2, 0x0000
    4088:	0000                	.insn	2, 0x0000
    408a:	0000                	.insn	2, 0x0000
    408c:	0000                	.insn	2, 0x0000
    408e:	0000                	.insn	2, 0x0000
    4090:	0000                	.insn	2, 0x0000
    4092:	0000                	.insn	2, 0x0000
    4094:	0000                	.insn	2, 0x0000
    4096:	0000                	.insn	2, 0x0000
    4098:	0000                	.insn	2, 0x0000
    409a:	0000                	.insn	2, 0x0000
    409c:	0000                	.insn	2, 0x0000
    409e:	0000                	.insn	2, 0x0000
    40a0:	0000                	.insn	2, 0x0000
    40a2:	0000                	.insn	2, 0x0000
    40a4:	0000                	.insn	2, 0x0000
    40a6:	0000                	.insn	2, 0x0000
    40a8:	0000                	.insn	2, 0x0000
    40aa:	0000                	.insn	2, 0x0000
    40ac:	0000                	.insn	2, 0x0000
    40ae:	0000                	.insn	2, 0x0000
    40b0:	0000                	.insn	2, 0x0000
    40b2:	0000                	.insn	2, 0x0000
    40b4:	0000                	.insn	2, 0x0000
    40b6:	0000                	.insn	2, 0x0000
    40b8:	0000                	.insn	2, 0x0000
    40ba:	0000                	.insn	2, 0x0000
    40bc:	0000                	.insn	2, 0x0000
    40be:	0000                	.insn	2, 0x0000
    40c0:	0000                	.insn	2, 0x0000
    40c2:	0000                	.insn	2, 0x0000
    40c4:	0000                	.insn	2, 0x0000
    40c6:	0000                	.insn	2, 0x0000
    40c8:	0000                	.insn	2, 0x0000
    40ca:	0000                	.insn	2, 0x0000
    40cc:	0000                	.insn	2, 0x0000
    40ce:	0000                	.insn	2, 0x0000
    40d0:	0000                	.insn	2, 0x0000
    40d2:	0000                	.insn	2, 0x0000
    40d4:	0000                	.insn	2, 0x0000
    40d6:	0000                	.insn	2, 0x0000
    40d8:	0000                	.insn	2, 0x0000
    40da:	0000                	.insn	2, 0x0000
    40dc:	0000                	.insn	2, 0x0000
    40de:	0000                	.insn	2, 0x0000
    40e0:	0000                	.insn	2, 0x0000
    40e2:	0000                	.insn	2, 0x0000
    40e4:	0000                	.insn	2, 0x0000
    40e6:	0000                	.insn	2, 0x0000
    40e8:	0000                	.insn	2, 0x0000
    40ea:	0000                	.insn	2, 0x0000
    40ec:	0000                	.insn	2, 0x0000
    40ee:	0000                	.insn	2, 0x0000
    40f0:	0000                	.insn	2, 0x0000
    40f2:	0000                	.insn	2, 0x0000
    40f4:	0000                	.insn	2, 0x0000
    40f6:	0000                	.insn	2, 0x0000
    40f8:	0000                	.insn	2, 0x0000
    40fa:	0000                	.insn	2, 0x0000
    40fc:	0000                	.insn	2, 0x0000
    40fe:	0000                	.insn	2, 0x0000
    4100:	0000                	.insn	2, 0x0000
    4102:	0000                	.insn	2, 0x0000
    4104:	0000                	.insn	2, 0x0000
    4106:	0000                	.insn	2, 0x0000
    4108:	0000                	.insn	2, 0x0000
    410a:	0000                	.insn	2, 0x0000
    410c:	0000                	.insn	2, 0x0000
    410e:	0000                	.insn	2, 0x0000
    4110:	0000                	.insn	2, 0x0000
    4112:	0000                	.insn	2, 0x0000
    4114:	0000                	.insn	2, 0x0000
    4116:	0000                	.insn	2, 0x0000
    4118:	0000                	.insn	2, 0x0000
    411a:	0000                	.insn	2, 0x0000
    411c:	0000                	.insn	2, 0x0000
    411e:	0000                	.insn	2, 0x0000
    4120:	0000                	.insn	2, 0x0000
    4122:	0000                	.insn	2, 0x0000
    4124:	0000                	.insn	2, 0x0000
    4126:	0000                	.insn	2, 0x0000
    4128:	0000                	.insn	2, 0x0000
    412a:	0000                	.insn	2, 0x0000
    412c:	0000                	.insn	2, 0x0000
    412e:	0000                	.insn	2, 0x0000
    4130:	0000                	.insn	2, 0x0000
    4132:	0000                	.insn	2, 0x0000
    4134:	0000                	.insn	2, 0x0000
    4136:	0000                	.insn	2, 0x0000
    4138:	0000                	.insn	2, 0x0000
    413a:	0000                	.insn	2, 0x0000
    413c:	0000                	.insn	2, 0x0000
    413e:	0000                	.insn	2, 0x0000
    4140:	0000                	.insn	2, 0x0000
    4142:	0000                	.insn	2, 0x0000
    4144:	0000                	.insn	2, 0x0000
    4146:	0000                	.insn	2, 0x0000
    4148:	0000                	.insn	2, 0x0000
    414a:	0000                	.insn	2, 0x0000
    414c:	0000                	.insn	2, 0x0000
    414e:	0000                	.insn	2, 0x0000
    4150:	0000                	.insn	2, 0x0000
    4152:	0000                	.insn	2, 0x0000
    4154:	0000                	.insn	2, 0x0000
    4156:	0000                	.insn	2, 0x0000
    4158:	0000                	.insn	2, 0x0000
    415a:	0000                	.insn	2, 0x0000
    415c:	0000                	.insn	2, 0x0000
    415e:	0000                	.insn	2, 0x0000
    4160:	0000                	.insn	2, 0x0000
    4162:	0000                	.insn	2, 0x0000
    4164:	0000                	.insn	2, 0x0000
    4166:	0000                	.insn	2, 0x0000
    4168:	0000                	.insn	2, 0x0000
    416a:	0000                	.insn	2, 0x0000
    416c:	0000                	.insn	2, 0x0000
    416e:	0000                	.insn	2, 0x0000
    4170:	0000                	.insn	2, 0x0000
    4172:	0000                	.insn	2, 0x0000
    4174:	0000                	.insn	2, 0x0000
    4176:	0000                	.insn	2, 0x0000
    4178:	0000                	.insn	2, 0x0000
    417a:	0000                	.insn	2, 0x0000
    417c:	0000                	.insn	2, 0x0000
    417e:	0000                	.insn	2, 0x0000
    4180:	0000                	.insn	2, 0x0000
    4182:	0000                	.insn	2, 0x0000
    4184:	0000                	.insn	2, 0x0000
    4186:	0000                	.insn	2, 0x0000
    4188:	0000                	.insn	2, 0x0000
    418a:	0000                	.insn	2, 0x0000
    418c:	0000                	.insn	2, 0x0000
    418e:	0000                	.insn	2, 0x0000
    4190:	0000                	.insn	2, 0x0000
    4192:	0000                	.insn	2, 0x0000
    4194:	0000                	.insn	2, 0x0000
    4196:	0000                	.insn	2, 0x0000
    4198:	0000                	.insn	2, 0x0000
    419a:	0000                	.insn	2, 0x0000
    419c:	0000                	.insn	2, 0x0000
    419e:	0000                	.insn	2, 0x0000
    41a0:	0000                	.insn	2, 0x0000
    41a2:	0000                	.insn	2, 0x0000
    41a4:	0000                	.insn	2, 0x0000
    41a6:	0000                	.insn	2, 0x0000
    41a8:	0000                	.insn	2, 0x0000
    41aa:	0000                	.insn	2, 0x0000
    41ac:	0000                	.insn	2, 0x0000
    41ae:	0000                	.insn	2, 0x0000
    41b0:	0000                	.insn	2, 0x0000
    41b2:	0000                	.insn	2, 0x0000
    41b4:	0000                	.insn	2, 0x0000
    41b6:	0000                	.insn	2, 0x0000
    41b8:	0000                	.insn	2, 0x0000
    41ba:	0000                	.insn	2, 0x0000
    41bc:	0000                	.insn	2, 0x0000
    41be:	0000                	.insn	2, 0x0000
    41c0:	0000                	.insn	2, 0x0000
    41c2:	0000                	.insn	2, 0x0000
    41c4:	0000                	.insn	2, 0x0000
    41c6:	0000                	.insn	2, 0x0000
    41c8:	0000                	.insn	2, 0x0000
    41ca:	0000                	.insn	2, 0x0000
    41cc:	0000                	.insn	2, 0x0000
    41ce:	0000                	.insn	2, 0x0000
    41d0:	0000                	.insn	2, 0x0000
    41d2:	0000                	.insn	2, 0x0000
    41d4:	0000                	.insn	2, 0x0000
    41d6:	0000                	.insn	2, 0x0000
    41d8:	0000                	.insn	2, 0x0000
    41da:	0000                	.insn	2, 0x0000
    41dc:	0000                	.insn	2, 0x0000
    41de:	0000                	.insn	2, 0x0000
    41e0:	0000                	.insn	2, 0x0000
    41e2:	0000                	.insn	2, 0x0000
    41e4:	0000                	.insn	2, 0x0000
    41e6:	0000                	.insn	2, 0x0000
    41e8:	0000                	.insn	2, 0x0000
    41ea:	0000                	.insn	2, 0x0000
    41ec:	0000                	.insn	2, 0x0000
    41ee:	0000                	.insn	2, 0x0000
    41f0:	0000                	.insn	2, 0x0000
    41f2:	0000                	.insn	2, 0x0000
    41f4:	0000                	.insn	2, 0x0000
    41f6:	0000                	.insn	2, 0x0000
    41f8:	0000                	.insn	2, 0x0000
    41fa:	0000                	.insn	2, 0x0000
    41fc:	0000                	.insn	2, 0x0000
    41fe:	0000                	.insn	2, 0x0000
    4200:	0000                	.insn	2, 0x0000
    4202:	0000                	.insn	2, 0x0000
    4204:	0000                	.insn	2, 0x0000
    4206:	0000                	.insn	2, 0x0000
    4208:	0000                	.insn	2, 0x0000
    420a:	0000                	.insn	2, 0x0000
    420c:	0000                	.insn	2, 0x0000
    420e:	0000                	.insn	2, 0x0000
    4210:	0000                	.insn	2, 0x0000
    4212:	0000                	.insn	2, 0x0000
    4214:	0000                	.insn	2, 0x0000
    4216:	0000                	.insn	2, 0x0000
    4218:	0000                	.insn	2, 0x0000
    421a:	0000                	.insn	2, 0x0000
    421c:	0000                	.insn	2, 0x0000
    421e:	0000                	.insn	2, 0x0000
    4220:	0000                	.insn	2, 0x0000
    4222:	0000                	.insn	2, 0x0000
    4224:	0000                	.insn	2, 0x0000
    4226:	0000                	.insn	2, 0x0000
    4228:	0000                	.insn	2, 0x0000
    422a:	0000                	.insn	2, 0x0000
    422c:	0000                	.insn	2, 0x0000
    422e:	0000                	.insn	2, 0x0000
    4230:	0000                	.insn	2, 0x0000
    4232:	0000                	.insn	2, 0x0000
    4234:	0000                	.insn	2, 0x0000
    4236:	0000                	.insn	2, 0x0000
    4238:	0000                	.insn	2, 0x0000
    423a:	0000                	.insn	2, 0x0000
    423c:	0000                	.insn	2, 0x0000
    423e:	0000                	.insn	2, 0x0000
    4240:	0000                	.insn	2, 0x0000
    4242:	0000                	.insn	2, 0x0000
    4244:	0000                	.insn	2, 0x0000
    4246:	0000                	.insn	2, 0x0000
    4248:	0000                	.insn	2, 0x0000
    424a:	0000                	.insn	2, 0x0000
    424c:	0000                	.insn	2, 0x0000
    424e:	0000                	.insn	2, 0x0000
    4250:	0000                	.insn	2, 0x0000
    4252:	0000                	.insn	2, 0x0000
    4254:	0000                	.insn	2, 0x0000
    4256:	0000                	.insn	2, 0x0000
    4258:	0000                	.insn	2, 0x0000
    425a:	0000                	.insn	2, 0x0000
    425c:	0000                	.insn	2, 0x0000
    425e:	0000                	.insn	2, 0x0000
    4260:	0000                	.insn	2, 0x0000
    4262:	0000                	.insn	2, 0x0000
    4264:	0000                	.insn	2, 0x0000
    4266:	0000                	.insn	2, 0x0000
    4268:	0000                	.insn	2, 0x0000
    426a:	0000                	.insn	2, 0x0000
    426c:	0000                	.insn	2, 0x0000
    426e:	0000                	.insn	2, 0x0000
    4270:	0000                	.insn	2, 0x0000
    4272:	0000                	.insn	2, 0x0000
    4274:	0000                	.insn	2, 0x0000
    4276:	0000                	.insn	2, 0x0000
    4278:	0000                	.insn	2, 0x0000
    427a:	0000                	.insn	2, 0x0000
    427c:	0000                	.insn	2, 0x0000
    427e:	0000                	.insn	2, 0x0000
    4280:	0000                	.insn	2, 0x0000
    4282:	0000                	.insn	2, 0x0000
    4284:	0000                	.insn	2, 0x0000
    4286:	0000                	.insn	2, 0x0000
    4288:	0000                	.insn	2, 0x0000
    428a:	0000                	.insn	2, 0x0000
    428c:	0000                	.insn	2, 0x0000
    428e:	0000                	.insn	2, 0x0000
    4290:	0000                	.insn	2, 0x0000
    4292:	0000                	.insn	2, 0x0000
    4294:	0000                	.insn	2, 0x0000
    4296:	0000                	.insn	2, 0x0000
    4298:	0000                	.insn	2, 0x0000
    429a:	0000                	.insn	2, 0x0000
    429c:	0000                	.insn	2, 0x0000
    429e:	0000                	.insn	2, 0x0000
    42a0:	0000                	.insn	2, 0x0000
    42a2:	0000                	.insn	2, 0x0000
    42a4:	0000                	.insn	2, 0x0000
    42a6:	0000                	.insn	2, 0x0000
    42a8:	0000                	.insn	2, 0x0000
    42aa:	0000                	.insn	2, 0x0000
    42ac:	0000                	.insn	2, 0x0000
    42ae:	0000                	.insn	2, 0x0000
    42b0:	0000                	.insn	2, 0x0000
    42b2:	0000                	.insn	2, 0x0000
    42b4:	0000                	.insn	2, 0x0000
    42b6:	0000                	.insn	2, 0x0000
    42b8:	0000                	.insn	2, 0x0000
    42ba:	0000                	.insn	2, 0x0000
    42bc:	0000                	.insn	2, 0x0000
    42be:	0000                	.insn	2, 0x0000
    42c0:	0000                	.insn	2, 0x0000
    42c2:	0000                	.insn	2, 0x0000
    42c4:	0000                	.insn	2, 0x0000
    42c6:	0000                	.insn	2, 0x0000
    42c8:	0000                	.insn	2, 0x0000
    42ca:	0000                	.insn	2, 0x0000
    42cc:	0000                	.insn	2, 0x0000
    42ce:	0000                	.insn	2, 0x0000
    42d0:	0000                	.insn	2, 0x0000
    42d2:	0000                	.insn	2, 0x0000
    42d4:	0000                	.insn	2, 0x0000
    42d6:	0000                	.insn	2, 0x0000
    42d8:	0000                	.insn	2, 0x0000
    42da:	0000                	.insn	2, 0x0000
    42dc:	0000                	.insn	2, 0x0000
    42de:	0000                	.insn	2, 0x0000
    42e0:	0000                	.insn	2, 0x0000
    42e2:	0000                	.insn	2, 0x0000
    42e4:	0000                	.insn	2, 0x0000
    42e6:	0000                	.insn	2, 0x0000
    42e8:	0000                	.insn	2, 0x0000
    42ea:	0000                	.insn	2, 0x0000
    42ec:	0000                	.insn	2, 0x0000
    42ee:	0000                	.insn	2, 0x0000
    42f0:	0000                	.insn	2, 0x0000
    42f2:	0000                	.insn	2, 0x0000
    42f4:	0000                	.insn	2, 0x0000
    42f6:	0000                	.insn	2, 0x0000
    42f8:	0000                	.insn	2, 0x0000
    42fa:	0000                	.insn	2, 0x0000
    42fc:	0000                	.insn	2, 0x0000
    42fe:	0000                	.insn	2, 0x0000
    4300:	0000                	.insn	2, 0x0000
    4302:	0000                	.insn	2, 0x0000
    4304:	0000                	.insn	2, 0x0000
    4306:	0000                	.insn	2, 0x0000
    4308:	0000                	.insn	2, 0x0000
    430a:	0000                	.insn	2, 0x0000
    430c:	0000                	.insn	2, 0x0000
    430e:	0000                	.insn	2, 0x0000
    4310:	0000                	.insn	2, 0x0000
    4312:	0000                	.insn	2, 0x0000
    4314:	0000                	.insn	2, 0x0000
    4316:	0000                	.insn	2, 0x0000
    4318:	0000                	.insn	2, 0x0000
    431a:	0000                	.insn	2, 0x0000
    431c:	0000                	.insn	2, 0x0000
    431e:	0000                	.insn	2, 0x0000
    4320:	0000                	.insn	2, 0x0000
    4322:	0000                	.insn	2, 0x0000
    4324:	0000                	.insn	2, 0x0000
    4326:	0000                	.insn	2, 0x0000
    4328:	0000                	.insn	2, 0x0000
    432a:	0000                	.insn	2, 0x0000
    432c:	0000                	.insn	2, 0x0000
    432e:	0000                	.insn	2, 0x0000
    4330:	0000                	.insn	2, 0x0000
    4332:	0000                	.insn	2, 0x0000
    4334:	0000                	.insn	2, 0x0000
    4336:	0000                	.insn	2, 0x0000
    4338:	0000                	.insn	2, 0x0000
    433a:	0000                	.insn	2, 0x0000
    433c:	0000                	.insn	2, 0x0000
    433e:	0000                	.insn	2, 0x0000
    4340:	0000                	.insn	2, 0x0000
    4342:	0000                	.insn	2, 0x0000
    4344:	0000                	.insn	2, 0x0000
    4346:	0000                	.insn	2, 0x0000
    4348:	0000                	.insn	2, 0x0000
    434a:	0000                	.insn	2, 0x0000
    434c:	0000                	.insn	2, 0x0000
    434e:	0000                	.insn	2, 0x0000
    4350:	0000                	.insn	2, 0x0000
    4352:	0000                	.insn	2, 0x0000
    4354:	0000                	.insn	2, 0x0000
    4356:	0000                	.insn	2, 0x0000
    4358:	0000                	.insn	2, 0x0000
    435a:	0000                	.insn	2, 0x0000
    435c:	0000                	.insn	2, 0x0000
    435e:	0000                	.insn	2, 0x0000
    4360:	0000                	.insn	2, 0x0000
    4362:	0000                	.insn	2, 0x0000
    4364:	0000                	.insn	2, 0x0000
    4366:	0000                	.insn	2, 0x0000
    4368:	0000                	.insn	2, 0x0000
    436a:	0000                	.insn	2, 0x0000
    436c:	0000                	.insn	2, 0x0000
    436e:	0000                	.insn	2, 0x0000
    4370:	0000                	.insn	2, 0x0000
    4372:	0000                	.insn	2, 0x0000
    4374:	0000                	.insn	2, 0x0000
    4376:	0000                	.insn	2, 0x0000
    4378:	0000                	.insn	2, 0x0000
    437a:	0000                	.insn	2, 0x0000
    437c:	0000                	.insn	2, 0x0000
    437e:	0000                	.insn	2, 0x0000
    4380:	0000                	.insn	2, 0x0000
    4382:	0000                	.insn	2, 0x0000
    4384:	0000                	.insn	2, 0x0000
    4386:	0000                	.insn	2, 0x0000
    4388:	0000                	.insn	2, 0x0000
    438a:	0000                	.insn	2, 0x0000
    438c:	0000                	.insn	2, 0x0000
    438e:	0000                	.insn	2, 0x0000
    4390:	0000                	.insn	2, 0x0000
    4392:	0000                	.insn	2, 0x0000
    4394:	0000                	.insn	2, 0x0000
    4396:	0000                	.insn	2, 0x0000
    4398:	0000                	.insn	2, 0x0000
    439a:	0000                	.insn	2, 0x0000
    439c:	0000                	.insn	2, 0x0000
    439e:	0000                	.insn	2, 0x0000
    43a0:	0000                	.insn	2, 0x0000
    43a2:	0000                	.insn	2, 0x0000
    43a4:	0000                	.insn	2, 0x0000
    43a6:	0000                	.insn	2, 0x0000
    43a8:	0000                	.insn	2, 0x0000
    43aa:	0000                	.insn	2, 0x0000
    43ac:	0000                	.insn	2, 0x0000
    43ae:	0000                	.insn	2, 0x0000
    43b0:	0000                	.insn	2, 0x0000
    43b2:	0000                	.insn	2, 0x0000
    43b4:	0000                	.insn	2, 0x0000
    43b6:	0000                	.insn	2, 0x0000
    43b8:	0000                	.insn	2, 0x0000
    43ba:	0000                	.insn	2, 0x0000
    43bc:	0000                	.insn	2, 0x0000
    43be:	0000                	.insn	2, 0x0000
    43c0:	0000                	.insn	2, 0x0000
    43c2:	0000                	.insn	2, 0x0000
    43c4:	0000                	.insn	2, 0x0000
    43c6:	0000                	.insn	2, 0x0000
    43c8:	0000                	.insn	2, 0x0000
    43ca:	0000                	.insn	2, 0x0000
    43cc:	0000                	.insn	2, 0x0000
    43ce:	0000                	.insn	2, 0x0000
    43d0:	0000                	.insn	2, 0x0000
    43d2:	0000                	.insn	2, 0x0000
    43d4:	0000                	.insn	2, 0x0000
    43d6:	0000                	.insn	2, 0x0000
    43d8:	0000                	.insn	2, 0x0000
    43da:	0000                	.insn	2, 0x0000
    43dc:	0000                	.insn	2, 0x0000
    43de:	0000                	.insn	2, 0x0000
    43e0:	0000                	.insn	2, 0x0000
    43e2:	0000                	.insn	2, 0x0000
    43e4:	0000                	.insn	2, 0x0000
    43e6:	0000                	.insn	2, 0x0000
    43e8:	0000                	.insn	2, 0x0000
    43ea:	0000                	.insn	2, 0x0000
    43ec:	0000                	.insn	2, 0x0000
    43ee:	0000                	.insn	2, 0x0000
    43f0:	0000                	.insn	2, 0x0000
    43f2:	0000                	.insn	2, 0x0000
    43f4:	0000                	.insn	2, 0x0000
    43f6:	0000                	.insn	2, 0x0000
    43f8:	0000                	.insn	2, 0x0000
    43fa:	0000                	.insn	2, 0x0000
    43fc:	0000                	.insn	2, 0x0000
    43fe:	0000                	.insn	2, 0x0000
    4400:	0000                	.insn	2, 0x0000
    4402:	0000                	.insn	2, 0x0000
    4404:	0000                	.insn	2, 0x0000
    4406:	0000                	.insn	2, 0x0000
    4408:	0000                	.insn	2, 0x0000
    440a:	0000                	.insn	2, 0x0000
    440c:	0000                	.insn	2, 0x0000
    440e:	0000                	.insn	2, 0x0000
    4410:	0000                	.insn	2, 0x0000
    4412:	0000                	.insn	2, 0x0000
    4414:	0000                	.insn	2, 0x0000
    4416:	0000                	.insn	2, 0x0000
    4418:	0000                	.insn	2, 0x0000
    441a:	0000                	.insn	2, 0x0000
    441c:	0000                	.insn	2, 0x0000
    441e:	0000                	.insn	2, 0x0000
    4420:	0000                	.insn	2, 0x0000
    4422:	0000                	.insn	2, 0x0000
    4424:	0000                	.insn	2, 0x0000
    4426:	0000                	.insn	2, 0x0000
    4428:	0000                	.insn	2, 0x0000
    442a:	0000                	.insn	2, 0x0000
    442c:	0000                	.insn	2, 0x0000
    442e:	0000                	.insn	2, 0x0000
    4430:	0000                	.insn	2, 0x0000
    4432:	0000                	.insn	2, 0x0000
    4434:	0000                	.insn	2, 0x0000
    4436:	0000                	.insn	2, 0x0000
    4438:	0000                	.insn	2, 0x0000
    443a:	0000                	.insn	2, 0x0000
    443c:	0000                	.insn	2, 0x0000
    443e:	0000                	.insn	2, 0x0000
    4440:	0000                	.insn	2, 0x0000
    4442:	0000                	.insn	2, 0x0000
    4444:	0000                	.insn	2, 0x0000
    4446:	0000                	.insn	2, 0x0000
    4448:	0000                	.insn	2, 0x0000
    444a:	0000                	.insn	2, 0x0000
    444c:	0000                	.insn	2, 0x0000
    444e:	0000                	.insn	2, 0x0000
    4450:	0000                	.insn	2, 0x0000
    4452:	0000                	.insn	2, 0x0000
    4454:	0000                	.insn	2, 0x0000
    4456:	0000                	.insn	2, 0x0000
    4458:	0000                	.insn	2, 0x0000
    445a:	0000                	.insn	2, 0x0000
    445c:	0000                	.insn	2, 0x0000
    445e:	0000                	.insn	2, 0x0000
    4460:	0000                	.insn	2, 0x0000
    4462:	0000                	.insn	2, 0x0000
    4464:	0000                	.insn	2, 0x0000
    4466:	0000                	.insn	2, 0x0000
    4468:	0000                	.insn	2, 0x0000
    446a:	0000                	.insn	2, 0x0000
    446c:	0000                	.insn	2, 0x0000
    446e:	0000                	.insn	2, 0x0000
    4470:	0000                	.insn	2, 0x0000
    4472:	0000                	.insn	2, 0x0000
    4474:	0000                	.insn	2, 0x0000
    4476:	0000                	.insn	2, 0x0000
    4478:	0000                	.insn	2, 0x0000
    447a:	0000                	.insn	2, 0x0000
    447c:	0000                	.insn	2, 0x0000
    447e:	0000                	.insn	2, 0x0000
    4480:	0000                	.insn	2, 0x0000
    4482:	0000                	.insn	2, 0x0000
    4484:	0000                	.insn	2, 0x0000
    4486:	0000                	.insn	2, 0x0000
    4488:	0000                	.insn	2, 0x0000
    448a:	0000                	.insn	2, 0x0000
    448c:	0000                	.insn	2, 0x0000
    448e:	0000                	.insn	2, 0x0000
    4490:	0000                	.insn	2, 0x0000
    4492:	0000                	.insn	2, 0x0000
    4494:	0000                	.insn	2, 0x0000
    4496:	0000                	.insn	2, 0x0000
    4498:	0000                	.insn	2, 0x0000
    449a:	0000                	.insn	2, 0x0000
    449c:	0000                	.insn	2, 0x0000
    449e:	0000                	.insn	2, 0x0000
    44a0:	0000                	.insn	2, 0x0000
    44a2:	0000                	.insn	2, 0x0000
    44a4:	0000                	.insn	2, 0x0000
    44a6:	0000                	.insn	2, 0x0000
    44a8:	0000                	.insn	2, 0x0000
    44aa:	0000                	.insn	2, 0x0000
    44ac:	0000                	.insn	2, 0x0000
    44ae:	0000                	.insn	2, 0x0000
    44b0:	0000                	.insn	2, 0x0000
    44b2:	0000                	.insn	2, 0x0000
    44b4:	0000                	.insn	2, 0x0000
    44b6:	0000                	.insn	2, 0x0000
    44b8:	0000                	.insn	2, 0x0000
    44ba:	0000                	.insn	2, 0x0000
    44bc:	0000                	.insn	2, 0x0000
    44be:	0000                	.insn	2, 0x0000
    44c0:	0000                	.insn	2, 0x0000
    44c2:	0000                	.insn	2, 0x0000
    44c4:	0000                	.insn	2, 0x0000
    44c6:	0000                	.insn	2, 0x0000
    44c8:	0000                	.insn	2, 0x0000
    44ca:	0000                	.insn	2, 0x0000
    44cc:	0000                	.insn	2, 0x0000
    44ce:	0000                	.insn	2, 0x0000
    44d0:	0000                	.insn	2, 0x0000
    44d2:	0000                	.insn	2, 0x0000
    44d4:	0000                	.insn	2, 0x0000
    44d6:	0000                	.insn	2, 0x0000
    44d8:	0000                	.insn	2, 0x0000
    44da:	0000                	.insn	2, 0x0000
    44dc:	0000                	.insn	2, 0x0000
    44de:	0000                	.insn	2, 0x0000
    44e0:	0000                	.insn	2, 0x0000
    44e2:	0000                	.insn	2, 0x0000
    44e4:	0000                	.insn	2, 0x0000
    44e6:	0000                	.insn	2, 0x0000
    44e8:	0000                	.insn	2, 0x0000
    44ea:	0000                	.insn	2, 0x0000
    44ec:	0000                	.insn	2, 0x0000
    44ee:	0000                	.insn	2, 0x0000
    44f0:	0000                	.insn	2, 0x0000
    44f2:	0000                	.insn	2, 0x0000
    44f4:	0000                	.insn	2, 0x0000
    44f6:	0000                	.insn	2, 0x0000
    44f8:	0000                	.insn	2, 0x0000
    44fa:	0000                	.insn	2, 0x0000
    44fc:	0000                	.insn	2, 0x0000
    44fe:	0000                	.insn	2, 0x0000
    4500:	0000                	.insn	2, 0x0000
    4502:	0000                	.insn	2, 0x0000
    4504:	0000                	.insn	2, 0x0000
    4506:	0000                	.insn	2, 0x0000
    4508:	0000                	.insn	2, 0x0000
    450a:	0000                	.insn	2, 0x0000
    450c:	0000                	.insn	2, 0x0000
    450e:	0000                	.insn	2, 0x0000
    4510:	0000                	.insn	2, 0x0000
    4512:	0000                	.insn	2, 0x0000
    4514:	0000                	.insn	2, 0x0000
    4516:	0000                	.insn	2, 0x0000
    4518:	0000                	.insn	2, 0x0000
    451a:	0000                	.insn	2, 0x0000
    451c:	0000                	.insn	2, 0x0000
    451e:	0000                	.insn	2, 0x0000
    4520:	0000                	.insn	2, 0x0000
    4522:	0000                	.insn	2, 0x0000
    4524:	0000                	.insn	2, 0x0000
    4526:	0000                	.insn	2, 0x0000
    4528:	0000                	.insn	2, 0x0000
    452a:	0000                	.insn	2, 0x0000
    452c:	0000                	.insn	2, 0x0000
    452e:	0000                	.insn	2, 0x0000
    4530:	0000                	.insn	2, 0x0000
    4532:	0000                	.insn	2, 0x0000
    4534:	0000                	.insn	2, 0x0000
    4536:	0000                	.insn	2, 0x0000
    4538:	0000                	.insn	2, 0x0000
    453a:	0000                	.insn	2, 0x0000
    453c:	0000                	.insn	2, 0x0000
    453e:	0000                	.insn	2, 0x0000
    4540:	0000                	.insn	2, 0x0000
    4542:	0000                	.insn	2, 0x0000
    4544:	0000                	.insn	2, 0x0000
    4546:	0000                	.insn	2, 0x0000
    4548:	0000                	.insn	2, 0x0000
    454a:	0000                	.insn	2, 0x0000
    454c:	0000                	.insn	2, 0x0000
    454e:	0000                	.insn	2, 0x0000
    4550:	0000                	.insn	2, 0x0000
    4552:	0000                	.insn	2, 0x0000
    4554:	0000                	.insn	2, 0x0000
    4556:	0000                	.insn	2, 0x0000
    4558:	0000                	.insn	2, 0x0000
    455a:	0000                	.insn	2, 0x0000
    455c:	0000                	.insn	2, 0x0000
    455e:	0000                	.insn	2, 0x0000
    4560:	0000                	.insn	2, 0x0000
    4562:	0000                	.insn	2, 0x0000
    4564:	0000                	.insn	2, 0x0000
    4566:	0000                	.insn	2, 0x0000
    4568:	0000                	.insn	2, 0x0000
    456a:	0000                	.insn	2, 0x0000
    456c:	0000                	.insn	2, 0x0000
    456e:	0000                	.insn	2, 0x0000
    4570:	0000                	.insn	2, 0x0000
    4572:	0000                	.insn	2, 0x0000
    4574:	0000                	.insn	2, 0x0000
    4576:	0000                	.insn	2, 0x0000
    4578:	0000                	.insn	2, 0x0000
    457a:	0000                	.insn	2, 0x0000
    457c:	0000                	.insn	2, 0x0000
    457e:	0000                	.insn	2, 0x0000
    4580:	0000                	.insn	2, 0x0000
    4582:	0000                	.insn	2, 0x0000
    4584:	0000                	.insn	2, 0x0000
    4586:	0000                	.insn	2, 0x0000
    4588:	0000                	.insn	2, 0x0000
    458a:	0000                	.insn	2, 0x0000
    458c:	0000                	.insn	2, 0x0000
    458e:	0000                	.insn	2, 0x0000
    4590:	0000                	.insn	2, 0x0000
    4592:	0000                	.insn	2, 0x0000
    4594:	0000                	.insn	2, 0x0000
    4596:	0000                	.insn	2, 0x0000
    4598:	0000                	.insn	2, 0x0000
    459a:	0000                	.insn	2, 0x0000
    459c:	0000                	.insn	2, 0x0000
    459e:	0000                	.insn	2, 0x0000
    45a0:	0000                	.insn	2, 0x0000
    45a2:	0000                	.insn	2, 0x0000
    45a4:	0000                	.insn	2, 0x0000
    45a6:	0000                	.insn	2, 0x0000
    45a8:	0000                	.insn	2, 0x0000
    45aa:	0000                	.insn	2, 0x0000
    45ac:	0000                	.insn	2, 0x0000
    45ae:	0000                	.insn	2, 0x0000
    45b0:	0000                	.insn	2, 0x0000
    45b2:	0000                	.insn	2, 0x0000
    45b4:	0000                	.insn	2, 0x0000
    45b6:	0000                	.insn	2, 0x0000
    45b8:	0000                	.insn	2, 0x0000
    45ba:	0000                	.insn	2, 0x0000
    45bc:	0000                	.insn	2, 0x0000
    45be:	0000                	.insn	2, 0x0000
    45c0:	0000                	.insn	2, 0x0000
    45c2:	0000                	.insn	2, 0x0000
    45c4:	0000                	.insn	2, 0x0000
    45c6:	0000                	.insn	2, 0x0000
    45c8:	0000                	.insn	2, 0x0000
    45ca:	0000                	.insn	2, 0x0000
    45cc:	0000                	.insn	2, 0x0000
    45ce:	0000                	.insn	2, 0x0000
    45d0:	0000                	.insn	2, 0x0000
    45d2:	0000                	.insn	2, 0x0000
    45d4:	0000                	.insn	2, 0x0000
    45d6:	0000                	.insn	2, 0x0000
    45d8:	0000                	.insn	2, 0x0000
    45da:	0000                	.insn	2, 0x0000
    45dc:	0000                	.insn	2, 0x0000
    45de:	0000                	.insn	2, 0x0000
    45e0:	0000                	.insn	2, 0x0000
    45e2:	0000                	.insn	2, 0x0000
    45e4:	0000                	.insn	2, 0x0000
    45e6:	0000                	.insn	2, 0x0000
    45e8:	0000                	.insn	2, 0x0000
    45ea:	0000                	.insn	2, 0x0000
    45ec:	0000                	.insn	2, 0x0000
    45ee:	0000                	.insn	2, 0x0000
    45f0:	0000                	.insn	2, 0x0000
    45f2:	0000                	.insn	2, 0x0000
    45f4:	0000                	.insn	2, 0x0000
    45f6:	0000                	.insn	2, 0x0000
    45f8:	0000                	.insn	2, 0x0000
    45fa:	0000                	.insn	2, 0x0000
    45fc:	0000                	.insn	2, 0x0000
    45fe:	0000                	.insn	2, 0x0000
    4600:	0000                	.insn	2, 0x0000
    4602:	0000                	.insn	2, 0x0000
    4604:	0000                	.insn	2, 0x0000
    4606:	0000                	.insn	2, 0x0000
    4608:	0000                	.insn	2, 0x0000
    460a:	0000                	.insn	2, 0x0000
    460c:	0000                	.insn	2, 0x0000
    460e:	0000                	.insn	2, 0x0000
    4610:	0000                	.insn	2, 0x0000
    4612:	0000                	.insn	2, 0x0000
    4614:	0000                	.insn	2, 0x0000
    4616:	0000                	.insn	2, 0x0000
    4618:	0000                	.insn	2, 0x0000
    461a:	0000                	.insn	2, 0x0000
    461c:	0000                	.insn	2, 0x0000
    461e:	0000                	.insn	2, 0x0000
    4620:	0000                	.insn	2, 0x0000
    4622:	0000                	.insn	2, 0x0000
    4624:	0000                	.insn	2, 0x0000
    4626:	0000                	.insn	2, 0x0000
    4628:	0000                	.insn	2, 0x0000
    462a:	0000                	.insn	2, 0x0000
    462c:	0000                	.insn	2, 0x0000
    462e:	0000                	.insn	2, 0x0000
    4630:	0000                	.insn	2, 0x0000
    4632:	0000                	.insn	2, 0x0000
    4634:	0000                	.insn	2, 0x0000
    4636:	0000                	.insn	2, 0x0000
    4638:	0000                	.insn	2, 0x0000
    463a:	0000                	.insn	2, 0x0000
    463c:	0000                	.insn	2, 0x0000
    463e:	0000                	.insn	2, 0x0000
    4640:	0000                	.insn	2, 0x0000
    4642:	0000                	.insn	2, 0x0000
    4644:	0000                	.insn	2, 0x0000
    4646:	0000                	.insn	2, 0x0000
    4648:	0000                	.insn	2, 0x0000
    464a:	0000                	.insn	2, 0x0000
    464c:	0000                	.insn	2, 0x0000
    464e:	0000                	.insn	2, 0x0000
    4650:	0000                	.insn	2, 0x0000
    4652:	0000                	.insn	2, 0x0000
    4654:	0000                	.insn	2, 0x0000
    4656:	0000                	.insn	2, 0x0000
    4658:	0000                	.insn	2, 0x0000
    465a:	0000                	.insn	2, 0x0000
    465c:	0000                	.insn	2, 0x0000
    465e:	0000                	.insn	2, 0x0000
    4660:	0000                	.insn	2, 0x0000
    4662:	0000                	.insn	2, 0x0000
    4664:	0000                	.insn	2, 0x0000
    4666:	0000                	.insn	2, 0x0000
    4668:	0000                	.insn	2, 0x0000
    466a:	0000                	.insn	2, 0x0000
    466c:	0000                	.insn	2, 0x0000
    466e:	0000                	.insn	2, 0x0000
    4670:	0000                	.insn	2, 0x0000
    4672:	0000                	.insn	2, 0x0000
    4674:	0000                	.insn	2, 0x0000
    4676:	0000                	.insn	2, 0x0000
    4678:	0000                	.insn	2, 0x0000
    467a:	0000                	.insn	2, 0x0000
    467c:	0000                	.insn	2, 0x0000
    467e:	0000                	.insn	2, 0x0000
    4680:	0000                	.insn	2, 0x0000
    4682:	0000                	.insn	2, 0x0000
    4684:	0000                	.insn	2, 0x0000
    4686:	0000                	.insn	2, 0x0000
    4688:	0000                	.insn	2, 0x0000
    468a:	0000                	.insn	2, 0x0000
    468c:	0000                	.insn	2, 0x0000
    468e:	0000                	.insn	2, 0x0000
    4690:	0000                	.insn	2, 0x0000
    4692:	0000                	.insn	2, 0x0000
    4694:	0000                	.insn	2, 0x0000
    4696:	0000                	.insn	2, 0x0000
    4698:	0000                	.insn	2, 0x0000
    469a:	0000                	.insn	2, 0x0000
    469c:	0000                	.insn	2, 0x0000
    469e:	0000                	.insn	2, 0x0000
    46a0:	0000                	.insn	2, 0x0000
    46a2:	0000                	.insn	2, 0x0000
    46a4:	0000                	.insn	2, 0x0000
    46a6:	0000                	.insn	2, 0x0000
    46a8:	0000                	.insn	2, 0x0000
    46aa:	0000                	.insn	2, 0x0000
    46ac:	0000                	.insn	2, 0x0000
    46ae:	0000                	.insn	2, 0x0000
    46b0:	0000                	.insn	2, 0x0000
    46b2:	0000                	.insn	2, 0x0000
    46b4:	0000                	.insn	2, 0x0000
    46b6:	0000                	.insn	2, 0x0000
    46b8:	0000                	.insn	2, 0x0000
    46ba:	0000                	.insn	2, 0x0000
    46bc:	0000                	.insn	2, 0x0000
    46be:	0000                	.insn	2, 0x0000
    46c0:	0000                	.insn	2, 0x0000
    46c2:	0000                	.insn	2, 0x0000
    46c4:	0000                	.insn	2, 0x0000
    46c6:	0000                	.insn	2, 0x0000
    46c8:	0000                	.insn	2, 0x0000
    46ca:	0000                	.insn	2, 0x0000
    46cc:	0000                	.insn	2, 0x0000
    46ce:	0000                	.insn	2, 0x0000
    46d0:	0000                	.insn	2, 0x0000
    46d2:	0000                	.insn	2, 0x0000
    46d4:	0000                	.insn	2, 0x0000
    46d6:	0000                	.insn	2, 0x0000
    46d8:	0000                	.insn	2, 0x0000
    46da:	0000                	.insn	2, 0x0000
    46dc:	0000                	.insn	2, 0x0000
    46de:	0000                	.insn	2, 0x0000
    46e0:	0000                	.insn	2, 0x0000
    46e2:	0000                	.insn	2, 0x0000
    46e4:	0000                	.insn	2, 0x0000
    46e6:	0000                	.insn	2, 0x0000
    46e8:	0000                	.insn	2, 0x0000
    46ea:	0000                	.insn	2, 0x0000
    46ec:	0000                	.insn	2, 0x0000
    46ee:	0000                	.insn	2, 0x0000
    46f0:	0000                	.insn	2, 0x0000
    46f2:	0000                	.insn	2, 0x0000
    46f4:	0000                	.insn	2, 0x0000
    46f6:	0000                	.insn	2, 0x0000
    46f8:	0000                	.insn	2, 0x0000
    46fa:	0000                	.insn	2, 0x0000
    46fc:	0000                	.insn	2, 0x0000
    46fe:	0000                	.insn	2, 0x0000
    4700:	0000                	.insn	2, 0x0000
    4702:	0000                	.insn	2, 0x0000
    4704:	0000                	.insn	2, 0x0000
    4706:	0000                	.insn	2, 0x0000
    4708:	0000                	.insn	2, 0x0000
    470a:	0000                	.insn	2, 0x0000
    470c:	0000                	.insn	2, 0x0000
    470e:	0000                	.insn	2, 0x0000
    4710:	0000                	.insn	2, 0x0000
    4712:	0000                	.insn	2, 0x0000
    4714:	0000                	.insn	2, 0x0000
    4716:	0000                	.insn	2, 0x0000
    4718:	0000                	.insn	2, 0x0000
    471a:	0000                	.insn	2, 0x0000
    471c:	0000                	.insn	2, 0x0000
    471e:	0000                	.insn	2, 0x0000
    4720:	0000                	.insn	2, 0x0000
    4722:	0000                	.insn	2, 0x0000
    4724:	0000                	.insn	2, 0x0000
    4726:	0000                	.insn	2, 0x0000
    4728:	0000                	.insn	2, 0x0000
    472a:	0000                	.insn	2, 0x0000
    472c:	0000                	.insn	2, 0x0000
    472e:	0000                	.insn	2, 0x0000
    4730:	0000                	.insn	2, 0x0000
    4732:	0000                	.insn	2, 0x0000
    4734:	0000                	.insn	2, 0x0000
    4736:	0000                	.insn	2, 0x0000
    4738:	0000                	.insn	2, 0x0000
    473a:	0000                	.insn	2, 0x0000
    473c:	0000                	.insn	2, 0x0000
    473e:	0000                	.insn	2, 0x0000
    4740:	0000                	.insn	2, 0x0000
    4742:	0000                	.insn	2, 0x0000
    4744:	0000                	.insn	2, 0x0000
    4746:	0000                	.insn	2, 0x0000
    4748:	0000                	.insn	2, 0x0000
    474a:	0000                	.insn	2, 0x0000
    474c:	0000                	.insn	2, 0x0000
    474e:	0000                	.insn	2, 0x0000
    4750:	0000                	.insn	2, 0x0000
    4752:	0000                	.insn	2, 0x0000
    4754:	0000                	.insn	2, 0x0000
    4756:	0000                	.insn	2, 0x0000
    4758:	0000                	.insn	2, 0x0000
    475a:	0000                	.insn	2, 0x0000
    475c:	0000                	.insn	2, 0x0000
    475e:	0000                	.insn	2, 0x0000
    4760:	0000                	.insn	2, 0x0000
    4762:	0000                	.insn	2, 0x0000
    4764:	0000                	.insn	2, 0x0000
    4766:	0000                	.insn	2, 0x0000
    4768:	0000                	.insn	2, 0x0000
    476a:	0000                	.insn	2, 0x0000
    476c:	0000                	.insn	2, 0x0000
    476e:	0000                	.insn	2, 0x0000
    4770:	0000                	.insn	2, 0x0000
    4772:	0000                	.insn	2, 0x0000
    4774:	0000                	.insn	2, 0x0000
    4776:	0000                	.insn	2, 0x0000
    4778:	0000                	.insn	2, 0x0000
    477a:	0000                	.insn	2, 0x0000
    477c:	0000                	.insn	2, 0x0000
    477e:	0000                	.insn	2, 0x0000
    4780:	0000                	.insn	2, 0x0000
    4782:	0000                	.insn	2, 0x0000
    4784:	0000                	.insn	2, 0x0000
    4786:	0000                	.insn	2, 0x0000
    4788:	0000                	.insn	2, 0x0000
    478a:	0000                	.insn	2, 0x0000
    478c:	0000                	.insn	2, 0x0000
    478e:	0000                	.insn	2, 0x0000
    4790:	0000                	.insn	2, 0x0000
    4792:	0000                	.insn	2, 0x0000
    4794:	0000                	.insn	2, 0x0000
    4796:	0000                	.insn	2, 0x0000
    4798:	0000                	.insn	2, 0x0000
    479a:	0000                	.insn	2, 0x0000
    479c:	0000                	.insn	2, 0x0000
    479e:	0000                	.insn	2, 0x0000
    47a0:	0000                	.insn	2, 0x0000
    47a2:	0000                	.insn	2, 0x0000
    47a4:	0000                	.insn	2, 0x0000
    47a6:	0000                	.insn	2, 0x0000
    47a8:	0000                	.insn	2, 0x0000
    47aa:	0000                	.insn	2, 0x0000
    47ac:	0000                	.insn	2, 0x0000
    47ae:	0000                	.insn	2, 0x0000
    47b0:	0000                	.insn	2, 0x0000
    47b2:	0000                	.insn	2, 0x0000
    47b4:	0000                	.insn	2, 0x0000
    47b6:	0000                	.insn	2, 0x0000
    47b8:	0000                	.insn	2, 0x0000
    47ba:	0000                	.insn	2, 0x0000
    47bc:	0000                	.insn	2, 0x0000
    47be:	0000                	.insn	2, 0x0000
    47c0:	0000                	.insn	2, 0x0000
    47c2:	0000                	.insn	2, 0x0000
    47c4:	0000                	.insn	2, 0x0000
    47c6:	0000                	.insn	2, 0x0000
    47c8:	0000                	.insn	2, 0x0000
    47ca:	0000                	.insn	2, 0x0000
    47cc:	0000                	.insn	2, 0x0000
    47ce:	0000                	.insn	2, 0x0000
    47d0:	0000                	.insn	2, 0x0000
    47d2:	0000                	.insn	2, 0x0000
    47d4:	0000                	.insn	2, 0x0000
    47d6:	0000                	.insn	2, 0x0000
    47d8:	0000                	.insn	2, 0x0000
    47da:	0000                	.insn	2, 0x0000
    47dc:	0000                	.insn	2, 0x0000
    47de:	0000                	.insn	2, 0x0000
    47e0:	0000                	.insn	2, 0x0000
    47e2:	0000                	.insn	2, 0x0000
    47e4:	0000                	.insn	2, 0x0000
    47e6:	0000                	.insn	2, 0x0000
    47e8:	0000                	.insn	2, 0x0000
    47ea:	0000                	.insn	2, 0x0000
    47ec:	0000                	.insn	2, 0x0000
    47ee:	0000                	.insn	2, 0x0000
    47f0:	0000                	.insn	2, 0x0000
    47f2:	0000                	.insn	2, 0x0000
    47f4:	0000                	.insn	2, 0x0000
    47f6:	0000                	.insn	2, 0x0000
    47f8:	0000                	.insn	2, 0x0000
    47fa:	0000                	.insn	2, 0x0000
    47fc:	0000                	.insn	2, 0x0000
    47fe:	0000                	.insn	2, 0x0000
    4800:	0000                	.insn	2, 0x0000
    4802:	0000                	.insn	2, 0x0000
    4804:	0000                	.insn	2, 0x0000
    4806:	0000                	.insn	2, 0x0000
    4808:	0000                	.insn	2, 0x0000
    480a:	0000                	.insn	2, 0x0000
    480c:	0000                	.insn	2, 0x0000
    480e:	0000                	.insn	2, 0x0000
    4810:	0000                	.insn	2, 0x0000
    4812:	0000                	.insn	2, 0x0000
    4814:	0000                	.insn	2, 0x0000
    4816:	0000                	.insn	2, 0x0000
    4818:	0000                	.insn	2, 0x0000
    481a:	0000                	.insn	2, 0x0000
    481c:	0000                	.insn	2, 0x0000
    481e:	0000                	.insn	2, 0x0000
    4820:	0000                	.insn	2, 0x0000
    4822:	0000                	.insn	2, 0x0000
    4824:	0000                	.insn	2, 0x0000
    4826:	0000                	.insn	2, 0x0000
    4828:	0000                	.insn	2, 0x0000
    482a:	0000                	.insn	2, 0x0000
    482c:	0000                	.insn	2, 0x0000
    482e:	0000                	.insn	2, 0x0000
    4830:	0000                	.insn	2, 0x0000
    4832:	0000                	.insn	2, 0x0000
    4834:	0000                	.insn	2, 0x0000
    4836:	0000                	.insn	2, 0x0000
    4838:	0000                	.insn	2, 0x0000
    483a:	0000                	.insn	2, 0x0000
    483c:	0000                	.insn	2, 0x0000
    483e:	0000                	.insn	2, 0x0000
    4840:	0000                	.insn	2, 0x0000
    4842:	0000                	.insn	2, 0x0000
    4844:	0000                	.insn	2, 0x0000
    4846:	0000                	.insn	2, 0x0000
    4848:	0000                	.insn	2, 0x0000
    484a:	0000                	.insn	2, 0x0000
    484c:	0000                	.insn	2, 0x0000
    484e:	0000                	.insn	2, 0x0000
    4850:	0000                	.insn	2, 0x0000
    4852:	0000                	.insn	2, 0x0000
    4854:	0000                	.insn	2, 0x0000
    4856:	0000                	.insn	2, 0x0000
    4858:	0000                	.insn	2, 0x0000
    485a:	0000                	.insn	2, 0x0000
    485c:	0000                	.insn	2, 0x0000
    485e:	0000                	.insn	2, 0x0000
    4860:	0000                	.insn	2, 0x0000
    4862:	0000                	.insn	2, 0x0000
    4864:	0000                	.insn	2, 0x0000
    4866:	0000                	.insn	2, 0x0000
    4868:	0000                	.insn	2, 0x0000
    486a:	0000                	.insn	2, 0x0000
    486c:	0000                	.insn	2, 0x0000
    486e:	0000                	.insn	2, 0x0000
    4870:	0000                	.insn	2, 0x0000
    4872:	0000                	.insn	2, 0x0000
    4874:	0000                	.insn	2, 0x0000
    4876:	0000                	.insn	2, 0x0000
    4878:	0000                	.insn	2, 0x0000
    487a:	0000                	.insn	2, 0x0000
    487c:	0000                	.insn	2, 0x0000
    487e:	0000                	.insn	2, 0x0000
    4880:	0000                	.insn	2, 0x0000
    4882:	0000                	.insn	2, 0x0000
    4884:	0000                	.insn	2, 0x0000
    4886:	0000                	.insn	2, 0x0000
    4888:	0000                	.insn	2, 0x0000
    488a:	0000                	.insn	2, 0x0000
    488c:	0000                	.insn	2, 0x0000
    488e:	0000                	.insn	2, 0x0000
    4890:	0000                	.insn	2, 0x0000
    4892:	0000                	.insn	2, 0x0000
    4894:	0000                	.insn	2, 0x0000
    4896:	0000                	.insn	2, 0x0000
    4898:	0000                	.insn	2, 0x0000
    489a:	0000                	.insn	2, 0x0000
    489c:	0000                	.insn	2, 0x0000
    489e:	0000                	.insn	2, 0x0000
    48a0:	0000                	.insn	2, 0x0000
    48a2:	0000                	.insn	2, 0x0000
    48a4:	0000                	.insn	2, 0x0000
    48a6:	0000                	.insn	2, 0x0000
    48a8:	0000                	.insn	2, 0x0000
    48aa:	0000                	.insn	2, 0x0000
    48ac:	0000                	.insn	2, 0x0000
    48ae:	0000                	.insn	2, 0x0000
    48b0:	0000                	.insn	2, 0x0000
    48b2:	0000                	.insn	2, 0x0000
    48b4:	0000                	.insn	2, 0x0000
    48b6:	0000                	.insn	2, 0x0000
    48b8:	0000                	.insn	2, 0x0000
    48ba:	0000                	.insn	2, 0x0000
    48bc:	0000                	.insn	2, 0x0000
    48be:	0000                	.insn	2, 0x0000
    48c0:	0000                	.insn	2, 0x0000
    48c2:	0000                	.insn	2, 0x0000
    48c4:	0000                	.insn	2, 0x0000
    48c6:	0000                	.insn	2, 0x0000
    48c8:	0000                	.insn	2, 0x0000
    48ca:	0000                	.insn	2, 0x0000
    48cc:	0000                	.insn	2, 0x0000
    48ce:	0000                	.insn	2, 0x0000
    48d0:	0000                	.insn	2, 0x0000
    48d2:	0000                	.insn	2, 0x0000
    48d4:	0000                	.insn	2, 0x0000
    48d6:	0000                	.insn	2, 0x0000
    48d8:	0000                	.insn	2, 0x0000
    48da:	0000                	.insn	2, 0x0000
    48dc:	0000                	.insn	2, 0x0000
    48de:	0000                	.insn	2, 0x0000
    48e0:	0000                	.insn	2, 0x0000
    48e2:	0000                	.insn	2, 0x0000
    48e4:	0000                	.insn	2, 0x0000
    48e6:	0000                	.insn	2, 0x0000
    48e8:	0000                	.insn	2, 0x0000
    48ea:	0000                	.insn	2, 0x0000
    48ec:	0000                	.insn	2, 0x0000
    48ee:	0000                	.insn	2, 0x0000
    48f0:	0000                	.insn	2, 0x0000
    48f2:	0000                	.insn	2, 0x0000
    48f4:	0000                	.insn	2, 0x0000
    48f6:	0000                	.insn	2, 0x0000
    48f8:	0000                	.insn	2, 0x0000
    48fa:	0000                	.insn	2, 0x0000
    48fc:	0000                	.insn	2, 0x0000
    48fe:	0000                	.insn	2, 0x0000
    4900:	0000                	.insn	2, 0x0000
    4902:	0000                	.insn	2, 0x0000
    4904:	0000                	.insn	2, 0x0000
    4906:	0000                	.insn	2, 0x0000
    4908:	0000                	.insn	2, 0x0000
    490a:	0000                	.insn	2, 0x0000
    490c:	0000                	.insn	2, 0x0000
    490e:	0000                	.insn	2, 0x0000
    4910:	0000                	.insn	2, 0x0000
    4912:	0000                	.insn	2, 0x0000
    4914:	0000                	.insn	2, 0x0000
    4916:	0000                	.insn	2, 0x0000
    4918:	0000                	.insn	2, 0x0000
    491a:	0000                	.insn	2, 0x0000
    491c:	0000                	.insn	2, 0x0000
    491e:	0000                	.insn	2, 0x0000
    4920:	0000                	.insn	2, 0x0000
    4922:	0000                	.insn	2, 0x0000
    4924:	0000                	.insn	2, 0x0000
    4926:	0000                	.insn	2, 0x0000
    4928:	0000                	.insn	2, 0x0000
    492a:	0000                	.insn	2, 0x0000
    492c:	0000                	.insn	2, 0x0000
    492e:	0000                	.insn	2, 0x0000
    4930:	0000                	.insn	2, 0x0000
    4932:	0000                	.insn	2, 0x0000
    4934:	0000                	.insn	2, 0x0000
    4936:	0000                	.insn	2, 0x0000
    4938:	0000                	.insn	2, 0x0000
    493a:	0000                	.insn	2, 0x0000
    493c:	0000                	.insn	2, 0x0000
    493e:	0000                	.insn	2, 0x0000
    4940:	0000                	.insn	2, 0x0000
    4942:	0000                	.insn	2, 0x0000
    4944:	0000                	.insn	2, 0x0000
    4946:	0000                	.insn	2, 0x0000
    4948:	0000                	.insn	2, 0x0000
    494a:	0000                	.insn	2, 0x0000
    494c:	0000                	.insn	2, 0x0000
    494e:	0000                	.insn	2, 0x0000
    4950:	0000                	.insn	2, 0x0000
    4952:	0000                	.insn	2, 0x0000
    4954:	0000                	.insn	2, 0x0000
    4956:	0000                	.insn	2, 0x0000
    4958:	0000                	.insn	2, 0x0000
    495a:	0000                	.insn	2, 0x0000
    495c:	0000                	.insn	2, 0x0000
    495e:	0000                	.insn	2, 0x0000
    4960:	0000                	.insn	2, 0x0000
    4962:	0000                	.insn	2, 0x0000
    4964:	0000                	.insn	2, 0x0000
    4966:	0000                	.insn	2, 0x0000
    4968:	0000                	.insn	2, 0x0000
    496a:	0000                	.insn	2, 0x0000
    496c:	0000                	.insn	2, 0x0000
    496e:	0000                	.insn	2, 0x0000
    4970:	0000                	.insn	2, 0x0000
    4972:	0000                	.insn	2, 0x0000
    4974:	0000                	.insn	2, 0x0000
    4976:	0000                	.insn	2, 0x0000
    4978:	0000                	.insn	2, 0x0000
    497a:	0000                	.insn	2, 0x0000
    497c:	0000                	.insn	2, 0x0000
    497e:	0000                	.insn	2, 0x0000
    4980:	0000                	.insn	2, 0x0000
    4982:	0000                	.insn	2, 0x0000
    4984:	0000                	.insn	2, 0x0000
    4986:	0000                	.insn	2, 0x0000
    4988:	0000                	.insn	2, 0x0000
    498a:	0000                	.insn	2, 0x0000
    498c:	0000                	.insn	2, 0x0000
    498e:	0000                	.insn	2, 0x0000
    4990:	0000                	.insn	2, 0x0000
    4992:	0000                	.insn	2, 0x0000
    4994:	0000                	.insn	2, 0x0000
    4996:	0000                	.insn	2, 0x0000
    4998:	0000                	.insn	2, 0x0000
    499a:	0000                	.insn	2, 0x0000
    499c:	0000                	.insn	2, 0x0000
    499e:	0000                	.insn	2, 0x0000
    49a0:	0000                	.insn	2, 0x0000
    49a2:	0000                	.insn	2, 0x0000
    49a4:	0000                	.insn	2, 0x0000
    49a6:	0000                	.insn	2, 0x0000
    49a8:	0000                	.insn	2, 0x0000
    49aa:	0000                	.insn	2, 0x0000
    49ac:	0000                	.insn	2, 0x0000
    49ae:	0000                	.insn	2, 0x0000
    49b0:	0000                	.insn	2, 0x0000
    49b2:	0000                	.insn	2, 0x0000
    49b4:	0000                	.insn	2, 0x0000
    49b6:	0000                	.insn	2, 0x0000
    49b8:	0000                	.insn	2, 0x0000
    49ba:	0000                	.insn	2, 0x0000
    49bc:	0000                	.insn	2, 0x0000
    49be:	0000                	.insn	2, 0x0000
    49c0:	0000                	.insn	2, 0x0000
    49c2:	0000                	.insn	2, 0x0000
    49c4:	0000                	.insn	2, 0x0000
    49c6:	0000                	.insn	2, 0x0000
    49c8:	0000                	.insn	2, 0x0000
    49ca:	0000                	.insn	2, 0x0000
    49cc:	0000                	.insn	2, 0x0000
    49ce:	0000                	.insn	2, 0x0000
    49d0:	0000                	.insn	2, 0x0000
    49d2:	0000                	.insn	2, 0x0000
    49d4:	0000                	.insn	2, 0x0000
    49d6:	0000                	.insn	2, 0x0000
    49d8:	0000                	.insn	2, 0x0000
    49da:	0000                	.insn	2, 0x0000
    49dc:	0000                	.insn	2, 0x0000
    49de:	0000                	.insn	2, 0x0000
    49e0:	0000                	.insn	2, 0x0000
    49e2:	0000                	.insn	2, 0x0000
    49e4:	0000                	.insn	2, 0x0000
    49e6:	0000                	.insn	2, 0x0000
    49e8:	0000                	.insn	2, 0x0000
    49ea:	0000                	.insn	2, 0x0000
    49ec:	0000                	.insn	2, 0x0000
    49ee:	0000                	.insn	2, 0x0000
    49f0:	0000                	.insn	2, 0x0000
    49f2:	0000                	.insn	2, 0x0000
    49f4:	0000                	.insn	2, 0x0000
    49f6:	0000                	.insn	2, 0x0000
    49f8:	0000                	.insn	2, 0x0000
    49fa:	0000                	.insn	2, 0x0000
    49fc:	0000                	.insn	2, 0x0000
    49fe:	0000                	.insn	2, 0x0000
    4a00:	0000                	.insn	2, 0x0000
    4a02:	0000                	.insn	2, 0x0000
    4a04:	0000                	.insn	2, 0x0000
    4a06:	0000                	.insn	2, 0x0000
    4a08:	0000                	.insn	2, 0x0000
    4a0a:	0000                	.insn	2, 0x0000
    4a0c:	0000                	.insn	2, 0x0000
    4a0e:	0000                	.insn	2, 0x0000
    4a10:	0000                	.insn	2, 0x0000
    4a12:	0000                	.insn	2, 0x0000
    4a14:	0000                	.insn	2, 0x0000
    4a16:	0000                	.insn	2, 0x0000
    4a18:	0000                	.insn	2, 0x0000
    4a1a:	0000                	.insn	2, 0x0000
    4a1c:	0000                	.insn	2, 0x0000
    4a1e:	0000                	.insn	2, 0x0000
    4a20:	0000                	.insn	2, 0x0000
    4a22:	0000                	.insn	2, 0x0000
    4a24:	0000                	.insn	2, 0x0000
    4a26:	0000                	.insn	2, 0x0000
    4a28:	0000                	.insn	2, 0x0000
    4a2a:	0000                	.insn	2, 0x0000
    4a2c:	0000                	.insn	2, 0x0000
    4a2e:	0000                	.insn	2, 0x0000
    4a30:	0000                	.insn	2, 0x0000
    4a32:	0000                	.insn	2, 0x0000
    4a34:	0000                	.insn	2, 0x0000
    4a36:	0000                	.insn	2, 0x0000
    4a38:	0000                	.insn	2, 0x0000
    4a3a:	0000                	.insn	2, 0x0000
    4a3c:	0000                	.insn	2, 0x0000
    4a3e:	0000                	.insn	2, 0x0000
    4a40:	0000                	.insn	2, 0x0000
    4a42:	0000                	.insn	2, 0x0000
    4a44:	0000                	.insn	2, 0x0000
    4a46:	0000                	.insn	2, 0x0000
    4a48:	0000                	.insn	2, 0x0000
    4a4a:	0000                	.insn	2, 0x0000
    4a4c:	0000                	.insn	2, 0x0000
    4a4e:	0000                	.insn	2, 0x0000
    4a50:	0000                	.insn	2, 0x0000
    4a52:	0000                	.insn	2, 0x0000
    4a54:	0000                	.insn	2, 0x0000
    4a56:	0000                	.insn	2, 0x0000
    4a58:	0000                	.insn	2, 0x0000
    4a5a:	0000                	.insn	2, 0x0000
    4a5c:	0000                	.insn	2, 0x0000
    4a5e:	0000                	.insn	2, 0x0000
    4a60:	0000                	.insn	2, 0x0000
    4a62:	0000                	.insn	2, 0x0000
    4a64:	0000                	.insn	2, 0x0000
    4a66:	0000                	.insn	2, 0x0000
    4a68:	0000                	.insn	2, 0x0000
    4a6a:	0000                	.insn	2, 0x0000
    4a6c:	0000                	.insn	2, 0x0000
    4a6e:	0000                	.insn	2, 0x0000
    4a70:	0000                	.insn	2, 0x0000
    4a72:	0000                	.insn	2, 0x0000
    4a74:	0000                	.insn	2, 0x0000
    4a76:	0000                	.insn	2, 0x0000
    4a78:	0000                	.insn	2, 0x0000
    4a7a:	0000                	.insn	2, 0x0000
    4a7c:	0000                	.insn	2, 0x0000
    4a7e:	0000                	.insn	2, 0x0000
    4a80:	0000                	.insn	2, 0x0000
    4a82:	0000                	.insn	2, 0x0000
    4a84:	0000                	.insn	2, 0x0000
    4a86:	0000                	.insn	2, 0x0000
    4a88:	0000                	.insn	2, 0x0000
    4a8a:	0000                	.insn	2, 0x0000
    4a8c:	0000                	.insn	2, 0x0000
    4a8e:	0000                	.insn	2, 0x0000
    4a90:	0000                	.insn	2, 0x0000
    4a92:	0000                	.insn	2, 0x0000
    4a94:	0000                	.insn	2, 0x0000
    4a96:	0000                	.insn	2, 0x0000
    4a98:	0000                	.insn	2, 0x0000
    4a9a:	0000                	.insn	2, 0x0000
    4a9c:	0000                	.insn	2, 0x0000
    4a9e:	0000                	.insn	2, 0x0000
    4aa0:	0000                	.insn	2, 0x0000
    4aa2:	0000                	.insn	2, 0x0000
    4aa4:	0000                	.insn	2, 0x0000
    4aa6:	0000                	.insn	2, 0x0000
    4aa8:	0000                	.insn	2, 0x0000
    4aaa:	0000                	.insn	2, 0x0000
    4aac:	0000                	.insn	2, 0x0000
    4aae:	0000                	.insn	2, 0x0000
    4ab0:	0000                	.insn	2, 0x0000
    4ab2:	0000                	.insn	2, 0x0000
    4ab4:	0000                	.insn	2, 0x0000
    4ab6:	0000                	.insn	2, 0x0000
    4ab8:	0000                	.insn	2, 0x0000
    4aba:	0000                	.insn	2, 0x0000
    4abc:	0000                	.insn	2, 0x0000
    4abe:	0000                	.insn	2, 0x0000
    4ac0:	0000                	.insn	2, 0x0000
    4ac2:	0000                	.insn	2, 0x0000
    4ac4:	0000                	.insn	2, 0x0000
    4ac6:	0000                	.insn	2, 0x0000
    4ac8:	0000                	.insn	2, 0x0000
    4aca:	0000                	.insn	2, 0x0000
    4acc:	0000                	.insn	2, 0x0000
    4ace:	0000                	.insn	2, 0x0000
    4ad0:	0000                	.insn	2, 0x0000
    4ad2:	0000                	.insn	2, 0x0000
    4ad4:	0000                	.insn	2, 0x0000
    4ad6:	0000                	.insn	2, 0x0000
    4ad8:	0000                	.insn	2, 0x0000
    4ada:	0000                	.insn	2, 0x0000
    4adc:	0000                	.insn	2, 0x0000
    4ade:	0000                	.insn	2, 0x0000
    4ae0:	0000                	.insn	2, 0x0000
    4ae2:	0000                	.insn	2, 0x0000
    4ae4:	0000                	.insn	2, 0x0000
    4ae6:	0000                	.insn	2, 0x0000
    4ae8:	0000                	.insn	2, 0x0000
    4aea:	0000                	.insn	2, 0x0000
    4aec:	0000                	.insn	2, 0x0000
    4aee:	0000                	.insn	2, 0x0000
    4af0:	0000                	.insn	2, 0x0000
    4af2:	0000                	.insn	2, 0x0000
    4af4:	0000                	.insn	2, 0x0000
    4af6:	0000                	.insn	2, 0x0000
    4af8:	0000                	.insn	2, 0x0000
    4afa:	0000                	.insn	2, 0x0000
    4afc:	0000                	.insn	2, 0x0000
    4afe:	0000                	.insn	2, 0x0000
    4b00:	0000                	.insn	2, 0x0000
    4b02:	0000                	.insn	2, 0x0000
    4b04:	0000                	.insn	2, 0x0000
    4b06:	0000                	.insn	2, 0x0000
    4b08:	0000                	.insn	2, 0x0000
    4b0a:	0000                	.insn	2, 0x0000
    4b0c:	0000                	.insn	2, 0x0000
    4b0e:	0000                	.insn	2, 0x0000
    4b10:	0000                	.insn	2, 0x0000
    4b12:	0000                	.insn	2, 0x0000
    4b14:	0000                	.insn	2, 0x0000
    4b16:	0000                	.insn	2, 0x0000
    4b18:	0000                	.insn	2, 0x0000
    4b1a:	0000                	.insn	2, 0x0000
    4b1c:	0000                	.insn	2, 0x0000
    4b1e:	0000                	.insn	2, 0x0000
    4b20:	0000                	.insn	2, 0x0000
    4b22:	0000                	.insn	2, 0x0000
    4b24:	0000                	.insn	2, 0x0000
    4b26:	0000                	.insn	2, 0x0000
    4b28:	0000                	.insn	2, 0x0000
    4b2a:	0000                	.insn	2, 0x0000
    4b2c:	0000                	.insn	2, 0x0000
    4b2e:	0000                	.insn	2, 0x0000
    4b30:	0000                	.insn	2, 0x0000
    4b32:	0000                	.insn	2, 0x0000
    4b34:	0000                	.insn	2, 0x0000
    4b36:	0000                	.insn	2, 0x0000
    4b38:	0000                	.insn	2, 0x0000
    4b3a:	0000                	.insn	2, 0x0000
    4b3c:	0000                	.insn	2, 0x0000
    4b3e:	0000                	.insn	2, 0x0000
    4b40:	0000                	.insn	2, 0x0000
    4b42:	0000                	.insn	2, 0x0000
    4b44:	0000                	.insn	2, 0x0000
    4b46:	0000                	.insn	2, 0x0000
    4b48:	0000                	.insn	2, 0x0000
    4b4a:	0000                	.insn	2, 0x0000
    4b4c:	0000                	.insn	2, 0x0000
    4b4e:	0000                	.insn	2, 0x0000
    4b50:	0000                	.insn	2, 0x0000
    4b52:	0000                	.insn	2, 0x0000
    4b54:	0000                	.insn	2, 0x0000
    4b56:	0000                	.insn	2, 0x0000
    4b58:	0000                	.insn	2, 0x0000
    4b5a:	0000                	.insn	2, 0x0000
    4b5c:	0000                	.insn	2, 0x0000
    4b5e:	0000                	.insn	2, 0x0000
    4b60:	0000                	.insn	2, 0x0000
    4b62:	0000                	.insn	2, 0x0000
    4b64:	0000                	.insn	2, 0x0000
    4b66:	0000                	.insn	2, 0x0000
    4b68:	0000                	.insn	2, 0x0000
    4b6a:	0000                	.insn	2, 0x0000
    4b6c:	0000                	.insn	2, 0x0000
    4b6e:	0000                	.insn	2, 0x0000
    4b70:	0000                	.insn	2, 0x0000
    4b72:	0000                	.insn	2, 0x0000
    4b74:	0000                	.insn	2, 0x0000
    4b76:	0000                	.insn	2, 0x0000
    4b78:	0000                	.insn	2, 0x0000
    4b7a:	0000                	.insn	2, 0x0000
    4b7c:	0000                	.insn	2, 0x0000
    4b7e:	0000                	.insn	2, 0x0000
    4b80:	0000                	.insn	2, 0x0000
    4b82:	0000                	.insn	2, 0x0000
    4b84:	0000                	.insn	2, 0x0000
    4b86:	0000                	.insn	2, 0x0000
    4b88:	0000                	.insn	2, 0x0000
    4b8a:	0000                	.insn	2, 0x0000
    4b8c:	0000                	.insn	2, 0x0000
    4b8e:	0000                	.insn	2, 0x0000
    4b90:	0000                	.insn	2, 0x0000
    4b92:	0000                	.insn	2, 0x0000
    4b94:	0000                	.insn	2, 0x0000
    4b96:	0000                	.insn	2, 0x0000
    4b98:	0000                	.insn	2, 0x0000
    4b9a:	0000                	.insn	2, 0x0000
    4b9c:	0000                	.insn	2, 0x0000
    4b9e:	0000                	.insn	2, 0x0000
    4ba0:	0000                	.insn	2, 0x0000
    4ba2:	0000                	.insn	2, 0x0000
    4ba4:	0000                	.insn	2, 0x0000
    4ba6:	0000                	.insn	2, 0x0000
    4ba8:	0000                	.insn	2, 0x0000
    4baa:	0000                	.insn	2, 0x0000
    4bac:	0000                	.insn	2, 0x0000
    4bae:	0000                	.insn	2, 0x0000
    4bb0:	0000                	.insn	2, 0x0000
    4bb2:	0000                	.insn	2, 0x0000
    4bb4:	0000                	.insn	2, 0x0000
    4bb6:	0000                	.insn	2, 0x0000
    4bb8:	0000                	.insn	2, 0x0000
    4bba:	0000                	.insn	2, 0x0000
    4bbc:	0000                	.insn	2, 0x0000
    4bbe:	0000                	.insn	2, 0x0000
    4bc0:	0000                	.insn	2, 0x0000
    4bc2:	0000                	.insn	2, 0x0000
    4bc4:	0000                	.insn	2, 0x0000
    4bc6:	0000                	.insn	2, 0x0000
    4bc8:	0000                	.insn	2, 0x0000
    4bca:	0000                	.insn	2, 0x0000
    4bcc:	0000                	.insn	2, 0x0000
    4bce:	0000                	.insn	2, 0x0000
    4bd0:	0000                	.insn	2, 0x0000
    4bd2:	0000                	.insn	2, 0x0000
    4bd4:	0000                	.insn	2, 0x0000
    4bd6:	0000                	.insn	2, 0x0000
    4bd8:	0000                	.insn	2, 0x0000
    4bda:	0000                	.insn	2, 0x0000
    4bdc:	0000                	.insn	2, 0x0000
    4bde:	0000                	.insn	2, 0x0000
    4be0:	0000                	.insn	2, 0x0000
    4be2:	0000                	.insn	2, 0x0000
    4be4:	0000                	.insn	2, 0x0000
    4be6:	0000                	.insn	2, 0x0000
    4be8:	0000                	.insn	2, 0x0000
    4bea:	0000                	.insn	2, 0x0000
    4bec:	0000                	.insn	2, 0x0000
    4bee:	0000                	.insn	2, 0x0000
    4bf0:	0000                	.insn	2, 0x0000
    4bf2:	0000                	.insn	2, 0x0000
    4bf4:	0000                	.insn	2, 0x0000
    4bf6:	0000                	.insn	2, 0x0000
    4bf8:	0000                	.insn	2, 0x0000
    4bfa:	0000                	.insn	2, 0x0000
    4bfc:	0000                	.insn	2, 0x0000
    4bfe:	0000                	.insn	2, 0x0000
    4c00:	0000                	.insn	2, 0x0000
    4c02:	0000                	.insn	2, 0x0000
    4c04:	0000                	.insn	2, 0x0000
    4c06:	0000                	.insn	2, 0x0000
    4c08:	0000                	.insn	2, 0x0000
    4c0a:	0000                	.insn	2, 0x0000
    4c0c:	0000                	.insn	2, 0x0000
    4c0e:	0000                	.insn	2, 0x0000
    4c10:	0000                	.insn	2, 0x0000
    4c12:	0000                	.insn	2, 0x0000
    4c14:	0000                	.insn	2, 0x0000
    4c16:	0000                	.insn	2, 0x0000
    4c18:	0000                	.insn	2, 0x0000
    4c1a:	0000                	.insn	2, 0x0000
    4c1c:	0000                	.insn	2, 0x0000
    4c1e:	0000                	.insn	2, 0x0000
    4c20:	0000                	.insn	2, 0x0000
    4c22:	0000                	.insn	2, 0x0000
    4c24:	0000                	.insn	2, 0x0000
    4c26:	0000                	.insn	2, 0x0000
    4c28:	0000                	.insn	2, 0x0000
    4c2a:	0000                	.insn	2, 0x0000
    4c2c:	0000                	.insn	2, 0x0000
    4c2e:	0000                	.insn	2, 0x0000
    4c30:	0000                	.insn	2, 0x0000
    4c32:	0000                	.insn	2, 0x0000
    4c34:	0000                	.insn	2, 0x0000
    4c36:	0000                	.insn	2, 0x0000
    4c38:	0000                	.insn	2, 0x0000
    4c3a:	0000                	.insn	2, 0x0000
    4c3c:	0000                	.insn	2, 0x0000
    4c3e:	0000                	.insn	2, 0x0000
    4c40:	0000                	.insn	2, 0x0000
    4c42:	0000                	.insn	2, 0x0000
    4c44:	0000                	.insn	2, 0x0000
    4c46:	0000                	.insn	2, 0x0000
    4c48:	0000                	.insn	2, 0x0000
    4c4a:	0000                	.insn	2, 0x0000
    4c4c:	0000                	.insn	2, 0x0000
    4c4e:	0000                	.insn	2, 0x0000
    4c50:	0000                	.insn	2, 0x0000
    4c52:	0000                	.insn	2, 0x0000
    4c54:	0000                	.insn	2, 0x0000
    4c56:	0000                	.insn	2, 0x0000
    4c58:	0000                	.insn	2, 0x0000
    4c5a:	0000                	.insn	2, 0x0000
    4c5c:	0000                	.insn	2, 0x0000
    4c5e:	0000                	.insn	2, 0x0000
    4c60:	0000                	.insn	2, 0x0000
    4c62:	0000                	.insn	2, 0x0000
    4c64:	0000                	.insn	2, 0x0000
    4c66:	0000                	.insn	2, 0x0000
    4c68:	0000                	.insn	2, 0x0000
    4c6a:	0000                	.insn	2, 0x0000
    4c6c:	0000                	.insn	2, 0x0000
    4c6e:	0000                	.insn	2, 0x0000
    4c70:	0000                	.insn	2, 0x0000
    4c72:	0000                	.insn	2, 0x0000
    4c74:	0000                	.insn	2, 0x0000
    4c76:	0000                	.insn	2, 0x0000
    4c78:	0000                	.insn	2, 0x0000
    4c7a:	0000                	.insn	2, 0x0000
    4c7c:	0000                	.insn	2, 0x0000
    4c7e:	0000                	.insn	2, 0x0000
    4c80:	0000                	.insn	2, 0x0000
    4c82:	0000                	.insn	2, 0x0000
    4c84:	0000                	.insn	2, 0x0000
    4c86:	0000                	.insn	2, 0x0000
    4c88:	0000                	.insn	2, 0x0000
    4c8a:	0000                	.insn	2, 0x0000
    4c8c:	0000                	.insn	2, 0x0000
    4c8e:	0000                	.insn	2, 0x0000
    4c90:	0000                	.insn	2, 0x0000
    4c92:	0000                	.insn	2, 0x0000
    4c94:	0000                	.insn	2, 0x0000
    4c96:	0000                	.insn	2, 0x0000
    4c98:	0000                	.insn	2, 0x0000
    4c9a:	0000                	.insn	2, 0x0000
    4c9c:	0000                	.insn	2, 0x0000
    4c9e:	0000                	.insn	2, 0x0000
    4ca0:	0000                	.insn	2, 0x0000
    4ca2:	0000                	.insn	2, 0x0000
    4ca4:	0000                	.insn	2, 0x0000
    4ca6:	0000                	.insn	2, 0x0000
    4ca8:	0000                	.insn	2, 0x0000
    4caa:	0000                	.insn	2, 0x0000
    4cac:	0000                	.insn	2, 0x0000
    4cae:	0000                	.insn	2, 0x0000
    4cb0:	0000                	.insn	2, 0x0000
    4cb2:	0000                	.insn	2, 0x0000
    4cb4:	0000                	.insn	2, 0x0000
    4cb6:	0000                	.insn	2, 0x0000
    4cb8:	0000                	.insn	2, 0x0000
    4cba:	0000                	.insn	2, 0x0000
    4cbc:	0000                	.insn	2, 0x0000
    4cbe:	0000                	.insn	2, 0x0000
    4cc0:	0000                	.insn	2, 0x0000
    4cc2:	0000                	.insn	2, 0x0000
    4cc4:	0000                	.insn	2, 0x0000
    4cc6:	0000                	.insn	2, 0x0000
    4cc8:	0000                	.insn	2, 0x0000
    4cca:	0000                	.insn	2, 0x0000
    4ccc:	0000                	.insn	2, 0x0000
    4cce:	0000                	.insn	2, 0x0000
    4cd0:	0000                	.insn	2, 0x0000
    4cd2:	0000                	.insn	2, 0x0000
    4cd4:	0000                	.insn	2, 0x0000
    4cd6:	0000                	.insn	2, 0x0000
    4cd8:	0000                	.insn	2, 0x0000
    4cda:	0000                	.insn	2, 0x0000
    4cdc:	0000                	.insn	2, 0x0000
    4cde:	0000                	.insn	2, 0x0000
    4ce0:	0000                	.insn	2, 0x0000
    4ce2:	0000                	.insn	2, 0x0000
    4ce4:	0000                	.insn	2, 0x0000
    4ce6:	0000                	.insn	2, 0x0000
    4ce8:	0000                	.insn	2, 0x0000
    4cea:	0000                	.insn	2, 0x0000
    4cec:	0000                	.insn	2, 0x0000
    4cee:	0000                	.insn	2, 0x0000
    4cf0:	0000                	.insn	2, 0x0000
    4cf2:	0000                	.insn	2, 0x0000
    4cf4:	0000                	.insn	2, 0x0000
    4cf6:	0000                	.insn	2, 0x0000
    4cf8:	0000                	.insn	2, 0x0000
    4cfa:	0000                	.insn	2, 0x0000
    4cfc:	0000                	.insn	2, 0x0000
    4cfe:	0000                	.insn	2, 0x0000
    4d00:	0000                	.insn	2, 0x0000
    4d02:	0000                	.insn	2, 0x0000
    4d04:	0000                	.insn	2, 0x0000
    4d06:	0000                	.insn	2, 0x0000
    4d08:	0000                	.insn	2, 0x0000
    4d0a:	0000                	.insn	2, 0x0000
    4d0c:	0000                	.insn	2, 0x0000
    4d0e:	0000                	.insn	2, 0x0000
    4d10:	0000                	.insn	2, 0x0000
    4d12:	0000                	.insn	2, 0x0000
    4d14:	0000                	.insn	2, 0x0000
    4d16:	0000                	.insn	2, 0x0000
    4d18:	0000                	.insn	2, 0x0000
    4d1a:	0000                	.insn	2, 0x0000
    4d1c:	0000                	.insn	2, 0x0000
    4d1e:	0000                	.insn	2, 0x0000
    4d20:	0000                	.insn	2, 0x0000
    4d22:	0000                	.insn	2, 0x0000
    4d24:	0000                	.insn	2, 0x0000
    4d26:	0000                	.insn	2, 0x0000
    4d28:	0000                	.insn	2, 0x0000
    4d2a:	0000                	.insn	2, 0x0000
    4d2c:	0000                	.insn	2, 0x0000
    4d2e:	0000                	.insn	2, 0x0000
    4d30:	0000                	.insn	2, 0x0000
    4d32:	0000                	.insn	2, 0x0000
    4d34:	0000                	.insn	2, 0x0000
    4d36:	0000                	.insn	2, 0x0000
    4d38:	0000                	.insn	2, 0x0000
    4d3a:	0000                	.insn	2, 0x0000
    4d3c:	0000                	.insn	2, 0x0000
    4d3e:	0000                	.insn	2, 0x0000
    4d40:	0000                	.insn	2, 0x0000
    4d42:	0000                	.insn	2, 0x0000
    4d44:	0000                	.insn	2, 0x0000
    4d46:	0000                	.insn	2, 0x0000
    4d48:	0000                	.insn	2, 0x0000
    4d4a:	0000                	.insn	2, 0x0000
    4d4c:	0000                	.insn	2, 0x0000
    4d4e:	0000                	.insn	2, 0x0000
    4d50:	0000                	.insn	2, 0x0000
    4d52:	0000                	.insn	2, 0x0000
    4d54:	0000                	.insn	2, 0x0000
    4d56:	0000                	.insn	2, 0x0000
    4d58:	0000                	.insn	2, 0x0000
    4d5a:	0000                	.insn	2, 0x0000
    4d5c:	0000                	.insn	2, 0x0000
    4d5e:	0000                	.insn	2, 0x0000
    4d60:	0000                	.insn	2, 0x0000
    4d62:	0000                	.insn	2, 0x0000
    4d64:	0000                	.insn	2, 0x0000
    4d66:	0000                	.insn	2, 0x0000
    4d68:	0000                	.insn	2, 0x0000
    4d6a:	0000                	.insn	2, 0x0000
    4d6c:	0000                	.insn	2, 0x0000
    4d6e:	0000                	.insn	2, 0x0000
    4d70:	0000                	.insn	2, 0x0000
    4d72:	0000                	.insn	2, 0x0000
    4d74:	0000                	.insn	2, 0x0000
    4d76:	0000                	.insn	2, 0x0000
    4d78:	0000                	.insn	2, 0x0000
    4d7a:	0000                	.insn	2, 0x0000
    4d7c:	0000                	.insn	2, 0x0000
    4d7e:	0000                	.insn	2, 0x0000
    4d80:	0000                	.insn	2, 0x0000
    4d82:	0000                	.insn	2, 0x0000
    4d84:	0000                	.insn	2, 0x0000
    4d86:	0000                	.insn	2, 0x0000
    4d88:	0000                	.insn	2, 0x0000
    4d8a:	0000                	.insn	2, 0x0000
    4d8c:	0000                	.insn	2, 0x0000
    4d8e:	0000                	.insn	2, 0x0000
    4d90:	0000                	.insn	2, 0x0000
    4d92:	0000                	.insn	2, 0x0000
    4d94:	0000                	.insn	2, 0x0000
    4d96:	0000                	.insn	2, 0x0000
    4d98:	0000                	.insn	2, 0x0000
    4d9a:	0000                	.insn	2, 0x0000
    4d9c:	0000                	.insn	2, 0x0000
    4d9e:	0000                	.insn	2, 0x0000
    4da0:	0000                	.insn	2, 0x0000
    4da2:	0000                	.insn	2, 0x0000
    4da4:	0000                	.insn	2, 0x0000
    4da6:	0000                	.insn	2, 0x0000
    4da8:	0000                	.insn	2, 0x0000
    4daa:	0000                	.insn	2, 0x0000
    4dac:	0000                	.insn	2, 0x0000
    4dae:	0000                	.insn	2, 0x0000
    4db0:	0000                	.insn	2, 0x0000
    4db2:	0000                	.insn	2, 0x0000
    4db4:	0000                	.insn	2, 0x0000
    4db6:	0000                	.insn	2, 0x0000
    4db8:	0000                	.insn	2, 0x0000
    4dba:	0000                	.insn	2, 0x0000
    4dbc:	0000                	.insn	2, 0x0000
    4dbe:	0000                	.insn	2, 0x0000
    4dc0:	0000                	.insn	2, 0x0000
    4dc2:	0000                	.insn	2, 0x0000
    4dc4:	0000                	.insn	2, 0x0000
    4dc6:	0000                	.insn	2, 0x0000
    4dc8:	0000                	.insn	2, 0x0000
    4dca:	0000                	.insn	2, 0x0000
    4dcc:	0000                	.insn	2, 0x0000
    4dce:	0000                	.insn	2, 0x0000
    4dd0:	0000                	.insn	2, 0x0000
    4dd2:	0000                	.insn	2, 0x0000
    4dd4:	0000                	.insn	2, 0x0000
    4dd6:	0000                	.insn	2, 0x0000
    4dd8:	0000                	.insn	2, 0x0000
    4dda:	0000                	.insn	2, 0x0000
    4ddc:	0000                	.insn	2, 0x0000
    4dde:	0000                	.insn	2, 0x0000
    4de0:	0000                	.insn	2, 0x0000
    4de2:	0000                	.insn	2, 0x0000
    4de4:	0000                	.insn	2, 0x0000
    4de6:	0000                	.insn	2, 0x0000
    4de8:	0000                	.insn	2, 0x0000
    4dea:	0000                	.insn	2, 0x0000
    4dec:	0000                	.insn	2, 0x0000
    4dee:	0000                	.insn	2, 0x0000
    4df0:	0000                	.insn	2, 0x0000
    4df2:	0000                	.insn	2, 0x0000
    4df4:	0000                	.insn	2, 0x0000
    4df6:	0000                	.insn	2, 0x0000
    4df8:	0000                	.insn	2, 0x0000
    4dfa:	0000                	.insn	2, 0x0000
    4dfc:	0000                	.insn	2, 0x0000
    4dfe:	0000                	.insn	2, 0x0000
    4e00:	0000                	.insn	2, 0x0000
    4e02:	0000                	.insn	2, 0x0000
    4e04:	0000                	.insn	2, 0x0000
    4e06:	0000                	.insn	2, 0x0000
    4e08:	0000                	.insn	2, 0x0000
    4e0a:	0000                	.insn	2, 0x0000
    4e0c:	0000                	.insn	2, 0x0000
    4e0e:	0000                	.insn	2, 0x0000
    4e10:	0000                	.insn	2, 0x0000
    4e12:	0000                	.insn	2, 0x0000
    4e14:	0000                	.insn	2, 0x0000
    4e16:	0000                	.insn	2, 0x0000
    4e18:	0000                	.insn	2, 0x0000
    4e1a:	0000                	.insn	2, 0x0000
    4e1c:	0000                	.insn	2, 0x0000
    4e1e:	0000                	.insn	2, 0x0000
    4e20:	0000                	.insn	2, 0x0000
    4e22:	0000                	.insn	2, 0x0000
    4e24:	0000                	.insn	2, 0x0000
    4e26:	0000                	.insn	2, 0x0000
    4e28:	0000                	.insn	2, 0x0000
    4e2a:	0000                	.insn	2, 0x0000
    4e2c:	0000                	.insn	2, 0x0000
    4e2e:	0000                	.insn	2, 0x0000
    4e30:	0000                	.insn	2, 0x0000
    4e32:	0000                	.insn	2, 0x0000
    4e34:	0000                	.insn	2, 0x0000
    4e36:	0000                	.insn	2, 0x0000
    4e38:	0000                	.insn	2, 0x0000
    4e3a:	0000                	.insn	2, 0x0000
    4e3c:	0000                	.insn	2, 0x0000
    4e3e:	0000                	.insn	2, 0x0000
    4e40:	0000                	.insn	2, 0x0000
    4e42:	0000                	.insn	2, 0x0000
    4e44:	0000                	.insn	2, 0x0000
    4e46:	0000                	.insn	2, 0x0000
    4e48:	0000                	.insn	2, 0x0000
    4e4a:	0000                	.insn	2, 0x0000
    4e4c:	0000                	.insn	2, 0x0000
    4e4e:	0000                	.insn	2, 0x0000
    4e50:	0000                	.insn	2, 0x0000
    4e52:	0000                	.insn	2, 0x0000
    4e54:	0000                	.insn	2, 0x0000
    4e56:	0000                	.insn	2, 0x0000
    4e58:	0000                	.insn	2, 0x0000
    4e5a:	0000                	.insn	2, 0x0000
    4e5c:	0000                	.insn	2, 0x0000
    4e5e:	0000                	.insn	2, 0x0000
    4e60:	0000                	.insn	2, 0x0000
    4e62:	0000                	.insn	2, 0x0000
    4e64:	0000                	.insn	2, 0x0000
    4e66:	0000                	.insn	2, 0x0000
    4e68:	0000                	.insn	2, 0x0000
    4e6a:	0000                	.insn	2, 0x0000
    4e6c:	0000                	.insn	2, 0x0000
    4e6e:	0000                	.insn	2, 0x0000
    4e70:	0000                	.insn	2, 0x0000
    4e72:	0000                	.insn	2, 0x0000
    4e74:	0000                	.insn	2, 0x0000
    4e76:	0000                	.insn	2, 0x0000
    4e78:	0000                	.insn	2, 0x0000
    4e7a:	0000                	.insn	2, 0x0000
    4e7c:	0000                	.insn	2, 0x0000
    4e7e:	0000                	.insn	2, 0x0000
    4e80:	0000                	.insn	2, 0x0000
    4e82:	0000                	.insn	2, 0x0000
    4e84:	0000                	.insn	2, 0x0000
    4e86:	0000                	.insn	2, 0x0000
    4e88:	0000                	.insn	2, 0x0000
    4e8a:	0000                	.insn	2, 0x0000
    4e8c:	0000                	.insn	2, 0x0000
    4e8e:	0000                	.insn	2, 0x0000
    4e90:	0000                	.insn	2, 0x0000
    4e92:	0000                	.insn	2, 0x0000
    4e94:	0000                	.insn	2, 0x0000
    4e96:	0000                	.insn	2, 0x0000
    4e98:	0000                	.insn	2, 0x0000
    4e9a:	0000                	.insn	2, 0x0000
    4e9c:	0000                	.insn	2, 0x0000
    4e9e:	0000                	.insn	2, 0x0000
    4ea0:	0000                	.insn	2, 0x0000
    4ea2:	0000                	.insn	2, 0x0000
    4ea4:	0000                	.insn	2, 0x0000
    4ea6:	0000                	.insn	2, 0x0000
    4ea8:	0000                	.insn	2, 0x0000
    4eaa:	0000                	.insn	2, 0x0000
    4eac:	0000                	.insn	2, 0x0000
    4eae:	0000                	.insn	2, 0x0000
    4eb0:	0000                	.insn	2, 0x0000
    4eb2:	0000                	.insn	2, 0x0000
    4eb4:	0000                	.insn	2, 0x0000
    4eb6:	0000                	.insn	2, 0x0000
    4eb8:	0000                	.insn	2, 0x0000
    4eba:	0000                	.insn	2, 0x0000
    4ebc:	0000                	.insn	2, 0x0000
    4ebe:	0000                	.insn	2, 0x0000
    4ec0:	0000                	.insn	2, 0x0000
    4ec2:	0000                	.insn	2, 0x0000
    4ec4:	0000                	.insn	2, 0x0000
    4ec6:	0000                	.insn	2, 0x0000
    4ec8:	0000                	.insn	2, 0x0000
    4eca:	0000                	.insn	2, 0x0000
    4ecc:	0000                	.insn	2, 0x0000
    4ece:	0000                	.insn	2, 0x0000
    4ed0:	0000                	.insn	2, 0x0000
    4ed2:	0000                	.insn	2, 0x0000
    4ed4:	0000                	.insn	2, 0x0000
    4ed6:	0000                	.insn	2, 0x0000
    4ed8:	0000                	.insn	2, 0x0000
    4eda:	0000                	.insn	2, 0x0000
    4edc:	0000                	.insn	2, 0x0000
    4ede:	0000                	.insn	2, 0x0000
    4ee0:	0000                	.insn	2, 0x0000
    4ee2:	0000                	.insn	2, 0x0000
    4ee4:	0000                	.insn	2, 0x0000
    4ee6:	0000                	.insn	2, 0x0000
    4ee8:	0000                	.insn	2, 0x0000
    4eea:	0000                	.insn	2, 0x0000
    4eec:	0000                	.insn	2, 0x0000
    4eee:	0000                	.insn	2, 0x0000
    4ef0:	0000                	.insn	2, 0x0000
    4ef2:	0000                	.insn	2, 0x0000
    4ef4:	0000                	.insn	2, 0x0000
    4ef6:	0000                	.insn	2, 0x0000
    4ef8:	0000                	.insn	2, 0x0000
    4efa:	0000                	.insn	2, 0x0000
    4efc:	0000                	.insn	2, 0x0000
    4efe:	0000                	.insn	2, 0x0000
    4f00:	0000                	.insn	2, 0x0000
    4f02:	0000                	.insn	2, 0x0000
    4f04:	0000                	.insn	2, 0x0000
    4f06:	0000                	.insn	2, 0x0000
    4f08:	0000                	.insn	2, 0x0000
    4f0a:	0000                	.insn	2, 0x0000
    4f0c:	0000                	.insn	2, 0x0000
    4f0e:	0000                	.insn	2, 0x0000
    4f10:	0000                	.insn	2, 0x0000
    4f12:	0000                	.insn	2, 0x0000
    4f14:	0000                	.insn	2, 0x0000
    4f16:	0000                	.insn	2, 0x0000
    4f18:	0000                	.insn	2, 0x0000
    4f1a:	0000                	.insn	2, 0x0000
    4f1c:	0000                	.insn	2, 0x0000
    4f1e:	0000                	.insn	2, 0x0000
    4f20:	0000                	.insn	2, 0x0000
    4f22:	0000                	.insn	2, 0x0000
    4f24:	0000                	.insn	2, 0x0000
    4f26:	0000                	.insn	2, 0x0000
    4f28:	0000                	.insn	2, 0x0000
    4f2a:	0000                	.insn	2, 0x0000
    4f2c:	0000                	.insn	2, 0x0000
    4f2e:	0000                	.insn	2, 0x0000
    4f30:	0000                	.insn	2, 0x0000
    4f32:	0000                	.insn	2, 0x0000
    4f34:	0000                	.insn	2, 0x0000
    4f36:	0000                	.insn	2, 0x0000
    4f38:	0000                	.insn	2, 0x0000
    4f3a:	0000                	.insn	2, 0x0000
    4f3c:	0000                	.insn	2, 0x0000
    4f3e:	0000                	.insn	2, 0x0000
    4f40:	0000                	.insn	2, 0x0000
    4f42:	0000                	.insn	2, 0x0000
    4f44:	0000                	.insn	2, 0x0000
    4f46:	0000                	.insn	2, 0x0000
    4f48:	0000                	.insn	2, 0x0000
    4f4a:	0000                	.insn	2, 0x0000
    4f4c:	0000                	.insn	2, 0x0000
    4f4e:	0000                	.insn	2, 0x0000
    4f50:	0000                	.insn	2, 0x0000
    4f52:	0000                	.insn	2, 0x0000
    4f54:	0000                	.insn	2, 0x0000
    4f56:	0000                	.insn	2, 0x0000
    4f58:	0000                	.insn	2, 0x0000
    4f5a:	0000                	.insn	2, 0x0000
    4f5c:	0000                	.insn	2, 0x0000
    4f5e:	0000                	.insn	2, 0x0000
    4f60:	0000                	.insn	2, 0x0000
    4f62:	0000                	.insn	2, 0x0000
    4f64:	0000                	.insn	2, 0x0000
    4f66:	0000                	.insn	2, 0x0000
    4f68:	0000                	.insn	2, 0x0000
    4f6a:	0000                	.insn	2, 0x0000
    4f6c:	0000                	.insn	2, 0x0000
    4f6e:	0000                	.insn	2, 0x0000
    4f70:	0000                	.insn	2, 0x0000
    4f72:	0000                	.insn	2, 0x0000
    4f74:	0000                	.insn	2, 0x0000
    4f76:	0000                	.insn	2, 0x0000
    4f78:	0000                	.insn	2, 0x0000
    4f7a:	0000                	.insn	2, 0x0000
    4f7c:	0000                	.insn	2, 0x0000
    4f7e:	0000                	.insn	2, 0x0000
    4f80:	0000                	.insn	2, 0x0000
    4f82:	0000                	.insn	2, 0x0000
    4f84:	0000                	.insn	2, 0x0000
    4f86:	0000                	.insn	2, 0x0000
    4f88:	0000                	.insn	2, 0x0000
    4f8a:	0000                	.insn	2, 0x0000
    4f8c:	0000                	.insn	2, 0x0000
    4f8e:	0000                	.insn	2, 0x0000
    4f90:	0000                	.insn	2, 0x0000
    4f92:	0000                	.insn	2, 0x0000
    4f94:	0000                	.insn	2, 0x0000
    4f96:	0000                	.insn	2, 0x0000
    4f98:	0000                	.insn	2, 0x0000
    4f9a:	0000                	.insn	2, 0x0000
    4f9c:	0000                	.insn	2, 0x0000
    4f9e:	0000                	.insn	2, 0x0000
    4fa0:	0000                	.insn	2, 0x0000
    4fa2:	0000                	.insn	2, 0x0000
    4fa4:	0000                	.insn	2, 0x0000
    4fa6:	0000                	.insn	2, 0x0000
    4fa8:	0000                	.insn	2, 0x0000
    4faa:	0000                	.insn	2, 0x0000
    4fac:	0000                	.insn	2, 0x0000
    4fae:	0000                	.insn	2, 0x0000
    4fb0:	0000                	.insn	2, 0x0000
    4fb2:	0000                	.insn	2, 0x0000
    4fb4:	0000                	.insn	2, 0x0000
    4fb6:	0000                	.insn	2, 0x0000
    4fb8:	0000                	.insn	2, 0x0000
    4fba:	0000                	.insn	2, 0x0000
    4fbc:	0000                	.insn	2, 0x0000
    4fbe:	0000                	.insn	2, 0x0000
    4fc0:	0000                	.insn	2, 0x0000
    4fc2:	0000                	.insn	2, 0x0000
    4fc4:	0000                	.insn	2, 0x0000
    4fc6:	0000                	.insn	2, 0x0000
    4fc8:	0000                	.insn	2, 0x0000
    4fca:	0000                	.insn	2, 0x0000
    4fcc:	0000                	.insn	2, 0x0000
    4fce:	0000                	.insn	2, 0x0000
    4fd0:	0000                	.insn	2, 0x0000
    4fd2:	0000                	.insn	2, 0x0000
    4fd4:	0000                	.insn	2, 0x0000
    4fd6:	0000                	.insn	2, 0x0000
    4fd8:	0000                	.insn	2, 0x0000
    4fda:	0000                	.insn	2, 0x0000
    4fdc:	0000                	.insn	2, 0x0000
    4fde:	0000                	.insn	2, 0x0000
    4fe0:	0000                	.insn	2, 0x0000
    4fe2:	0000                	.insn	2, 0x0000
    4fe4:	0000                	.insn	2, 0x0000
    4fe6:	0000                	.insn	2, 0x0000
    4fe8:	0000                	.insn	2, 0x0000
    4fea:	0000                	.insn	2, 0x0000
    4fec:	0000                	.insn	2, 0x0000
    4fee:	0000                	.insn	2, 0x0000
    4ff0:	0000                	.insn	2, 0x0000
    4ff2:	0000                	.insn	2, 0x0000
    4ff4:	0000                	.insn	2, 0x0000
    4ff6:	0000                	.insn	2, 0x0000
    4ff8:	0000                	.insn	2, 0x0000
    4ffa:	0000                	.insn	2, 0x0000
    4ffc:	0000                	.insn	2, 0x0000
    4ffe:	00158593          	addi	a1,a1,1
    5002:	29b00393          	li	t2,667
    5006:	22759d63          	bne	a1,t2,5240 <fail>
    500a:	00001137          	lui	sp,0x1
    500e:	23410113          	addi	sp,sp,564 # 1234 <fromhost+0x1f4>

00005012 <test_3>:
    5012:	00300193          	li	gp,3
    5016:	1fe8                	addi	a0,sp,1020
    5018:	000013b7          	lui	t2,0x1
    501c:	63038393          	addi	t2,t2,1584 # 1630 <fromhost+0x5f0>
    5020:	22751063          	bne	a0,t2,5240 <fail>

00005024 <test_4>:
    5024:	00400193          	li	gp,4
    5028:	617d                	addi	sp,sp,496
    502a:	0001                	nop
    502c:	000013b7          	lui	t2,0x1
    5030:	42438393          	addi	t2,t2,1060 # 1424 <fromhost+0x3e4>
    5034:	20711663          	bne	sp,t2,5240 <fail>

00005038 <test_5>:
    5038:	00500193          	li	gp,5
    503c:	7101                	addi	sp,sp,-512
    503e:	0001                	nop
    5040:	000013b7          	lui	t2,0x1
    5044:	22438393          	addi	t2,t2,548 # 1224 <fromhost+0x1e4>
    5048:	1e711c63          	bne	sp,t2,5240 <fail>
    504c:	ffffe597          	auipc	a1,0xffffe
    5050:	fdc58593          	addi	a1,a1,-36 # 3028 <data>

00005054 <test_6>:
    5054:	00600193          	li	gp,6
    5058:	41c8                	lw	a0,4(a1)
    505a:	0505                	addi	a0,a0,1
    505c:	c1c8                	sw	a0,4(a1)
    505e:	41d0                	lw	a2,4(a1)
    5060:	fedcc3b7          	lui	t2,0xfedcc
    5064:	a9938393          	addi	t2,t2,-1383 # fedcba99 <freelist_head+0xfedc1a95>
    5068:	1c761c63          	bne	a2,t2,5240 <fail>

0000506c <test_8>:
    506c:	00800193          	li	gp,8
    5070:	00106513          	ori	a0,zero,1
    5074:	1541                	addi	a0,a0,-16
    5076:	0001                	nop
    5078:	ff100393          	li	t2,-15
    507c:	1c751263          	bne	a0,t2,5240 <fail>

00005080 <test_9>:
    5080:	00900193          	li	gp,9
    5084:	00106793          	ori	a5,zero,1
    5088:	57c1                	li	a5,-16
    508a:	0001                	nop
    508c:	ff000393          	li	t2,-16
    5090:	1a779863          	bne	a5,t2,5240 <fail>

00005094 <test_11>:
    5094:	00b00193          	li	gp,11
    5098:	7405                	lui	s0,0xfffe1
    509a:	8431                	srai	s0,s0,0xc
    509c:	fe100393          	li	t2,-31
    50a0:	1a741063          	bne	s0,t2,5240 <fail>

000050a4 <test_12>:
    50a4:	00c00193          	li	gp,12
    50a8:	7405                	lui	s0,0xfffe1
    50aa:	8031                	srli	s0,s0,0xc
    50ac:	001003b7          	lui	t2,0x100
    50b0:	fe138393          	addi	t2,t2,-31 # fffe1 <freelist_head+0xf5fdd>
    50b4:	18741663          	bne	s0,t2,5240 <fail>

000050b8 <test_14>:
    50b8:	00e00193          	li	gp,14
    50bc:	5479                	li	s0,-2
    50be:	983d                	andi	s0,s0,-17
    50c0:	fee00393          	li	t2,-18
    50c4:	16741e63          	bne	s0,t2,5240 <fail>

000050c8 <test_15>:
    50c8:	00f00193          	li	gp,15
    50cc:	44d1                	li	s1,20
    50ce:	4519                	li	a0,6
    50d0:	8c89                	sub	s1,s1,a0
    50d2:	0001                	nop
    50d4:	00e00393          	li	t2,14
    50d8:	16749463          	bne	s1,t2,5240 <fail>

000050dc <test_16>:
    50dc:	01000193          	li	gp,16
    50e0:	44d1                	li	s1,20
    50e2:	4519                	li	a0,6
    50e4:	8ca9                	xor	s1,s1,a0
    50e6:	0001                	nop
    50e8:	01200393          	li	t2,18
    50ec:	14749a63          	bne	s1,t2,5240 <fail>

000050f0 <test_17>:
    50f0:	01100193          	li	gp,17
    50f4:	44d1                	li	s1,20
    50f6:	4519                	li	a0,6
    50f8:	8cc9                	or	s1,s1,a0
    50fa:	0001                	nop
    50fc:	01600393          	li	t2,22
    5100:	14749063          	bne	s1,t2,5240 <fail>

00005104 <test_18>:
    5104:	01200193          	li	gp,18
    5108:	44d1                	li	s1,20
    510a:	4519                	li	a0,6
    510c:	8ce9                	and	s1,s1,a0
    510e:	0001                	nop
    5110:	00400393          	li	t2,4
    5114:	12749663          	bne	s1,t2,5240 <fail>

00005118 <test_21>:
    5118:	01500193          	li	gp,21
    511c:	6405                	lui	s0,0x1
    511e:	23440413          	addi	s0,s0,564 # 1234 <fromhost+0x1f4>
    5122:	0412                	slli	s0,s0,0x4
    5124:	000123b7          	lui	t2,0x12
    5128:	34038393          	addi	t2,t2,832 # 12340 <freelist_head+0x833c>
    512c:	10741a63          	bne	s0,t2,5240 <fail>

00005130 <test_30>:
    5130:	01e00193          	li	gp,30
    5134:	4081                	li	ra,0
    5136:	a011                	j	513a <test_30+0xa>
    5138:	a011                	j	513c <test_30+0xc>
    513a:	a011                	j	513e <test_30+0xe>
    513c:	a211                	j	5240 <fail>
    513e:	0001                	nop
    5140:	00000393          	li	t2,0
    5144:	0e709e63          	bne	ra,t2,5240 <fail>

00005148 <test_31>:
    5148:	01f00193          	li	gp,31
    514c:	4501                	li	a0,0
    514e:	c111                	beqz	a0,5152 <test_31+0xa>
    5150:	a011                	j	5154 <test_31+0xc>
    5152:	a011                	j	5156 <test_31+0xe>
    5154:	a0f5                	j	5240 <fail>
    5156:	0001                	nop
    5158:	00000393          	li	t2,0
    515c:	0e701263          	bne	zero,t2,5240 <fail>

00005160 <test_32>:
    5160:	02000193          	li	gp,32
    5164:	4505                	li	a0,1
    5166:	e111                	bnez	a0,516a <test_32+0xa>
    5168:	a011                	j	516c <test_32+0xc>
    516a:	a011                	j	516e <test_32+0xe>
    516c:	a8d1                	j	5240 <fail>
    516e:	0001                	nop
    5170:	00000393          	li	t2,0
    5174:	0c701663          	bne	zero,t2,5240 <fail>

00005178 <test_33>:
    5178:	02100193          	li	gp,33
    517c:	4505                	li	a0,1
    517e:	c111                	beqz	a0,5182 <test_33+0xa>
    5180:	a011                	j	5184 <test_33+0xc>
    5182:	a87d                	j	5240 <fail>
    5184:	00000393          	li	t2,0
    5188:	0a701c63          	bne	zero,t2,5240 <fail>

0000518c <test_34>:
    518c:	02200193          	li	gp,34
    5190:	4501                	li	a0,0
    5192:	e111                	bnez	a0,5196 <test_34+0xa>
    5194:	a011                	j	5198 <test_34+0xc>
    5196:	a06d                	j	5240 <fail>
    5198:	00000393          	li	t2,0
    519c:	0a701263          	bne	zero,t2,5240 <fail>

000051a0 <test_35>:
    51a0:	02300193          	li	gp,35
    51a4:	00000297          	auipc	t0,0x0
    51a8:	00e28293          	addi	t0,t0,14 # 51b2 <test_35+0x12>
    51ac:	4081                	li	ra,0
    51ae:	8282                	jr	t0
    51b0:	a011                	j	51b4 <test_35+0x14>
    51b2:	a011                	j	51b6 <test_35+0x16>
    51b4:	a071                	j	5240 <fail>
    51b6:	0001                	nop
    51b8:	00000393          	li	t2,0
    51bc:	08709263          	bne	ra,t2,5240 <fail>

000051c0 <test_36>:
    51c0:	02400193          	li	gp,36
    51c4:	00000297          	auipc	t0,0x0
    51c8:	00e28293          	addi	t0,t0,14 # 51d2 <test_36+0x12>
    51cc:	4081                	li	ra,0
    51ce:	9282                	jalr	t0
    51d0:	a011                	j	51d4 <test_36+0x14>
    51d2:	a011                	j	51d6 <test_36+0x16>
    51d4:	a0b5                	j	5240 <fail>
    51d6:	405080b3          	sub	ra,ra,t0
    51da:	0001                	nop
    51dc:	ffe00393          	li	t2,-2
    51e0:	06709063          	bne	ra,t2,5240 <fail>

000051e4 <test_37>:
    51e4:	02500193          	li	gp,37
    51e8:	00000297          	auipc	t0,0x0
    51ec:	00e28293          	addi	t0,t0,14 # 51f6 <test_37+0x12>
    51f0:	4081                	li	ra,0
    51f2:	2011                	jal	51f6 <test_37+0x12>
    51f4:	a011                	j	51f8 <test_37+0x14>
    51f6:	a011                	j	51fa <test_37+0x16>
    51f8:	a0a1                	j	5240 <fail>
    51fa:	405080b3          	sub	ra,ra,t0
    51fe:	0001                	nop
    5200:	ffe00393          	li	t2,-2
    5204:	02709e63          	bne	ra,t2,5240 <fail>
    5208:	ffffe117          	auipc	sp,0xffffe
    520c:	e2010113          	addi	sp,sp,-480 # 3028 <data>

00005210 <test_40>:
    5210:	02800193          	li	gp,40
    5214:	4532                	lw	a0,12(sp)
    5216:	0505                	addi	a0,a0,1
    5218:	c62a                	sw	a0,12(sp)
    521a:	4632                	lw	a2,12(sp)
    521c:	fedcc3b7          	lui	t2,0xfedcc
    5220:	a9938393          	addi	t2,t2,-1383 # fedcba99 <freelist_head+0xfedc1a95>
    5224:	00761e63          	bne	a2,t2,5240 <fail>

00005228 <test_42>:
    5228:	02a00193          	li	gp,42
    522c:	12300513          	li	a0,291
    5230:	82aa                	mv	t0,a0
    5232:	92aa                	add	t0,t0,a0
    5234:	24600393          	li	t2,582
    5238:	00729463          	bne	t0,t2,5240 <fail>
    523c:	00301a63          	bne	zero,gp,5250 <pass>

00005240 <fail>:
    5240:	00119513          	slli	a0,gp,0x1
    5244:	00050063          	beqz	a0,5244 <fail+0x4>
    5248:	00156513          	ori	a0,a0,1
    524c:	00000073          	ecall

00005250 <pass>:
    5250:	00100513          	li	a0,1
    5254:	00000073          	ecall
    5258:	c0001073          	unimp
    525c:	00000013          	nop
    5260:	00000013          	nop
    5264:	00000013          	nop
    5268:	00000013          	nop
    526c:	00000013          	nop
    5270:	00000013          	nop
    5274:	00000013          	nop
    5278:	00000013          	nop
    527c:	00000013          	nop
    5280:	00000013          	nop
    5284:	00000013          	nop
    5288:	00000013          	nop
    528c:	00000013          	nop
    5290:	00000013          	nop
    5294:	00000013          	nop
    5298:	00000013          	nop
    529c:	00000013          	nop
    52a0:	00000013          	nop
    52a4:	00000013          	nop
    52a8:	00000013          	nop
    52ac:	00000013          	nop
    52b0:	00000013          	nop
    52b4:	00000013          	nop
    52b8:	00000013          	nop
    52bc:	00000013          	nop
    52c0:	00000013          	nop
    52c4:	00000013          	nop
    52c8:	00000013          	nop
    52cc:	00000013          	nop
    52d0:	00000013          	nop
    52d4:	00000013          	nop
    52d8:	00000013          	nop
    52dc:	00000013          	nop
    52e0:	00000013          	nop
    52e4:	00000013          	nop
    52e8:	00000013          	nop
    52ec:	00000013          	nop
    52f0:	00000013          	nop
    52f4:	00000013          	nop
    52f8:	00000013          	nop
    52fc:	00000013          	nop
    5300:	00000013          	nop
    5304:	00000013          	nop
    5308:	00000013          	nop
    530c:	00000013          	nop
    5310:	00000013          	nop
    5314:	00000013          	nop
    5318:	00000013          	nop
    531c:	00000013          	nop
    5320:	00000013          	nop
    5324:	00000013          	nop
    5328:	00000013          	nop
    532c:	00000013          	nop
    5330:	00000013          	nop
    5334:	00000013          	nop
    5338:	00000013          	nop
    533c:	00000013          	nop
    5340:	00000013          	nop
    5344:	00000013          	nop
    5348:	00000013          	nop
    534c:	00000013          	nop
    5350:	00000013          	nop
    5354:	00000013          	nop
    5358:	00000013          	nop
    535c:	00000013          	nop
    5360:	00000013          	nop
    5364:	00000013          	nop
    5368:	00000013          	nop
    536c:	00000013          	nop
    5370:	00000013          	nop
    5374:	00000013          	nop
    5378:	00000013          	nop
    537c:	00000013          	nop
    5380:	00000013          	nop
    5384:	00000013          	nop
    5388:	00000013          	nop
    538c:	00000013          	nop
    5390:	00000013          	nop
    5394:	00000013          	nop
    5398:	00000013          	nop
    539c:	00000013          	nop
    53a0:	00000013          	nop
    53a4:	00000013          	nop
    53a8:	00000013          	nop
    53ac:	00000013          	nop
    53b0:	00000013          	nop
    53b4:	00000013          	nop
    53b8:	00000013          	nop
    53bc:	00000013          	nop
    53c0:	00000013          	nop
    53c4:	00000013          	nop
    53c8:	00000013          	nop
    53cc:	00000013          	nop
    53d0:	00000013          	nop
    53d4:	00000013          	nop
    53d8:	00000013          	nop
    53dc:	00000013          	nop
    53e0:	00000013          	nop
    53e4:	00000013          	nop
    53e8:	00000013          	nop
    53ec:	00000013          	nop
    53f0:	00000013          	nop
    53f4:	00000013          	nop
    53f8:	00000013          	nop
    53fc:	00000013          	nop
    5400:	00000013          	nop
    5404:	00000013          	nop
    5408:	00000013          	nop
    540c:	00000013          	nop
    5410:	00000013          	nop
    5414:	00000013          	nop
    5418:	00000013          	nop
    541c:	00000013          	nop
    5420:	00000013          	nop
    5424:	00000013          	nop
    5428:	00000013          	nop
    542c:	00000013          	nop
    5430:	00000013          	nop
    5434:	00000013          	nop
    5438:	00000013          	nop
    543c:	00000013          	nop
    5440:	00000013          	nop
    5444:	00000013          	nop
    5448:	00000013          	nop
    544c:	00000013          	nop
    5450:	00000013          	nop
    5454:	00000013          	nop
    5458:	00000013          	nop
    545c:	00000013          	nop
    5460:	00000013          	nop
    5464:	00000013          	nop
    5468:	00000013          	nop
    546c:	00000013          	nop
    5470:	00000013          	nop
    5474:	00000013          	nop
    5478:	00000013          	nop
    547c:	00000013          	nop
    5480:	00000013          	nop
    5484:	00000013          	nop
    5488:	00000013          	nop
    548c:	00000013          	nop
    5490:	00000013          	nop
    5494:	00000013          	nop
    5498:	00000013          	nop
    549c:	00000013          	nop
    54a0:	00000013          	nop
    54a4:	00000013          	nop
    54a8:	00000013          	nop
    54ac:	00000013          	nop
    54b0:	00000013          	nop
    54b4:	00000013          	nop
    54b8:	00000013          	nop
    54bc:	00000013          	nop
    54c0:	00000013          	nop
    54c4:	00000013          	nop
    54c8:	00000013          	nop
    54cc:	00000013          	nop
    54d0:	00000013          	nop
    54d4:	00000013          	nop
    54d8:	00000013          	nop
    54dc:	00000013          	nop
    54e0:	00000013          	nop
    54e4:	00000013          	nop
    54e8:	00000013          	nop
    54ec:	00000013          	nop
    54f0:	00000013          	nop
    54f4:	00000013          	nop
    54f8:	00000013          	nop
    54fc:	00000013          	nop
    5500:	00000013          	nop
    5504:	00000013          	nop
    5508:	00000013          	nop
    550c:	00000013          	nop
    5510:	00000013          	nop
    5514:	00000013          	nop
    5518:	00000013          	nop
    551c:	00000013          	nop
    5520:	00000013          	nop
    5524:	00000013          	nop
    5528:	00000013          	nop
    552c:	00000013          	nop
    5530:	00000013          	nop
    5534:	00000013          	nop
    5538:	00000013          	nop
    553c:	00000013          	nop
    5540:	00000013          	nop
    5544:	00000013          	nop
    5548:	00000013          	nop
    554c:	00000013          	nop
    5550:	00000013          	nop
    5554:	00000013          	nop
    5558:	00000013          	nop
    555c:	00000013          	nop
    5560:	00000013          	nop
    5564:	00000013          	nop
    5568:	00000013          	nop
    556c:	00000013          	nop
    5570:	00000013          	nop
    5574:	00000013          	nop
    5578:	00000013          	nop
    557c:	00000013          	nop
    5580:	00000013          	nop
    5584:	00000013          	nop
    5588:	00000013          	nop
    558c:	00000013          	nop
    5590:	00000013          	nop
    5594:	00000013          	nop
    5598:	00000013          	nop
    559c:	00000013          	nop
    55a0:	00000013          	nop
    55a4:	00000013          	nop
    55a8:	00000013          	nop
    55ac:	00000013          	nop
    55b0:	00000013          	nop
    55b4:	00000013          	nop
    55b8:	00000013          	nop
    55bc:	00000013          	nop
    55c0:	00000013          	nop
    55c4:	00000013          	nop
    55c8:	00000013          	nop
    55cc:	00000013          	nop
    55d0:	00000013          	nop
    55d4:	00000013          	nop
    55d8:	00000013          	nop
    55dc:	00000013          	nop
    55e0:	00000013          	nop
    55e4:	00000013          	nop
    55e8:	00000013          	nop
    55ec:	00000013          	nop
    55f0:	00000013          	nop
    55f4:	00000013          	nop
    55f8:	00000013          	nop
    55fc:	00000013          	nop
    5600:	00000013          	nop
    5604:	00000013          	nop
    5608:	00000013          	nop
    560c:	00000013          	nop
    5610:	00000013          	nop
    5614:	00000013          	nop
    5618:	00000013          	nop
    561c:	00000013          	nop
    5620:	00000013          	nop
    5624:	00000013          	nop
    5628:	00000013          	nop
    562c:	00000013          	nop
    5630:	00000013          	nop
    5634:	00000013          	nop
    5638:	00000013          	nop
    563c:	00000013          	nop
    5640:	00000013          	nop
    5644:	00000013          	nop
    5648:	00000013          	nop
    564c:	00000013          	nop
    5650:	00000013          	nop
    5654:	00000013          	nop
    5658:	00000013          	nop
    565c:	00000013          	nop
    5660:	00000013          	nop
    5664:	00000013          	nop
    5668:	00000013          	nop
    566c:	00000013          	nop
    5670:	00000013          	nop
    5674:	00000013          	nop
    5678:	00000013          	nop
    567c:	00000013          	nop
    5680:	00000013          	nop
    5684:	00000013          	nop
    5688:	00000013          	nop
    568c:	00000013          	nop
    5690:	00000013          	nop
    5694:	00000013          	nop
    5698:	00000013          	nop
    569c:	00000013          	nop
    56a0:	00000013          	nop
    56a4:	00000013          	nop
    56a8:	00000013          	nop
    56ac:	00000013          	nop
    56b0:	00000013          	nop
    56b4:	00000013          	nop
    56b8:	00000013          	nop
    56bc:	00000013          	nop
    56c0:	00000013          	nop
    56c4:	00000013          	nop
    56c8:	00000013          	nop
    56cc:	00000013          	nop
    56d0:	00000013          	nop
    56d4:	00000013          	nop
    56d8:	00000013          	nop
    56dc:	00000013          	nop
    56e0:	00000013          	nop
    56e4:	00000013          	nop
    56e8:	00000013          	nop
    56ec:	00000013          	nop
    56f0:	00000013          	nop
    56f4:	00000013          	nop
    56f8:	00000013          	nop
    56fc:	00000013          	nop
    5700:	00000013          	nop
    5704:	00000013          	nop
    5708:	00000013          	nop
    570c:	00000013          	nop
    5710:	00000013          	nop
    5714:	00000013          	nop
    5718:	00000013          	nop
    571c:	00000013          	nop
    5720:	00000013          	nop
    5724:	00000013          	nop
    5728:	00000013          	nop
    572c:	00000013          	nop
    5730:	00000013          	nop
    5734:	00000013          	nop
    5738:	00000013          	nop
    573c:	00000013          	nop
    5740:	00000013          	nop
    5744:	00000013          	nop
    5748:	00000013          	nop
    574c:	00000013          	nop
    5750:	00000013          	nop
    5754:	00000013          	nop
    5758:	00000013          	nop
    575c:	00000013          	nop
    5760:	00000013          	nop
    5764:	00000013          	nop
    5768:	00000013          	nop
    576c:	00000013          	nop
    5770:	00000013          	nop
    5774:	00000013          	nop
    5778:	00000013          	nop
    577c:	00000013          	nop
    5780:	00000013          	nop
    5784:	00000013          	nop
    5788:	00000013          	nop
    578c:	00000013          	nop
    5790:	00000013          	nop
    5794:	00000013          	nop
    5798:	00000013          	nop
    579c:	00000013          	nop
    57a0:	00000013          	nop
    57a4:	00000013          	nop
    57a8:	00000013          	nop
    57ac:	00000013          	nop
    57b0:	00000013          	nop
    57b4:	00000013          	nop
    57b8:	00000013          	nop
    57bc:	00000013          	nop
    57c0:	00000013          	nop
    57c4:	00000013          	nop
    57c8:	00000013          	nop
    57cc:	00000013          	nop
    57d0:	00000013          	nop
    57d4:	00000013          	nop
    57d8:	00000013          	nop
    57dc:	00000013          	nop
    57e0:	00000013          	nop
    57e4:	00000013          	nop
    57e8:	00000013          	nop
    57ec:	00000013          	nop
    57f0:	00000013          	nop
    57f4:	00000013          	nop
    57f8:	00000013          	nop
    57fc:	00000013          	nop
    5800:	00000013          	nop
    5804:	00000013          	nop
    5808:	00000013          	nop
    580c:	00000013          	nop
    5810:	00000013          	nop
    5814:	00000013          	nop
    5818:	00000013          	nop
    581c:	00000013          	nop
    5820:	00000013          	nop
    5824:	00000013          	nop
    5828:	00000013          	nop
    582c:	00000013          	nop
    5830:	00000013          	nop
    5834:	00000013          	nop
    5838:	00000013          	nop
    583c:	00000013          	nop
    5840:	00000013          	nop
    5844:	00000013          	nop
    5848:	00000013          	nop
    584c:	00000013          	nop
    5850:	00000013          	nop
    5854:	00000013          	nop
    5858:	00000013          	nop
    585c:	00000013          	nop
    5860:	00000013          	nop
    5864:	00000013          	nop
    5868:	00000013          	nop
    586c:	00000013          	nop
    5870:	00000013          	nop
    5874:	00000013          	nop
    5878:	00000013          	nop
    587c:	00000013          	nop
    5880:	00000013          	nop
    5884:	00000013          	nop
    5888:	00000013          	nop
    588c:	00000013          	nop
    5890:	00000013          	nop
    5894:	00000013          	nop
    5898:	00000013          	nop
    589c:	00000013          	nop
    58a0:	00000013          	nop
    58a4:	00000013          	nop
    58a8:	00000013          	nop
    58ac:	00000013          	nop
    58b0:	00000013          	nop
    58b4:	00000013          	nop
    58b8:	00000013          	nop
    58bc:	00000013          	nop
    58c0:	00000013          	nop
    58c4:	00000013          	nop
    58c8:	00000013          	nop
    58cc:	00000013          	nop
    58d0:	00000013          	nop
    58d4:	00000013          	nop
    58d8:	00000013          	nop
    58dc:	00000013          	nop
    58e0:	00000013          	nop
    58e4:	00000013          	nop
    58e8:	00000013          	nop
    58ec:	00000013          	nop
    58f0:	00000013          	nop
    58f4:	00000013          	nop
    58f8:	00000013          	nop
    58fc:	00000013          	nop
    5900:	00000013          	nop
    5904:	00000013          	nop
    5908:	00000013          	nop
    590c:	00000013          	nop
    5910:	00000013          	nop
    5914:	00000013          	nop
    5918:	00000013          	nop
    591c:	00000013          	nop
    5920:	00000013          	nop
    5924:	00000013          	nop
    5928:	00000013          	nop
    592c:	00000013          	nop
    5930:	00000013          	nop
    5934:	00000013          	nop
    5938:	00000013          	nop
    593c:	00000013          	nop
    5940:	00000013          	nop
    5944:	00000013          	nop
    5948:	00000013          	nop
    594c:	00000013          	nop
    5950:	00000013          	nop
    5954:	00000013          	nop
    5958:	00000013          	nop
    595c:	00000013          	nop
    5960:	00000013          	nop
    5964:	00000013          	nop
    5968:	00000013          	nop
    596c:	00000013          	nop
    5970:	00000013          	nop
    5974:	00000013          	nop
    5978:	00000013          	nop
    597c:	00000013          	nop
    5980:	00000013          	nop
    5984:	00000013          	nop
    5988:	00000013          	nop
    598c:	00000013          	nop
    5990:	00000013          	nop
    5994:	00000013          	nop
    5998:	00000013          	nop
    599c:	00000013          	nop
    59a0:	00000013          	nop
    59a4:	00000013          	nop
    59a8:	00000013          	nop
    59ac:	00000013          	nop
    59b0:	00000013          	nop
    59b4:	00000013          	nop
    59b8:	00000013          	nop
    59bc:	00000013          	nop
    59c0:	00000013          	nop
    59c4:	00000013          	nop
    59c8:	00000013          	nop
    59cc:	00000013          	nop
    59d0:	00000013          	nop
    59d4:	00000013          	nop
    59d8:	00000013          	nop
    59dc:	00000013          	nop
    59e0:	00000013          	nop
    59e4:	00000013          	nop
    59e8:	00000013          	nop
    59ec:	00000013          	nop
    59f0:	00000013          	nop
    59f4:	00000013          	nop
    59f8:	00000013          	nop
    59fc:	00000013          	nop
    5a00:	00000013          	nop
    5a04:	00000013          	nop
    5a08:	00000013          	nop
    5a0c:	00000013          	nop
    5a10:	00000013          	nop
    5a14:	00000013          	nop
    5a18:	00000013          	nop
    5a1c:	00000013          	nop
    5a20:	00000013          	nop
    5a24:	00000013          	nop
    5a28:	00000013          	nop
    5a2c:	00000013          	nop
    5a30:	00000013          	nop
    5a34:	00000013          	nop
    5a38:	00000013          	nop
    5a3c:	00000013          	nop
    5a40:	00000013          	nop
    5a44:	00000013          	nop
    5a48:	00000013          	nop
    5a4c:	00000013          	nop
    5a50:	00000013          	nop
    5a54:	00000013          	nop
    5a58:	00000013          	nop
    5a5c:	00000013          	nop
    5a60:	00000013          	nop
    5a64:	00000013          	nop
    5a68:	00000013          	nop
    5a6c:	00000013          	nop
    5a70:	00000013          	nop
    5a74:	00000013          	nop
    5a78:	00000013          	nop
    5a7c:	00000013          	nop
    5a80:	00000013          	nop
    5a84:	00000013          	nop
    5a88:	00000013          	nop
    5a8c:	00000013          	nop
    5a90:	00000013          	nop
    5a94:	00000013          	nop
    5a98:	00000013          	nop
    5a9c:	00000013          	nop
    5aa0:	00000013          	nop
    5aa4:	00000013          	nop
    5aa8:	00000013          	nop
    5aac:	00000013          	nop
    5ab0:	00000013          	nop
    5ab4:	00000013          	nop
    5ab8:	00000013          	nop
    5abc:	00000013          	nop
    5ac0:	00000013          	nop
    5ac4:	00000013          	nop
    5ac8:	00000013          	nop
    5acc:	00000013          	nop
    5ad0:	00000013          	nop
    5ad4:	00000013          	nop
    5ad8:	00000013          	nop
    5adc:	00000013          	nop
    5ae0:	00000013          	nop
    5ae4:	00000013          	nop
    5ae8:	00000013          	nop
    5aec:	00000013          	nop
    5af0:	00000013          	nop
    5af4:	00000013          	nop
    5af8:	00000013          	nop
    5afc:	00000013          	nop
    5b00:	00000013          	nop
    5b04:	00000013          	nop
    5b08:	00000013          	nop
    5b0c:	00000013          	nop
    5b10:	00000013          	nop
    5b14:	00000013          	nop
    5b18:	00000013          	nop
    5b1c:	00000013          	nop
    5b20:	00000013          	nop
    5b24:	00000013          	nop
    5b28:	00000013          	nop
    5b2c:	00000013          	nop
    5b30:	00000013          	nop
    5b34:	00000013          	nop
    5b38:	00000013          	nop
    5b3c:	00000013          	nop
    5b40:	00000013          	nop
    5b44:	00000013          	nop
    5b48:	00000013          	nop
    5b4c:	00000013          	nop
    5b50:	00000013          	nop
    5b54:	00000013          	nop
    5b58:	00000013          	nop
    5b5c:	00000013          	nop
    5b60:	00000013          	nop
    5b64:	00000013          	nop
    5b68:	00000013          	nop
    5b6c:	00000013          	nop
    5b70:	00000013          	nop
    5b74:	00000013          	nop
    5b78:	00000013          	nop
    5b7c:	00000013          	nop
    5b80:	00000013          	nop
    5b84:	00000013          	nop
    5b88:	00000013          	nop
    5b8c:	00000013          	nop
    5b90:	00000013          	nop
    5b94:	00000013          	nop
    5b98:	00000013          	nop
    5b9c:	00000013          	nop
    5ba0:	00000013          	nop
    5ba4:	00000013          	nop
    5ba8:	00000013          	nop
    5bac:	00000013          	nop
    5bb0:	00000013          	nop
    5bb4:	00000013          	nop
    5bb8:	00000013          	nop
    5bbc:	00000013          	nop
    5bc0:	00000013          	nop
    5bc4:	00000013          	nop
    5bc8:	00000013          	nop
    5bcc:	00000013          	nop
    5bd0:	00000013          	nop
    5bd4:	00000013          	nop
    5bd8:	00000013          	nop
    5bdc:	00000013          	nop
    5be0:	00000013          	nop
    5be4:	00000013          	nop
    5be8:	00000013          	nop
    5bec:	00000013          	nop
    5bf0:	00000013          	nop
    5bf4:	00000013          	nop
    5bf8:	00000013          	nop
    5bfc:	00000013          	nop
    5c00:	00000013          	nop
    5c04:	00000013          	nop
    5c08:	00000013          	nop
    5c0c:	00000013          	nop
    5c10:	00000013          	nop
    5c14:	00000013          	nop
    5c18:	00000013          	nop
    5c1c:	00000013          	nop
    5c20:	00000013          	nop
    5c24:	00000013          	nop
    5c28:	00000013          	nop
    5c2c:	00000013          	nop
    5c30:	00000013          	nop
    5c34:	00000013          	nop
    5c38:	00000013          	nop
    5c3c:	00000013          	nop
    5c40:	00000013          	nop
    5c44:	00000013          	nop
    5c48:	00000013          	nop
    5c4c:	00000013          	nop
    5c50:	00000013          	nop
    5c54:	00000013          	nop
    5c58:	00000013          	nop
    5c5c:	00000013          	nop
    5c60:	00000013          	nop
    5c64:	00000013          	nop
    5c68:	00000013          	nop
    5c6c:	00000013          	nop
    5c70:	00000013          	nop
    5c74:	00000013          	nop
    5c78:	00000013          	nop
    5c7c:	00000013          	nop
    5c80:	00000013          	nop
    5c84:	00000013          	nop
    5c88:	00000013          	nop
    5c8c:	00000013          	nop
    5c90:	00000013          	nop
    5c94:	00000013          	nop
    5c98:	00000013          	nop
    5c9c:	00000013          	nop
    5ca0:	00000013          	nop
    5ca4:	00000013          	nop
    5ca8:	00000013          	nop
    5cac:	00000013          	nop
    5cb0:	00000013          	nop
    5cb4:	00000013          	nop
    5cb8:	00000013          	nop
    5cbc:	00000013          	nop
    5cc0:	00000013          	nop
    5cc4:	00000013          	nop
    5cc8:	00000013          	nop
    5ccc:	00000013          	nop
    5cd0:	00000013          	nop
    5cd4:	00000013          	nop
    5cd8:	00000013          	nop
    5cdc:	00000013          	nop
    5ce0:	00000013          	nop
    5ce4:	00000013          	nop
    5ce8:	00000013          	nop
    5cec:	00000013          	nop
    5cf0:	00000013          	nop
    5cf4:	00000013          	nop
    5cf8:	00000013          	nop
    5cfc:	00000013          	nop
    5d00:	00000013          	nop
    5d04:	00000013          	nop
    5d08:	00000013          	nop
    5d0c:	00000013          	nop
    5d10:	00000013          	nop
    5d14:	00000013          	nop
    5d18:	00000013          	nop
    5d1c:	00000013          	nop
    5d20:	00000013          	nop
    5d24:	00000013          	nop
    5d28:	00000013          	nop
    5d2c:	00000013          	nop
    5d30:	00000013          	nop
    5d34:	00000013          	nop
    5d38:	00000013          	nop
    5d3c:	00000013          	nop
    5d40:	00000013          	nop
    5d44:	00000013          	nop
    5d48:	00000013          	nop
    5d4c:	00000013          	nop
    5d50:	00000013          	nop
    5d54:	00000013          	nop
    5d58:	00000013          	nop
    5d5c:	00000013          	nop
    5d60:	00000013          	nop
    5d64:	00000013          	nop
    5d68:	00000013          	nop
    5d6c:	00000013          	nop
    5d70:	00000013          	nop
    5d74:	00000013          	nop
    5d78:	00000013          	nop
    5d7c:	00000013          	nop
    5d80:	00000013          	nop
    5d84:	00000013          	nop
    5d88:	00000013          	nop
    5d8c:	00000013          	nop
    5d90:	00000013          	nop
    5d94:	00000013          	nop
    5d98:	00000013          	nop
    5d9c:	00000013          	nop
    5da0:	00000013          	nop
    5da4:	00000013          	nop
    5da8:	00000013          	nop
    5dac:	00000013          	nop
    5db0:	00000013          	nop
    5db4:	00000013          	nop
    5db8:	00000013          	nop
    5dbc:	00000013          	nop
    5dc0:	00000013          	nop
    5dc4:	00000013          	nop
    5dc8:	00000013          	nop
    5dcc:	00000013          	nop
    5dd0:	00000013          	nop
    5dd4:	00000013          	nop
    5dd8:	00000013          	nop
    5ddc:	00000013          	nop
    5de0:	00000013          	nop
    5de4:	00000013          	nop
    5de8:	00000013          	nop
    5dec:	00000013          	nop
    5df0:	00000013          	nop
    5df4:	00000013          	nop
    5df8:	00000013          	nop
    5dfc:	00000013          	nop
    5e00:	00000013          	nop
    5e04:	00000013          	nop
    5e08:	00000013          	nop
    5e0c:	00000013          	nop
    5e10:	00000013          	nop
    5e14:	00000013          	nop
    5e18:	00000013          	nop
    5e1c:	00000013          	nop
    5e20:	00000013          	nop
    5e24:	00000013          	nop
    5e28:	00000013          	nop
    5e2c:	00000013          	nop
    5e30:	00000013          	nop
    5e34:	00000013          	nop
    5e38:	00000013          	nop
    5e3c:	00000013          	nop
    5e40:	00000013          	nop
    5e44:	00000013          	nop
    5e48:	00000013          	nop
    5e4c:	00000013          	nop
    5e50:	00000013          	nop
    5e54:	00000013          	nop
    5e58:	00000013          	nop
    5e5c:	00000013          	nop
    5e60:	00000013          	nop
    5e64:	00000013          	nop
    5e68:	00000013          	nop
    5e6c:	00000013          	nop
    5e70:	00000013          	nop
    5e74:	00000013          	nop
    5e78:	00000013          	nop
    5e7c:	00000013          	nop
    5e80:	00000013          	nop
    5e84:	00000013          	nop
    5e88:	00000013          	nop
    5e8c:	00000013          	nop
    5e90:	00000013          	nop
    5e94:	00000013          	nop
    5e98:	00000013          	nop
    5e9c:	00000013          	nop
    5ea0:	00000013          	nop
    5ea4:	00000013          	nop
    5ea8:	00000013          	nop
    5eac:	00000013          	nop
    5eb0:	00000013          	nop
    5eb4:	00000013          	nop
    5eb8:	00000013          	nop
    5ebc:	00000013          	nop
    5ec0:	00000013          	nop
    5ec4:	00000013          	nop
    5ec8:	00000013          	nop
    5ecc:	00000013          	nop
    5ed0:	00000013          	nop
    5ed4:	00000013          	nop
    5ed8:	00000013          	nop
    5edc:	00000013          	nop
    5ee0:	00000013          	nop
    5ee4:	00000013          	nop
    5ee8:	00000013          	nop
    5eec:	00000013          	nop
    5ef0:	00000013          	nop
    5ef4:	00000013          	nop
    5ef8:	00000013          	nop
    5efc:	00000013          	nop
    5f00:	00000013          	nop
    5f04:	00000013          	nop
    5f08:	00000013          	nop
    5f0c:	00000013          	nop
    5f10:	00000013          	nop
    5f14:	00000013          	nop
    5f18:	00000013          	nop
    5f1c:	00000013          	nop
    5f20:	00000013          	nop
    5f24:	00000013          	nop
    5f28:	00000013          	nop
    5f2c:	00000013          	nop
    5f30:	00000013          	nop
    5f34:	00000013          	nop
    5f38:	00000013          	nop
    5f3c:	00000013          	nop
    5f40:	00000013          	nop
    5f44:	00000013          	nop
    5f48:	00000013          	nop
    5f4c:	00000013          	nop
    5f50:	00000013          	nop
    5f54:	00000013          	nop
    5f58:	00000013          	nop
    5f5c:	00000013          	nop
    5f60:	00000013          	nop
    5f64:	00000013          	nop
    5f68:	00000013          	nop
    5f6c:	00000013          	nop
    5f70:	00000013          	nop
    5f74:	00000013          	nop
    5f78:	00000013          	nop
    5f7c:	00000013          	nop
    5f80:	00000013          	nop
    5f84:	00000013          	nop
    5f88:	00000013          	nop
    5f8c:	00000013          	nop
    5f90:	00000013          	nop
    5f94:	00000013          	nop
    5f98:	00000013          	nop
    5f9c:	00000013          	nop
    5fa0:	00000013          	nop
    5fa4:	00000013          	nop
    5fa8:	00000013          	nop
    5fac:	00000013          	nop
    5fb0:	00000013          	nop
    5fb4:	00000013          	nop
