
rv32uzfh-p-fclass:     ファイル形式 elf32-littleriscv


セクション .text.init の逆アセンブル:

00000000 <_start>:
   0:	0500006f          	j	50 <reset_vector>

00000004 <trap_vector>:
   4:	34202f73          	csrr	t5,mcause
   8:	00800f93          	li	t6,8
   c:	03ff0863          	beq	t5,t6,3c <write_tohost>
  10:	00900f93          	li	t6,9
  14:	03ff0463          	beq	t5,t6,3c <write_tohost>
  18:	00b00f93          	li	t6,11
  1c:	03ff0063          	beq	t5,t6,3c <write_tohost>
  20:	00000f13          	li	t5,0
  24:	000f0463          	beqz	t5,2c <trap_vector+0x28>
  28:	000f0067          	jr	t5
  2c:	34202f73          	csrr	t5,mcause
  30:	000f5463          	bgez	t5,38 <handle_exception>
  34:	0040006f          	j	38 <handle_exception>

00000038 <handle_exception>:
  38:	5391e193          	ori	gp,gp,1337

0000003c <write_tohost>:
  3c:	00001f17          	auipc	t5,0x1
  40:	fc3f2223          	sw	gp,-60(t5) # 1000 <tohost>
  44:	00001f17          	auipc	t5,0x1
  48:	fc0f2023          	sw	zero,-64(t5) # 1004 <tohost+0x4>
  4c:	ff1ff06f          	j	3c <write_tohost>

00000050 <reset_vector>:
  50:	00000093          	li	ra,0
  54:	00000113          	li	sp,0
  58:	00000193          	li	gp,0
  5c:	00000213          	li	tp,0
  60:	00000293          	li	t0,0
  64:	00000313          	li	t1,0
  68:	00000393          	li	t2,0
  6c:	00000413          	li	s0,0
  70:	00000493          	li	s1,0
  74:	00000513          	li	a0,0
  78:	00000593          	li	a1,0
  7c:	00000613          	li	a2,0
  80:	00000693          	li	a3,0
  84:	00000713          	li	a4,0
  88:	00000793          	li	a5,0
  8c:	00000813          	li	a6,0
  90:	00000893          	li	a7,0
  94:	00000913          	li	s2,0
  98:	00000993          	li	s3,0
  9c:	00000a13          	li	s4,0
  a0:	00000a93          	li	s5,0
  a4:	00000b13          	li	s6,0
  a8:	00000b93          	li	s7,0
  ac:	00000c13          	li	s8,0
  b0:	00000c93          	li	s9,0
  b4:	00000d13          	li	s10,0
  b8:	00000d93          	li	s11,0
  bc:	00000e13          	li	t3,0
  c0:	00000e93          	li	t4,0
  c4:	00000f13          	li	t5,0
  c8:	00000f93          	li	t6,0
  cc:	f1402573          	csrr	a0,mhartid
  d0:	00051063          	bnez	a0,d0 <reset_vector+0x80>
  d4:	00000297          	auipc	t0,0x0
  d8:	01028293          	addi	t0,t0,16 # e4 <reset_vector+0x94>
  dc:	30529073          	csrw	mtvec,t0
  e0:	74445073          	csrwi	mnstatus,8
  e4:	00000297          	auipc	t0,0x0
  e8:	01028293          	addi	t0,t0,16 # f4 <reset_vector+0xa4>
  ec:	30529073          	csrw	mtvec,t0
  f0:	18005073          	csrwi	satp,0
  f4:	00000297          	auipc	t0,0x0
  f8:	02028293          	addi	t0,t0,32 # 114 <reset_vector+0xc4>
  fc:	30529073          	csrw	mtvec,t0
 100:	800002b7          	lui	t0,0x80000
 104:	fff28293          	addi	t0,t0,-1 # 7fffffff <_end+0x7fffdfff>
 108:	3b029073          	csrw	pmpaddr0,t0
 10c:	01f00293          	li	t0,31
 110:	3a029073          	csrw	pmpcfg0,t0
 114:	30405073          	csrwi	mie,0
 118:	00000297          	auipc	t0,0x0
 11c:	01428293          	addi	t0,t0,20 # 12c <reset_vector+0xdc>
 120:	30529073          	csrw	mtvec,t0
 124:	30205073          	csrwi	medeleg,0
 128:	30305073          	csrwi	mideleg,0
 12c:	00000193          	li	gp,0
 130:	00000297          	auipc	t0,0x0
 134:	ed428293          	addi	t0,t0,-300 # 4 <trap_vector>
 138:	30529073          	csrw	mtvec,t0
 13c:	00100513          	li	a0,1
 140:	01f51513          	slli	a0,a0,0x1f
 144:	00054c63          	bltz	a0,15c <reset_vector+0x10c>
 148:	0ff0000f          	fence
 14c:	00100193          	li	gp,1
 150:	05d00893          	li	a7,93
 154:	00000513          	li	a0,0
 158:	00000073          	ecall
 15c:	00000293          	li	t0,0
 160:	00028a63          	beqz	t0,174 <reset_vector+0x124>
 164:	10529073          	csrw	stvec,t0
 168:	0000b2b7          	lui	t0,0xb
 16c:	10928293          	addi	t0,t0,265 # b109 <_end+0x9109>
 170:	30229073          	csrw	medeleg,t0
 174:	30005073          	csrwi	mstatus,0
 178:	00002537          	lui	a0,0x2
 17c:	30052073          	csrs	mstatus,a0
 180:	00305073          	csrwi	fcsr,0
 184:	00000297          	auipc	t0,0x0
 188:	01428293          	addi	t0,t0,20 # 198 <test_2>
 18c:	34129073          	csrw	mepc,t0
 190:	f1402573          	csrr	a0,mhartid
 194:	30200073          	mret

00000198 <test_2>:
 198:	00200193          	li	gp,2
 19c:	00010537          	lui	a0,0x10
 1a0:	c0050513          	addi	a0,a0,-1024 # fc00 <_end+0xdc00>
 1a4:	f4050553          	fmv.h.x	fa0,a0
 1a8:	e4051553          	fclass.h	a0,fa0
 1ac:	00100393          	li	t2,1
 1b0:	0e751c63          	bne	a0,t2,2a8 <fail>

000001b4 <test_3>:
 1b4:	00300193          	li	gp,3
 1b8:	0000c537          	lui	a0,0xc
 1bc:	c0050513          	addi	a0,a0,-1024 # bc00 <_end+0x9c00>
 1c0:	f4050553          	fmv.h.x	fa0,a0
 1c4:	e4051553          	fclass.h	a0,fa0
 1c8:	00200393          	li	t2,2
 1cc:	0c751e63          	bne	a0,t2,2a8 <fail>

000001d0 <test_4>:
 1d0:	00400193          	li	gp,4
 1d4:	00008537          	lui	a0,0x8
 1d8:	3ff50513          	addi	a0,a0,1023 # 83ff <_end+0x63ff>
 1dc:	f4050553          	fmv.h.x	fa0,a0
 1e0:	e4051553          	fclass.h	a0,fa0
 1e4:	00400393          	li	t2,4
 1e8:	0c751063          	bne	a0,t2,2a8 <fail>

000001ec <test_5>:
 1ec:	00500193          	li	gp,5
 1f0:	00008537          	lui	a0,0x8
 1f4:	f4050553          	fmv.h.x	fa0,a0
 1f8:	e4051553          	fclass.h	a0,fa0
 1fc:	00800393          	li	t2,8
 200:	0a751463          	bne	a0,t2,2a8 <fail>

00000204 <test_6>:
 204:	00600193          	li	gp,6
 208:	00000513          	li	a0,0
 20c:	f4050553          	fmv.h.x	fa0,a0
 210:	e4051553          	fclass.h	a0,fa0
 214:	01000393          	li	t2,16
 218:	08751863          	bne	a0,t2,2a8 <fail>

0000021c <test_7>:
 21c:	00700193          	li	gp,7
 220:	3ff00513          	li	a0,1023
 224:	f4050553          	fmv.h.x	fa0,a0
 228:	e4051553          	fclass.h	a0,fa0
 22c:	02000393          	li	t2,32
 230:	06751c63          	bne	a0,t2,2a8 <fail>

00000234 <test_8>:
 234:	00800193          	li	gp,8
 238:	00004537          	lui	a0,0x4
 23c:	c0050513          	addi	a0,a0,-1024 # 3c00 <_end+0x1c00>
 240:	f4050553          	fmv.h.x	fa0,a0
 244:	e4051553          	fclass.h	a0,fa0
 248:	04000393          	li	t2,64
 24c:	04751e63          	bne	a0,t2,2a8 <fail>

00000250 <test_9>:
 250:	00900193          	li	gp,9
 254:	00008537          	lui	a0,0x8
 258:	c0050513          	addi	a0,a0,-1024 # 7c00 <_end+0x5c00>
 25c:	f4050553          	fmv.h.x	fa0,a0
 260:	e4051553          	fclass.h	a0,fa0
 264:	08000393          	li	t2,128
 268:	04751063          	bne	a0,t2,2a8 <fail>

0000026c <test_10>:
 26c:	00a00193          	li	gp,10
 270:	00008537          	lui	a0,0x8
 274:	c0150513          	addi	a0,a0,-1023 # 7c01 <_end+0x5c01>
 278:	f4050553          	fmv.h.x	fa0,a0
 27c:	e4051553          	fclass.h	a0,fa0
 280:	10000393          	li	t2,256
 284:	02751263          	bne	a0,t2,2a8 <fail>

00000288 <test_11>:
 288:	00b00193          	li	gp,11
 28c:	00008537          	lui	a0,0x8
 290:	e0050513          	addi	a0,a0,-512 # 7e00 <_end+0x5e00>
 294:	f4050553          	fmv.h.x	fa0,a0
 298:	e4051553          	fclass.h	a0,fa0
 29c:	20000393          	li	t2,512
 2a0:	00751463          	bne	a0,t2,2a8 <fail>
 2a4:	02301063          	bne	zero,gp,2c4 <pass>

000002a8 <fail>:
 2a8:	0ff0000f          	fence
 2ac:	00018063          	beqz	gp,2ac <fail+0x4>
 2b0:	00119193          	slli	gp,gp,0x1
 2b4:	0011e193          	ori	gp,gp,1
 2b8:	05d00893          	li	a7,93
 2bc:	00018513          	mv	a0,gp
 2c0:	00000073          	ecall

000002c4 <pass>:
 2c4:	0ff0000f          	fence
 2c8:	00100193          	li	gp,1
 2cc:	05d00893          	li	a7,93
 2d0:	00000513          	li	a0,0
 2d4:	00000073          	ecall
 2d8:	c0001073          	unimp
 2dc:	00000013          	nop
 2e0:	00000013          	nop
 2e4:	00000013          	nop
 2e8:	00000013          	nop
 2ec:	00000013          	nop
 2f0:	00000013          	nop
 2f4:	00000013          	nop
 2f8:	00000013          	nop
