
rv64uzbb-v-rol:     ファイル形式 elf64-littleriscv


セクション .text.init の逆アセンブル:

0000000000000000 <_start>:
   0:	00c0006f          	j	c <handle_reset>

0000000000000004 <nmi_vector>:
   4:	2b40206f          	j	22b8 <wtf>

0000000000000008 <trap_vector>:
   8:	2b00206f          	j	22b8 <wtf>

000000000000000c <handle_reset>:
   c:	00000093          	li	ra,0
  10:	00000113          	li	sp,0
  14:	00000193          	li	gp,0
  18:	00000213          	li	tp,0
  1c:	00000293          	li	t0,0
  20:	00000313          	li	t1,0
  24:	00000393          	li	t2,0
  28:	00000413          	li	s0,0
  2c:	00000493          	li	s1,0
  30:	00000513          	li	a0,0
  34:	00000593          	li	a1,0
  38:	00000613          	li	a2,0
  3c:	00000693          	li	a3,0
  40:	00000713          	li	a4,0
  44:	00000793          	li	a5,0
  48:	00000813          	li	a6,0
  4c:	00000893          	li	a7,0
  50:	00000913          	li	s2,0
  54:	00000993          	li	s3,0
  58:	00000a13          	li	s4,0
  5c:	00000a93          	li	s5,0
  60:	00000b13          	li	s6,0
  64:	00000b93          	li	s7,0
  68:	00000c13          	li	s8,0
  6c:	00000c93          	li	s9,0
  70:	00000d13          	li	s10,0
  74:	00000d93          	li	s11,0
  78:	00000e13          	li	t3,0
  7c:	00000e93          	li	t4,0
  80:	00000f13          	li	t5,0
  84:	00000f93          	li	t6,0
  88:	00000297          	auipc	t0,0x0
  8c:	01028293          	addi	t0,t0,16 # 98 <handle_reset+0x8c>
  90:	30529073          	csrw	mtvec,t0
  94:	74445073          	csrwi	mnstatus,8
  98:	00000297          	auipc	t0,0x0
  9c:	f7028293          	addi	t0,t0,-144 # 8 <trap_vector>
  a0:	30529073          	csrw	mtvec,t0
  a4:	0000d117          	auipc	sp,0xd
  a8:	e3c10113          	addi	sp,sp,-452 # cee0 <freelist_head+0x3ed8>
  ac:	f14022f3          	csrr	t0,mhartid
  b0:	00c29293          	slli	t0,t0,0xc
  b4:	00510133          	add	sp,sp,t0
  b8:	34011073          	csrw	mscratch,sp
  bc:	131020ef          	jal	29ec <extra_boot>
  c0:	00003517          	auipc	a0,0x3
  c4:	94050513          	addi	a0,a0,-1728 # 2a00 <userstart>
  c8:	7180206f          	j	27e0 <vm_boot>

00000000000000cc <pop_tf>:
  cc:	10853283          	ld	t0,264(a0)
  d0:	14129073          	csrw	sepc,t0
  d4:	00853083          	ld	ra,8(a0)
  d8:	01053103          	ld	sp,16(a0)
  dc:	01853183          	ld	gp,24(a0)
  e0:	02053203          	ld	tp,32(a0)
  e4:	02853283          	ld	t0,40(a0)
  e8:	03053303          	ld	t1,48(a0)
  ec:	03853383          	ld	t2,56(a0)
  f0:	04053403          	ld	s0,64(a0)
  f4:	04853483          	ld	s1,72(a0)
  f8:	05853583          	ld	a1,88(a0)
  fc:	06053603          	ld	a2,96(a0)
 100:	06853683          	ld	a3,104(a0)
 104:	07053703          	ld	a4,112(a0)
 108:	07853783          	ld	a5,120(a0)
 10c:	08053803          	ld	a6,128(a0)
 110:	08853883          	ld	a7,136(a0)
 114:	09053903          	ld	s2,144(a0)
 118:	09853983          	ld	s3,152(a0)
 11c:	0a053a03          	ld	s4,160(a0)
 120:	0a853a83          	ld	s5,168(a0)
 124:	0b053b03          	ld	s6,176(a0)
 128:	0b853b83          	ld	s7,184(a0)
 12c:	0c053c03          	ld	s8,192(a0)
 130:	0c853c83          	ld	s9,200(a0)
 134:	0d053d03          	ld	s10,208(a0)
 138:	0d853d83          	ld	s11,216(a0)
 13c:	0e053e03          	ld	t3,224(a0)
 140:	0e853e83          	ld	t4,232(a0)
 144:	0f053f03          	ld	t5,240(a0)
 148:	0f853f83          	ld	t6,248(a0)
 14c:	05053503          	ld	a0,80(a0)
 150:	10200073          	sret

0000000000000154 <trap_entry>:
 154:	14011173          	csrrw	sp,sscratch,sp
 158:	00113423          	sd	ra,8(sp)
 15c:	00313c23          	sd	gp,24(sp)
 160:	02413023          	sd	tp,32(sp)
 164:	02513423          	sd	t0,40(sp)
 168:	02613823          	sd	t1,48(sp)
 16c:	02713c23          	sd	t2,56(sp)
 170:	04813023          	sd	s0,64(sp)
 174:	04913423          	sd	s1,72(sp)
 178:	04a13823          	sd	a0,80(sp)
 17c:	04b13c23          	sd	a1,88(sp)
 180:	06c13023          	sd	a2,96(sp)
 184:	06d13423          	sd	a3,104(sp)
 188:	06e13823          	sd	a4,112(sp)
 18c:	06f13c23          	sd	a5,120(sp)
 190:	09013023          	sd	a6,128(sp)
 194:	09113423          	sd	a7,136(sp)
 198:	09213823          	sd	s2,144(sp)
 19c:	09313c23          	sd	s3,152(sp)
 1a0:	0b413023          	sd	s4,160(sp)
 1a4:	0b513423          	sd	s5,168(sp)
 1a8:	0b613823          	sd	s6,176(sp)
 1ac:	0b713c23          	sd	s7,184(sp)
 1b0:	0d813023          	sd	s8,192(sp)
 1b4:	0d913423          	sd	s9,200(sp)
 1b8:	0da13823          	sd	s10,208(sp)
 1bc:	0db13c23          	sd	s11,216(sp)
 1c0:	0fc13023          	sd	t3,224(sp)
 1c4:	0fd13423          	sd	t4,232(sp)
 1c8:	0fe13823          	sd	t5,240(sp)
 1cc:	0ff13c23          	sd	t6,248(sp)
 1d0:	140112f3          	csrrw	t0,sscratch,sp
 1d4:	00513823          	sd	t0,16(sp)
 1d8:	100022f3          	csrr	t0,sstatus
 1dc:	10513023          	sd	t0,256(sp)
 1e0:	141022f3          	csrr	t0,sepc
 1e4:	10513423          	sd	t0,264(sp)
 1e8:	143022f3          	csrr	t0,stval
 1ec:	10513823          	sd	t0,272(sp)
 1f0:	142022f3          	csrr	t0,scause
 1f4:	10513c23          	sd	t0,280(sp)
 1f8:	00010513          	mv	a0,sp
 1fc:	3740206f          	j	2570 <handle_trap>

セクション .text の逆アセンブル:

0000000000002000 <memcpy>:
    2000:	00c5e7b3          	or	a5,a1,a2
    2004:	00f567b3          	or	a5,a0,a5
    2008:	0077f793          	andi	a5,a5,7
    200c:	00c506b3          	add	a3,a0,a2
    2010:	02078463          	beqz	a5,2038 <memcpy+0x38>
    2014:	00c58633          	add	a2,a1,a2
    2018:	00050793          	mv	a5,a0
    201c:	02d57e63          	bgeu	a0,a3,2058 <memcpy+0x58>
    2020:	0005c703          	lbu	a4,0(a1)
    2024:	00158593          	addi	a1,a1,1
    2028:	00178793          	addi	a5,a5,1
    202c:	fee78fa3          	sb	a4,-1(a5)
    2030:	feb618e3          	bne	a2,a1,2020 <memcpy+0x20>
    2034:	00008067          	ret
    2038:	fed57ee3          	bgeu	a0,a3,2034 <memcpy+0x34>
    203c:	00050793          	mv	a5,a0
    2040:	0005b703          	ld	a4,0(a1)
    2044:	00878793          	addi	a5,a5,8
    2048:	00858593          	addi	a1,a1,8
    204c:	fee7bc23          	sd	a4,-8(a5)
    2050:	fed7e8e3          	bltu	a5,a3,2040 <memcpy+0x40>
    2054:	00008067          	ret
    2058:	00008067          	ret

000000000000205c <memset>:
    205c:	00c567b3          	or	a5,a0,a2
    2060:	0077f793          	andi	a5,a5,7
    2064:	00050693          	mv	a3,a0
    2068:	00c50733          	add	a4,a0,a2
    206c:	00078863          	beqz	a5,207c <memset+0x20>
    2070:	02e57c63          	bgeu	a0,a4,20a8 <memset+0x4c>
    2074:	0ff5f593          	zext.b	a1,a1
    2078:	fe5ff06f          	j	205c <memset>
    207c:	02e57663          	bgeu	a0,a4,20a8 <memset+0x4c>
    2080:	010107b7          	lui	a5,0x1010
    2084:	10178793          	addi	a5,a5,257 # 1010101 <freelist_head+0x10070f9>
    2088:	02079613          	slli	a2,a5,0x20
    208c:	00f60633          	add	a2,a2,a5
    2090:	0ff5f593          	zext.b	a1,a1
    2094:	02c585b3          	mul	a1,a1,a2
    2098:	00050793          	mv	a5,a0
    209c:	00878793          	addi	a5,a5,8
    20a0:	feb7bc23          	sd	a1,-8(a5)
    20a4:	fee7ece3          	bltu	a5,a4,209c <memset+0x40>
    20a8:	00068513          	mv	a0,a3
    20ac:	00008067          	ret

00000000000020b0 <strlen>:
    20b0:	00054783          	lbu	a5,0(a0)
    20b4:	00078e63          	beqz	a5,20d0 <strlen+0x20>
    20b8:	00050793          	mv	a5,a0
    20bc:	0017c703          	lbu	a4,1(a5)
    20c0:	00178793          	addi	a5,a5,1
    20c4:	fe071ce3          	bnez	a4,20bc <strlen+0xc>
    20c8:	40a78533          	sub	a0,a5,a0
    20cc:	00008067          	ret
    20d0:	00000513          	li	a0,0
    20d4:	00008067          	ret

00000000000020d8 <strcmp>:
    20d8:	00054683          	lbu	a3,0(a0)
    20dc:	0005c603          	lbu	a2,0(a1)
    20e0:	00150513          	addi	a0,a0,1
    20e4:	00d037b3          	snez	a5,a3
    20e8:	40c68733          	sub	a4,a3,a2
    20ec:	00173713          	seqz	a4,a4
    20f0:	00e7f7b3          	and	a5,a5,a4
    20f4:	00158593          	addi	a1,a1,1
    20f8:	fe0790e3          	bnez	a5,20d8 <strcmp>
    20fc:	40c6853b          	subw	a0,a3,a2
    2100:	00008067          	ret

0000000000002104 <memcmp>:
    2104:	00b567b3          	or	a5,a0,a1
    2108:	0077f793          	andi	a5,a5,7
    210c:	02079e63          	bnez	a5,2148 <memcmp+0x44>
    2110:	ff867813          	andi	a6,a2,-8
    2114:	01050833          	add	a6,a0,a6
    2118:	03057863          	bgeu	a0,a6,2148 <memcmp+0x44>
    211c:	00050793          	mv	a5,a0
    2120:	0100006f          	j	2130 <memcmp+0x2c>
    2124:	00878793          	addi	a5,a5,8
    2128:	00858593          	addi	a1,a1,8
    212c:	0107f863          	bgeu	a5,a6,213c <memcmp+0x38>
    2130:	0007b683          	ld	a3,0(a5)
    2134:	0005b703          	ld	a4,0(a1)
    2138:	fee686e3          	beq	a3,a4,2124 <memcmp+0x20>
    213c:	40a78533          	sub	a0,a5,a0
    2140:	40a60633          	sub	a2,a2,a0
    2144:	00078513          	mv	a0,a5
    2148:	00c58633          	add	a2,a1,a2
    214c:	0140006f          	j	2160 <memcmp+0x5c>
    2150:	fff54783          	lbu	a5,-1(a0)
    2154:	0005c703          	lbu	a4,0(a1)
    2158:	00158593          	addi	a1,a1,1
    215c:	00e79a63          	bne	a5,a4,2170 <memcmp+0x6c>
    2160:	00150513          	addi	a0,a0,1
    2164:	feb616e3          	bne	a2,a1,2150 <memcmp+0x4c>
    2168:	00000513          	li	a0,0
    216c:	00008067          	ret
    2170:	40e7853b          	subw	a0,a5,a4
    2174:	00008067          	ret

0000000000002178 <strcpy>:
    2178:	00050793          	mv	a5,a0
    217c:	0005c703          	lbu	a4,0(a1)
    2180:	00158593          	addi	a1,a1,1
    2184:	00178793          	addi	a5,a5,1
    2188:	fee78fa3          	sb	a4,-1(a5)
    218c:	fe0718e3          	bnez	a4,217c <strcpy+0x4>
    2190:	00008067          	ret

0000000000002194 <atol>:
    2194:	00054703          	lbu	a4,0(a0)
    2198:	02000693          	li	a3,32
    219c:	00050793          	mv	a5,a0
    21a0:	00d71863          	bne	a4,a3,21b0 <atol+0x1c>
    21a4:	0017c703          	lbu	a4,1(a5)
    21a8:	00178793          	addi	a5,a5,1
    21ac:	fed70ce3          	beq	a4,a3,21a4 <atol+0x10>
    21b0:	fd57069b          	addiw	a3,a4,-43
    21b4:	0fd6f693          	andi	a3,a3,253
    21b8:	04069463          	bnez	a3,2200 <atol+0x6c>
    21bc:	0017c683          	lbu	a3,1(a5)
    21c0:	fd370713          	addi	a4,a4,-45
    21c4:	00173613          	seqz	a2,a4
    21c8:	04068663          	beqz	a3,2214 <atol+0x80>
    21cc:	00178793          	addi	a5,a5,1
    21d0:	00000513          	li	a0,0
    21d4:	00178793          	addi	a5,a5,1
    21d8:	fd06859b          	addiw	a1,a3,-48
    21dc:	00251713          	slli	a4,a0,0x2
    21e0:	0007c683          	lbu	a3,0(a5)
    21e4:	00a70733          	add	a4,a4,a0
    21e8:	00171713          	slli	a4,a4,0x1
    21ec:	00e58533          	add	a0,a1,a4
    21f0:	fe0692e3          	bnez	a3,21d4 <atol+0x40>
    21f4:	00060463          	beqz	a2,21fc <atol+0x68>
    21f8:	40a00533          	neg	a0,a0
    21fc:	00008067          	ret
    2200:	0007c683          	lbu	a3,0(a5)
    2204:	00000613          	li	a2,0
    2208:	fc0694e3          	bnez	a3,21d0 <atol+0x3c>
    220c:	00000513          	li	a0,0
    2210:	00008067          	ret
    2214:	00000513          	li	a0,0
    2218:	fddff06f          	j	21f4 <atol+0x60>

000000000000221c <cputstring>:
    221c:	00054783          	lbu	a5,0(a0)
    2220:	04078063          	beqz	a5,2260 <cputstring+0x44>
    2224:	10100593          	li	a1,257
    2228:	03059593          	slli	a1,a1,0x30
    222c:	fffff717          	auipc	a4,0xfffff
    2230:	dd470713          	addi	a4,a4,-556 # 1000 <tohost>
    2234:	00073603          	ld	a2,0(a4)
    2238:	00150513          	addi	a0,a0,1
    223c:	00b7e6b3          	or	a3,a5,a1
    2240:	00060a63          	beqz	a2,2254 <cputstring+0x38>
    2244:	fffff797          	auipc	a5,0xfffff
    2248:	de07be23          	sd	zero,-516(a5) # 1040 <fromhost>
    224c:	00073783          	ld	a5,0(a4)
    2250:	fe079ae3          	bnez	a5,2244 <cputstring+0x28>
    2254:	00d73023          	sd	a3,0(a4)
    2258:	00054783          	lbu	a5,0(a0)
    225c:	fc079ce3          	bnez	a5,2234 <cputstring+0x18>
    2260:	00008067          	ret

0000000000002264 <terminate>:
    2264:	fffff717          	auipc	a4,0xfffff
    2268:	d9c70713          	addi	a4,a4,-612 # 1000 <tohost>
    226c:	00073783          	ld	a5,0(a4)
    2270:	00078a63          	beqz	a5,2284 <terminate+0x20>
    2274:	fffff797          	auipc	a5,0xfffff
    2278:	dc07b623          	sd	zero,-564(a5) # 1040 <fromhost>
    227c:	00073783          	ld	a5,0(a4)
    2280:	fe079ae3          	bnez	a5,2274 <terminate+0x10>
    2284:	00a73023          	sd	a0,0(a4)
    2288:	0000006f          	j	2288 <terminate+0x24>

000000000000228c <terminate.constprop.0>:
    228c:	fffff717          	auipc	a4,0xfffff
    2290:	d7470713          	addi	a4,a4,-652 # 1000 <tohost>
    2294:	00073783          	ld	a5,0(a4)
    2298:	00078a63          	beqz	a5,22ac <terminate.constprop.0+0x20>
    229c:	fffff797          	auipc	a5,0xfffff
    22a0:	da07b223          	sd	zero,-604(a5) # 1040 <fromhost>
    22a4:	00073783          	ld	a5,0(a4)
    22a8:	fe079ae3          	bnez	a5,229c <terminate.constprop.0+0x10>
    22ac:	00300793          	li	a5,3
    22b0:	00f73023          	sd	a5,0(a4)
    22b4:	0000006f          	j	22b4 <terminate.constprop.0+0x28>

00000000000022b8 <wtf>:
    22b8:	ff010113          	addi	sp,sp,-16
    22bc:	34900513          	li	a0,841
    22c0:	00113423          	sd	ra,8(sp)
    22c4:	fa1ff0ef          	jal	2264 <terminate>

00000000000022c8 <printhex>:
    22c8:	fe010113          	addi	sp,sp,-32
    22cc:	00810613          	addi	a2,sp,8
    22d0:	01710713          	addi	a4,sp,23
    22d4:	00900593          	li	a1,9
    22d8:	0080006f          	j	22e0 <printhex+0x18>
    22dc:	fff70713          	addi	a4,a4,-1
    22e0:	00f57693          	andi	a3,a0,15
    22e4:	00d5b7b3          	sltu	a5,a1,a3
    22e8:	40f007b3          	neg	a5,a5
    22ec:	0277f793          	andi	a5,a5,39
    22f0:	03078793          	addi	a5,a5,48
    22f4:	00d787b3          	add	a5,a5,a3
    22f8:	00f70023          	sb	a5,0(a4)
    22fc:	00455513          	srli	a0,a0,0x4
    2300:	fce61ee3          	bne	a2,a4,22dc <printhex+0x14>
    2304:	00814783          	lbu	a5,8(sp)
    2308:	00010c23          	sb	zero,24(sp)
    230c:	04078263          	beqz	a5,2350 <printhex+0x88>
    2310:	10100513          	li	a0,257
    2314:	00060693          	mv	a3,a2
    2318:	03051513          	slli	a0,a0,0x30
    231c:	fffff717          	auipc	a4,0xfffff
    2320:	ce470713          	addi	a4,a4,-796 # 1000 <tohost>
    2324:	00073583          	ld	a1,0(a4)
    2328:	00168693          	addi	a3,a3,1
    232c:	00a7e633          	or	a2,a5,a0
    2330:	00058a63          	beqz	a1,2344 <printhex+0x7c>
    2334:	fffff797          	auipc	a5,0xfffff
    2338:	d007b623          	sd	zero,-756(a5) # 1040 <fromhost>
    233c:	00073783          	ld	a5,0(a4)
    2340:	fe079ae3          	bnez	a5,2334 <printhex+0x6c>
    2344:	0006c783          	lbu	a5,0(a3)
    2348:	00c73023          	sd	a2,0(a4)
    234c:	fc079ce3          	bnez	a5,2324 <printhex+0x5c>
    2350:	02010113          	addi	sp,sp,32
    2354:	00008067          	ret

0000000000002358 <handle_fault>:
    2358:	fc010113          	addi	sp,sp,-64
    235c:	00100793          	li	a5,1
    2360:	fffff737          	lui	a4,0xfffff
    2364:	02f12223          	sw	a5,36(sp)
    2368:	02113c23          	sd	ra,56(sp)
    236c:	02013423          	sd	zero,40(sp)
    2370:	00e506b3          	add	a3,a0,a4
    2374:	0003e7b7          	lui	a5,0x3e
    2378:	1af6f863          	bgeu	a3,a5,2528 <handle_fault+0x1d0>
    237c:	00e577b3          	and	a5,a0,a4
    2380:	00c7d893          	srli	a7,a5,0xc
    2384:	60088713          	addi	a4,a7,1536
    2388:	00371693          	slli	a3,a4,0x3
    238c:	00003817          	auipc	a6,0x3
    2390:	c7480813          	addi	a6,a6,-908 # 5000 <pt>
    2394:	00d806b3          	add	a3,a6,a3
    2398:	0006b683          	ld	a3,0(a3)
    239c:	12069263          	bnez	a3,24c0 <handle_fault+0x168>
    23a0:	00007697          	auipc	a3,0x7
    23a4:	c686b683          	ld	a3,-920(a3) # 9008 <freelist_head>
    23a8:	02813823          	sd	s0,48(sp)
    23ac:	1a068263          	beqz	a3,2550 <handle_fault+0x1f8>
    23b0:	0086b603          	ld	a2,8(a3)
    23b4:	00007597          	auipc	a1,0x7
    23b8:	c4c5b583          	ld	a1,-948(a1) # 9000 <freelist_tail>
    23bc:	00007517          	auipc	a0,0x7
    23c0:	c4c53623          	sd	a2,-948(a0) # 9008 <freelist_head>
    23c4:	14b60c63          	beq	a2,a1,251c <handle_fault+0x1c4>
    23c8:	00078513          	mv	a0,a5
    23cc:	02410613          	addi	a2,sp,36
    23d0:	02810593          	addi	a1,sp,40
    23d4:	0006b403          	ld	s0,0(a3)
    23d8:	00e13c23          	sd	a4,24(sp)
    23dc:	01113823          	sd	a7,16(sp)
    23e0:	00f13423          	sd	a5,8(sp)
    23e4:	00d13023          	sd	a3,0(sp)
    23e8:	610000ef          	jal	29f8 <pf_filter>
    23ec:	00013683          	ld	a3,0(sp)
    23f0:	00813783          	ld	a5,8(sp)
    23f4:	01013883          	ld	a7,16(sp)
    23f8:	01813703          	ld	a4,24(sp)
    23fc:	00003817          	auipc	a6,0x3
    2400:	c0480813          	addi	a6,a6,-1020 # 5000 <pt>
    2404:	0e051c63          	bnez	a0,24fc <handle_fault+0x1a4>
    2408:	00c45613          	srli	a2,s0,0xc
    240c:	00a61613          	slli	a2,a2,0xa
    2410:	01f66613          	ori	a2,a2,31
    2414:	00371593          	slli	a1,a4,0x3
    2418:	00b805b3          	add	a1,a6,a1
    241c:	0c066513          	ori	a0,a2,192
    2420:	00a5b023          	sd	a0,0(a1)
    2424:	12078073          	sfence.vma	a5
    2428:	00002597          	auipc	a1,0x2
    242c:	bd858593          	addi	a1,a1,-1064 # 4000 <user_mapping>
    2430:	00489893          	slli	a7,a7,0x4
    2434:	011585b3          	add	a1,a1,a7
    2438:	0005b503          	ld	a0,0(a1)
    243c:	12051263          	bnez	a0,2560 <handle_fault+0x208>
    2440:	0006b883          	ld	a7,0(a3)
    2444:	00040537          	lui	a0,0x40
    2448:	0115b023          	sd	a7,0(a1)
    244c:	0086b683          	ld	a3,8(a3)
    2450:	00d5b423          	sd	a3,8(a1)
    2454:	10052573          	csrrs	a0,sstatus,a0
    2458:	ffe006b7          	lui	a3,0xffe00
    245c:	00d786b3          	add	a3,a5,a3
    2460:	000018b7          	lui	a7,0x1
    2464:	011688b3          	add	a7,a3,a7
    2468:	00078593          	mv	a1,a5
    246c:	0106b303          	ld	t1,16(a3) # ffffffffffe00010 <freelist_head+0xffffffffffdf7008>
    2470:	0006be83          	ld	t4,0(a3)
    2474:	0086be03          	ld	t3,8(a3)
    2478:	0065b823          	sd	t1,16(a1)
    247c:	01d5b023          	sd	t4,0(a1)
    2480:	01c5b423          	sd	t3,8(a1)
    2484:	0186b303          	ld	t1,24(a3)
    2488:	02068693          	addi	a3,a3,32
    248c:	02058593          	addi	a1,a1,32
    2490:	fe65bc23          	sd	t1,-8(a1)
    2494:	fd169ce3          	bne	a3,a7,246c <handle_fault+0x114>
    2498:	10051073          	csrw	sstatus,a0
    249c:	00371713          	slli	a4,a4,0x3
    24a0:	00e80733          	add	a4,a6,a4
    24a4:	00c73023          	sd	a2,0(a4) # fffffffffffff000 <freelist_head+0xffffffffffff5ff8>
    24a8:	12078073          	sfence.vma	a5
    24ac:	0000100f          	fence.i
    24b0:	03013403          	ld	s0,48(sp)
    24b4:	03813083          	ld	ra,56(sp)
    24b8:	04010113          	addi	sp,sp,64
    24bc:	00008067          	ret
    24c0:	0406f613          	andi	a2,a3,64
    24c4:	04060863          	beqz	a2,2514 <handle_fault+0x1bc>
    24c8:	ff158593          	addi	a1,a1,-15
    24cc:	0076d613          	srli	a2,a3,0x7
    24d0:	0015b593          	seqz	a1,a1
    24d4:	40c5f633          	andn	a2,a1,a2
    24d8:	0806e693          	ori	a3,a3,128
    24dc:	06060063          	beqz	a2,253c <handle_fault+0x1e4>
    24e0:	00371713          	slli	a4,a4,0x3
    24e4:	00e80733          	add	a4,a6,a4
    24e8:	00d73023          	sd	a3,0(a4)
    24ec:	12078073          	sfence.vma	a5
    24f0:	03813083          	ld	ra,56(sp)
    24f4:	04010113          	addi	sp,sp,64
    24f8:	00008067          	ret
    24fc:	0006b603          	ld	a2,0(a3)
    2500:	02813583          	ld	a1,40(sp)
    2504:	00c65613          	srli	a2,a2,0xc
    2508:	00a61613          	slli	a2,a2,0xa
    250c:	00b66633          	or	a2,a2,a1
    2510:	f05ff06f          	j	2414 <handle_fault+0xbc>
    2514:	0406e693          	ori	a3,a3,64
    2518:	fc9ff06f          	j	24e0 <handle_fault+0x188>
    251c:	00007617          	auipc	a2,0x7
    2520:	ae063223          	sd	zero,-1308(a2) # 9000 <freelist_tail>
    2524:	ea5ff06f          	j	23c8 <handle_fault+0x70>
    2528:	00001517          	auipc	a0,0x1
    252c:	b1850513          	addi	a0,a0,-1256 # 3040 <pass+0x10>
    2530:	02813823          	sd	s0,48(sp)
    2534:	ce9ff0ef          	jal	221c <cputstring>
    2538:	d55ff0ef          	jal	228c <terminate.constprop.0>
    253c:	00001517          	auipc	a0,0x1
    2540:	b5450513          	addi	a0,a0,-1196 # 3090 <pass+0x60>
    2544:	02813823          	sd	s0,48(sp)
    2548:	cd5ff0ef          	jal	221c <cputstring>
    254c:	d41ff0ef          	jal	228c <terminate.constprop.0>
    2550:	00001517          	auipc	a0,0x1
    2554:	b8850513          	addi	a0,a0,-1144 # 30d8 <pass+0xa8>
    2558:	cc5ff0ef          	jal	221c <cputstring>
    255c:	d31ff0ef          	jal	228c <terminate.constprop.0>
    2560:	00001517          	auipc	a0,0x1
    2564:	b9050513          	addi	a0,a0,-1136 # 30f0 <pass+0xc0>
    2568:	cb5ff0ef          	jal	221c <cputstring>
    256c:	d21ff0ef          	jal	228c <terminate.constprop.0>

0000000000002570 <handle_trap>:
    2570:	fb010113          	addi	sp,sp,-80
    2574:	04813023          	sd	s0,64(sp)
    2578:	04113423          	sd	ra,72(sp)
    257c:	00050413          	mv	s0,a0
    2580:	470000ef          	jal	29f0 <trap_filter>
    2584:	0c051263          	bnez	a0,2648 <handle_trap+0xd8>
    2588:	11843583          	ld	a1,280(s0)
    258c:	00800793          	li	a5,8
    2590:	0ef58063          	beq	a1,a5,2670 <handle_trap+0x100>
    2594:	00200793          	li	a5,2
    2598:	02f58c63          	beq	a1,a5,25d0 <handle_trap+0x60>
    259c:	ff458793          	addi	a5,a1,-12
    25a0:	ff158713          	addi	a4,a1,-15
    25a4:	0027b793          	sltiu	a5,a5,2
    25a8:	00173713          	seqz	a4,a4
    25ac:	00e7e7b3          	or	a5,a5,a4
    25b0:	20078663          	beqz	a5,27bc <handle_trap+0x24c>
    25b4:	11043503          	ld	a0,272(s0)
    25b8:	da1ff0ef          	jal	2358 <handle_fault>
    25bc:	00040513          	mv	a0,s0
    25c0:	04013403          	ld	s0,64(sp)
    25c4:	04813083          	ld	ra,72(sp)
    25c8:	05010113          	addi	sp,sp,80
    25cc:	b01fd06f          	j	cc <pop_tf>
    25d0:	10843783          	ld	a5,264(s0)
    25d4:	0037f713          	andi	a4,a5,3
    25d8:	08071263          	bnez	a4,265c <handle_trap+0xec>
    25dc:	0007a703          	lw	a4,0(a5) # 3e000 <freelist_head+0x34ff8>
    25e0:	008007ef          	jal	a5,25e8 <handle_trap+0x78>
    25e4:	00301073          	fscsr	zero
    25e8:	0007a783          	lw	a5,0(a5)
    25ec:	02913c23          	sd	s1,56(sp)
    25f0:	06f70263          	beq	a4,a5,2654 <handle_trap+0xe4>
    25f4:	10100513          	li	a0,257
    25f8:	03051513          	slli	a0,a0,0x30
    25fc:	04100793          	li	a5,65
    2600:	00001697          	auipc	a3,0x1
    2604:	b3068693          	addi	a3,a3,-1232 # 3130 <pass+0x100>
    2608:	fffff717          	auipc	a4,0xfffff
    260c:	9f870713          	addi	a4,a4,-1544 # 1000 <tohost>
    2610:	00001817          	auipc	a6,0x1
    2614:	b4980813          	addi	a6,a6,-1207 # 3159 <pass+0x129>
    2618:	00073583          	ld	a1,0(a4)
    261c:	00168693          	addi	a3,a3,1
    2620:	00a7e633          	or	a2,a5,a0
    2624:	00058a63          	beqz	a1,2638 <handle_trap+0xc8>
    2628:	fffff797          	auipc	a5,0xfffff
    262c:	a007bc23          	sd	zero,-1512(a5) # 1040 <fromhost>
    2630:	00073783          	ld	a5,0(a4)
    2634:	fe079ae3          	bnez	a5,2628 <handle_trap+0xb8>
    2638:	00c73023          	sd	a2,0(a4)
    263c:	0006c783          	lbu	a5,0(a3)
    2640:	fd069ce3          	bne	a3,a6,2618 <handle_trap+0xa8>
    2644:	c49ff0ef          	jal	228c <terminate.constprop.0>
    2648:	00040513          	mv	a0,s0
    264c:	a81fd0ef          	jal	cc <pop_tf>
    2650:	f39ff06f          	j	2588 <handle_trap+0x18>
    2654:	00100513          	li	a0,1
    2658:	c0dff0ef          	jal	2264 <terminate>
    265c:	00001517          	auipc	a0,0x1
    2660:	b7450513          	addi	a0,a0,-1164 # 31d0 <pass+0x1a0>
    2664:	02913c23          	sd	s1,56(sp)
    2668:	bb5ff0ef          	jal	221c <cputstring>
    266c:	c21ff0ef          	jal	228c <terminate.constprop.0>
    2670:	05043e03          	ld	t3,80(s0)
    2674:	00001437          	lui	s0,0x1
    2678:	02913c23          	sd	s1,56(sp)
    267c:	00040313          	mv	t1,s0
    2680:	00002897          	auipc	a7,0x2
    2684:	98088893          	addi	a7,a7,-1664 # 4000 <user_mapping>
    2688:	00003297          	auipc	t0,0x3
    268c:	97828293          	addi	t0,t0,-1672 # 5000 <pt>
    2690:	00040fb7          	lui	t6,0x40
    2694:	ffe00f37          	lui	t5,0xffe00
    2698:	0003feb7          	lui	t4,0x3f
    269c:	00c45793          	srli	a5,s0,0xc
    26a0:	00479713          	slli	a4,a5,0x4
    26a4:	00e886b3          	add	a3,a7,a4
    26a8:	0006b683          	ld	a3,0(a3)
    26ac:	0e068063          	beqz	a3,278c <handle_trap+0x21c>
    26b0:	60078793          	addi	a5,a5,1536
    26b4:	00379793          	slli	a5,a5,0x3
    26b8:	00f287b3          	add	a5,t0,a5
    26bc:	0007b683          	ld	a3,0(a5)
    26c0:	0406f793          	andi	a5,a3,64
    26c4:	0e078463          	beqz	a5,27ac <handle_trap+0x23c>
    26c8:	02e13423          	sd	a4,40(sp)
    26cc:	02d13023          	sd	a3,32(sp)
    26d0:	01c13c23          	sd	t3,24(sp)
    26d4:	100fa3f3          	csrrs	t2,sstatus,t6
    26d8:	01e407b3          	add	a5,s0,t5
    26dc:	00078593          	mv	a1,a5
    26e0:	00040513          	mv	a0,s0
    26e4:	00001637          	lui	a2,0x1
    26e8:	00713823          	sd	t2,16(sp)
    26ec:	00f13423          	sd	a5,8(sp)
    26f0:	a15ff0ef          	jal	2104 <memcmp>
    26f4:	01013383          	ld	t2,16(sp)
    26f8:	01813e03          	ld	t3,24(sp)
    26fc:	02813703          	ld	a4,40(sp)
    2700:	ffe00f37          	lui	t5,0xffe00
    2704:	00040fb7          	lui	t6,0x40
    2708:	00002897          	auipc	a7,0x2
    270c:	8f888893          	addi	a7,a7,-1800 # 4000 <user_mapping>
    2710:	00003297          	auipc	t0,0x3
    2714:	8f028293          	addi	t0,t0,-1808 # 5000 <pt>
    2718:	00001337          	lui	t1,0x1
    271c:	00007817          	auipc	a6,0x7
    2720:	8e480813          	addi	a6,a6,-1820 # 9000 <freelist_tail>
    2724:	0003feb7          	lui	t4,0x3f
    2728:	04050463          	beqz	a0,2770 <handle_trap+0x200>
    272c:	02013683          	ld	a3,32(sp)
    2730:	00813783          	ld	a5,8(sp)
    2734:	0806f693          	andi	a3,a3,128
    2738:	08068c63          	beqz	a3,27d0 <handle_trap+0x260>
    273c:	00040693          	mv	a3,s0
    2740:	00640633          	add	a2,s0,t1
    2744:	0106b583          	ld	a1,16(a3)
    2748:	0086b503          	ld	a0,8(a3)
    274c:	0006b483          	ld	s1,0(a3)
    2750:	00b7b823          	sd	a1,16(a5)
    2754:	00a7b423          	sd	a0,8(a5)
    2758:	0097b023          	sd	s1,0(a5)
    275c:	0186b583          	ld	a1,24(a3)
    2760:	02068693          	addi	a3,a3,32
    2764:	02078793          	addi	a5,a5,32
    2768:	feb7bc23          	sd	a1,-8(a5)
    276c:	fcc69ce3          	bne	a3,a2,2744 <handle_trap+0x1d4>
    2770:	00e887b3          	add	a5,a7,a4
    2774:	10039073          	csrw	sstatus,t2
    2778:	00083703          	ld	a4,0(a6)
    277c:	0007b023          	sd	zero,0(a5)
    2780:	00070e63          	beqz	a4,279c <handle_trap+0x22c>
    2784:	00f73423          	sd	a5,8(a4)
    2788:	00f83023          	sd	a5,0(a6)
    278c:	00640433          	add	s0,s0,t1
    2790:	f1d416e3          	bne	s0,t4,269c <handle_trap+0x12c>
    2794:	000e051b          	sext.w	a0,t3
    2798:	acdff0ef          	jal	2264 <terminate>
    279c:	00f83023          	sd	a5,0(a6)
    27a0:	00007717          	auipc	a4,0x7
    27a4:	86f73423          	sd	a5,-1944(a4) # 9008 <freelist_head>
    27a8:	fe5ff06f          	j	278c <handle_trap+0x21c>
    27ac:	00001517          	auipc	a0,0x1
    27b0:	9b450513          	addi	a0,a0,-1612 # 3160 <pass+0x130>
    27b4:	a69ff0ef          	jal	221c <cputstring>
    27b8:	ad5ff0ef          	jal	228c <terminate.constprop.0>
    27bc:	00001517          	auipc	a0,0x1
    27c0:	a3c50513          	addi	a0,a0,-1476 # 31f8 <pass+0x1c8>
    27c4:	02913c23          	sd	s1,56(sp)
    27c8:	a55ff0ef          	jal	221c <cputstring>
    27cc:	e79ff06f          	j	2644 <handle_trap+0xd4>
    27d0:	00001517          	auipc	a0,0x1
    27d4:	9c850513          	addi	a0,a0,-1592 # 3198 <pass+0x168>
    27d8:	a45ff0ef          	jal	221c <cputstring>
    27dc:	ab1ff0ef          	jal	228c <terminate.constprop.0>

00000000000027e0 <vm_boot>:
    27e0:	f14027f3          	csrr	a5,mhartid
    27e4:	1a079463          	bnez	a5,298c <vm_boot+0x1ac>
    27e8:	00004817          	auipc	a6,0x4
    27ec:	81880813          	addi	a6,a6,-2024 # 6000 <pt+0x1000>
    27f0:	00006897          	auipc	a7,0x6
    27f4:	81088893          	addi	a7,a7,-2032 # 8000 <pt+0x3000>
    27f8:	00005797          	auipc	a5,0x5
    27fc:	80878793          	addi	a5,a5,-2040 # 7000 <pt+0x2000>
    2800:	ed010113          	addi	sp,sp,-304
    2804:	00c8d693          	srli	a3,a7,0xc
    2808:	00c85713          	srli	a4,a6,0xc
    280c:	00c7d793          	srli	a5,a5,0xc
    2810:	12813023          	sd	s0,288(sp)
    2814:	00002317          	auipc	t1,0x2
    2818:	7ec30313          	addi	t1,t1,2028 # 5000 <pt>
    281c:	00050413          	mv	s0,a0
    2820:	00a79793          	slli	a5,a5,0xa
    2824:	00a69693          	slli	a3,a3,0xa
    2828:	00a71713          	slli	a4,a4,0xa
    282c:	fff00513          	li	a0,-1
    2830:	200005b7          	lui	a1,0x20000
    2834:	12113423          	sd	ra,296(sp)
    2838:	0017e793          	ori	a5,a5,1
    283c:	0016e693          	ori	a3,a3,1
    2840:	00176713          	ori	a4,a4,1
    2844:	00c35613          	srli	a2,t1,0xc
    2848:	03f51513          	slli	a0,a0,0x3f
    284c:	0cf58593          	addi	a1,a1,207 # 200000cf <freelist_head+0x1fff70c7>
    2850:	fef83c23          	sd	a5,-8(a6)
    2854:	00d83023          	sd	a3,0(a6)
    2858:	00e33023          	sd	a4,0(t1)
    285c:	00a667b3          	or	a5,a2,a0
    2860:	feb8bc23          	sd	a1,-8(a7)
    2864:	18079073          	csrw	satp,a5
    2868:	18002773          	csrr	a4,satp
    286c:	16e79863          	bne	a5,a4,29dc <vm_boot+0x1fc>
    2870:	800007b7          	lui	a5,0x80000
    2874:	12078073          	sfence.vma	a5
    2878:	80000793          	li	a5,-2048
    287c:	60b7d793          	rori	a5,a5,0xb
    2880:	01f00713          	li	a4,31
    2884:	00000297          	auipc	t0,0x0
    2888:	01428293          	addi	t0,t0,20 # 2898 <vm_boot+0xb8>
    288c:	305292f3          	csrrw	t0,mtvec,t0
    2890:	3b079073          	csrw	pmpaddr0,a5
    2894:	3a071073          	csrw	pmpcfg0,a4
    2898:	30529073          	csrw	mtvec,t0
    289c:	bff00693          	li	a3,-1025
    28a0:	01569693          	slli	a3,a3,0x15
    28a4:	ffffe797          	auipc	a5,0xffffe
    28a8:	8b078793          	addi	a5,a5,-1872 # 154 <trap_entry>
    28ac:	00d787b3          	add	a5,a5,a3
    28b0:	10579073          	csrw	stvec,a5
    28b4:	340027f3          	csrr	a5,mscratch
    28b8:	00d787b3          	add	a5,a5,a3
    28bc:	14079073          	csrw	sscratch,a5
    28c0:	0000b7b7          	lui	a5,0xb
    28c4:	1007879b          	addiw	a5,a5,256 # b100 <freelist_head+0x20f8>
    28c8:	30279073          	csrw	medeleg,a5
    28cc:	0001e7b7          	lui	a5,0x1e
    28d0:	6007879b          	addiw	a5,a5,1536 # 1e600 <freelist_head+0x155f8>
    28d4:	30079073          	csrw	mstatus,a5
    28d8:	30405073          	csrwi	mie,0
    28dc:	00002717          	auipc	a4,0x2
    28e0:	b1470713          	addi	a4,a4,-1260 # 43f0 <freelist_nodes>
    28e4:	3e068793          	addi	a5,a3,992
    28e8:	bff00813          	li	a6,-1025
    28ec:	00d706b3          	add	a3,a4,a3
    28f0:	00f707b3          	add	a5,a4,a5
    28f4:	01581813          	slli	a6,a6,0x15
    28f8:	000808b7          	lui	a7,0x80
    28fc:	00006617          	auipc	a2,0x6
    2900:	70d63623          	sd	a3,1804(a2) # 9008 <freelist_head>
    2904:	01080813          	addi	a6,a6,16
    2908:	00006697          	auipc	a3,0x6
    290c:	6ef6bc23          	sd	a5,1784(a3) # 9000 <freelist_tail>
    2910:	03f88893          	addi	a7,a7,63 # 8003f <freelist_head+0x77037>
    2914:	00002317          	auipc	t1,0x2
    2918:	ecc30313          	addi	t1,t1,-308 # 47e0 <freelist_nodes+0x3f0>
    291c:	01400793          	li	a5,20
    2920:	0017d613          	srli	a2,a5,0x1
    2924:	00f646b3          	xor	a3,a2,a5
    2928:	011787b3          	add	a5,a5,a7
    292c:	00c79793          	slli	a5,a5,0xc
    2930:	010705b3          	add	a1,a4,a6
    2934:	00569693          	slli	a3,a3,0x5
    2938:	00f73023          	sd	a5,0(a4)
    293c:	0206f693          	andi	a3,a3,32
    2940:	00b73423          	sd	a1,8(a4)
    2944:	01070713          	addi	a4,a4,16
    2948:	00d667b3          	or	a5,a2,a3
    294c:	fce31ae3          	bne	t1,a4,2920 <vm_boot+0x140>
    2950:	00010513          	mv	a0,sp
    2954:	12000613          	li	a2,288
    2958:	00000593          	li	a1,0
    295c:	00002797          	auipc	a5,0x2
    2960:	e607be23          	sd	zero,-388(a5) # 47d8 <freelist_nodes+0x3e8>
    2964:	ef8ff0ef          	jal	205c <memset>
    2968:	800007b7          	lui	a5,0x80000
    296c:	00f40433          	add	s0,s0,a5
    2970:	00010513          	mv	a0,sp
    2974:	10813423          	sd	s0,264(sp)
    2978:	f54fd0ef          	jal	cc <pop_tf>
    297c:	12813083          	ld	ra,296(sp)
    2980:	12013403          	ld	s0,288(sp)
    2984:	13010113          	addi	sp,sp,304
    2988:	00008067          	ret
    298c:	00100693          	li	a3,1
    2990:	0fc007b7          	lui	a5,0xfc00
    2994:	00080637          	lui	a2,0x80
    2998:	7b478793          	addi	a5,a5,1972 # fc007b4 <freelist_head+0xfbf77ac>
    299c:	ffc60613          	addi	a2,a2,-4 # 7fffc <freelist_head+0x76ff4>
    29a0:	03e69693          	slli	a3,a3,0x3e
    29a4:	80000537          	lui	a0,0x80000
    29a8:	01c0006f          	j	29c4 <vm_boot+0x1e4>
    29ac:	0007202f          	amoadd.w	zero,zero,(a4)
    29b0:	0017d713          	srli	a4,a5,0x1
    29b4:	00e7c7b3          	xor	a5,a5,a4
    29b8:	03e79793          	slli	a5,a5,0x3e
    29bc:	00d7f7b3          	and	a5,a5,a3
    29c0:	00e7e7b3          	or	a5,a5,a4
    29c4:	00c7f733          	and	a4,a5,a2
    29c8:	0017f593          	andi	a1,a5,1
    29cc:	40a70733          	sub	a4,a4,a0
    29d0:	fc059ee3          	bnez	a1,29ac <vm_boot+0x1cc>
    29d4:	00072003          	lw	zero,0(a4)
    29d8:	fd9ff06f          	j	29b0 <vm_boot+0x1d0>
    29dc:	00001517          	auipc	a0,0x1
    29e0:	84c50513          	addi	a0,a0,-1972 # 3228 <pass+0x1f8>
    29e4:	839ff0ef          	jal	221c <cputstring>
    29e8:	8a5ff0ef          	jal	228c <terminate.constprop.0>

00000000000029ec <extra_boot>:
    29ec:	00008067          	ret

00000000000029f0 <trap_filter>:
    29f0:	00000513          	li	a0,0
    29f4:	00008067          	ret

00000000000029f8 <pf_filter>:
    29f8:	00000513          	li	a0,0
    29fc:	00008067          	ret

0000000000002a00 <userstart>:
    2a00:	00200193          	li	gp,2
    2a04:	00100593          	li	a1,1
    2a08:	00000613          	li	a2,0
    2a0c:	60c59733          	rol	a4,a1,a2
    2a10:	00100393          	li	t2,1
    2a14:	60771663          	bne	a4,t2,3020 <fail>

0000000000002a18 <test_3>:
    2a18:	00300193          	li	gp,3
    2a1c:	00100593          	li	a1,1
    2a20:	00100613          	li	a2,1
    2a24:	60c59733          	rol	a4,a1,a2
    2a28:	00200393          	li	t2,2
    2a2c:	5e771a63          	bne	a4,t2,3020 <fail>

0000000000002a30 <test_4>:
    2a30:	00400193          	li	gp,4
    2a34:	00100593          	li	a1,1
    2a38:	00700613          	li	a2,7
    2a3c:	60c59733          	rol	a4,a1,a2
    2a40:	08000393          	li	t2,128
    2a44:	5c771e63          	bne	a4,t2,3020 <fail>

0000000000002a48 <test_5>:
    2a48:	00500193          	li	gp,5
    2a4c:	00100593          	li	a1,1
    2a50:	00e00613          	li	a2,14
    2a54:	60c59733          	rol	a4,a1,a2
    2a58:	000043b7          	lui	t2,0x4
    2a5c:	5c771263          	bne	a4,t2,3020 <fail>

0000000000002a60 <test_6>:
    2a60:	00600193          	li	gp,6
    2a64:	00100593          	li	a1,1
    2a68:	01f00613          	li	a2,31
    2a6c:	60c59733          	rol	a4,a1,a2
    2a70:	0010039b          	addiw	t2,zero,1
    2a74:	01f39393          	slli	t2,t2,0x1f
    2a78:	5a771463          	bne	a4,t2,3020 <fail>

0000000000002a7c <test_7>:
    2a7c:	00700193          	li	gp,7
    2a80:	fff00593          	li	a1,-1
    2a84:	00000613          	li	a2,0
    2a88:	60c59733          	rol	a4,a1,a2
    2a8c:	fff00393          	li	t2,-1
    2a90:	58771863          	bne	a4,t2,3020 <fail>

0000000000002a94 <test_8>:
    2a94:	00800193          	li	gp,8
    2a98:	fff00593          	li	a1,-1
    2a9c:	00100613          	li	a2,1
    2aa0:	60c59733          	rol	a4,a1,a2
    2aa4:	fff00393          	li	t2,-1
    2aa8:	56771c63          	bne	a4,t2,3020 <fail>

0000000000002aac <test_9>:
    2aac:	00900193          	li	gp,9
    2ab0:	fff00593          	li	a1,-1
    2ab4:	00700613          	li	a2,7
    2ab8:	60c59733          	rol	a4,a1,a2
    2abc:	fff00393          	li	t2,-1
    2ac0:	56771063          	bne	a4,t2,3020 <fail>

0000000000002ac4 <test_10>:
    2ac4:	00a00193          	li	gp,10
    2ac8:	fff00593          	li	a1,-1
    2acc:	00e00613          	li	a2,14
    2ad0:	60c59733          	rol	a4,a1,a2
    2ad4:	fff00393          	li	t2,-1
    2ad8:	54771463          	bne	a4,t2,3020 <fail>

0000000000002adc <test_11>:
    2adc:	00b00193          	li	gp,11
    2ae0:	fff00593          	li	a1,-1
    2ae4:	01f00613          	li	a2,31
    2ae8:	60c59733          	rol	a4,a1,a2
    2aec:	fff00393          	li	t2,-1
    2af0:	52771863          	bne	a4,t2,3020 <fail>

0000000000002af4 <test_12>:
    2af4:	00c00193          	li	gp,12
    2af8:	212125b7          	lui	a1,0x21212
    2afc:	1215859b          	addiw	a1,a1,289 # 21212121 <freelist_head+0x21209119>
    2b00:	00000613          	li	a2,0
    2b04:	60c59733          	rol	a4,a1,a2
    2b08:	212123b7          	lui	t2,0x21212
    2b0c:	1213839b          	addiw	t2,t2,289 # 21212121 <freelist_head+0x21209119>
    2b10:	50771863          	bne	a4,t2,3020 <fail>

0000000000002b14 <test_13>:
    2b14:	00d00193          	li	gp,13
    2b18:	212125b7          	lui	a1,0x21212
    2b1c:	1215859b          	addiw	a1,a1,289 # 21212121 <freelist_head+0x21209119>
    2b20:	00100613          	li	a2,1
    2b24:	60c59733          	rol	a4,a1,a2
    2b28:	424243b7          	lui	t2,0x42424
    2b2c:	2423839b          	addiw	t2,t2,578 # 42424242 <freelist_head+0x4241b23a>
    2b30:	4e771863          	bne	a4,t2,3020 <fail>

0000000000002b34 <test_14>:
    2b34:	00e00193          	li	gp,14
    2b38:	212125b7          	lui	a1,0x21212
    2b3c:	1215859b          	addiw	a1,a1,289 # 21212121 <freelist_head+0x21209119>
    2b40:	00700613          	li	a2,7
    2b44:	60c59733          	rol	a4,a1,a2
    2b48:	010913b7          	lui	t2,0x1091
    2b4c:	9093839b          	addiw	t2,t2,-1783 # 1090909 <freelist_head+0x1087901>
    2b50:	00c39393          	slli	t2,t2,0xc
    2b54:	08038393          	addi	t2,t2,128
    2b58:	4c771463          	bne	a4,t2,3020 <fail>

0000000000002b5c <test_15>:
    2b5c:	00f00193          	li	gp,15
    2b60:	212125b7          	lui	a1,0x21212
    2b64:	1215859b          	addiw	a1,a1,289 # 21212121 <freelist_head+0x21209119>
    2b68:	00e00613          	li	a2,14
    2b6c:	60c59733          	rol	a4,a1,a2
    2b70:	212123b7          	lui	t2,0x21212
    2b74:	1213839b          	addiw	t2,t2,289 # 21212121 <freelist_head+0x21209119>
    2b78:	00e39393          	slli	t2,t2,0xe
    2b7c:	4a771263          	bne	a4,t2,3020 <fail>

0000000000002b80 <test_16>:
    2b80:	01000193          	li	gp,16
    2b84:	212125b7          	lui	a1,0x21212
    2b88:	1215859b          	addiw	a1,a1,289 # 21212121 <freelist_head+0x21209119>
    2b8c:	01f00613          	li	a2,31
    2b90:	60c59733          	rol	a4,a1,a2
    2b94:	212123b7          	lui	t2,0x21212
    2b98:	1213839b          	addiw	t2,t2,289 # 21212121 <freelist_head+0x21209119>
    2b9c:	01f39393          	slli	t2,t2,0x1f
    2ba0:	48771063          	bne	a4,t2,3020 <fail>

0000000000002ba4 <test_17>:
    2ba4:	01100193          	li	gp,17
    2ba8:	212125b7          	lui	a1,0x21212
    2bac:	1215859b          	addiw	a1,a1,289 # 21212121 <freelist_head+0x21209119>
    2bb0:	fc000613          	li	a2,-64
    2bb4:	60c59733          	rol	a4,a1,a2
    2bb8:	212123b7          	lui	t2,0x21212
    2bbc:	1213839b          	addiw	t2,t2,289 # 21212121 <freelist_head+0x21209119>
    2bc0:	46771063          	bne	a4,t2,3020 <fail>

0000000000002bc4 <test_18>:
    2bc4:	01200193          	li	gp,18
    2bc8:	212125b7          	lui	a1,0x21212
    2bcc:	1215859b          	addiw	a1,a1,289 # 21212121 <freelist_head+0x21209119>
    2bd0:	fc100613          	li	a2,-63
    2bd4:	60c59733          	rol	a4,a1,a2
    2bd8:	424243b7          	lui	t2,0x42424
    2bdc:	2423839b          	addiw	t2,t2,578 # 42424242 <freelist_head+0x4241b23a>
    2be0:	44771063          	bne	a4,t2,3020 <fail>

0000000000002be4 <test_19>:
    2be4:	01300193          	li	gp,19
    2be8:	212125b7          	lui	a1,0x21212
    2bec:	1215859b          	addiw	a1,a1,289 # 21212121 <freelist_head+0x21209119>
    2bf0:	fc700613          	li	a2,-57
    2bf4:	60c59733          	rol	a4,a1,a2
    2bf8:	010913b7          	lui	t2,0x1091
    2bfc:	9093839b          	addiw	t2,t2,-1783 # 1090909 <freelist_head+0x1087901>
    2c00:	00c39393          	slli	t2,t2,0xc
    2c04:	08038393          	addi	t2,t2,128
    2c08:	40771c63          	bne	a4,t2,3020 <fail>

0000000000002c0c <test_20>:
    2c0c:	01400193          	li	gp,20
    2c10:	212125b7          	lui	a1,0x21212
    2c14:	1215859b          	addiw	a1,a1,289 # 21212121 <freelist_head+0x21209119>
    2c18:	fce00613          	li	a2,-50
    2c1c:	60c59733          	rol	a4,a1,a2
    2c20:	212123b7          	lui	t2,0x21212
    2c24:	1213839b          	addiw	t2,t2,289 # 21212121 <freelist_head+0x21209119>
    2c28:	00e39393          	slli	t2,t2,0xe
    2c2c:	3e771a63          	bne	a4,t2,3020 <fail>

0000000000002c30 <test_21>:
    2c30:	01500193          	li	gp,21
    2c34:	212125b7          	lui	a1,0x21212
    2c38:	1215859b          	addiw	a1,a1,289 # 21212121 <freelist_head+0x21209119>
    2c3c:	fff00613          	li	a2,-1
    2c40:	60c59733          	rol	a4,a1,a2
    2c44:	fff0039b          	addiw	t2,zero,-1
    2c48:	02739393          	slli	t2,t2,0x27
    2c4c:	01138393          	addi	t2,t2,17
    2c50:	00c39393          	slli	t2,t2,0xc
    2c54:	90938393          	addi	t2,t2,-1783
    2c58:	00c39393          	slli	t2,t2,0xc
    2c5c:	09038393          	addi	t2,t2,144
    2c60:	3c771063          	bne	a4,t2,3020 <fail>

0000000000002c64 <test_50>:
    2c64:	03200193          	li	gp,50
    2c68:	00100593          	li	a1,1
    2c6c:	03f00613          	li	a2,63
    2c70:	60c59733          	rol	a4,a1,a2
    2c74:	fff0039b          	addiw	t2,zero,-1
    2c78:	03f39393          	slli	t2,t2,0x3f
    2c7c:	3a771263          	bne	a4,t2,3020 <fail>

0000000000002c80 <test_51>:
    2c80:	03300193          	li	gp,51
    2c84:	fff00593          	li	a1,-1
    2c88:	02700613          	li	a2,39
    2c8c:	60c59733          	rol	a4,a1,a2
    2c90:	fff00393          	li	t2,-1
    2c94:	38771663          	bne	a4,t2,3020 <fail>

0000000000002c98 <test_52>:
    2c98:	03400193          	li	gp,52
    2c9c:	212125b7          	lui	a1,0x21212
    2ca0:	1215859b          	addiw	a1,a1,289 # 21212121 <freelist_head+0x21209119>
    2ca4:	02b00613          	li	a2,43
    2ca8:	60c59733          	rol	a4,a1,a2
    2cac:	000123b7          	lui	t2,0x12
    2cb0:	1213839b          	addiw	t2,t2,289 # 12121 <freelist_head+0x9119>
    2cb4:	02b39393          	slli	t2,t2,0x2b
    2cb8:	10938393          	addi	t2,t2,265
    2cbc:	36771263          	bne	a4,t2,3020 <fail>

0000000000002cc0 <test_22>:
    2cc0:	01600193          	li	gp,22
    2cc4:	00100593          	li	a1,1
    2cc8:	00700613          	li	a2,7
    2ccc:	60c595b3          	rol	a1,a1,a2
    2cd0:	08000393          	li	t2,128
    2cd4:	34759663          	bne	a1,t2,3020 <fail>

0000000000002cd8 <test_23>:
    2cd8:	01700193          	li	gp,23
    2cdc:	00100593          	li	a1,1
    2ce0:	00e00613          	li	a2,14
    2ce4:	60c59633          	rol	a2,a1,a2
    2ce8:	000043b7          	lui	t2,0x4
    2cec:	32761a63          	bne	a2,t2,3020 <fail>

0000000000002cf0 <test_24>:
    2cf0:	01800193          	li	gp,24
    2cf4:	00300593          	li	a1,3
    2cf8:	60b595b3          	rol	a1,a1,a1
    2cfc:	01800393          	li	t2,24
    2d00:	32759063          	bne	a1,t2,3020 <fail>

0000000000002d04 <test_25>:
    2d04:	01900193          	li	gp,25
    2d08:	00000213          	li	tp,0
    2d0c:	00100093          	li	ra,1
    2d10:	00700113          	li	sp,7
    2d14:	60209733          	rol	a4,ra,sp
    2d18:	00070313          	mv	t1,a4
    2d1c:	00120213          	addi	tp,tp,1 # 1 <_start+0x1>
    2d20:	00200293          	li	t0,2
    2d24:	fe5214e3          	bne	tp,t0,2d0c <test_25+0x8>
    2d28:	08000393          	li	t2,128
    2d2c:	2e731a63          	bne	t1,t2,3020 <fail>

0000000000002d30 <test_26>:
    2d30:	01a00193          	li	gp,26
    2d34:	00000213          	li	tp,0
    2d38:	00100093          	li	ra,1
    2d3c:	00e00113          	li	sp,14
    2d40:	60209733          	rol	a4,ra,sp
    2d44:	00000013          	nop
    2d48:	00070313          	mv	t1,a4
    2d4c:	00120213          	addi	tp,tp,1 # 1 <_start+0x1>
    2d50:	00200293          	li	t0,2
    2d54:	fe5212e3          	bne	tp,t0,2d38 <test_26+0x8>
    2d58:	000043b7          	lui	t2,0x4
    2d5c:	2c731263          	bne	t1,t2,3020 <fail>

0000000000002d60 <test_27>:
    2d60:	01b00193          	li	gp,27
    2d64:	00000213          	li	tp,0
    2d68:	00100093          	li	ra,1
    2d6c:	01f00113          	li	sp,31
    2d70:	60209733          	rol	a4,ra,sp
    2d74:	00000013          	nop
    2d78:	00000013          	nop
    2d7c:	00070313          	mv	t1,a4
    2d80:	00120213          	addi	tp,tp,1 # 1 <_start+0x1>
    2d84:	00200293          	li	t0,2
    2d88:	fe5210e3          	bne	tp,t0,2d68 <test_27+0x8>
    2d8c:	0010039b          	addiw	t2,zero,1
    2d90:	01f39393          	slli	t2,t2,0x1f
    2d94:	28731663          	bne	t1,t2,3020 <fail>

0000000000002d98 <test_28>:
    2d98:	01c00193          	li	gp,28
    2d9c:	00000213          	li	tp,0
    2da0:	00100093          	li	ra,1
    2da4:	00700113          	li	sp,7
    2da8:	60209733          	rol	a4,ra,sp
    2dac:	00120213          	addi	tp,tp,1 # 1 <_start+0x1>
    2db0:	00200293          	li	t0,2
    2db4:	fe5216e3          	bne	tp,t0,2da0 <test_28+0x8>
    2db8:	08000393          	li	t2,128
    2dbc:	26771263          	bne	a4,t2,3020 <fail>

0000000000002dc0 <test_29>:
    2dc0:	01d00193          	li	gp,29
    2dc4:	00000213          	li	tp,0
    2dc8:	00100093          	li	ra,1
    2dcc:	00e00113          	li	sp,14
    2dd0:	00000013          	nop
    2dd4:	60209733          	rol	a4,ra,sp
    2dd8:	00120213          	addi	tp,tp,1 # 1 <_start+0x1>
    2ddc:	00200293          	li	t0,2
    2de0:	fe5214e3          	bne	tp,t0,2dc8 <test_29+0x8>
    2de4:	000043b7          	lui	t2,0x4
    2de8:	22771c63          	bne	a4,t2,3020 <fail>

0000000000002dec <test_30>:
    2dec:	01e00193          	li	gp,30
    2df0:	00000213          	li	tp,0
    2df4:	00100093          	li	ra,1
    2df8:	01f00113          	li	sp,31
    2dfc:	00000013          	nop
    2e00:	00000013          	nop
    2e04:	60209733          	rol	a4,ra,sp
    2e08:	00120213          	addi	tp,tp,1 # 1 <_start+0x1>
    2e0c:	00200293          	li	t0,2
    2e10:	fe5212e3          	bne	tp,t0,2df4 <test_30+0x8>
    2e14:	0010039b          	addiw	t2,zero,1
    2e18:	01f39393          	slli	t2,t2,0x1f
    2e1c:	20771263          	bne	a4,t2,3020 <fail>

0000000000002e20 <test_31>:
    2e20:	01f00193          	li	gp,31
    2e24:	00000213          	li	tp,0
    2e28:	00100093          	li	ra,1
    2e2c:	00000013          	nop
    2e30:	00700113          	li	sp,7
    2e34:	60209733          	rol	a4,ra,sp
    2e38:	00120213          	addi	tp,tp,1 # 1 <_start+0x1>
    2e3c:	00200293          	li	t0,2
    2e40:	fe5214e3          	bne	tp,t0,2e28 <test_31+0x8>
    2e44:	08000393          	li	t2,128
    2e48:	1c771c63          	bne	a4,t2,3020 <fail>

0000000000002e4c <test_32>:
    2e4c:	02000193          	li	gp,32
    2e50:	00000213          	li	tp,0
    2e54:	00100093          	li	ra,1
    2e58:	00000013          	nop
    2e5c:	00e00113          	li	sp,14
    2e60:	00000013          	nop
    2e64:	60209733          	rol	a4,ra,sp
    2e68:	00120213          	addi	tp,tp,1 # 1 <_start+0x1>
    2e6c:	00200293          	li	t0,2
    2e70:	fe5212e3          	bne	tp,t0,2e54 <test_32+0x8>
    2e74:	000043b7          	lui	t2,0x4
    2e78:	1a771463          	bne	a4,t2,3020 <fail>

0000000000002e7c <test_33>:
    2e7c:	02100193          	li	gp,33
    2e80:	00000213          	li	tp,0
    2e84:	00100093          	li	ra,1
    2e88:	00000013          	nop
    2e8c:	00000013          	nop
    2e90:	01f00113          	li	sp,31
    2e94:	60209733          	rol	a4,ra,sp
    2e98:	00120213          	addi	tp,tp,1 # 1 <_start+0x1>
    2e9c:	00200293          	li	t0,2
    2ea0:	fe5212e3          	bne	tp,t0,2e84 <test_33+0x8>
    2ea4:	0010039b          	addiw	t2,zero,1
    2ea8:	01f39393          	slli	t2,t2,0x1f
    2eac:	16771a63          	bne	a4,t2,3020 <fail>

0000000000002eb0 <test_34>:
    2eb0:	02200193          	li	gp,34
    2eb4:	00000213          	li	tp,0
    2eb8:	00700113          	li	sp,7
    2ebc:	00100093          	li	ra,1
    2ec0:	60209733          	rol	a4,ra,sp
    2ec4:	00120213          	addi	tp,tp,1 # 1 <_start+0x1>
    2ec8:	00200293          	li	t0,2
    2ecc:	fe5216e3          	bne	tp,t0,2eb8 <test_34+0x8>
    2ed0:	08000393          	li	t2,128
    2ed4:	14771663          	bne	a4,t2,3020 <fail>

0000000000002ed8 <test_35>:
    2ed8:	02300193          	li	gp,35
    2edc:	00000213          	li	tp,0
    2ee0:	00e00113          	li	sp,14
    2ee4:	00100093          	li	ra,1
    2ee8:	00000013          	nop
    2eec:	60209733          	rol	a4,ra,sp
    2ef0:	00120213          	addi	tp,tp,1 # 1 <_start+0x1>
    2ef4:	00200293          	li	t0,2
    2ef8:	fe5214e3          	bne	tp,t0,2ee0 <test_35+0x8>
    2efc:	000043b7          	lui	t2,0x4
    2f00:	12771063          	bne	a4,t2,3020 <fail>

0000000000002f04 <test_36>:
    2f04:	02400193          	li	gp,36
    2f08:	00000213          	li	tp,0
    2f0c:	01f00113          	li	sp,31
    2f10:	00100093          	li	ra,1
    2f14:	00000013          	nop
    2f18:	00000013          	nop
    2f1c:	60209733          	rol	a4,ra,sp
    2f20:	00120213          	addi	tp,tp,1 # 1 <_start+0x1>
    2f24:	00200293          	li	t0,2
    2f28:	fe5212e3          	bne	tp,t0,2f0c <test_36+0x8>
    2f2c:	0010039b          	addiw	t2,zero,1
    2f30:	01f39393          	slli	t2,t2,0x1f
    2f34:	0e771663          	bne	a4,t2,3020 <fail>

0000000000002f38 <test_37>:
    2f38:	02500193          	li	gp,37
    2f3c:	00000213          	li	tp,0
    2f40:	00700113          	li	sp,7
    2f44:	00000013          	nop
    2f48:	00100093          	li	ra,1
    2f4c:	60209733          	rol	a4,ra,sp
    2f50:	00120213          	addi	tp,tp,1 # 1 <_start+0x1>
    2f54:	00200293          	li	t0,2
    2f58:	fe5214e3          	bne	tp,t0,2f40 <test_37+0x8>
    2f5c:	08000393          	li	t2,128
    2f60:	0c771063          	bne	a4,t2,3020 <fail>

0000000000002f64 <test_38>:
    2f64:	02600193          	li	gp,38
    2f68:	00000213          	li	tp,0
    2f6c:	00e00113          	li	sp,14
    2f70:	00000013          	nop
    2f74:	00100093          	li	ra,1
    2f78:	00000013          	nop
    2f7c:	60209733          	rol	a4,ra,sp
    2f80:	00120213          	addi	tp,tp,1 # 1 <_start+0x1>
    2f84:	00200293          	li	t0,2
    2f88:	fe5212e3          	bne	tp,t0,2f6c <test_38+0x8>
    2f8c:	000043b7          	lui	t2,0x4
    2f90:	08771863          	bne	a4,t2,3020 <fail>

0000000000002f94 <test_39>:
    2f94:	02700193          	li	gp,39
    2f98:	00000213          	li	tp,0
    2f9c:	01f00113          	li	sp,31
    2fa0:	00000013          	nop
    2fa4:	00000013          	nop
    2fa8:	00100093          	li	ra,1
    2fac:	60209733          	rol	a4,ra,sp
    2fb0:	00120213          	addi	tp,tp,1 # 1 <_start+0x1>
    2fb4:	00200293          	li	t0,2
    2fb8:	fe5212e3          	bne	tp,t0,2f9c <test_39+0x8>
    2fbc:	0010039b          	addiw	t2,zero,1
    2fc0:	01f39393          	slli	t2,t2,0x1f
    2fc4:	04771e63          	bne	a4,t2,3020 <fail>

0000000000002fc8 <test_40>:
    2fc8:	02800193          	li	gp,40
    2fcc:	00f00093          	li	ra,15
    2fd0:	60101133          	rol	sp,zero,ra
    2fd4:	00000393          	li	t2,0
    2fd8:	04711463          	bne	sp,t2,3020 <fail>

0000000000002fdc <test_41>:
    2fdc:	02900193          	li	gp,41
    2fe0:	02000093          	li	ra,32
    2fe4:	60009133          	rol	sp,ra,zero
    2fe8:	02000393          	li	t2,32
    2fec:	02711a63          	bne	sp,t2,3020 <fail>

0000000000002ff0 <test_42>:
    2ff0:	02a00193          	li	gp,42
    2ff4:	600010b3          	rol	ra,zero,zero
    2ff8:	00000393          	li	t2,0
    2ffc:	02709263          	bne	ra,t2,3020 <fail>

0000000000003000 <test_43>:
    3000:	02b00193          	li	gp,43
    3004:	40000093          	li	ra,1024
    3008:	00001137          	lui	sp,0x1
    300c:	8001011b          	addiw	sp,sp,-2048 # 800 <trap_entry+0x6ac>
    3010:	60209033          	rol	zero,ra,sp
    3014:	00000393          	li	t2,0
    3018:	00701463          	bne	zero,t2,3020 <fail>
    301c:	00301a63          	bne	zero,gp,3030 <pass>

0000000000003020 <fail>:
    3020:	00119513          	slli	a0,gp,0x1
    3024:	00050063          	beqz	a0,3024 <fail+0x4>
    3028:	00156513          	ori	a0,a0,1
    302c:	00000073          	ecall

0000000000003030 <pass>:
    3030:	00100513          	li	a0,1
    3034:	00000073          	ecall
    3038:	c0001073          	unimp
