
rv64ui-p-bgeu:     ファイル形式 elf64-littleriscv


セクション .text.init の逆アセンブル:

0000000000000000 <_start>:
   0:	0500006f          	j	50 <reset_vector>

0000000000000004 <trap_vector>:
   4:	34202f73          	csrr	t5,mcause
   8:	00800f93          	li	t6,8
   c:	03ff0863          	beq	t5,t6,3c <write_tohost>
  10:	00900f93          	li	t6,9
  14:	03ff0463          	beq	t5,t6,3c <write_tohost>
  18:	00b00f93          	li	t6,11
  1c:	03ff0063          	beq	t5,t6,3c <write_tohost>
  20:	00000f13          	li	t5,0
  24:	000f0463          	beqz	t5,2c <trap_vector+0x28>
  28:	000f0067          	jr	t5
  2c:	34202f73          	csrr	t5,mcause
  30:	000f5463          	bgez	t5,38 <handle_exception>
  34:	0040006f          	j	38 <handle_exception>

0000000000000038 <handle_exception>:
  38:	5391e193          	ori	gp,gp,1337

000000000000003c <write_tohost>:
  3c:	00001f17          	auipc	t5,0x1
  40:	fc3f2223          	sw	gp,-60(t5) # 1000 <tohost>
  44:	00001f17          	auipc	t5,0x1
  48:	fc0f2023          	sw	zero,-64(t5) # 1004 <tohost+0x4>
  4c:	ff1ff06f          	j	3c <write_tohost>

0000000000000050 <reset_vector>:
  50:	00000093          	li	ra,0
  54:	00000113          	li	sp,0
  58:	00000193          	li	gp,0
  5c:	00000213          	li	tp,0
  60:	00000293          	li	t0,0
  64:	00000313          	li	t1,0
  68:	00000393          	li	t2,0
  6c:	00000413          	li	s0,0
  70:	00000493          	li	s1,0
  74:	00000513          	li	a0,0
  78:	00000593          	li	a1,0
  7c:	00000613          	li	a2,0
  80:	00000693          	li	a3,0
  84:	00000713          	li	a4,0
  88:	00000793          	li	a5,0
  8c:	00000813          	li	a6,0
  90:	00000893          	li	a7,0
  94:	00000913          	li	s2,0
  98:	00000993          	li	s3,0
  9c:	00000a13          	li	s4,0
  a0:	00000a93          	li	s5,0
  a4:	00000b13          	li	s6,0
  a8:	00000b93          	li	s7,0
  ac:	00000c13          	li	s8,0
  b0:	00000c93          	li	s9,0
  b4:	00000d13          	li	s10,0
  b8:	00000d93          	li	s11,0
  bc:	00000e13          	li	t3,0
  c0:	00000e93          	li	t4,0
  c4:	00000f13          	li	t5,0
  c8:	00000f93          	li	t6,0
  cc:	f1402573          	csrr	a0,mhartid
  d0:	00051063          	bnez	a0,d0 <reset_vector+0x80>
  d4:	00000297          	auipc	t0,0x0
  d8:	01028293          	addi	t0,t0,16 # e4 <reset_vector+0x94>
  dc:	30529073          	csrw	mtvec,t0
  e0:	74445073          	csrwi	mnstatus,8
  e4:	00000297          	auipc	t0,0x0
  e8:	01028293          	addi	t0,t0,16 # f4 <reset_vector+0xa4>
  ec:	30529073          	csrw	mtvec,t0
  f0:	18005073          	csrwi	satp,0
  f4:	00000297          	auipc	t0,0x0
  f8:	02428293          	addi	t0,t0,36 # 118 <reset_vector+0xc8>
  fc:	30529073          	csrw	mtvec,t0
 100:	0010029b          	addiw	t0,zero,1
 104:	03529293          	slli	t0,t0,0x35
 108:	fff28293          	addi	t0,t0,-1
 10c:	3b029073          	csrw	pmpaddr0,t0
 110:	01f00293          	li	t0,31
 114:	3a029073          	csrw	pmpcfg0,t0
 118:	30405073          	csrwi	mie,0
 11c:	00000297          	auipc	t0,0x0
 120:	01428293          	addi	t0,t0,20 # 130 <reset_vector+0xe0>
 124:	30529073          	csrw	mtvec,t0
 128:	30205073          	csrwi	medeleg,0
 12c:	30305073          	csrwi	mideleg,0
 130:	00000193          	li	gp,0
 134:	00000297          	auipc	t0,0x0
 138:	ed028293          	addi	t0,t0,-304 # 4 <trap_vector>
 13c:	30529073          	csrw	mtvec,t0
 140:	00100513          	li	a0,1
 144:	01f51513          	slli	a0,a0,0x1f
 148:	00055c63          	bgez	a0,160 <reset_vector+0x110>
 14c:	0ff0000f          	fence
 150:	00100193          	li	gp,1
 154:	05d00893          	li	a7,93
 158:	00000513          	li	a0,0
 15c:	00000073          	ecall
 160:	00000293          	li	t0,0
 164:	00028a63          	beqz	t0,178 <reset_vector+0x128>
 168:	10529073          	csrw	stvec,t0
 16c:	0000b2b7          	lui	t0,0xb
 170:	1092829b          	addiw	t0,t0,265 # b109 <_end+0x9109>
 174:	30229073          	csrw	medeleg,t0
 178:	30005073          	csrwi	mstatus,0
 17c:	00000297          	auipc	t0,0x0
 180:	01428293          	addi	t0,t0,20 # 190 <test_2>
 184:	34129073          	csrw	mepc,t0
 188:	f1402573          	csrr	a0,mhartid
 18c:	30200073          	mret

0000000000000190 <test_2>:
 190:	00200193          	li	gp,2
 194:	00000093          	li	ra,0
 198:	00000113          	li	sp,0
 19c:	0020f663          	bgeu	ra,sp,1a8 <test_2+0x18>
 1a0:	3e301463          	bne	zero,gp,588 <fail>
 1a4:	00301663          	bne	zero,gp,1b0 <test_3>
 1a8:	fe20fee3          	bgeu	ra,sp,1a4 <test_2+0x14>
 1ac:	3c301e63          	bne	zero,gp,588 <fail>

00000000000001b0 <test_3>:
 1b0:	00300193          	li	gp,3
 1b4:	00100093          	li	ra,1
 1b8:	00100113          	li	sp,1
 1bc:	0020f663          	bgeu	ra,sp,1c8 <test_3+0x18>
 1c0:	3c301463          	bne	zero,gp,588 <fail>
 1c4:	00301663          	bne	zero,gp,1d0 <test_4>
 1c8:	fe20fee3          	bgeu	ra,sp,1c4 <test_3+0x14>
 1cc:	3a301e63          	bne	zero,gp,588 <fail>

00000000000001d0 <test_4>:
 1d0:	00400193          	li	gp,4
 1d4:	0010009b          	addiw	ra,zero,1
 1d8:	02009093          	slli	ra,ra,0x20
 1dc:	fff08093          	addi	ra,ra,-1
 1e0:	0010011b          	addiw	sp,zero,1
 1e4:	02011113          	slli	sp,sp,0x20
 1e8:	fff10113          	addi	sp,sp,-1
 1ec:	0020f663          	bgeu	ra,sp,1f8 <test_4+0x28>
 1f0:	38301c63          	bne	zero,gp,588 <fail>
 1f4:	00301663          	bne	zero,gp,200 <test_5>
 1f8:	fe20fee3          	bgeu	ra,sp,1f4 <test_4+0x24>
 1fc:	38301663          	bne	zero,gp,588 <fail>

0000000000000200 <test_5>:
 200:	00500193          	li	gp,5
 204:	00100093          	li	ra,1
 208:	00000113          	li	sp,0
 20c:	0020f663          	bgeu	ra,sp,218 <test_5+0x18>
 210:	36301c63          	bne	zero,gp,588 <fail>
 214:	00301663          	bne	zero,gp,220 <test_6>
 218:	fe20fee3          	bgeu	ra,sp,214 <test_5+0x14>
 21c:	36301663          	bne	zero,gp,588 <fail>

0000000000000220 <test_6>:
 220:	00600193          	li	gp,6
 224:	0010009b          	addiw	ra,zero,1
 228:	02009093          	slli	ra,ra,0x20
 22c:	fff08093          	addi	ra,ra,-1
 230:	0010011b          	addiw	sp,zero,1
 234:	02011113          	slli	sp,sp,0x20
 238:	ffe10113          	addi	sp,sp,-2
 23c:	0020f663          	bgeu	ra,sp,248 <test_6+0x28>
 240:	34301463          	bne	zero,gp,588 <fail>
 244:	00301663          	bne	zero,gp,250 <test_7>
 248:	fe20fee3          	bgeu	ra,sp,244 <test_6+0x24>
 24c:	32301e63          	bne	zero,gp,588 <fail>

0000000000000250 <test_7>:
 250:	00700193          	li	gp,7
 254:	0010009b          	addiw	ra,zero,1
 258:	02009093          	slli	ra,ra,0x20
 25c:	fff08093          	addi	ra,ra,-1
 260:	00000113          	li	sp,0
 264:	0020f663          	bgeu	ra,sp,270 <test_7+0x20>
 268:	32301063          	bne	zero,gp,588 <fail>
 26c:	00301663          	bne	zero,gp,278 <test_8>
 270:	fe20fee3          	bgeu	ra,sp,26c <test_7+0x1c>
 274:	30301a63          	bne	zero,gp,588 <fail>

0000000000000278 <test_8>:
 278:	00800193          	li	gp,8
 27c:	00000093          	li	ra,0
 280:	00100113          	li	sp,1
 284:	0020f463          	bgeu	ra,sp,28c <test_8+0x14>
 288:	00301463          	bne	zero,gp,290 <test_8+0x18>
 28c:	2e301e63          	bne	zero,gp,588 <fail>
 290:	fe20fee3          	bgeu	ra,sp,28c <test_8+0x14>

0000000000000294 <test_9>:
 294:	00900193          	li	gp,9
 298:	0010009b          	addiw	ra,zero,1
 29c:	02009093          	slli	ra,ra,0x20
 2a0:	ffe08093          	addi	ra,ra,-2
 2a4:	0010011b          	addiw	sp,zero,1
 2a8:	02011113          	slli	sp,sp,0x20
 2ac:	fff10113          	addi	sp,sp,-1
 2b0:	0020f463          	bgeu	ra,sp,2b8 <test_9+0x24>
 2b4:	00301463          	bne	zero,gp,2bc <test_9+0x28>
 2b8:	2c301863          	bne	zero,gp,588 <fail>
 2bc:	fe20fee3          	bgeu	ra,sp,2b8 <test_9+0x24>

00000000000002c0 <test_10>:
 2c0:	00a00193          	li	gp,10
 2c4:	00000093          	li	ra,0
 2c8:	0010011b          	addiw	sp,zero,1
 2cc:	02011113          	slli	sp,sp,0x20
 2d0:	fff10113          	addi	sp,sp,-1
 2d4:	0020f463          	bgeu	ra,sp,2dc <test_10+0x1c>
 2d8:	00301463          	bne	zero,gp,2e0 <test_10+0x20>
 2dc:	2a301663          	bne	zero,gp,588 <fail>
 2e0:	fe20fee3          	bgeu	ra,sp,2dc <test_10+0x1c>

00000000000002e4 <test_11>:
 2e4:	00b00193          	li	gp,11
 2e8:	800000b7          	lui	ra,0x80000
 2ec:	fff0809b          	addiw	ra,ra,-1 # 7fffffff <_end+0x7fffdfff>
 2f0:	0010011b          	addiw	sp,zero,1
 2f4:	01f11113          	slli	sp,sp,0x1f
 2f8:	0020f463          	bgeu	ra,sp,300 <test_11+0x1c>
 2fc:	00301463          	bne	zero,gp,304 <test_11+0x20>
 300:	28301463          	bne	zero,gp,588 <fail>
 304:	fe20fee3          	bgeu	ra,sp,300 <test_11+0x1c>

0000000000000308 <test_12>:
 308:	00c00193          	li	gp,12
 30c:	00000213          	li	tp,0
 310:	00f0009b          	addiw	ra,zero,15
 314:	01c09093          	slli	ra,ra,0x1c
 318:	fff08093          	addi	ra,ra,-1
 31c:	00f0011b          	addiw	sp,zero,15
 320:	01c11113          	slli	sp,sp,0x1c
 324:	2620f263          	bgeu	ra,sp,588 <fail>
 328:	00120213          	addi	tp,tp,1 # 1 <_start+0x1>
 32c:	00200293          	li	t0,2
 330:	fe5210e3          	bne	tp,t0,310 <test_12+0x8>

0000000000000334 <test_13>:
 334:	00d00193          	li	gp,13
 338:	00000213          	li	tp,0
 33c:	00f0009b          	addiw	ra,zero,15
 340:	01c09093          	slli	ra,ra,0x1c
 344:	fff08093          	addi	ra,ra,-1
 348:	00f0011b          	addiw	sp,zero,15
 34c:	01c11113          	slli	sp,sp,0x1c
 350:	00000013          	nop
 354:	2220fa63          	bgeu	ra,sp,588 <fail>
 358:	00120213          	addi	tp,tp,1 # 1 <_start+0x1>
 35c:	00200293          	li	t0,2
 360:	fc521ee3          	bne	tp,t0,33c <test_13+0x8>

0000000000000364 <test_14>:
 364:	00e00193          	li	gp,14
 368:	00000213          	li	tp,0
 36c:	00f0009b          	addiw	ra,zero,15
 370:	01c09093          	slli	ra,ra,0x1c
 374:	fff08093          	addi	ra,ra,-1
 378:	00f0011b          	addiw	sp,zero,15
 37c:	01c11113          	slli	sp,sp,0x1c
 380:	00000013          	nop
 384:	00000013          	nop
 388:	2020f063          	bgeu	ra,sp,588 <fail>
 38c:	00120213          	addi	tp,tp,1 # 1 <_start+0x1>
 390:	00200293          	li	t0,2
 394:	fc521ce3          	bne	tp,t0,36c <test_14+0x8>

0000000000000398 <test_15>:
 398:	00f00193          	li	gp,15
 39c:	00000213          	li	tp,0
 3a0:	00f0009b          	addiw	ra,zero,15
 3a4:	01c09093          	slli	ra,ra,0x1c
 3a8:	fff08093          	addi	ra,ra,-1
 3ac:	00000013          	nop
 3b0:	00f0011b          	addiw	sp,zero,15
 3b4:	01c11113          	slli	sp,sp,0x1c
 3b8:	1c20f863          	bgeu	ra,sp,588 <fail>
 3bc:	00120213          	addi	tp,tp,1 # 1 <_start+0x1>
 3c0:	00200293          	li	t0,2
 3c4:	fc521ee3          	bne	tp,t0,3a0 <test_15+0x8>

00000000000003c8 <test_16>:
 3c8:	01000193          	li	gp,16
 3cc:	00000213          	li	tp,0
 3d0:	00f0009b          	addiw	ra,zero,15
 3d4:	01c09093          	slli	ra,ra,0x1c
 3d8:	fff08093          	addi	ra,ra,-1
 3dc:	00000013          	nop
 3e0:	00f0011b          	addiw	sp,zero,15
 3e4:	01c11113          	slli	sp,sp,0x1c
 3e8:	00000013          	nop
 3ec:	1820fe63          	bgeu	ra,sp,588 <fail>
 3f0:	00120213          	addi	tp,tp,1 # 1 <_start+0x1>
 3f4:	00200293          	li	t0,2
 3f8:	fc521ce3          	bne	tp,t0,3d0 <test_16+0x8>

00000000000003fc <test_17>:
 3fc:	01100193          	li	gp,17
 400:	00000213          	li	tp,0
 404:	00f0009b          	addiw	ra,zero,15
 408:	01c09093          	slli	ra,ra,0x1c
 40c:	fff08093          	addi	ra,ra,-1
 410:	00000013          	nop
 414:	00000013          	nop
 418:	00f0011b          	addiw	sp,zero,15
 41c:	01c11113          	slli	sp,sp,0x1c
 420:	1620f463          	bgeu	ra,sp,588 <fail>
 424:	00120213          	addi	tp,tp,1 # 1 <_start+0x1>
 428:	00200293          	li	t0,2
 42c:	fc521ce3          	bne	tp,t0,404 <test_17+0x8>

0000000000000430 <test_18>:
 430:	01200193          	li	gp,18
 434:	00000213          	li	tp,0
 438:	00f0009b          	addiw	ra,zero,15
 43c:	01c09093          	slli	ra,ra,0x1c
 440:	fff08093          	addi	ra,ra,-1
 444:	00f0011b          	addiw	sp,zero,15
 448:	01c11113          	slli	sp,sp,0x1c
 44c:	1220fe63          	bgeu	ra,sp,588 <fail>
 450:	00120213          	addi	tp,tp,1 # 1 <_start+0x1>
 454:	00200293          	li	t0,2
 458:	fe5210e3          	bne	tp,t0,438 <test_18+0x8>

000000000000045c <test_19>:
 45c:	01300193          	li	gp,19
 460:	00000213          	li	tp,0
 464:	00f0009b          	addiw	ra,zero,15
 468:	01c09093          	slli	ra,ra,0x1c
 46c:	fff08093          	addi	ra,ra,-1
 470:	00f0011b          	addiw	sp,zero,15
 474:	01c11113          	slli	sp,sp,0x1c
 478:	00000013          	nop
 47c:	1020f663          	bgeu	ra,sp,588 <fail>
 480:	00120213          	addi	tp,tp,1 # 1 <_start+0x1>
 484:	00200293          	li	t0,2
 488:	fc521ee3          	bne	tp,t0,464 <test_19+0x8>

000000000000048c <test_20>:
 48c:	01400193          	li	gp,20
 490:	00000213          	li	tp,0
 494:	00f0009b          	addiw	ra,zero,15
 498:	01c09093          	slli	ra,ra,0x1c
 49c:	fff08093          	addi	ra,ra,-1
 4a0:	00f0011b          	addiw	sp,zero,15
 4a4:	01c11113          	slli	sp,sp,0x1c
 4a8:	00000013          	nop
 4ac:	00000013          	nop
 4b0:	0c20fc63          	bgeu	ra,sp,588 <fail>
 4b4:	00120213          	addi	tp,tp,1 # 1 <_start+0x1>
 4b8:	00200293          	li	t0,2
 4bc:	fc521ce3          	bne	tp,t0,494 <test_20+0x8>

00000000000004c0 <test_21>:
 4c0:	01500193          	li	gp,21
 4c4:	00000213          	li	tp,0
 4c8:	00f0009b          	addiw	ra,zero,15
 4cc:	01c09093          	slli	ra,ra,0x1c
 4d0:	fff08093          	addi	ra,ra,-1
 4d4:	00000013          	nop
 4d8:	00f0011b          	addiw	sp,zero,15
 4dc:	01c11113          	slli	sp,sp,0x1c
 4e0:	0a20f463          	bgeu	ra,sp,588 <fail>
 4e4:	00120213          	addi	tp,tp,1 # 1 <_start+0x1>
 4e8:	00200293          	li	t0,2
 4ec:	fc521ee3          	bne	tp,t0,4c8 <test_21+0x8>

00000000000004f0 <test_22>:
 4f0:	01600193          	li	gp,22
 4f4:	00000213          	li	tp,0
 4f8:	00f0009b          	addiw	ra,zero,15
 4fc:	01c09093          	slli	ra,ra,0x1c
 500:	fff08093          	addi	ra,ra,-1
 504:	00000013          	nop
 508:	00f0011b          	addiw	sp,zero,15
 50c:	01c11113          	slli	sp,sp,0x1c
 510:	00000013          	nop
 514:	0620fa63          	bgeu	ra,sp,588 <fail>
 518:	00120213          	addi	tp,tp,1 # 1 <_start+0x1>
 51c:	00200293          	li	t0,2
 520:	fc521ce3          	bne	tp,t0,4f8 <test_22+0x8>

0000000000000524 <test_23>:
 524:	01700193          	li	gp,23
 528:	00000213          	li	tp,0
 52c:	00f0009b          	addiw	ra,zero,15
 530:	01c09093          	slli	ra,ra,0x1c
 534:	fff08093          	addi	ra,ra,-1
 538:	00000013          	nop
 53c:	00000013          	nop
 540:	00f0011b          	addiw	sp,zero,15
 544:	01c11113          	slli	sp,sp,0x1c
 548:	0420f063          	bgeu	ra,sp,588 <fail>
 54c:	00120213          	addi	tp,tp,1 # 1 <_start+0x1>
 550:	00200293          	li	t0,2
 554:	fc521ce3          	bne	tp,t0,52c <test_23+0x8>

0000000000000558 <test_24>:
 558:	01800193          	li	gp,24
 55c:	00100093          	li	ra,1
 560:	0000fa63          	bgeu	ra,zero,574 <test_24+0x1c>
 564:	00108093          	addi	ra,ra,1
 568:	00108093          	addi	ra,ra,1
 56c:	00108093          	addi	ra,ra,1
 570:	00108093          	addi	ra,ra,1
 574:	00108093          	addi	ra,ra,1
 578:	00108093          	addi	ra,ra,1
 57c:	00300393          	li	t2,3
 580:	00709463          	bne	ra,t2,588 <fail>
 584:	02301063          	bne	zero,gp,5a4 <pass>

0000000000000588 <fail>:
 588:	0ff0000f          	fence
 58c:	00018063          	beqz	gp,58c <fail+0x4>
 590:	00119193          	slli	gp,gp,0x1
 594:	0011e193          	ori	gp,gp,1
 598:	05d00893          	li	a7,93
 59c:	00018513          	mv	a0,gp
 5a0:	00000073          	ecall

00000000000005a4 <pass>:
 5a4:	0ff0000f          	fence
 5a8:	00100193          	li	gp,1
 5ac:	05d00893          	li	a7,93
 5b0:	00000513          	li	a0,0
 5b4:	00000073          	ecall
 5b8:	c0001073          	unimp
