
rv64uzba-v-slli_uw:     ファイル形式 elf64-littleriscv


セクション .text.init の逆アセンブル:

0000000080000000 <_start>:
    80000000:	00c0006f          	j	8000000c <handle_reset>

0000000080000004 <nmi_vector>:
    80000004:	2ac0206f          	j	800022b0 <wtf>

0000000080000008 <trap_vector>:
    80000008:	2a80206f          	j	800022b0 <wtf>

000000008000000c <handle_reset>:
    8000000c:	00000093          	li	ra,0
    80000010:	00000113          	li	sp,0
    80000014:	00000193          	li	gp,0
    80000018:	00000213          	li	tp,0
    8000001c:	00000293          	li	t0,0
    80000020:	00000313          	li	t1,0
    80000024:	00000393          	li	t2,0
    80000028:	00000413          	li	s0,0
    8000002c:	00000493          	li	s1,0
    80000030:	00000513          	li	a0,0
    80000034:	00000593          	li	a1,0
    80000038:	00000613          	li	a2,0
    8000003c:	00000693          	li	a3,0
    80000040:	00000713          	li	a4,0
    80000044:	00000793          	li	a5,0
    80000048:	00000813          	li	a6,0
    8000004c:	00000893          	li	a7,0
    80000050:	00000913          	li	s2,0
    80000054:	00000993          	li	s3,0
    80000058:	00000a13          	li	s4,0
    8000005c:	00000a93          	li	s5,0
    80000060:	00000b13          	li	s6,0
    80000064:	00000b93          	li	s7,0
    80000068:	00000c13          	li	s8,0
    8000006c:	00000c93          	li	s9,0
    80000070:	00000d13          	li	s10,0
    80000074:	00000d93          	li	s11,0
    80000078:	00000e13          	li	t3,0
    8000007c:	00000e93          	li	t4,0
    80000080:	00000f13          	li	t5,0
    80000084:	00000f93          	li	t6,0
    80000088:	00000297          	auipc	t0,0x0
    8000008c:	01028293          	addi	t0,t0,16 # 80000098 <handle_reset+0x8c>
    80000090:	30529073          	csrw	mtvec,t0
    80000094:	74445073          	csrwi	mnstatus,8
    80000098:	00000297          	auipc	t0,0x0
    8000009c:	f7028293          	addi	t0,t0,-144 # 80000008 <trap_vector>
    800000a0:	30529073          	csrw	mtvec,t0
    800000a4:	0000c117          	auipc	sp,0xc
    800000a8:	e3c10113          	addi	sp,sp,-452 # 8000bee0 <freelist_head+0x3ed8>
    800000ac:	f14022f3          	csrr	t0,mhartid
    800000b0:	00c29293          	slli	t0,t0,0xc
    800000b4:	00510133          	add	sp,sp,t0
    800000b8:	34011073          	csrw	mscratch,sp
    800000bc:	115020ef          	jal	800029d0 <extra_boot>
    800000c0:	00003517          	auipc	a0,0x3
    800000c4:	92450513          	addi	a0,a0,-1756 # 800029e4 <userstart>
    800000c8:	7000206f          	j	800027c8 <vm_boot>

00000000800000cc <pop_tf>:
    800000cc:	10853283          	ld	t0,264(a0)
    800000d0:	14129073          	csrw	sepc,t0
    800000d4:	00853083          	ld	ra,8(a0)
    800000d8:	01053103          	ld	sp,16(a0)
    800000dc:	01853183          	ld	gp,24(a0)
    800000e0:	02053203          	ld	tp,32(a0)
    800000e4:	02853283          	ld	t0,40(a0)
    800000e8:	03053303          	ld	t1,48(a0)
    800000ec:	03853383          	ld	t2,56(a0)
    800000f0:	04053403          	ld	s0,64(a0)
    800000f4:	04853483          	ld	s1,72(a0)
    800000f8:	05853583          	ld	a1,88(a0)
    800000fc:	06053603          	ld	a2,96(a0)
    80000100:	06853683          	ld	a3,104(a0)
    80000104:	07053703          	ld	a4,112(a0)
    80000108:	07853783          	ld	a5,120(a0)
    8000010c:	08053803          	ld	a6,128(a0)
    80000110:	08853883          	ld	a7,136(a0)
    80000114:	09053903          	ld	s2,144(a0)
    80000118:	09853983          	ld	s3,152(a0)
    8000011c:	0a053a03          	ld	s4,160(a0)
    80000120:	0a853a83          	ld	s5,168(a0)
    80000124:	0b053b03          	ld	s6,176(a0)
    80000128:	0b853b83          	ld	s7,184(a0)
    8000012c:	0c053c03          	ld	s8,192(a0)
    80000130:	0c853c83          	ld	s9,200(a0)
    80000134:	0d053d03          	ld	s10,208(a0)
    80000138:	0d853d83          	ld	s11,216(a0)
    8000013c:	0e053e03          	ld	t3,224(a0)
    80000140:	0e853e83          	ld	t4,232(a0)
    80000144:	0f053f03          	ld	t5,240(a0)
    80000148:	0f853f83          	ld	t6,248(a0)
    8000014c:	05053503          	ld	a0,80(a0)
    80000150:	10200073          	sret

0000000080000154 <trap_entry>:
    80000154:	14011173          	csrrw	sp,sscratch,sp
    80000158:	00113423          	sd	ra,8(sp)
    8000015c:	00313c23          	sd	gp,24(sp)
    80000160:	02413023          	sd	tp,32(sp)
    80000164:	02513423          	sd	t0,40(sp)
    80000168:	02613823          	sd	t1,48(sp)
    8000016c:	02713c23          	sd	t2,56(sp)
    80000170:	04813023          	sd	s0,64(sp)
    80000174:	04913423          	sd	s1,72(sp)
    80000178:	04a13823          	sd	a0,80(sp)
    8000017c:	04b13c23          	sd	a1,88(sp)
    80000180:	06c13023          	sd	a2,96(sp)
    80000184:	06d13423          	sd	a3,104(sp)
    80000188:	06e13823          	sd	a4,112(sp)
    8000018c:	06f13c23          	sd	a5,120(sp)
    80000190:	09013023          	sd	a6,128(sp)
    80000194:	09113423          	sd	a7,136(sp)
    80000198:	09213823          	sd	s2,144(sp)
    8000019c:	09313c23          	sd	s3,152(sp)
    800001a0:	0b413023          	sd	s4,160(sp)
    800001a4:	0b513423          	sd	s5,168(sp)
    800001a8:	0b613823          	sd	s6,176(sp)
    800001ac:	0b713c23          	sd	s7,184(sp)
    800001b0:	0d813023          	sd	s8,192(sp)
    800001b4:	0d913423          	sd	s9,200(sp)
    800001b8:	0da13823          	sd	s10,208(sp)
    800001bc:	0db13c23          	sd	s11,216(sp)
    800001c0:	0fc13023          	sd	t3,224(sp)
    800001c4:	0fd13423          	sd	t4,232(sp)
    800001c8:	0fe13823          	sd	t5,240(sp)
    800001cc:	0ff13c23          	sd	t6,248(sp)
    800001d0:	140112f3          	csrrw	t0,sscratch,sp
    800001d4:	00513823          	sd	t0,16(sp)
    800001d8:	100022f3          	csrr	t0,sstatus
    800001dc:	10513023          	sd	t0,256(sp)
    800001e0:	141022f3          	csrr	t0,sepc
    800001e4:	10513423          	sd	t0,264(sp)
    800001e8:	143022f3          	csrr	t0,stval
    800001ec:	10513823          	sd	t0,272(sp)
    800001f0:	142022f3          	csrr	t0,scause
    800001f4:	10513c23          	sd	t0,280(sp)
    800001f8:	00010513          	mv	a0,sp
    800001fc:	3600206f          	j	8000255c <handle_trap>

セクション .text の逆アセンブル:

0000000080002000 <memcpy>:
    80002000:	00c5e7b3          	or	a5,a1,a2
    80002004:	00f567b3          	or	a5,a0,a5
    80002008:	0077f793          	andi	a5,a5,7
    8000200c:	00c506b3          	add	a3,a0,a2
    80002010:	02078463          	beqz	a5,80002038 <memcpy+0x38>
    80002014:	00c58633          	add	a2,a1,a2
    80002018:	00050793          	mv	a5,a0
    8000201c:	02d57e63          	bgeu	a0,a3,80002058 <memcpy+0x58>
    80002020:	0005c703          	lbu	a4,0(a1)
    80002024:	00158593          	addi	a1,a1,1
    80002028:	00178793          	addi	a5,a5,1
    8000202c:	fee78fa3          	sb	a4,-1(a5)
    80002030:	feb618e3          	bne	a2,a1,80002020 <memcpy+0x20>
    80002034:	00008067          	ret
    80002038:	fed57ee3          	bgeu	a0,a3,80002034 <memcpy+0x34>
    8000203c:	00050793          	mv	a5,a0
    80002040:	0005b703          	ld	a4,0(a1)
    80002044:	00878793          	addi	a5,a5,8
    80002048:	00858593          	addi	a1,a1,8
    8000204c:	fee7bc23          	sd	a4,-8(a5)
    80002050:	fed7e8e3          	bltu	a5,a3,80002040 <memcpy+0x40>
    80002054:	00008067          	ret
    80002058:	00008067          	ret

000000008000205c <memset>:
    8000205c:	00c567b3          	or	a5,a0,a2
    80002060:	0077f793          	andi	a5,a5,7
    80002064:	00050693          	mv	a3,a0
    80002068:	00c50733          	add	a4,a0,a2
    8000206c:	00078863          	beqz	a5,8000207c <memset+0x20>
    80002070:	02e57c63          	bgeu	a0,a4,800020a8 <memset+0x4c>
    80002074:	0ff5f593          	zext.b	a1,a1
    80002078:	fe5ff06f          	j	8000205c <memset>
    8000207c:	02e57663          	bgeu	a0,a4,800020a8 <memset+0x4c>
    80002080:	010107b7          	lui	a5,0x1010
    80002084:	10178793          	addi	a5,a5,257 # 1010101 <_start-0x7efefeff>
    80002088:	02079613          	slli	a2,a5,0x20
    8000208c:	00f60633          	add	a2,a2,a5
    80002090:	0ff5f593          	zext.b	a1,a1
    80002094:	02c585b3          	mul	a1,a1,a2
    80002098:	00050793          	mv	a5,a0
    8000209c:	00878793          	addi	a5,a5,8
    800020a0:	feb7bc23          	sd	a1,-8(a5)
    800020a4:	fee7ece3          	bltu	a5,a4,8000209c <memset+0x40>
    800020a8:	00068513          	mv	a0,a3
    800020ac:	00008067          	ret

00000000800020b0 <strlen>:
    800020b0:	00054783          	lbu	a5,0(a0)
    800020b4:	00078e63          	beqz	a5,800020d0 <strlen+0x20>
    800020b8:	00050793          	mv	a5,a0
    800020bc:	0017c703          	lbu	a4,1(a5)
    800020c0:	00178793          	addi	a5,a5,1
    800020c4:	fe071ce3          	bnez	a4,800020bc <strlen+0xc>
    800020c8:	40a78533          	sub	a0,a5,a0
    800020cc:	00008067          	ret
    800020d0:	00000513          	li	a0,0
    800020d4:	00008067          	ret

00000000800020d8 <strcmp>:
    800020d8:	00054683          	lbu	a3,0(a0)
    800020dc:	0005c603          	lbu	a2,0(a1)
    800020e0:	00150513          	addi	a0,a0,1
    800020e4:	00d037b3          	snez	a5,a3
    800020e8:	40c68733          	sub	a4,a3,a2
    800020ec:	00173713          	seqz	a4,a4
    800020f0:	00e7f7b3          	and	a5,a5,a4
    800020f4:	00158593          	addi	a1,a1,1
    800020f8:	fe0790e3          	bnez	a5,800020d8 <strcmp>
    800020fc:	40c6853b          	subw	a0,a3,a2
    80002100:	00008067          	ret

0000000080002104 <memcmp>:
    80002104:	00b567b3          	or	a5,a0,a1
    80002108:	0077f793          	andi	a5,a5,7
    8000210c:	02079e63          	bnez	a5,80002148 <memcmp+0x44>
    80002110:	ff867813          	andi	a6,a2,-8
    80002114:	01050833          	add	a6,a0,a6
    80002118:	03057863          	bgeu	a0,a6,80002148 <memcmp+0x44>
    8000211c:	00050793          	mv	a5,a0
    80002120:	0100006f          	j	80002130 <memcmp+0x2c>
    80002124:	00878793          	addi	a5,a5,8
    80002128:	00858593          	addi	a1,a1,8
    8000212c:	0107f863          	bgeu	a5,a6,8000213c <memcmp+0x38>
    80002130:	0007b683          	ld	a3,0(a5)
    80002134:	0005b703          	ld	a4,0(a1)
    80002138:	fee686e3          	beq	a3,a4,80002124 <memcmp+0x20>
    8000213c:	40a78533          	sub	a0,a5,a0
    80002140:	40a60633          	sub	a2,a2,a0
    80002144:	00078513          	mv	a0,a5
    80002148:	00c58633          	add	a2,a1,a2
    8000214c:	0140006f          	j	80002160 <memcmp+0x5c>
    80002150:	fff54783          	lbu	a5,-1(a0)
    80002154:	0005c703          	lbu	a4,0(a1)
    80002158:	00158593          	addi	a1,a1,1
    8000215c:	00e79a63          	bne	a5,a4,80002170 <memcmp+0x6c>
    80002160:	00150513          	addi	a0,a0,1
    80002164:	feb616e3          	bne	a2,a1,80002150 <memcmp+0x4c>
    80002168:	00000513          	li	a0,0
    8000216c:	00008067          	ret
    80002170:	40e7853b          	subw	a0,a5,a4
    80002174:	00008067          	ret

0000000080002178 <strcpy>:
    80002178:	00050793          	mv	a5,a0
    8000217c:	0005c703          	lbu	a4,0(a1)
    80002180:	00158593          	addi	a1,a1,1
    80002184:	00178793          	addi	a5,a5,1
    80002188:	fee78fa3          	sb	a4,-1(a5)
    8000218c:	fe0718e3          	bnez	a4,8000217c <strcpy+0x4>
    80002190:	00008067          	ret

0000000080002194 <atol>:
    80002194:	00054683          	lbu	a3,0(a0)
    80002198:	02000713          	li	a4,32
    8000219c:	00050793          	mv	a5,a0
    800021a0:	00e69863          	bne	a3,a4,800021b0 <atol+0x1c>
    800021a4:	0017c683          	lbu	a3,1(a5)
    800021a8:	00178793          	addi	a5,a5,1
    800021ac:	fee68ce3          	beq	a3,a4,800021a4 <atol+0x10>
    800021b0:	fd56871b          	addiw	a4,a3,-43
    800021b4:	0fd77713          	andi	a4,a4,253
    800021b8:	04071063          	bnez	a4,800021f8 <atol+0x64>
    800021bc:	0017c703          	lbu	a4,1(a5)
    800021c0:	fd368693          	addi	a3,a3,-45
    800021c4:	0016b693          	seqz	a3,a3
    800021c8:	04070263          	beqz	a4,8000220c <atol+0x78>
    800021cc:	00178793          	addi	a5,a5,1
    800021d0:	00000513          	li	a0,0
    800021d4:	00178793          	addi	a5,a5,1
    800021d8:	fd07061b          	addiw	a2,a4,-48
    800021dc:	0007c703          	lbu	a4,0(a5)
    800021e0:	20a54533          	sh2add	a0,a0,a0
    800021e4:	20c52533          	sh1add	a0,a0,a2
    800021e8:	fe0716e3          	bnez	a4,800021d4 <atol+0x40>
    800021ec:	00068463          	beqz	a3,800021f4 <atol+0x60>
    800021f0:	40a00533          	neg	a0,a0
    800021f4:	00008067          	ret
    800021f8:	0007c703          	lbu	a4,0(a5)
    800021fc:	00000693          	li	a3,0
    80002200:	fc0718e3          	bnez	a4,800021d0 <atol+0x3c>
    80002204:	00000513          	li	a0,0
    80002208:	00008067          	ret
    8000220c:	00000513          	li	a0,0
    80002210:	fddff06f          	j	800021ec <atol+0x58>

0000000080002214 <cputstring>:
    80002214:	00054783          	lbu	a5,0(a0)
    80002218:	04078063          	beqz	a5,80002258 <cputstring+0x44>
    8000221c:	10100593          	li	a1,257
    80002220:	03059593          	slli	a1,a1,0x30
    80002224:	fffff717          	auipc	a4,0xfffff
    80002228:	ddc70713          	addi	a4,a4,-548 # 80001000 <tohost>
    8000222c:	00073603          	ld	a2,0(a4)
    80002230:	00150513          	addi	a0,a0,1
    80002234:	00b7e6b3          	or	a3,a5,a1
    80002238:	00060a63          	beqz	a2,8000224c <cputstring+0x38>
    8000223c:	fffff797          	auipc	a5,0xfffff
    80002240:	e007b223          	sd	zero,-508(a5) # 80001040 <fromhost>
    80002244:	00073783          	ld	a5,0(a4)
    80002248:	fe079ae3          	bnez	a5,8000223c <cputstring+0x28>
    8000224c:	00d73023          	sd	a3,0(a4)
    80002250:	00054783          	lbu	a5,0(a0)
    80002254:	fc079ce3          	bnez	a5,8000222c <cputstring+0x18>
    80002258:	00008067          	ret

000000008000225c <terminate>:
    8000225c:	fffff717          	auipc	a4,0xfffff
    80002260:	da470713          	addi	a4,a4,-604 # 80001000 <tohost>
    80002264:	00073783          	ld	a5,0(a4)
    80002268:	00078a63          	beqz	a5,8000227c <terminate+0x20>
    8000226c:	fffff797          	auipc	a5,0xfffff
    80002270:	dc07ba23          	sd	zero,-556(a5) # 80001040 <fromhost>
    80002274:	00073783          	ld	a5,0(a4)
    80002278:	fe079ae3          	bnez	a5,8000226c <terminate+0x10>
    8000227c:	00a73023          	sd	a0,0(a4)
    80002280:	0000006f          	j	80002280 <terminate+0x24>

0000000080002284 <terminate.constprop.0>:
    80002284:	fffff717          	auipc	a4,0xfffff
    80002288:	d7c70713          	addi	a4,a4,-644 # 80001000 <tohost>
    8000228c:	00073783          	ld	a5,0(a4)
    80002290:	00078a63          	beqz	a5,800022a4 <terminate.constprop.0+0x20>
    80002294:	fffff797          	auipc	a5,0xfffff
    80002298:	da07b623          	sd	zero,-596(a5) # 80001040 <fromhost>
    8000229c:	00073783          	ld	a5,0(a4)
    800022a0:	fe079ae3          	bnez	a5,80002294 <terminate.constprop.0+0x10>
    800022a4:	00300793          	li	a5,3
    800022a8:	00f73023          	sd	a5,0(a4)
    800022ac:	0000006f          	j	800022ac <terminate.constprop.0+0x28>

00000000800022b0 <wtf>:
    800022b0:	ff010113          	addi	sp,sp,-16
    800022b4:	34900513          	li	a0,841
    800022b8:	00113423          	sd	ra,8(sp)
    800022bc:	fa1ff0ef          	jal	8000225c <terminate>

00000000800022c0 <printhex>:
    800022c0:	fe010113          	addi	sp,sp,-32
    800022c4:	00810613          	addi	a2,sp,8
    800022c8:	01710713          	addi	a4,sp,23
    800022cc:	00900593          	li	a1,9
    800022d0:	0080006f          	j	800022d8 <printhex+0x18>
    800022d4:	fff70713          	addi	a4,a4,-1
    800022d8:	00f57693          	andi	a3,a0,15
    800022dc:	00d5b7b3          	sltu	a5,a1,a3
    800022e0:	40f007b3          	neg	a5,a5
    800022e4:	0277f793          	andi	a5,a5,39
    800022e8:	03078793          	addi	a5,a5,48
    800022ec:	00d787b3          	add	a5,a5,a3
    800022f0:	00f70023          	sb	a5,0(a4)
    800022f4:	00455513          	srli	a0,a0,0x4
    800022f8:	fce61ee3          	bne	a2,a4,800022d4 <printhex+0x14>
    800022fc:	00814783          	lbu	a5,8(sp)
    80002300:	00010c23          	sb	zero,24(sp)
    80002304:	04078263          	beqz	a5,80002348 <printhex+0x88>
    80002308:	10100513          	li	a0,257
    8000230c:	00060693          	mv	a3,a2
    80002310:	03051513          	slli	a0,a0,0x30
    80002314:	fffff717          	auipc	a4,0xfffff
    80002318:	cec70713          	addi	a4,a4,-788 # 80001000 <tohost>
    8000231c:	00073583          	ld	a1,0(a4)
    80002320:	00168693          	addi	a3,a3,1
    80002324:	00a7e633          	or	a2,a5,a0
    80002328:	00058a63          	beqz	a1,8000233c <printhex+0x7c>
    8000232c:	fffff797          	auipc	a5,0xfffff
    80002330:	d007ba23          	sd	zero,-748(a5) # 80001040 <fromhost>
    80002334:	00073783          	ld	a5,0(a4)
    80002338:	fe079ae3          	bnez	a5,8000232c <printhex+0x6c>
    8000233c:	0006c783          	lbu	a5,0(a3)
    80002340:	00c73023          	sd	a2,0(a4)
    80002344:	fc079ce3          	bnez	a5,8000231c <printhex+0x5c>
    80002348:	02010113          	addi	sp,sp,32
    8000234c:	00008067          	ret

0000000080002350 <handle_fault>:
    80002350:	fc010113          	addi	sp,sp,-64
    80002354:	00100793          	li	a5,1
    80002358:	fffff737          	lui	a4,0xfffff
    8000235c:	02f12223          	sw	a5,36(sp)
    80002360:	02113c23          	sd	ra,56(sp)
    80002364:	02013423          	sd	zero,40(sp)
    80002368:	00e506b3          	add	a3,a0,a4
    8000236c:	0003e7b7          	lui	a5,0x3e
    80002370:	1af6f263          	bgeu	a3,a5,80002514 <handle_fault+0x1c4>
    80002374:	00e577b3          	and	a5,a0,a4
    80002378:	00c7d313          	srli	t1,a5,0xc
    8000237c:	60030813          	addi	a6,t1,1536
    80002380:	00002897          	auipc	a7,0x2
    80002384:	c8088893          	addi	a7,a7,-896 # 80004000 <pt>
    80002388:	21186733          	sh3add	a4,a6,a7
    8000238c:	00073703          	ld	a4,0(a4) # fffffffffffff000 <freelist_head+0xffffffff7fff6ff8>
    80002390:	10071e63          	bnez	a4,800024ac <handle_fault+0x15c>
    80002394:	00006717          	auipc	a4,0x6
    80002398:	c7473703          	ld	a4,-908(a4) # 80008008 <freelist_head>
    8000239c:	02813823          	sd	s0,48(sp)
    800023a0:	18070e63          	beqz	a4,8000253c <handle_fault+0x1ec>
    800023a4:	00873683          	ld	a3,8(a4)
    800023a8:	00006617          	auipc	a2,0x6
    800023ac:	c5863603          	ld	a2,-936(a2) # 80008000 <freelist_tail>
    800023b0:	00006597          	auipc	a1,0x6
    800023b4:	c4d5bc23          	sd	a3,-936(a1) # 80008008 <freelist_head>
    800023b8:	14c68863          	beq	a3,a2,80002508 <handle_fault+0x1b8>
    800023bc:	00078513          	mv	a0,a5
    800023c0:	02410613          	addi	a2,sp,36
    800023c4:	02810593          	addi	a1,sp,40
    800023c8:	00073403          	ld	s0,0(a4)
    800023cc:	01013c23          	sd	a6,24(sp)
    800023d0:	00613823          	sd	t1,16(sp)
    800023d4:	00f13423          	sd	a5,8(sp)
    800023d8:	00e13023          	sd	a4,0(sp)
    800023dc:	600000ef          	jal	800029dc <pf_filter>
    800023e0:	00013703          	ld	a4,0(sp)
    800023e4:	00813783          	ld	a5,8(sp)
    800023e8:	01013303          	ld	t1,16(sp)
    800023ec:	01813803          	ld	a6,24(sp)
    800023f0:	00002897          	auipc	a7,0x2
    800023f4:	c1088893          	addi	a7,a7,-1008 # 80004000 <pt>
    800023f8:	0e051863          	bnez	a0,800024e8 <handle_fault+0x198>
    800023fc:	00c45693          	srli	a3,s0,0xc
    80002400:	00a69693          	slli	a3,a3,0xa
    80002404:	01f6e693          	ori	a3,a3,31
    80002408:	21186633          	sh3add	a2,a6,a7
    8000240c:	0c06e593          	ori	a1,a3,192
    80002410:	00b63023          	sd	a1,0(a2)
    80002414:	12078073          	sfence.vma	a5
    80002418:	00001617          	auipc	a2,0x1
    8000241c:	be860613          	addi	a2,a2,-1048 # 80003000 <user_mapping>
    80002420:	00431313          	slli	t1,t1,0x4
    80002424:	00660633          	add	a2,a2,t1
    80002428:	00063583          	ld	a1,0(a2)
    8000242c:	12059063          	bnez	a1,8000254c <handle_fault+0x1fc>
    80002430:	00073503          	ld	a0,0(a4)
    80002434:	000405b7          	lui	a1,0x40
    80002438:	00a63023          	sd	a0,0(a2)
    8000243c:	00873703          	ld	a4,8(a4)
    80002440:	00e63423          	sd	a4,8(a2)
    80002444:	1005a5f3          	csrrs	a1,sstatus,a1
    80002448:	ffe00737          	lui	a4,0xffe00
    8000244c:	00e78733          	add	a4,a5,a4
    80002450:	00001537          	lui	a0,0x1
    80002454:	00a70533          	add	a0,a4,a0
    80002458:	00078613          	mv	a2,a5
    8000245c:	01073303          	ld	t1,16(a4) # ffffffffffe00010 <freelist_head+0xffffffff7fdf8008>
    80002460:	00073e83          	ld	t4,0(a4)
    80002464:	00873e03          	ld	t3,8(a4)
    80002468:	00663823          	sd	t1,16(a2)
    8000246c:	01d63023          	sd	t4,0(a2)
    80002470:	01c63423          	sd	t3,8(a2)
    80002474:	01873303          	ld	t1,24(a4)
    80002478:	02070713          	addi	a4,a4,32
    8000247c:	02060613          	addi	a2,a2,32
    80002480:	fe663c23          	sd	t1,-8(a2)
    80002484:	fca71ce3          	bne	a4,a0,8000245c <handle_fault+0x10c>
    80002488:	10059073          	csrw	sstatus,a1
    8000248c:	21186833          	sh3add	a6,a6,a7
    80002490:	00d83023          	sd	a3,0(a6)
    80002494:	12078073          	sfence.vma	a5
    80002498:	0000100f          	fence.i
    8000249c:	03013403          	ld	s0,48(sp)
    800024a0:	03813083          	ld	ra,56(sp)
    800024a4:	04010113          	addi	sp,sp,64
    800024a8:	00008067          	ret
    800024ac:	04077693          	andi	a3,a4,64
    800024b0:	04068863          	beqz	a3,80002500 <handle_fault+0x1b0>
    800024b4:	00775693          	srli	a3,a4,0x7
    800024b8:	ff158593          	addi	a1,a1,-15 # 3fff1 <_start-0x7ffc000f>
    800024bc:	0015b593          	seqz	a1,a1
    800024c0:	fff6c693          	not	a3,a3
    800024c4:	00b6f6b3          	and	a3,a3,a1
    800024c8:	08076713          	ori	a4,a4,128
    800024cc:	04068e63          	beqz	a3,80002528 <handle_fault+0x1d8>
    800024d0:	211868b3          	sh3add	a7,a6,a7
    800024d4:	00e8b023          	sd	a4,0(a7)
    800024d8:	12078073          	sfence.vma	a5
    800024dc:	03813083          	ld	ra,56(sp)
    800024e0:	04010113          	addi	sp,sp,64
    800024e4:	00008067          	ret
    800024e8:	00073683          	ld	a3,0(a4)
    800024ec:	02813603          	ld	a2,40(sp)
    800024f0:	00c6d693          	srli	a3,a3,0xc
    800024f4:	00a69693          	slli	a3,a3,0xa
    800024f8:	00c6e6b3          	or	a3,a3,a2
    800024fc:	f0dff06f          	j	80002408 <handle_fault+0xb8>
    80002500:	04076713          	ori	a4,a4,64
    80002504:	fcdff06f          	j	800024d0 <handle_fault+0x180>
    80002508:	00006697          	auipc	a3,0x6
    8000250c:	ae06bc23          	sd	zero,-1288(a3) # 80008000 <freelist_tail>
    80002510:	eadff06f          	j	800023bc <handle_fault+0x6c>
    80002514:	00001517          	auipc	a0,0x1
    80002518:	81450513          	addi	a0,a0,-2028 # 80002d28 <pass+0xc>
    8000251c:	02813823          	sd	s0,48(sp)
    80002520:	cf5ff0ef          	jal	80002214 <cputstring>
    80002524:	d61ff0ef          	jal	80002284 <terminate.constprop.0>
    80002528:	00001517          	auipc	a0,0x1
    8000252c:	85050513          	addi	a0,a0,-1968 # 80002d78 <pass+0x5c>
    80002530:	02813823          	sd	s0,48(sp)
    80002534:	ce1ff0ef          	jal	80002214 <cputstring>
    80002538:	d4dff0ef          	jal	80002284 <terminate.constprop.0>
    8000253c:	00001517          	auipc	a0,0x1
    80002540:	88450513          	addi	a0,a0,-1916 # 80002dc0 <pass+0xa4>
    80002544:	cd1ff0ef          	jal	80002214 <cputstring>
    80002548:	d3dff0ef          	jal	80002284 <terminate.constprop.0>
    8000254c:	00001517          	auipc	a0,0x1
    80002550:	88c50513          	addi	a0,a0,-1908 # 80002dd8 <pass+0xbc>
    80002554:	cc1ff0ef          	jal	80002214 <cputstring>
    80002558:	d2dff0ef          	jal	80002284 <terminate.constprop.0>

000000008000255c <handle_trap>:
    8000255c:	fb010113          	addi	sp,sp,-80
    80002560:	04813023          	sd	s0,64(sp)
    80002564:	04113423          	sd	ra,72(sp)
    80002568:	00050413          	mv	s0,a0
    8000256c:	468000ef          	jal	800029d4 <trap_filter>
    80002570:	0c051263          	bnez	a0,80002634 <handle_trap+0xd8>
    80002574:	11843583          	ld	a1,280(s0)
    80002578:	00800793          	li	a5,8
    8000257c:	0ef58063          	beq	a1,a5,8000265c <handle_trap+0x100>
    80002580:	00200793          	li	a5,2
    80002584:	02f58c63          	beq	a1,a5,800025bc <handle_trap+0x60>
    80002588:	ff458793          	addi	a5,a1,-12
    8000258c:	ff158713          	addi	a4,a1,-15
    80002590:	0027b793          	sltiu	a5,a5,2
    80002594:	00173713          	seqz	a4,a4
    80002598:	00e7e7b3          	or	a5,a5,a4
    8000259c:	20078463          	beqz	a5,800027a4 <handle_trap+0x248>
    800025a0:	11043503          	ld	a0,272(s0)
    800025a4:	dadff0ef          	jal	80002350 <handle_fault>
    800025a8:	00040513          	mv	a0,s0
    800025ac:	04013403          	ld	s0,64(sp)
    800025b0:	04813083          	ld	ra,72(sp)
    800025b4:	05010113          	addi	sp,sp,80
    800025b8:	b15fd06f          	j	800000cc <pop_tf>
    800025bc:	10843783          	ld	a5,264(s0)
    800025c0:	0037f713          	andi	a4,a5,3
    800025c4:	08071263          	bnez	a4,80002648 <handle_trap+0xec>
    800025c8:	0007a703          	lw	a4,0(a5) # 3e000 <_start-0x7ffc2000>
    800025cc:	008007ef          	jal	a5,800025d4 <handle_trap+0x78>
    800025d0:	00301073          	fscsr	zero
    800025d4:	0007a783          	lw	a5,0(a5)
    800025d8:	02913c23          	sd	s1,56(sp)
    800025dc:	06f70263          	beq	a4,a5,80002640 <handle_trap+0xe4>
    800025e0:	10100513          	li	a0,257
    800025e4:	03051513          	slli	a0,a0,0x30
    800025e8:	04100793          	li	a5,65
    800025ec:	00001697          	auipc	a3,0x1
    800025f0:	82c68693          	addi	a3,a3,-2004 # 80002e18 <pass+0xfc>
    800025f4:	fffff717          	auipc	a4,0xfffff
    800025f8:	a0c70713          	addi	a4,a4,-1524 # 80001000 <tohost>
    800025fc:	00001817          	auipc	a6,0x1
    80002600:	84580813          	addi	a6,a6,-1979 # 80002e41 <pass+0x125>
    80002604:	00073583          	ld	a1,0(a4)
    80002608:	00168693          	addi	a3,a3,1
    8000260c:	00a7e633          	or	a2,a5,a0
    80002610:	00058a63          	beqz	a1,80002624 <handle_trap+0xc8>
    80002614:	fffff797          	auipc	a5,0xfffff
    80002618:	a207b623          	sd	zero,-1492(a5) # 80001040 <fromhost>
    8000261c:	00073783          	ld	a5,0(a4)
    80002620:	fe079ae3          	bnez	a5,80002614 <handle_trap+0xb8>
    80002624:	00c73023          	sd	a2,0(a4)
    80002628:	0006c783          	lbu	a5,0(a3)
    8000262c:	fd069ce3          	bne	a3,a6,80002604 <handle_trap+0xa8>
    80002630:	c55ff0ef          	jal	80002284 <terminate.constprop.0>
    80002634:	00040513          	mv	a0,s0
    80002638:	a95fd0ef          	jal	800000cc <pop_tf>
    8000263c:	f39ff06f          	j	80002574 <handle_trap+0x18>
    80002640:	00100513          	li	a0,1
    80002644:	c19ff0ef          	jal	8000225c <terminate>
    80002648:	00001517          	auipc	a0,0x1
    8000264c:	87050513          	addi	a0,a0,-1936 # 80002eb8 <pass+0x19c>
    80002650:	02913c23          	sd	s1,56(sp)
    80002654:	bc1ff0ef          	jal	80002214 <cputstring>
    80002658:	c2dff0ef          	jal	80002284 <terminate.constprop.0>
    8000265c:	05043e03          	ld	t3,80(s0)
    80002660:	00001437          	lui	s0,0x1
    80002664:	02913c23          	sd	s1,56(sp)
    80002668:	00040313          	mv	t1,s0
    8000266c:	00001897          	auipc	a7,0x1
    80002670:	99488893          	addi	a7,a7,-1644 # 80003000 <user_mapping>
    80002674:	00002297          	auipc	t0,0x2
    80002678:	98c28293          	addi	t0,t0,-1652 # 80004000 <pt>
    8000267c:	00040fb7          	lui	t6,0x40
    80002680:	ffe00f37          	lui	t5,0xffe00
    80002684:	0003feb7          	lui	t4,0x3f
    80002688:	00c45793          	srli	a5,s0,0xc
    8000268c:	00479713          	slli	a4,a5,0x4
    80002690:	00e886b3          	add	a3,a7,a4
    80002694:	0006b683          	ld	a3,0(a3)
    80002698:	0c068e63          	beqz	a3,80002774 <handle_trap+0x218>
    8000269c:	60078793          	addi	a5,a5,1536
    800026a0:	2057e7b3          	sh3add	a5,a5,t0
    800026a4:	0007b683          	ld	a3,0(a5)
    800026a8:	0406f793          	andi	a5,a3,64
    800026ac:	0e078463          	beqz	a5,80002794 <handle_trap+0x238>
    800026b0:	02e13423          	sd	a4,40(sp)
    800026b4:	02d13023          	sd	a3,32(sp)
    800026b8:	01c13c23          	sd	t3,24(sp)
    800026bc:	100fa3f3          	csrrs	t2,sstatus,t6
    800026c0:	01e407b3          	add	a5,s0,t5
    800026c4:	00078593          	mv	a1,a5
    800026c8:	00040513          	mv	a0,s0
    800026cc:	00001637          	lui	a2,0x1
    800026d0:	00713823          	sd	t2,16(sp)
    800026d4:	00f13423          	sd	a5,8(sp)
    800026d8:	a2dff0ef          	jal	80002104 <memcmp>
    800026dc:	01013383          	ld	t2,16(sp)
    800026e0:	01813e03          	ld	t3,24(sp)
    800026e4:	02813703          	ld	a4,40(sp)
    800026e8:	ffe00f37          	lui	t5,0xffe00
    800026ec:	00040fb7          	lui	t6,0x40
    800026f0:	00001897          	auipc	a7,0x1
    800026f4:	91088893          	addi	a7,a7,-1776 # 80003000 <user_mapping>
    800026f8:	00002297          	auipc	t0,0x2
    800026fc:	90828293          	addi	t0,t0,-1784 # 80004000 <pt>
    80002700:	00001337          	lui	t1,0x1
    80002704:	00006817          	auipc	a6,0x6
    80002708:	8fc80813          	addi	a6,a6,-1796 # 80008000 <freelist_tail>
    8000270c:	0003feb7          	lui	t4,0x3f
    80002710:	04050463          	beqz	a0,80002758 <handle_trap+0x1fc>
    80002714:	02013683          	ld	a3,32(sp)
    80002718:	00813783          	ld	a5,8(sp)
    8000271c:	0806f693          	andi	a3,a3,128
    80002720:	08068c63          	beqz	a3,800027b8 <handle_trap+0x25c>
    80002724:	00040693          	mv	a3,s0
    80002728:	00640633          	add	a2,s0,t1
    8000272c:	0106b583          	ld	a1,16(a3)
    80002730:	0086b503          	ld	a0,8(a3)
    80002734:	0006b483          	ld	s1,0(a3)
    80002738:	00b7b823          	sd	a1,16(a5)
    8000273c:	00a7b423          	sd	a0,8(a5)
    80002740:	0097b023          	sd	s1,0(a5)
    80002744:	0186b583          	ld	a1,24(a3)
    80002748:	02068693          	addi	a3,a3,32
    8000274c:	02078793          	addi	a5,a5,32
    80002750:	feb7bc23          	sd	a1,-8(a5)
    80002754:	fcc69ce3          	bne	a3,a2,8000272c <handle_trap+0x1d0>
    80002758:	00e887b3          	add	a5,a7,a4
    8000275c:	10039073          	csrw	sstatus,t2
    80002760:	00083703          	ld	a4,0(a6)
    80002764:	0007b023          	sd	zero,0(a5)
    80002768:	00070e63          	beqz	a4,80002784 <handle_trap+0x228>
    8000276c:	00f73423          	sd	a5,8(a4)
    80002770:	00f83023          	sd	a5,0(a6)
    80002774:	00640433          	add	s0,s0,t1
    80002778:	f1d418e3          	bne	s0,t4,80002688 <handle_trap+0x12c>
    8000277c:	000e051b          	sext.w	a0,t3
    80002780:	addff0ef          	jal	8000225c <terminate>
    80002784:	00f83023          	sd	a5,0(a6)
    80002788:	00006717          	auipc	a4,0x6
    8000278c:	88f73023          	sd	a5,-1920(a4) # 80008008 <freelist_head>
    80002790:	fe5ff06f          	j	80002774 <handle_trap+0x218>
    80002794:	00000517          	auipc	a0,0x0
    80002798:	6b450513          	addi	a0,a0,1716 # 80002e48 <pass+0x12c>
    8000279c:	a79ff0ef          	jal	80002214 <cputstring>
    800027a0:	ae5ff0ef          	jal	80002284 <terminate.constprop.0>
    800027a4:	00000517          	auipc	a0,0x0
    800027a8:	73c50513          	addi	a0,a0,1852 # 80002ee0 <pass+0x1c4>
    800027ac:	02913c23          	sd	s1,56(sp)
    800027b0:	a65ff0ef          	jal	80002214 <cputstring>
    800027b4:	e7dff06f          	j	80002630 <handle_trap+0xd4>
    800027b8:	00000517          	auipc	a0,0x0
    800027bc:	6c850513          	addi	a0,a0,1736 # 80002e80 <pass+0x164>
    800027c0:	a55ff0ef          	jal	80002214 <cputstring>
    800027c4:	ac1ff0ef          	jal	80002284 <terminate.constprop.0>

00000000800027c8 <vm_boot>:
    800027c8:	f14027f3          	csrr	a5,mhartid
    800027cc:	1a079263          	bnez	a5,80002970 <vm_boot+0x1a8>
    800027d0:	00003817          	auipc	a6,0x3
    800027d4:	83080813          	addi	a6,a6,-2000 # 80005000 <pt+0x1000>
    800027d8:	00005897          	auipc	a7,0x5
    800027dc:	82888893          	addi	a7,a7,-2008 # 80007000 <pt+0x3000>
    800027e0:	00004797          	auipc	a5,0x4
    800027e4:	82078793          	addi	a5,a5,-2016 # 80006000 <pt+0x2000>
    800027e8:	ed010113          	addi	sp,sp,-304
    800027ec:	00c8d693          	srli	a3,a7,0xc
    800027f0:	00c85713          	srli	a4,a6,0xc
    800027f4:	00c7d793          	srli	a5,a5,0xc
    800027f8:	12813023          	sd	s0,288(sp)
    800027fc:	00002317          	auipc	t1,0x2
    80002800:	80430313          	addi	t1,t1,-2044 # 80004000 <pt>
    80002804:	00050413          	mv	s0,a0
    80002808:	fff00613          	li	a2,-1
    8000280c:	00a79793          	slli	a5,a5,0xa
    80002810:	00a69693          	slli	a3,a3,0xa
    80002814:	00a71713          	slli	a4,a4,0xa
    80002818:	20000537          	lui	a0,0x20000
    8000281c:	12113423          	sd	ra,296(sp)
    80002820:	0017e793          	ori	a5,a5,1
    80002824:	0016e693          	ori	a3,a3,1
    80002828:	00176713          	ori	a4,a4,1
    8000282c:	00c35593          	srli	a1,t1,0xc
    80002830:	03f61e13          	slli	t3,a2,0x3f
    80002834:	0cf50513          	addi	a0,a0,207 # 200000cf <_start-0x5fffff31>
    80002838:	fef83c23          	sd	a5,-8(a6)
    8000283c:	00d83023          	sd	a3,0(a6)
    80002840:	00e33023          	sd	a4,0(t1)
    80002844:	01c5e7b3          	or	a5,a1,t3
    80002848:	fea8bc23          	sd	a0,-8(a7)
    8000284c:	18079073          	csrw	satp,a5
    80002850:	18002773          	csrr	a4,satp
    80002854:	16e79663          	bne	a5,a4,800029c0 <vm_boot+0x1f8>
    80002858:	800007b7          	lui	a5,0x80000
    8000285c:	12078073          	sfence.vma	a5
    80002860:	01f00793          	li	a5,31
    80002864:	00b65613          	srli	a2,a2,0xb
    80002868:	00000297          	auipc	t0,0x0
    8000286c:	01428293          	addi	t0,t0,20 # 8000287c <vm_boot+0xb4>
    80002870:	305292f3          	csrrw	t0,mtvec,t0
    80002874:	3b061073          	csrw	pmpaddr0,a2
    80002878:	3a079073          	csrw	pmpcfg0,a5
    8000287c:	30529073          	csrw	mtvec,t0
    80002880:	bff00713          	li	a4,-1025
    80002884:	01571713          	slli	a4,a4,0x15
    80002888:	ffffe797          	auipc	a5,0xffffe
    8000288c:	8cc78793          	addi	a5,a5,-1844 # 80000154 <trap_entry>
    80002890:	00e787b3          	add	a5,a5,a4
    80002894:	10579073          	csrw	stvec,a5
    80002898:	340027f3          	csrr	a5,mscratch
    8000289c:	effc06b7          	lui	a3,0xeffc0
    800028a0:	20f6e7b3          	sh3add	a5,a3,a5
    800028a4:	14079073          	csrw	sscratch,a5
    800028a8:	0000b7b7          	lui	a5,0xb
    800028ac:	1007879b          	addiw	a5,a5,256 # b100 <_start-0x7fff4f00>
    800028b0:	30279073          	csrw	medeleg,a5
    800028b4:	0001e7b7          	lui	a5,0x1e
    800028b8:	6007879b          	addiw	a5,a5,1536 # 1e600 <_start-0x7ffe1a00>
    800028bc:	30079073          	csrw	mstatus,a5
    800028c0:	30405073          	csrwi	mie,0
    800028c4:	00001717          	auipc	a4,0x1
    800028c8:	b2c70713          	addi	a4,a4,-1236 # 800033f0 <freelist_nodes>
    800028cc:	07c68793          	addi	a5,a3,124 # ffffffffeffc007c <freelist_head+0xffffffff6ffb8074>
    800028d0:	20e7e7b3          	sh3add	a5,a5,a4
    800028d4:	20e6e6b3          	sh3add	a3,a3,a4
    800028d8:	000808b7          	lui	a7,0x80
    800028dc:	effc0837          	lui	a6,0xeffc0
    800028e0:	00005617          	auipc	a2,0x5
    800028e4:	72d63423          	sd	a3,1832(a2) # 80008008 <freelist_head>
    800028e8:	03f88893          	addi	a7,a7,63 # 8003f <_start-0x7ff7ffc1>
    800028ec:	00005697          	auipc	a3,0x5
    800028f0:	70f6ba23          	sd	a5,1812(a3) # 80008000 <freelist_tail>
    800028f4:	00280813          	addi	a6,a6,2 # ffffffffeffc0002 <freelist_head+0xffffffff6ffb7ffa>
    800028f8:	00001317          	auipc	t1,0x1
    800028fc:	ee830313          	addi	t1,t1,-280 # 800037e0 <freelist_nodes+0x3f0>
    80002900:	01d00793          	li	a5,29
    80002904:	0017d613          	srli	a2,a5,0x1
    80002908:	00f646b3          	xor	a3,a2,a5
    8000290c:	011787b3          	add	a5,a5,a7
    80002910:	00c79793          	slli	a5,a5,0xc
    80002914:	20e865b3          	sh3add	a1,a6,a4
    80002918:	00569693          	slli	a3,a3,0x5
    8000291c:	00f73023          	sd	a5,0(a4)
    80002920:	0206f693          	andi	a3,a3,32
    80002924:	00b73423          	sd	a1,8(a4)
    80002928:	01070713          	addi	a4,a4,16
    8000292c:	00d667b3          	or	a5,a2,a3
    80002930:	fce31ae3          	bne	t1,a4,80002904 <vm_boot+0x13c>
    80002934:	00010513          	mv	a0,sp
    80002938:	12000613          	li	a2,288
    8000293c:	00000593          	li	a1,0
    80002940:	00001797          	auipc	a5,0x1
    80002944:	e807bc23          	sd	zero,-360(a5) # 800037d8 <freelist_nodes+0x3e8>
    80002948:	f14ff0ef          	jal	8000205c <memset>
    8000294c:	800007b7          	lui	a5,0x80000
    80002950:	00f40433          	add	s0,s0,a5
    80002954:	00010513          	mv	a0,sp
    80002958:	10813423          	sd	s0,264(sp)
    8000295c:	f70fd0ef          	jal	800000cc <pop_tf>
    80002960:	12813083          	ld	ra,296(sp)
    80002964:	12013403          	ld	s0,288(sp)
    80002968:	13010113          	addi	sp,sp,304
    8000296c:	00008067          	ret
    80002970:	00100693          	li	a3,1
    80002974:	09d767b7          	lui	a5,0x9d76
    80002978:	00080637          	lui	a2,0x80
    8000297c:	5cf78793          	addi	a5,a5,1487 # 9d765cf <_start-0x76289a31>
    80002980:	ffc60613          	addi	a2,a2,-4 # 7fffc <_start-0x7ff80004>
    80002984:	03e69693          	slli	a3,a3,0x3e
    80002988:	10000537          	lui	a0,0x10000
    8000298c:	01c0006f          	j	800029a8 <vm_boot+0x1e0>
    80002990:	0007202f          	amoadd.w	zero,zero,(a4)
    80002994:	0017d713          	srli	a4,a5,0x1
    80002998:	00e7c7b3          	xor	a5,a5,a4
    8000299c:	03e79793          	slli	a5,a5,0x3e
    800029a0:	00d7f7b3          	and	a5,a5,a3
    800029a4:	00e7e7b3          	or	a5,a5,a4
    800029a8:	00c7f733          	and	a4,a5,a2
    800029ac:	0017f593          	andi	a1,a5,1
    800029b0:	20e56733          	sh3add	a4,a0,a4
    800029b4:	fc059ee3          	bnez	a1,80002990 <vm_boot+0x1c8>
    800029b8:	00072003          	lw	zero,0(a4)
    800029bc:	fd9ff06f          	j	80002994 <vm_boot+0x1cc>
    800029c0:	00000517          	auipc	a0,0x0
    800029c4:	55050513          	addi	a0,a0,1360 # 80002f10 <pass+0x1f4>
    800029c8:	84dff0ef          	jal	80002214 <cputstring>
    800029cc:	8b9ff0ef          	jal	80002284 <terminate.constprop.0>

00000000800029d0 <extra_boot>:
    800029d0:	00008067          	ret

00000000800029d4 <trap_filter>:
    800029d4:	00000513          	li	a0,0
    800029d8:	00008067          	ret

00000000800029dc <pf_filter>:
    800029dc:	00000513          	li	a0,0
    800029e0:	00008067          	ret

00000000800029e4 <userstart>:
    800029e4:	00200193          	li	gp,2
    800029e8:	00100693          	li	a3,1
    800029ec:	0806971b          	slli.uw	a4,a3,0x0
    800029f0:	00100393          	li	t2,1
    800029f4:	30771c63          	bne	a4,t2,80002d0c <fail>

00000000800029f8 <test_3>:
    800029f8:	00300193          	li	gp,3
    800029fc:	00100693          	li	a3,1
    80002a00:	0816971b          	slli.uw	a4,a3,0x1
    80002a04:	00200393          	li	t2,2
    80002a08:	30771263          	bne	a4,t2,80002d0c <fail>

0000000080002a0c <test_4>:
    80002a0c:	00400193          	li	gp,4
    80002a10:	00100693          	li	a3,1
    80002a14:	0876971b          	slli.uw	a4,a3,0x7
    80002a18:	08000393          	li	t2,128
    80002a1c:	2e771863          	bne	a4,t2,80002d0c <fail>

0000000080002a20 <test_5>:
    80002a20:	00500193          	li	gp,5
    80002a24:	00100693          	li	a3,1
    80002a28:	08e6971b          	slli.uw	a4,a3,0xe
    80002a2c:	000043b7          	lui	t2,0x4
    80002a30:	2c771e63          	bne	a4,t2,80002d0c <fail>

0000000080002a34 <test_6>:
    80002a34:	00600193          	li	gp,6
    80002a38:	00100693          	li	a3,1
    80002a3c:	09f6971b          	slli.uw	a4,a3,0x1f
    80002a40:	0010039b          	addiw	t2,zero,1
    80002a44:	01f39393          	slli	t2,t2,0x1f
    80002a48:	2c771263          	bne	a4,t2,80002d0c <fail>

0000000080002a4c <test_7>:
    80002a4c:	00700193          	li	gp,7
    80002a50:	fff00693          	li	a3,-1
    80002a54:	0806971b          	slli.uw	a4,a3,0x0
    80002a58:	0010039b          	addiw	t2,zero,1
    80002a5c:	02039393          	slli	t2,t2,0x20
    80002a60:	fff38393          	addi	t2,t2,-1 # 3fff <_start-0x7fffc001>
    80002a64:	2a771463          	bne	a4,t2,80002d0c <fail>

0000000080002a68 <test_8>:
    80002a68:	00800193          	li	gp,8
    80002a6c:	fff00693          	li	a3,-1
    80002a70:	0816971b          	slli.uw	a4,a3,0x1
    80002a74:	0010039b          	addiw	t2,zero,1
    80002a78:	02139393          	slli	t2,t2,0x21
    80002a7c:	ffe38393          	addi	t2,t2,-2
    80002a80:	28771663          	bne	a4,t2,80002d0c <fail>

0000000080002a84 <test_9>:
    80002a84:	00900193          	li	gp,9
    80002a88:	fff00693          	li	a3,-1
    80002a8c:	0876971b          	slli.uw	a4,a3,0x7
    80002a90:	0010039b          	addiw	t2,zero,1
    80002a94:	02739393          	slli	t2,t2,0x27
    80002a98:	f8038393          	addi	t2,t2,-128
    80002a9c:	26771863          	bne	a4,t2,80002d0c <fail>

0000000080002aa0 <test_10>:
    80002aa0:	00a00193          	li	gp,10
    80002aa4:	fff00693          	li	a3,-1
    80002aa8:	08e6971b          	slli.uw	a4,a3,0xe
    80002aac:	0010039b          	addiw	t2,zero,1
    80002ab0:	02039393          	slli	t2,t2,0x20
    80002ab4:	fff38393          	addi	t2,t2,-1
    80002ab8:	00e39393          	slli	t2,t2,0xe
    80002abc:	24771863          	bne	a4,t2,80002d0c <fail>

0000000080002ac0 <test_11>:
    80002ac0:	00b00193          	li	gp,11
    80002ac4:	fff00693          	li	a3,-1
    80002ac8:	09f6971b          	slli.uw	a4,a3,0x1f
    80002acc:	0010039b          	addiw	t2,zero,1
    80002ad0:	02039393          	slli	t2,t2,0x20
    80002ad4:	fff38393          	addi	t2,t2,-1
    80002ad8:	01f39393          	slli	t2,t2,0x1f
    80002adc:	22771863          	bne	a4,t2,80002d0c <fail>

0000000080002ae0 <test_12>:
    80002ae0:	00c00193          	li	gp,12
    80002ae4:	212126b7          	lui	a3,0x21212
    80002ae8:	1216869b          	addiw	a3,a3,289 # 21212121 <_start-0x5edededf>
    80002aec:	0806971b          	slli.uw	a4,a3,0x0
    80002af0:	212123b7          	lui	t2,0x21212
    80002af4:	1213839b          	addiw	t2,t2,289 # 21212121 <_start-0x5edededf>
    80002af8:	20771a63          	bne	a4,t2,80002d0c <fail>

0000000080002afc <test_13>:
    80002afc:	00d00193          	li	gp,13
    80002b00:	212126b7          	lui	a3,0x21212
    80002b04:	1216869b          	addiw	a3,a3,289 # 21212121 <_start-0x5edededf>
    80002b08:	0816971b          	slli.uw	a4,a3,0x1
    80002b0c:	424243b7          	lui	t2,0x42424
    80002b10:	2423839b          	addiw	t2,t2,578 # 42424242 <_start-0x3dbdbdbe>
    80002b14:	1e771c63          	bne	a4,t2,80002d0c <fail>

0000000080002b18 <test_14>:
    80002b18:	00e00193          	li	gp,14
    80002b1c:	212126b7          	lui	a3,0x21212
    80002b20:	1216869b          	addiw	a3,a3,289 # 21212121 <_start-0x5edededf>
    80002b24:	0876971b          	slli.uw	a4,a3,0x7
    80002b28:	010913b7          	lui	t2,0x1091
    80002b2c:	9093839b          	addiw	t2,t2,-1783 # 1090909 <_start-0x7ef6f6f7>
    80002b30:	00c39393          	slli	t2,t2,0xc
    80002b34:	08038393          	addi	t2,t2,128
    80002b38:	1c771a63          	bne	a4,t2,80002d0c <fail>

0000000080002b3c <test_15>:
    80002b3c:	00f00193          	li	gp,15
    80002b40:	212126b7          	lui	a3,0x21212
    80002b44:	1216869b          	addiw	a3,a3,289 # 21212121 <_start-0x5edededf>
    80002b48:	08e6971b          	slli.uw	a4,a3,0xe
    80002b4c:	212123b7          	lui	t2,0x21212
    80002b50:	1213839b          	addiw	t2,t2,289 # 21212121 <_start-0x5edededf>
    80002b54:	00e39393          	slli	t2,t2,0xe
    80002b58:	1a771a63          	bne	a4,t2,80002d0c <fail>

0000000080002b5c <test_16>:
    80002b5c:	01000193          	li	gp,16
    80002b60:	212126b7          	lui	a3,0x21212
    80002b64:	1216869b          	addiw	a3,a3,289 # 21212121 <_start-0x5edededf>
    80002b68:	09f6971b          	slli.uw	a4,a3,0x1f
    80002b6c:	212123b7          	lui	t2,0x21212
    80002b70:	1213839b          	addiw	t2,t2,289 # 21212121 <_start-0x5edededf>
    80002b74:	01f39393          	slli	t2,t2,0x1f
    80002b78:	18771a63          	bne	a4,t2,80002d0c <fail>

0000000080002b7c <test_50>:
    80002b7c:	03200193          	li	gp,50
    80002b80:	00100693          	li	a3,1
    80002b84:	0bf6971b          	slli.uw	a4,a3,0x3f
    80002b88:	fff0039b          	addiw	t2,zero,-1
    80002b8c:	03f39393          	slli	t2,t2,0x3f
    80002b90:	16771e63          	bne	a4,t2,80002d0c <fail>

0000000080002b94 <test_51>:
    80002b94:	03300193          	li	gp,51
    80002b98:	fff00693          	li	a3,-1
    80002b9c:	0a76971b          	slli.uw	a4,a3,0x27
    80002ba0:	fff0039b          	addiw	t2,zero,-1
    80002ba4:	02739393          	slli	t2,t2,0x27
    80002ba8:	16771263          	bne	a4,t2,80002d0c <fail>

0000000080002bac <test_52>:
    80002bac:	03400193          	li	gp,52
    80002bb0:	212126b7          	lui	a3,0x21212
    80002bb4:	1216869b          	addiw	a3,a3,289 # 21212121 <_start-0x5edededf>
    80002bb8:	0ab6971b          	slli.uw	a4,a3,0x2b
    80002bbc:	000123b7          	lui	t2,0x12
    80002bc0:	1213839b          	addiw	t2,t2,289 # 12121 <_start-0x7ffededf>
    80002bc4:	02b39393          	slli	t2,t2,0x2b
    80002bc8:	14771263          	bne	a4,t2,80002d0c <fail>

0000000080002bcc <test_17>:
    80002bcc:	01100193          	li	gp,17
    80002bd0:	00100593          	li	a1,1
    80002bd4:	0875959b          	slli.uw	a1,a1,0x7
    80002bd8:	08000393          	li	t2,128
    80002bdc:	12759863          	bne	a1,t2,80002d0c <fail>

0000000080002be0 <test_18>:
    80002be0:	01200193          	li	gp,18
    80002be4:	00000213          	li	tp,0
    80002be8:	00100093          	li	ra,1
    80002bec:	0870971b          	slli.uw	a4,ra,0x7
    80002bf0:	00070313          	mv	t1,a4
    80002bf4:	00120213          	addi	tp,tp,1 # 1 <_start-0x7fffffff>
    80002bf8:	00200293          	li	t0,2
    80002bfc:	fe5216e3          	bne	tp,t0,80002be8 <test_18+0x8>
    80002c00:	08000393          	li	t2,128
    80002c04:	10731463          	bne	t1,t2,80002d0c <fail>

0000000080002c08 <test_19>:
    80002c08:	01300193          	li	gp,19
    80002c0c:	00000213          	li	tp,0
    80002c10:	00100093          	li	ra,1
    80002c14:	08e0971b          	slli.uw	a4,ra,0xe
    80002c18:	00000013          	nop
    80002c1c:	00070313          	mv	t1,a4
    80002c20:	00120213          	addi	tp,tp,1 # 1 <_start-0x7fffffff>
    80002c24:	00200293          	li	t0,2
    80002c28:	fe5214e3          	bne	tp,t0,80002c10 <test_19+0x8>
    80002c2c:	000043b7          	lui	t2,0x4
    80002c30:	0c731e63          	bne	t1,t2,80002d0c <fail>

0000000080002c34 <test_20>:
    80002c34:	01400193          	li	gp,20
    80002c38:	00000213          	li	tp,0
    80002c3c:	00100093          	li	ra,1
    80002c40:	09f0971b          	slli.uw	a4,ra,0x1f
    80002c44:	00000013          	nop
    80002c48:	00000013          	nop
    80002c4c:	00070313          	mv	t1,a4
    80002c50:	00120213          	addi	tp,tp,1 # 1 <_start-0x7fffffff>
    80002c54:	00200293          	li	t0,2
    80002c58:	fe5212e3          	bne	tp,t0,80002c3c <test_20+0x8>
    80002c5c:	0010039b          	addiw	t2,zero,1
    80002c60:	01f39393          	slli	t2,t2,0x1f
    80002c64:	0a731463          	bne	t1,t2,80002d0c <fail>

0000000080002c68 <test_21>:
    80002c68:	01500193          	li	gp,21
    80002c6c:	00000213          	li	tp,0
    80002c70:	00100093          	li	ra,1
    80002c74:	0870971b          	slli.uw	a4,ra,0x7
    80002c78:	00120213          	addi	tp,tp,1 # 1 <_start-0x7fffffff>
    80002c7c:	00200293          	li	t0,2
    80002c80:	fe5218e3          	bne	tp,t0,80002c70 <test_21+0x8>
    80002c84:	08000393          	li	t2,128
    80002c88:	08771263          	bne	a4,t2,80002d0c <fail>

0000000080002c8c <test_22>:
    80002c8c:	01600193          	li	gp,22
    80002c90:	00000213          	li	tp,0
    80002c94:	00100093          	li	ra,1
    80002c98:	00000013          	nop
    80002c9c:	08e0971b          	slli.uw	a4,ra,0xe
    80002ca0:	00120213          	addi	tp,tp,1 # 1 <_start-0x7fffffff>
    80002ca4:	00200293          	li	t0,2
    80002ca8:	fe5216e3          	bne	tp,t0,80002c94 <test_22+0x8>
    80002cac:	000043b7          	lui	t2,0x4
    80002cb0:	04771e63          	bne	a4,t2,80002d0c <fail>

0000000080002cb4 <test_23>:
    80002cb4:	01700193          	li	gp,23
    80002cb8:	00000213          	li	tp,0
    80002cbc:	00100093          	li	ra,1
    80002cc0:	00000013          	nop
    80002cc4:	00000013          	nop
    80002cc8:	09f0971b          	slli.uw	a4,ra,0x1f
    80002ccc:	00120213          	addi	tp,tp,1 # 1 <_start-0x7fffffff>
    80002cd0:	00200293          	li	t0,2
    80002cd4:	fe5214e3          	bne	tp,t0,80002cbc <test_23+0x8>
    80002cd8:	0010039b          	addiw	t2,zero,1
    80002cdc:	01f39393          	slli	t2,t2,0x1f
    80002ce0:	02771663          	bne	a4,t2,80002d0c <fail>

0000000080002ce4 <test_24>:
    80002ce4:	01800193          	li	gp,24
    80002ce8:	09f0109b          	slli.uw	ra,zero,0x1f
    80002cec:	00000393          	li	t2,0
    80002cf0:	00709e63          	bne	ra,t2,80002d0c <fail>

0000000080002cf4 <test_25>:
    80002cf4:	01900193          	li	gp,25
    80002cf8:	02100093          	li	ra,33
    80002cfc:	0940901b          	slli.uw	zero,ra,0x14
    80002d00:	00000393          	li	t2,0
    80002d04:	00701463          	bne	zero,t2,80002d0c <fail>
    80002d08:	00301a63          	bne	zero,gp,80002d1c <pass>

0000000080002d0c <fail>:
    80002d0c:	00119513          	slli	a0,gp,0x1
    80002d10:	00050063          	beqz	a0,80002d10 <fail+0x4>
    80002d14:	00156513          	ori	a0,a0,1
    80002d18:	00000073          	ecall

0000000080002d1c <pass>:
    80002d1c:	00100513          	li	a0,1
    80002d20:	00000073          	ecall
    80002d24:	c0001073          	unimp
