
rv64uzbs-p-bset:     ファイル形式 elf64-littleriscv


セクション .text.init の逆アセンブル:

0000000000000000 <_start>:
   0:	0500006f          	j	50 <reset_vector>

0000000000000004 <trap_vector>:
   4:	34202f73          	csrr	t5,mcause
   8:	00800f93          	li	t6,8
   c:	03ff0863          	beq	t5,t6,3c <write_tohost>
  10:	00900f93          	li	t6,9
  14:	03ff0463          	beq	t5,t6,3c <write_tohost>
  18:	00b00f93          	li	t6,11
  1c:	03ff0063          	beq	t5,t6,3c <write_tohost>
  20:	00000f13          	li	t5,0
  24:	000f0463          	beqz	t5,2c <trap_vector+0x28>
  28:	000f0067          	jr	t5
  2c:	34202f73          	csrr	t5,mcause
  30:	000f5463          	bgez	t5,38 <handle_exception>
  34:	0040006f          	j	38 <handle_exception>

0000000000000038 <handle_exception>:
  38:	5391e193          	ori	gp,gp,1337

000000000000003c <write_tohost>:
  3c:	00001f17          	auipc	t5,0x1
  40:	fc3f2223          	sw	gp,-60(t5) # 1000 <tohost>
  44:	00001f17          	auipc	t5,0x1
  48:	fc0f2023          	sw	zero,-64(t5) # 1004 <tohost+0x4>
  4c:	ff1ff06f          	j	3c <write_tohost>

0000000000000050 <reset_vector>:
  50:	00000093          	li	ra,0
  54:	00000113          	li	sp,0
  58:	00000193          	li	gp,0
  5c:	00000213          	li	tp,0
  60:	00000293          	li	t0,0
  64:	00000313          	li	t1,0
  68:	00000393          	li	t2,0
  6c:	00000413          	li	s0,0
  70:	00000493          	li	s1,0
  74:	00000513          	li	a0,0
  78:	00000593          	li	a1,0
  7c:	00000613          	li	a2,0
  80:	00000693          	li	a3,0
  84:	00000713          	li	a4,0
  88:	00000793          	li	a5,0
  8c:	00000813          	li	a6,0
  90:	00000893          	li	a7,0
  94:	00000913          	li	s2,0
  98:	00000993          	li	s3,0
  9c:	00000a13          	li	s4,0
  a0:	00000a93          	li	s5,0
  a4:	00000b13          	li	s6,0
  a8:	00000b93          	li	s7,0
  ac:	00000c13          	li	s8,0
  b0:	00000c93          	li	s9,0
  b4:	00000d13          	li	s10,0
  b8:	00000d93          	li	s11,0
  bc:	00000e13          	li	t3,0
  c0:	00000e93          	li	t4,0
  c4:	00000f13          	li	t5,0
  c8:	00000f93          	li	t6,0
  cc:	f1402573          	csrr	a0,mhartid
  d0:	00051063          	bnez	a0,d0 <reset_vector+0x80>
  d4:	00000297          	auipc	t0,0x0
  d8:	01028293          	addi	t0,t0,16 # e4 <reset_vector+0x94>
  dc:	30529073          	csrw	mtvec,t0
  e0:	74445073          	csrwi	mnstatus,8
  e4:	00000297          	auipc	t0,0x0
  e8:	01028293          	addi	t0,t0,16 # f4 <reset_vector+0xa4>
  ec:	30529073          	csrw	mtvec,t0
  f0:	18005073          	csrwi	satp,0
  f4:	00000297          	auipc	t0,0x0
  f8:	02428293          	addi	t0,t0,36 # 118 <reset_vector+0xc8>
  fc:	30529073          	csrw	mtvec,t0
 100:	0010029b          	addiw	t0,zero,1
 104:	03529293          	slli	t0,t0,0x35
 108:	fff28293          	addi	t0,t0,-1
 10c:	3b029073          	csrw	pmpaddr0,t0
 110:	01f00293          	li	t0,31
 114:	3a029073          	csrw	pmpcfg0,t0
 118:	30405073          	csrwi	mie,0
 11c:	00000297          	auipc	t0,0x0
 120:	01428293          	addi	t0,t0,20 # 130 <reset_vector+0xe0>
 124:	30529073          	csrw	mtvec,t0
 128:	30205073          	csrwi	medeleg,0
 12c:	30305073          	csrwi	mideleg,0
 130:	00000193          	li	gp,0
 134:	00000297          	auipc	t0,0x0
 138:	ed028293          	addi	t0,t0,-304 # 4 <trap_vector>
 13c:	30529073          	csrw	mtvec,t0
 140:	00100513          	li	a0,1
 144:	01f51513          	slli	a0,a0,0x1f
 148:	00055c63          	bgez	a0,160 <reset_vector+0x110>
 14c:	0ff0000f          	fence
 150:	00100193          	li	gp,1
 154:	05d00893          	li	a7,93
 158:	00000513          	li	a0,0
 15c:	00000073          	ecall
 160:	00000293          	li	t0,0
 164:	00028a63          	beqz	t0,178 <reset_vector+0x128>
 168:	10529073          	csrw	stvec,t0
 16c:	0000b2b7          	lui	t0,0xb
 170:	1092829b          	addiw	t0,t0,265 # b109 <_end+0x9109>
 174:	30229073          	csrw	medeleg,t0
 178:	30005073          	csrwi	mstatus,0
 17c:	00000297          	auipc	t0,0x0
 180:	01428293          	addi	t0,t0,20 # 190 <test_2>
 184:	34129073          	csrw	mepc,t0
 188:	f1402573          	csrr	a0,mhartid
 18c:	30200073          	mret

0000000000000190 <test_2>:
 190:	00200193          	li	gp,2
 194:	000105b7          	lui	a1,0x10
 198:	f015859b          	addiw	a1,a1,-255 # ff01 <_end+0xdf01>
 19c:	01059593          	slli	a1,a1,0x10
 1a0:	f0058593          	addi	a1,a1,-256
 1a4:	00000613          	li	a2,0
 1a8:	28c59733          	bset	a4,a1,a2
 1ac:	000103b7          	lui	t2,0x10
 1b0:	f013839b          	addiw	t2,t2,-255 # ff01 <_end+0xdf01>
 1b4:	01039393          	slli	t2,t2,0x10
 1b8:	f0138393          	addi	t2,t2,-255
 1bc:	74771663          	bne	a4,t2,908 <fail>

00000000000001c0 <test_3>:
 1c0:	00300193          	li	gp,3
 1c4:	00ff05b7          	lui	a1,0xff0
 1c8:	0ff5859b          	addiw	a1,a1,255 # ff00ff <_end+0xfee0ff>
 1cc:	00100613          	li	a2,1
 1d0:	28c59733          	bset	a4,a1,a2
 1d4:	00ff03b7          	lui	t2,0xff0
 1d8:	0ff3839b          	addiw	t2,t2,255 # ff00ff <_end+0xfee0ff>
 1dc:	72771663          	bne	a4,t2,908 <fail>

00000000000001e0 <test_4>:
 1e0:	00400193          	li	gp,4
 1e4:	000105b7          	lui	a1,0x10
 1e8:	f015859b          	addiw	a1,a1,-255 # ff01 <_end+0xdf01>
 1ec:	01059593          	slli	a1,a1,0x10
 1f0:	f0058593          	addi	a1,a1,-256
 1f4:	00800613          	li	a2,8
 1f8:	28c59733          	bset	a4,a1,a2
 1fc:	000103b7          	lui	t2,0x10
 200:	f013839b          	addiw	t2,t2,-255 # ff01 <_end+0xdf01>
 204:	01039393          	slli	t2,t2,0x10
 208:	f0038393          	addi	t2,t2,-256
 20c:	6e771e63          	bne	a4,t2,908 <fail>

0000000000000210 <test_5>:
 210:	00500193          	li	gp,5
 214:	0ff015b7          	lui	a1,0xff01
 218:	ff05859b          	addiw	a1,a1,-16 # ff00ff0 <_end+0xfefeff0>
 21c:	00e00613          	li	a2,14
 220:	28c59733          	bset	a4,a1,a2
 224:	0ff053b7          	lui	t2,0xff05
 228:	ff03839b          	addiw	t2,t2,-16 # ff04ff0 <_end+0xff02ff0>
 22c:	6c771e63          	bne	a4,t2,908 <fail>

0000000000000230 <test_6>:
 230:	00600193          	li	gp,6
 234:	0ff015b7          	lui	a1,0xff01
 238:	ff05859b          	addiw	a1,a1,-16 # ff00ff0 <_end+0xfefeff0>
 23c:	01b00613          	li	a2,27
 240:	28c59733          	bset	a4,a1,a2
 244:	0ff013b7          	lui	t2,0xff01
 248:	ff03839b          	addiw	t2,t2,-16 # ff00ff0 <_end+0xfefeff0>
 24c:	6a771e63          	bne	a4,t2,908 <fail>

0000000000000250 <test_7>:
 250:	00700193          	li	gp,7
 254:	00100593          	li	a1,1
 258:	00000613          	li	a2,0
 25c:	28c59733          	bset	a4,a1,a2
 260:	00100393          	li	t2,1
 264:	6a771263          	bne	a4,t2,908 <fail>

0000000000000268 <test_8>:
 268:	00800193          	li	gp,8
 26c:	00100593          	li	a1,1
 270:	00100613          	li	a2,1
 274:	28c59733          	bset	a4,a1,a2
 278:	00300393          	li	t2,3
 27c:	68771663          	bne	a4,t2,908 <fail>

0000000000000280 <test_9>:
 280:	00900193          	li	gp,9
 284:	00100593          	li	a1,1
 288:	00700613          	li	a2,7
 28c:	28c59733          	bset	a4,a1,a2
 290:	08100393          	li	t2,129
 294:	66771a63          	bne	a4,t2,908 <fail>

0000000000000298 <test_10>:
 298:	00a00193          	li	gp,10
 29c:	00100593          	li	a1,1
 2a0:	00e00613          	li	a2,14
 2a4:	28c59733          	bset	a4,a1,a2
 2a8:	000043b7          	lui	t2,0x4
 2ac:	0013839b          	addiw	t2,t2,1 # 4001 <_end+0x2001>
 2b0:	64771c63          	bne	a4,t2,908 <fail>

00000000000002b4 <test_11>:
 2b4:	00b00193          	li	gp,11
 2b8:	00100593          	li	a1,1
 2bc:	01f00613          	li	a2,31
 2c0:	28c59733          	bset	a4,a1,a2
 2c4:	0010039b          	addiw	t2,zero,1
 2c8:	01f39393          	slli	t2,t2,0x1f
 2cc:	00138393          	addi	t2,t2,1
 2d0:	62771c63          	bne	a4,t2,908 <fail>

00000000000002d4 <test_12>:
 2d4:	00c00193          	li	gp,12
 2d8:	212125b7          	lui	a1,0x21212
 2dc:	1215859b          	addiw	a1,a1,289 # 21212121 <_end+0x21210121>
 2e0:	00000613          	li	a2,0
 2e4:	28c59733          	bset	a4,a1,a2
 2e8:	212123b7          	lui	t2,0x21212
 2ec:	1213839b          	addiw	t2,t2,289 # 21212121 <_end+0x21210121>
 2f0:	60771c63          	bne	a4,t2,908 <fail>

00000000000002f4 <test_13>:
 2f4:	00d00193          	li	gp,13
 2f8:	212125b7          	lui	a1,0x21212
 2fc:	1215859b          	addiw	a1,a1,289 # 21212121 <_end+0x21210121>
 300:	00100613          	li	a2,1
 304:	28c59733          	bset	a4,a1,a2
 308:	212123b7          	lui	t2,0x21212
 30c:	1233839b          	addiw	t2,t2,291 # 21212123 <_end+0x21210123>
 310:	5e771c63          	bne	a4,t2,908 <fail>

0000000000000314 <test_14>:
 314:	00e00193          	li	gp,14
 318:	212125b7          	lui	a1,0x21212
 31c:	1215859b          	addiw	a1,a1,289 # 21212121 <_end+0x21210121>
 320:	00700613          	li	a2,7
 324:	28c59733          	bset	a4,a1,a2
 328:	212123b7          	lui	t2,0x21212
 32c:	1a13839b          	addiw	t2,t2,417 # 212121a1 <_end+0x212101a1>
 330:	5c771c63          	bne	a4,t2,908 <fail>

0000000000000334 <test_15>:
 334:	00f00193          	li	gp,15
 338:	212125b7          	lui	a1,0x21212
 33c:	1215859b          	addiw	a1,a1,289 # 21212121 <_end+0x21210121>
 340:	00d00613          	li	a2,13
 344:	28c59733          	bset	a4,a1,a2
 348:	212123b7          	lui	t2,0x21212
 34c:	1213839b          	addiw	t2,t2,289 # 21212121 <_end+0x21210121>
 350:	5a771c63          	bne	a4,t2,908 <fail>

0000000000000354 <test_16>:
 354:	01000193          	li	gp,16
 358:	000115b7          	lui	a1,0x11
 35c:	9095859b          	addiw	a1,a1,-1783 # 10909 <_end+0xe909>
 360:	00f59593          	slli	a1,a1,0xf
 364:	48458593          	addi	a1,a1,1156
 368:	01f00613          	li	a2,31
 36c:	28c59733          	bset	a4,a1,a2
 370:	000113b7          	lui	t2,0x11
 374:	9093839b          	addiw	t2,t2,-1783 # 10909 <_end+0xe909>
 378:	00f39393          	slli	t2,t2,0xf
 37c:	48438393          	addi	t2,t2,1156
 380:	58771463          	bne	a4,t2,908 <fail>

0000000000000384 <test_17>:
 384:	01100193          	li	gp,17
 388:	212125b7          	lui	a1,0x21212
 38c:	1215859b          	addiw	a1,a1,289 # 21212121 <_end+0x21210121>
 390:	fc000613          	li	a2,-64
 394:	28c59733          	bset	a4,a1,a2
 398:	212123b7          	lui	t2,0x21212
 39c:	1213839b          	addiw	t2,t2,289 # 21212121 <_end+0x21210121>
 3a0:	56771463          	bne	a4,t2,908 <fail>

00000000000003a4 <test_18>:
 3a4:	01200193          	li	gp,18
 3a8:	212125b7          	lui	a1,0x21212
 3ac:	1215859b          	addiw	a1,a1,289 # 21212121 <_end+0x21210121>
 3b0:	fc100613          	li	a2,-63
 3b4:	28c59733          	bset	a4,a1,a2
 3b8:	212123b7          	lui	t2,0x21212
 3bc:	1233839b          	addiw	t2,t2,291 # 21212123 <_end+0x21210123>
 3c0:	54771463          	bne	a4,t2,908 <fail>

00000000000003c4 <test_19>:
 3c4:	01300193          	li	gp,19
 3c8:	212125b7          	lui	a1,0x21212
 3cc:	1215859b          	addiw	a1,a1,289 # 21212121 <_end+0x21210121>
 3d0:	fc700613          	li	a2,-57
 3d4:	28c59733          	bset	a4,a1,a2
 3d8:	212123b7          	lui	t2,0x21212
 3dc:	1a13839b          	addiw	t2,t2,417 # 212121a1 <_end+0x212101a1>
 3e0:	52771463          	bne	a4,t2,908 <fail>

00000000000003e4 <test_20>:
 3e4:	01400193          	li	gp,20
 3e8:	000115b7          	lui	a1,0x11
 3ec:	9095859b          	addiw	a1,a1,-1783 # 10909 <_end+0xe909>
 3f0:	00f59593          	slli	a1,a1,0xf
 3f4:	48458593          	addi	a1,a1,1156
 3f8:	fce00613          	li	a2,-50
 3fc:	28c59733          	bset	a4,a1,a2
 400:	000213b7          	lui	t2,0x21
 404:	2133839b          	addiw	t2,t2,531 # 21213 <_end+0x1f213>
 408:	00e39393          	slli	t2,t2,0xe
 40c:	48438393          	addi	t2,t2,1156
 410:	4e771c63          	bne	a4,t2,908 <fail>

0000000000000414 <test_21>:
 414:	01500193          	li	gp,21
 418:	ff8915b7          	lui	a1,0xff891
 41c:	9095859b          	addiw	a1,a1,-1783 # ffffffffff890909 <_end+0xffffffffff88e909>
 420:	00e59593          	slli	a1,a1,0xe
 424:	21158593          	addi	a1,a1,529
 428:	00c59593          	slli	a1,a1,0xc
 42c:	90958593          	addi	a1,a1,-1783
 430:	00d59593          	slli	a1,a1,0xd
 434:	12158593          	addi	a1,a1,289
 438:	fff00613          	li	a2,-1
 43c:	28c59733          	bset	a4,a1,a2
 440:	ff8913b7          	lui	t2,0xff891
 444:	9093839b          	addiw	t2,t2,-1783 # ffffffffff890909 <_end+0xffffffffff88e909>
 448:	00e39393          	slli	t2,t2,0xe
 44c:	21138393          	addi	t2,t2,529
 450:	00c39393          	slli	t2,t2,0xc
 454:	90938393          	addi	t2,t2,-1783
 458:	00d39393          	slli	t2,t2,0xd
 45c:	12138393          	addi	t2,t2,289
 460:	4a771463          	bne	a4,t2,908 <fail>

0000000000000464 <test_50>:
 464:	03200193          	li	gp,50
 468:	00100593          	li	a1,1
 46c:	03f00613          	li	a2,63
 470:	28c59733          	bset	a4,a1,a2
 474:	fff0039b          	addiw	t2,zero,-1
 478:	03f39393          	slli	t2,t2,0x3f
 47c:	00138393          	addi	t2,t2,1
 480:	48771463          	bne	a4,t2,908 <fail>

0000000000000484 <test_51>:
 484:	03300193          	li	gp,51
 488:	fff00593          	li	a1,-1
 48c:	02700613          	li	a2,39
 490:	28c59733          	bset	a4,a1,a2
 494:	fff00393          	li	t2,-1
 498:	46771863          	bne	a4,t2,908 <fail>

000000000000049c <test_52>:
 49c:	03400193          	li	gp,52
 4a0:	fff0059b          	addiw	a1,zero,-1
 4a4:	02059593          	slli	a1,a1,0x20
 4a8:	02b00613          	li	a2,43
 4ac:	28c59733          	bset	a4,a1,a2
 4b0:	fff0039b          	addiw	t2,zero,-1
 4b4:	02039393          	slli	t2,t2,0x20
 4b8:	44771863          	bne	a4,t2,908 <fail>

00000000000004bc <test_22>:
 4bc:	01600193          	li	gp,22
 4c0:	00100593          	li	a1,1
 4c4:	00700613          	li	a2,7
 4c8:	28c595b3          	bset	a1,a1,a2
 4cc:	08100393          	li	t2,129
 4d0:	42759c63          	bne	a1,t2,908 <fail>

00000000000004d4 <test_23>:
 4d4:	01700193          	li	gp,23
 4d8:	000055b7          	lui	a1,0x5
 4dc:	5515859b          	addiw	a1,a1,1361 # 5551 <_end+0x3551>
 4e0:	00e00613          	li	a2,14
 4e4:	28c59633          	bset	a2,a1,a2
 4e8:	000053b7          	lui	t2,0x5
 4ec:	5513839b          	addiw	t2,t2,1361 # 5551 <_end+0x3551>
 4f0:	40761c63          	bne	a2,t2,908 <fail>

00000000000004f4 <test_24>:
 4f4:	01800193          	li	gp,24
 4f8:	00300593          	li	a1,3
 4fc:	28b595b3          	bset	a1,a1,a1
 500:	00b00393          	li	t2,11
 504:	40759263          	bne	a1,t2,908 <fail>

0000000000000508 <test_25>:
 508:	01900193          	li	gp,25
 50c:	00000213          	li	tp,0
 510:	000100b7          	lui	ra,0x10
 514:	f010809b          	addiw	ra,ra,-255 # ff01 <_end+0xdf01>
 518:	01009093          	slli	ra,ra,0x10
 51c:	f0008093          	addi	ra,ra,-256
 520:	00000113          	li	sp,0
 524:	28209733          	bset	a4,ra,sp
 528:	00070313          	mv	t1,a4
 52c:	00120213          	addi	tp,tp,1 # 1 <_start+0x1>
 530:	00200293          	li	t0,2
 534:	fc521ee3          	bne	tp,t0,510 <test_25+0x8>
 538:	000103b7          	lui	t2,0x10
 53c:	f013839b          	addiw	t2,t2,-255 # ff01 <_end+0xdf01>
 540:	01039393          	slli	t2,t2,0x10
 544:	f0138393          	addi	t2,t2,-255
 548:	3c731063          	bne	t1,t2,908 <fail>

000000000000054c <test_26>:
 54c:	01a00193          	li	gp,26
 550:	00000213          	li	tp,0
 554:	00ff00b7          	lui	ra,0xff0
 558:	0ff0809b          	addiw	ra,ra,255 # ff00ff <_end+0xfee0ff>
 55c:	00100113          	li	sp,1
 560:	28209733          	bset	a4,ra,sp
 564:	00000013          	nop
 568:	00070313          	mv	t1,a4
 56c:	00120213          	addi	tp,tp,1 # 1 <_start+0x1>
 570:	00200293          	li	t0,2
 574:	fe5210e3          	bne	tp,t0,554 <test_26+0x8>
 578:	00ff03b7          	lui	t2,0xff0
 57c:	0ff3839b          	addiw	t2,t2,255 # ff00ff <_end+0xfee0ff>
 580:	38731463          	bne	t1,t2,908 <fail>

0000000000000584 <test_27>:
 584:	01b00193          	li	gp,27
 588:	00000213          	li	tp,0
 58c:	000100b7          	lui	ra,0x10
 590:	f010809b          	addiw	ra,ra,-255 # ff01 <_end+0xdf01>
 594:	01009093          	slli	ra,ra,0x10
 598:	f0008093          	addi	ra,ra,-256
 59c:	00800113          	li	sp,8
 5a0:	28209733          	bset	a4,ra,sp
 5a4:	00000013          	nop
 5a8:	00000013          	nop
 5ac:	00070313          	mv	t1,a4
 5b0:	00120213          	addi	tp,tp,1 # 1 <_start+0x1>
 5b4:	00200293          	li	t0,2
 5b8:	fc521ae3          	bne	tp,t0,58c <test_27+0x8>
 5bc:	000103b7          	lui	t2,0x10
 5c0:	f013839b          	addiw	t2,t2,-255 # ff01 <_end+0xdf01>
 5c4:	01039393          	slli	t2,t2,0x10
 5c8:	f0038393          	addi	t2,t2,-256
 5cc:	32731e63          	bne	t1,t2,908 <fail>

00000000000005d0 <test_28>:
 5d0:	01c00193          	li	gp,28
 5d4:	00000213          	li	tp,0
 5d8:	000100b7          	lui	ra,0x10
 5dc:	f010809b          	addiw	ra,ra,-255 # ff01 <_end+0xdf01>
 5e0:	01009093          	slli	ra,ra,0x10
 5e4:	f0008093          	addi	ra,ra,-256
 5e8:	00000113          	li	sp,0
 5ec:	28209733          	bset	a4,ra,sp
 5f0:	00120213          	addi	tp,tp,1 # 1 <_start+0x1>
 5f4:	00200293          	li	t0,2
 5f8:	fe5210e3          	bne	tp,t0,5d8 <test_28+0x8>
 5fc:	000103b7          	lui	t2,0x10
 600:	f013839b          	addiw	t2,t2,-255 # ff01 <_end+0xdf01>
 604:	01039393          	slli	t2,t2,0x10
 608:	f0138393          	addi	t2,t2,-255
 60c:	2e771e63          	bne	a4,t2,908 <fail>

0000000000000610 <test_29>:
 610:	01d00193          	li	gp,29
 614:	00000213          	li	tp,0
 618:	00ff00b7          	lui	ra,0xff0
 61c:	0ff0809b          	addiw	ra,ra,255 # ff00ff <_end+0xfee0ff>
 620:	00100113          	li	sp,1
 624:	00000013          	nop
 628:	28209733          	bset	a4,ra,sp
 62c:	00120213          	addi	tp,tp,1 # 1 <_start+0x1>
 630:	00200293          	li	t0,2
 634:	fe5212e3          	bne	tp,t0,618 <test_29+0x8>
 638:	00ff03b7          	lui	t2,0xff0
 63c:	0ff3839b          	addiw	t2,t2,255 # ff00ff <_end+0xfee0ff>
 640:	2c771463          	bne	a4,t2,908 <fail>

0000000000000644 <test_30>:
 644:	01e00193          	li	gp,30
 648:	00000213          	li	tp,0
 64c:	000100b7          	lui	ra,0x10
 650:	f010809b          	addiw	ra,ra,-255 # ff01 <_end+0xdf01>
 654:	01009093          	slli	ra,ra,0x10
 658:	f0008093          	addi	ra,ra,-256
 65c:	00800113          	li	sp,8
 660:	00000013          	nop
 664:	00000013          	nop
 668:	28209733          	bset	a4,ra,sp
 66c:	00120213          	addi	tp,tp,1 # 1 <_start+0x1>
 670:	00200293          	li	t0,2
 674:	fc521ce3          	bne	tp,t0,64c <test_30+0x8>
 678:	000103b7          	lui	t2,0x10
 67c:	f013839b          	addiw	t2,t2,-255 # ff01 <_end+0xdf01>
 680:	01039393          	slli	t2,t2,0x10
 684:	f0038393          	addi	t2,t2,-256
 688:	28771063          	bne	a4,t2,908 <fail>

000000000000068c <test_31>:
 68c:	01f00193          	li	gp,31
 690:	00000213          	li	tp,0
 694:	000100b7          	lui	ra,0x10
 698:	f010809b          	addiw	ra,ra,-255 # ff01 <_end+0xdf01>
 69c:	01009093          	slli	ra,ra,0x10
 6a0:	f0008093          	addi	ra,ra,-256
 6a4:	00000013          	nop
 6a8:	00000113          	li	sp,0
 6ac:	28209733          	bset	a4,ra,sp
 6b0:	00120213          	addi	tp,tp,1 # 1 <_start+0x1>
 6b4:	00200293          	li	t0,2
 6b8:	fc521ee3          	bne	tp,t0,694 <test_31+0x8>
 6bc:	000103b7          	lui	t2,0x10
 6c0:	f013839b          	addiw	t2,t2,-255 # ff01 <_end+0xdf01>
 6c4:	01039393          	slli	t2,t2,0x10
 6c8:	f0138393          	addi	t2,t2,-255
 6cc:	22771e63          	bne	a4,t2,908 <fail>

00000000000006d0 <test_32>:
 6d0:	02000193          	li	gp,32
 6d4:	00000213          	li	tp,0
 6d8:	00ff00b7          	lui	ra,0xff0
 6dc:	0ff0809b          	addiw	ra,ra,255 # ff00ff <_end+0xfee0ff>
 6e0:	00000013          	nop
 6e4:	00100113          	li	sp,1
 6e8:	00000013          	nop
 6ec:	28209733          	bset	a4,ra,sp
 6f0:	00120213          	addi	tp,tp,1 # 1 <_start+0x1>
 6f4:	00200293          	li	t0,2
 6f8:	fe5210e3          	bne	tp,t0,6d8 <test_32+0x8>
 6fc:	00ff03b7          	lui	t2,0xff0
 700:	0ff3839b          	addiw	t2,t2,255 # ff00ff <_end+0xfee0ff>
 704:	20771263          	bne	a4,t2,908 <fail>

0000000000000708 <test_33>:
 708:	02100193          	li	gp,33
 70c:	00000213          	li	tp,0
 710:	000100b7          	lui	ra,0x10
 714:	f010809b          	addiw	ra,ra,-255 # ff01 <_end+0xdf01>
 718:	01009093          	slli	ra,ra,0x10
 71c:	f0008093          	addi	ra,ra,-256
 720:	00000013          	nop
 724:	00000013          	nop
 728:	00800113          	li	sp,8
 72c:	28209733          	bset	a4,ra,sp
 730:	00120213          	addi	tp,tp,1 # 1 <_start+0x1>
 734:	00200293          	li	t0,2
 738:	fc521ce3          	bne	tp,t0,710 <test_33+0x8>
 73c:	000103b7          	lui	t2,0x10
 740:	f013839b          	addiw	t2,t2,-255 # ff01 <_end+0xdf01>
 744:	01039393          	slli	t2,t2,0x10
 748:	f0038393          	addi	t2,t2,-256
 74c:	1a771e63          	bne	a4,t2,908 <fail>

0000000000000750 <test_34>:
 750:	02200193          	li	gp,34
 754:	00000213          	li	tp,0
 758:	00800113          	li	sp,8
 75c:	000100b7          	lui	ra,0x10
 760:	f010809b          	addiw	ra,ra,-255 # ff01 <_end+0xdf01>
 764:	01009093          	slli	ra,ra,0x10
 768:	f0008093          	addi	ra,ra,-256
 76c:	28209733          	bset	a4,ra,sp
 770:	00120213          	addi	tp,tp,1 # 1 <_start+0x1>
 774:	00200293          	li	t0,2
 778:	fe5210e3          	bne	tp,t0,758 <test_34+0x8>
 77c:	000103b7          	lui	t2,0x10
 780:	f013839b          	addiw	t2,t2,-255 # ff01 <_end+0xdf01>
 784:	01039393          	slli	t2,t2,0x10
 788:	f0038393          	addi	t2,t2,-256
 78c:	16771e63          	bne	a4,t2,908 <fail>

0000000000000790 <test_35>:
 790:	02300193          	li	gp,35
 794:	00000213          	li	tp,0
 798:	00e00113          	li	sp,14
 79c:	0ff010b7          	lui	ra,0xff01
 7a0:	ff00809b          	addiw	ra,ra,-16 # ff00ff0 <_end+0xfefeff0>
 7a4:	00000013          	nop
 7a8:	28209733          	bset	a4,ra,sp
 7ac:	00120213          	addi	tp,tp,1 # 1 <_start+0x1>
 7b0:	00200293          	li	t0,2
 7b4:	fe5212e3          	bne	tp,t0,798 <test_35+0x8>
 7b8:	0ff053b7          	lui	t2,0xff05
 7bc:	ff03839b          	addiw	t2,t2,-16 # ff04ff0 <_end+0xff02ff0>
 7c0:	14771463          	bne	a4,t2,908 <fail>

00000000000007c4 <test_36>:
 7c4:	02400193          	li	gp,36
 7c8:	00000213          	li	tp,0
 7cc:	01b00113          	li	sp,27
 7d0:	0ff010b7          	lui	ra,0xff01
 7d4:	ff00809b          	addiw	ra,ra,-16 # ff00ff0 <_end+0xfefeff0>
 7d8:	00000013          	nop
 7dc:	00000013          	nop
 7e0:	28209733          	bset	a4,ra,sp
 7e4:	00120213          	addi	tp,tp,1 # 1 <_start+0x1>
 7e8:	00200293          	li	t0,2
 7ec:	fe5210e3          	bne	tp,t0,7cc <test_36+0x8>
 7f0:	0ff013b7          	lui	t2,0xff01
 7f4:	ff03839b          	addiw	t2,t2,-16 # ff00ff0 <_end+0xfefeff0>
 7f8:	10771863          	bne	a4,t2,908 <fail>

00000000000007fc <test_37>:
 7fc:	02500193          	li	gp,37
 800:	00000213          	li	tp,0
 804:	00800113          	li	sp,8
 808:	00000013          	nop
 80c:	000100b7          	lui	ra,0x10
 810:	f010809b          	addiw	ra,ra,-255 # ff01 <_end+0xdf01>
 814:	01009093          	slli	ra,ra,0x10
 818:	f0008093          	addi	ra,ra,-256
 81c:	28209733          	bset	a4,ra,sp
 820:	00120213          	addi	tp,tp,1 # 1 <_start+0x1>
 824:	00200293          	li	t0,2
 828:	fc521ee3          	bne	tp,t0,804 <test_37+0x8>
 82c:	000103b7          	lui	t2,0x10
 830:	f013839b          	addiw	t2,t2,-255 # ff01 <_end+0xdf01>
 834:	01039393          	slli	t2,t2,0x10
 838:	f0038393          	addi	t2,t2,-256
 83c:	0c771663          	bne	a4,t2,908 <fail>

0000000000000840 <test_38>:
 840:	02600193          	li	gp,38
 844:	00000213          	li	tp,0
 848:	00e00113          	li	sp,14
 84c:	00000013          	nop
 850:	0ff010b7          	lui	ra,0xff01
 854:	ff00809b          	addiw	ra,ra,-16 # ff00ff0 <_end+0xfefeff0>
 858:	00000013          	nop
 85c:	28209733          	bset	a4,ra,sp
 860:	00120213          	addi	tp,tp,1 # 1 <_start+0x1>
 864:	00200293          	li	t0,2
 868:	fe5210e3          	bne	tp,t0,848 <test_38+0x8>
 86c:	0ff053b7          	lui	t2,0xff05
 870:	ff03839b          	addiw	t2,t2,-16 # ff04ff0 <_end+0xff02ff0>
 874:	08771a63          	bne	a4,t2,908 <fail>

0000000000000878 <test_39>:
 878:	02700193          	li	gp,39
 87c:	00000213          	li	tp,0
 880:	01b00113          	li	sp,27
 884:	00000013          	nop
 888:	00000013          	nop
 88c:	0ff010b7          	lui	ra,0xff01
 890:	ff00809b          	addiw	ra,ra,-16 # ff00ff0 <_end+0xfefeff0>
 894:	28209733          	bset	a4,ra,sp
 898:	00120213          	addi	tp,tp,1 # 1 <_start+0x1>
 89c:	00200293          	li	t0,2
 8a0:	fe5210e3          	bne	tp,t0,880 <test_39+0x8>
 8a4:	0ff013b7          	lui	t2,0xff01
 8a8:	ff03839b          	addiw	t2,t2,-16 # ff00ff0 <_end+0xfefeff0>
 8ac:	04771e63          	bne	a4,t2,908 <fail>

00000000000008b0 <test_40>:
 8b0:	02800193          	li	gp,40
 8b4:	00f00093          	li	ra,15
 8b8:	28101133          	bset	sp,zero,ra
 8bc:	000083b7          	lui	t2,0x8
 8c0:	04711463          	bne	sp,t2,908 <fail>

00000000000008c4 <test_41>:
 8c4:	02900193          	li	gp,41
 8c8:	02000093          	li	ra,32
 8cc:	28009133          	bset	sp,ra,zero
 8d0:	02100393          	li	t2,33
 8d4:	02711a63          	bne	sp,t2,908 <fail>

00000000000008d8 <test_42>:
 8d8:	02a00193          	li	gp,42
 8dc:	280010b3          	bset	ra,zero,zero
 8e0:	00100393          	li	t2,1
 8e4:	02709263          	bne	ra,t2,908 <fail>

00000000000008e8 <test_43>:
 8e8:	02b00193          	li	gp,43
 8ec:	40000093          	li	ra,1024
 8f0:	00001137          	lui	sp,0x1
 8f4:	8001011b          	addiw	sp,sp,-2048 # 800 <test_37+0x4>
 8f8:	28209033          	bset	zero,ra,sp
 8fc:	00000393          	li	t2,0
 900:	00701463          	bne	zero,t2,908 <fail>
 904:	02301063          	bne	zero,gp,924 <pass>

0000000000000908 <fail>:
 908:	0ff0000f          	fence
 90c:	00018063          	beqz	gp,90c <fail+0x4>
 910:	00119193          	slli	gp,gp,0x1
 914:	0011e193          	ori	gp,gp,1
 918:	05d00893          	li	a7,93
 91c:	00018513          	mv	a0,gp
 920:	00000073          	ecall

0000000000000924 <pass>:
 924:	0ff0000f          	fence
 928:	00100193          	li	gp,1
 92c:	05d00893          	li	a7,93
 930:	00000513          	li	a0,0
 934:	00000073          	ecall
 938:	c0001073          	unimp
