
rv64uzbc-p-clmulh:     ファイル形式 elf64-littleriscv


セクション .text.init の逆アセンブル:

0000000000000000 <_start>:
   0:	0500006f          	j	50 <reset_vector>

0000000000000004 <trap_vector>:
   4:	34202f73          	csrr	t5,mcause
   8:	00800f93          	li	t6,8
   c:	03ff0863          	beq	t5,t6,3c <write_tohost>
  10:	00900f93          	li	t6,9
  14:	03ff0463          	beq	t5,t6,3c <write_tohost>
  18:	00b00f93          	li	t6,11
  1c:	03ff0063          	beq	t5,t6,3c <write_tohost>
  20:	00000f13          	li	t5,0
  24:	000f0463          	beqz	t5,2c <trap_vector+0x28>
  28:	000f0067          	jr	t5
  2c:	34202f73          	csrr	t5,mcause
  30:	000f5463          	bgez	t5,38 <handle_exception>
  34:	0040006f          	j	38 <handle_exception>

0000000000000038 <handle_exception>:
  38:	5391e193          	ori	gp,gp,1337

000000000000003c <write_tohost>:
  3c:	00001f17          	auipc	t5,0x1
  40:	fc3f2223          	sw	gp,-60(t5) # 1000 <tohost>
  44:	00001f17          	auipc	t5,0x1
  48:	fc0f2023          	sw	zero,-64(t5) # 1004 <tohost+0x4>
  4c:	ff1ff06f          	j	3c <write_tohost>

0000000000000050 <reset_vector>:
  50:	00000093          	li	ra,0
  54:	00000113          	li	sp,0
  58:	00000193          	li	gp,0
  5c:	00000213          	li	tp,0
  60:	00000293          	li	t0,0
  64:	00000313          	li	t1,0
  68:	00000393          	li	t2,0
  6c:	00000413          	li	s0,0
  70:	00000493          	li	s1,0
  74:	00000513          	li	a0,0
  78:	00000593          	li	a1,0
  7c:	00000613          	li	a2,0
  80:	00000693          	li	a3,0
  84:	00000713          	li	a4,0
  88:	00000793          	li	a5,0
  8c:	00000813          	li	a6,0
  90:	00000893          	li	a7,0
  94:	00000913          	li	s2,0
  98:	00000993          	li	s3,0
  9c:	00000a13          	li	s4,0
  a0:	00000a93          	li	s5,0
  a4:	00000b13          	li	s6,0
  a8:	00000b93          	li	s7,0
  ac:	00000c13          	li	s8,0
  b0:	00000c93          	li	s9,0
  b4:	00000d13          	li	s10,0
  b8:	00000d93          	li	s11,0
  bc:	00000e13          	li	t3,0
  c0:	00000e93          	li	t4,0
  c4:	00000f13          	li	t5,0
  c8:	00000f93          	li	t6,0
  cc:	f1402573          	csrr	a0,mhartid
  d0:	00051063          	bnez	a0,d0 <reset_vector+0x80>
  d4:	00000297          	auipc	t0,0x0
  d8:	01028293          	addi	t0,t0,16 # e4 <reset_vector+0x94>
  dc:	30529073          	csrw	mtvec,t0
  e0:	74445073          	csrwi	mnstatus,8
  e4:	00000297          	auipc	t0,0x0
  e8:	01028293          	addi	t0,t0,16 # f4 <reset_vector+0xa4>
  ec:	30529073          	csrw	mtvec,t0
  f0:	18005073          	csrwi	satp,0
  f4:	00000297          	auipc	t0,0x0
  f8:	02428293          	addi	t0,t0,36 # 118 <reset_vector+0xc8>
  fc:	30529073          	csrw	mtvec,t0
 100:	0010029b          	addiw	t0,zero,1
 104:	03529293          	slli	t0,t0,0x35
 108:	fff28293          	addi	t0,t0,-1
 10c:	3b029073          	csrw	pmpaddr0,t0
 110:	01f00293          	li	t0,31
 114:	3a029073          	csrw	pmpcfg0,t0
 118:	30405073          	csrwi	mie,0
 11c:	00000297          	auipc	t0,0x0
 120:	01428293          	addi	t0,t0,20 # 130 <reset_vector+0xe0>
 124:	30529073          	csrw	mtvec,t0
 128:	30205073          	csrwi	medeleg,0
 12c:	30305073          	csrwi	mideleg,0
 130:	00000193          	li	gp,0
 134:	00000297          	auipc	t0,0x0
 138:	ed028293          	addi	t0,t0,-304 # 4 <trap_vector>
 13c:	30529073          	csrw	mtvec,t0
 140:	00100513          	li	a0,1
 144:	01f51513          	slli	a0,a0,0x1f
 148:	00055c63          	bgez	a0,160 <reset_vector+0x110>
 14c:	0ff0000f          	fence
 150:	00100193          	li	gp,1
 154:	05d00893          	li	a7,93
 158:	00000513          	li	a0,0
 15c:	00000073          	ecall
 160:	00000293          	li	t0,0
 164:	00028a63          	beqz	t0,178 <reset_vector+0x128>
 168:	10529073          	csrw	stvec,t0
 16c:	0000b2b7          	lui	t0,0xb
 170:	1092829b          	addiw	t0,t0,265 # b109 <_end+0x9109>
 174:	30229073          	csrw	medeleg,t0
 178:	30005073          	csrwi	mstatus,0
 17c:	00000297          	auipc	t0,0x0
 180:	01428293          	addi	t0,t0,20 # 190 <test_32>
 184:	34129073          	csrw	mepc,t0
 188:	f1402573          	csrr	a0,mhartid
 18c:	30200073          	mret

0000000000000190 <test_32>:
 190:	02000193          	li	gp,32
 194:	000085b7          	lui	a1,0x8
 198:	e005859b          	addiw	a1,a1,-512 # 7e00 <_end+0x5e00>
 19c:	06db7637          	lui	a2,0x6db7
 1a0:	db76061b          	addiw	a2,a2,-585 # 6db6db7 <_end+0x6db4db7>
 1a4:	00c61613          	slli	a2,a2,0xc
 1a8:	db760613          	addi	a2,a2,-585
 1ac:	00c61613          	slli	a2,a2,0xc
 1b0:	db760613          	addi	a2,a2,-585
 1b4:	00c61613          	slli	a2,a2,0xc
 1b8:	db760613          	addi	a2,a2,-585
 1bc:	0ac5b733          	clmulh	a4,a1,a2
 1c0:	000013b7          	lui	t2,0x1
 1c4:	2003839b          	addiw	t2,t2,512 # 1200 <fromhost+0x1c0>
 1c8:	4a771663          	bne	a4,t2,674 <fail>

00000000000001cc <test_33>:
 1cc:	02100193          	li	gp,33
 1d0:	000085b7          	lui	a1,0x8
 1d4:	fc05859b          	addiw	a1,a1,-64 # 7fc0 <_end+0x5fc0>
 1d8:	06db7637          	lui	a2,0x6db7
 1dc:	db76061b          	addiw	a2,a2,-585 # 6db6db7 <_end+0x6db4db7>
 1e0:	00c61613          	slli	a2,a2,0xc
 1e4:	db760613          	addi	a2,a2,-585
 1e8:	00c61613          	slli	a2,a2,0xc
 1ec:	db760613          	addi	a2,a2,-585
 1f0:	00c61613          	slli	a2,a2,0xc
 1f4:	db760613          	addi	a2,a2,-585
 1f8:	0ac5b733          	clmulh	a4,a1,a2
 1fc:	000013b7          	lui	t2,0x1
 200:	2403839b          	addiw	t2,t2,576 # 1240 <fromhost+0x200>
 204:	46771863          	bne	a4,t2,674 <fail>

0000000000000208 <test_2>:
 208:	00200193          	li	gp,2
 20c:	00000593          	li	a1,0
 210:	00000613          	li	a2,0
 214:	0ac5b733          	clmulh	a4,a1,a2
 218:	00000393          	li	t2,0
 21c:	44771c63          	bne	a4,t2,674 <fail>

0000000000000220 <test_3>:
 220:	00300193          	li	gp,3
 224:	00100593          	li	a1,1
 228:	00100613          	li	a2,1
 22c:	0ac5b733          	clmulh	a4,a1,a2
 230:	00000393          	li	t2,0
 234:	44771063          	bne	a4,t2,674 <fail>

0000000000000238 <test_4>:
 238:	00400193          	li	gp,4
 23c:	00300593          	li	a1,3
 240:	00700613          	li	a2,7
 244:	0ac5b733          	clmulh	a4,a1,a2
 248:	00000393          	li	t2,0
 24c:	42771463          	bne	a4,t2,674 <fail>

0000000000000250 <test_5>:
 250:	00500193          	li	gp,5
 254:	00000593          	li	a1,0
 258:	ffff8637          	lui	a2,0xffff8
 25c:	0ac5b733          	clmulh	a4,a1,a2
 260:	00000393          	li	t2,0
 264:	40771863          	bne	a4,t2,674 <fail>

0000000000000268 <test_6>:
 268:	00600193          	li	gp,6
 26c:	800005b7          	lui	a1,0x80000
 270:	00000613          	li	a2,0
 274:	0ac5b733          	clmulh	a4,a1,a2
 278:	00000393          	li	t2,0
 27c:	3e771c63          	bne	a4,t2,674 <fail>

0000000000000280 <test_7>:
 280:	00700193          	li	gp,7
 284:	800005b7          	lui	a1,0x80000
 288:	ffff8637          	lui	a2,0xffff8
 28c:	0ac5b733          	clmulh	a4,a1,a2
 290:	000ab3b7          	lui	t2,0xab
 294:	aab3839b          	addiw	t2,t2,-1365 # aaaab <_end+0xa8aab>
 298:	00c39393          	slli	t2,t2,0xc
 29c:	aab38393          	addi	t2,t2,-1365
 2a0:	01339393          	slli	t2,t2,0x13
 2a4:	ffd38393          	addi	t2,t2,-3
 2a8:	00c39393          	slli	t2,t2,0xc
 2ac:	55538393          	addi	t2,t2,1365
 2b0:	3c771263          	bne	a4,t2,674 <fail>

00000000000002b4 <test_30>:
 2b4:	01e00193          	li	gp,30
 2b8:	faaab5b7          	lui	a1,0xfaaab
 2bc:	aab5859b          	addiw	a1,a1,-1365 # fffffffffaaaaaab <_end+0xfffffffffaaa8aab>
 2c0:	00c59593          	slli	a1,a1,0xc
 2c4:	aab58593          	addi	a1,a1,-1365
 2c8:	00c59593          	slli	a1,a1,0xc
 2cc:	aab58593          	addi	a1,a1,-1365
 2d0:	00c59593          	slli	a1,a1,0xc
 2d4:	aab58593          	addi	a1,a1,-1365
 2d8:	00030637          	lui	a2,0x30
 2dc:	e7d6061b          	addiw	a2,a2,-387 # 2fe7d <_end+0x2de7d>
 2e0:	0ac5b733          	clmulh	a4,a1,a2
 2e4:	000133b7          	lui	t2,0x13
 2e8:	3cd3839b          	addiw	t2,t2,973 # 133cd <_end+0x113cd>
 2ec:	38771463          	bne	a4,t2,674 <fail>

00000000000002f0 <test_31>:
 2f0:	01f00193          	li	gp,31
 2f4:	000305b7          	lui	a1,0x30
 2f8:	e7d5859b          	addiw	a1,a1,-387 # 2fe7d <_end+0x2de7d>
 2fc:	faaab637          	lui	a2,0xfaaab
 300:	aab6061b          	addiw	a2,a2,-1365 # fffffffffaaaaaab <_end+0xfffffffffaaa8aab>
 304:	00c61613          	slli	a2,a2,0xc
 308:	aab60613          	addi	a2,a2,-1365
 30c:	00c61613          	slli	a2,a2,0xc
 310:	aab60613          	addi	a2,a2,-1365
 314:	00c61613          	slli	a2,a2,0xc
 318:	aab60613          	addi	a2,a2,-1365
 31c:	0ac5b733          	clmulh	a4,a1,a2
 320:	000133b7          	lui	t2,0x13
 324:	3cd3839b          	addiw	t2,t2,973 # 133cd <_end+0x113cd>
 328:	34771663          	bne	a4,t2,674 <fail>

000000000000032c <test_8>:
 32c:	00800193          	li	gp,8
 330:	00d00593          	li	a1,13
 334:	00b00613          	li	a2,11
 338:	0ac5b5b3          	clmulh	a1,a1,a2
 33c:	00000393          	li	t2,0
 340:	32759a63          	bne	a1,t2,674 <fail>

0000000000000344 <test_9>:
 344:	00900193          	li	gp,9
 348:	00e00593          	li	a1,14
 34c:	00b00613          	li	a2,11
 350:	0ac5b633          	clmulh	a2,a1,a2
 354:	00000393          	li	t2,0
 358:	30761e63          	bne	a2,t2,674 <fail>

000000000000035c <test_10>:
 35c:	00a00193          	li	gp,10
 360:	00d00593          	li	a1,13
 364:	0ab5b5b3          	clmulh	a1,a1,a1
 368:	00000393          	li	t2,0
 36c:	30759463          	bne	a1,t2,674 <fail>

0000000000000370 <test_11>:
 370:	00b00193          	li	gp,11
 374:	00000213          	li	tp,0
 378:	00d00093          	li	ra,13
 37c:	00b00113          	li	sp,11
 380:	0a20b733          	clmulh	a4,ra,sp
 384:	00070313          	mv	t1,a4
 388:	00120213          	addi	tp,tp,1 # 1 <_start+0x1>
 38c:	00200293          	li	t0,2
 390:	fe5214e3          	bne	tp,t0,378 <test_11+0x8>
 394:	00000393          	li	t2,0
 398:	2c731e63          	bne	t1,t2,674 <fail>

000000000000039c <test_12>:
 39c:	00c00193          	li	gp,12
 3a0:	00000213          	li	tp,0
 3a4:	00e00093          	li	ra,14
 3a8:	00b00113          	li	sp,11
 3ac:	0a20b733          	clmulh	a4,ra,sp
 3b0:	00000013          	nop
 3b4:	00070313          	mv	t1,a4
 3b8:	00120213          	addi	tp,tp,1 # 1 <_start+0x1>
 3bc:	00200293          	li	t0,2
 3c0:	fe5212e3          	bne	tp,t0,3a4 <test_12+0x8>
 3c4:	00000393          	li	t2,0
 3c8:	2a731663          	bne	t1,t2,674 <fail>

00000000000003cc <test_13>:
 3cc:	00d00193          	li	gp,13
 3d0:	00000213          	li	tp,0
 3d4:	00f00093          	li	ra,15
 3d8:	00b00113          	li	sp,11
 3dc:	0a20b733          	clmulh	a4,ra,sp
 3e0:	00000013          	nop
 3e4:	00000013          	nop
 3e8:	00070313          	mv	t1,a4
 3ec:	00120213          	addi	tp,tp,1 # 1 <_start+0x1>
 3f0:	00200293          	li	t0,2
 3f4:	fe5210e3          	bne	tp,t0,3d4 <test_13+0x8>
 3f8:	00000393          	li	t2,0
 3fc:	26731c63          	bne	t1,t2,674 <fail>

0000000000000400 <test_14>:
 400:	00e00193          	li	gp,14
 404:	00000213          	li	tp,0
 408:	00d00093          	li	ra,13
 40c:	00b00113          	li	sp,11
 410:	0a20b733          	clmulh	a4,ra,sp
 414:	00120213          	addi	tp,tp,1 # 1 <_start+0x1>
 418:	00200293          	li	t0,2
 41c:	fe5216e3          	bne	tp,t0,408 <test_14+0x8>
 420:	00000393          	li	t2,0
 424:	24771863          	bne	a4,t2,674 <fail>

0000000000000428 <test_15>:
 428:	00f00193          	li	gp,15
 42c:	00000213          	li	tp,0
 430:	00e00093          	li	ra,14
 434:	00b00113          	li	sp,11
 438:	00000013          	nop
 43c:	0a20b733          	clmulh	a4,ra,sp
 440:	00120213          	addi	tp,tp,1 # 1 <_start+0x1>
 444:	00200293          	li	t0,2
 448:	fe5214e3          	bne	tp,t0,430 <test_15+0x8>
 44c:	00000393          	li	t2,0
 450:	22771263          	bne	a4,t2,674 <fail>

0000000000000454 <test_16>:
 454:	01000193          	li	gp,16
 458:	00000213          	li	tp,0
 45c:	00f00093          	li	ra,15
 460:	00b00113          	li	sp,11
 464:	00000013          	nop
 468:	00000013          	nop
 46c:	0a20b733          	clmulh	a4,ra,sp
 470:	00120213          	addi	tp,tp,1 # 1 <_start+0x1>
 474:	00200293          	li	t0,2
 478:	fe5212e3          	bne	tp,t0,45c <test_16+0x8>
 47c:	00000393          	li	t2,0
 480:	1e771a63          	bne	a4,t2,674 <fail>

0000000000000484 <test_17>:
 484:	01100193          	li	gp,17
 488:	00000213          	li	tp,0
 48c:	00d00093          	li	ra,13
 490:	00000013          	nop
 494:	00b00113          	li	sp,11
 498:	0a20b733          	clmulh	a4,ra,sp
 49c:	00120213          	addi	tp,tp,1 # 1 <_start+0x1>
 4a0:	00200293          	li	t0,2
 4a4:	fe5214e3          	bne	tp,t0,48c <test_17+0x8>
 4a8:	00000393          	li	t2,0
 4ac:	1c771463          	bne	a4,t2,674 <fail>

00000000000004b0 <test_18>:
 4b0:	01200193          	li	gp,18
 4b4:	00000213          	li	tp,0
 4b8:	00e00093          	li	ra,14
 4bc:	00000013          	nop
 4c0:	00b00113          	li	sp,11
 4c4:	00000013          	nop
 4c8:	0a20b733          	clmulh	a4,ra,sp
 4cc:	00120213          	addi	tp,tp,1 # 1 <_start+0x1>
 4d0:	00200293          	li	t0,2
 4d4:	fe5212e3          	bne	tp,t0,4b8 <test_18+0x8>
 4d8:	00000393          	li	t2,0
 4dc:	18771c63          	bne	a4,t2,674 <fail>

00000000000004e0 <test_19>:
 4e0:	01300193          	li	gp,19
 4e4:	00000213          	li	tp,0
 4e8:	00f00093          	li	ra,15
 4ec:	00000013          	nop
 4f0:	00000013          	nop
 4f4:	00b00113          	li	sp,11
 4f8:	0a20b733          	clmulh	a4,ra,sp
 4fc:	00120213          	addi	tp,tp,1 # 1 <_start+0x1>
 500:	00200293          	li	t0,2
 504:	fe5212e3          	bne	tp,t0,4e8 <test_19+0x8>
 508:	00000393          	li	t2,0
 50c:	16771463          	bne	a4,t2,674 <fail>

0000000000000510 <test_20>:
 510:	01400193          	li	gp,20
 514:	00000213          	li	tp,0
 518:	00b00113          	li	sp,11
 51c:	00d00093          	li	ra,13
 520:	0a20b733          	clmulh	a4,ra,sp
 524:	00120213          	addi	tp,tp,1 # 1 <_start+0x1>
 528:	00200293          	li	t0,2
 52c:	fe5216e3          	bne	tp,t0,518 <test_20+0x8>
 530:	00000393          	li	t2,0
 534:	14771063          	bne	a4,t2,674 <fail>

0000000000000538 <test_21>:
 538:	01500193          	li	gp,21
 53c:	00000213          	li	tp,0
 540:	00b00113          	li	sp,11
 544:	00e00093          	li	ra,14
 548:	00000013          	nop
 54c:	0a20b733          	clmulh	a4,ra,sp
 550:	00120213          	addi	tp,tp,1 # 1 <_start+0x1>
 554:	00200293          	li	t0,2
 558:	fe5214e3          	bne	tp,t0,540 <test_21+0x8>
 55c:	00000393          	li	t2,0
 560:	10771a63          	bne	a4,t2,674 <fail>

0000000000000564 <test_22>:
 564:	01600193          	li	gp,22
 568:	00000213          	li	tp,0
 56c:	00b00113          	li	sp,11
 570:	00f00093          	li	ra,15
 574:	00000013          	nop
 578:	00000013          	nop
 57c:	0a20b733          	clmulh	a4,ra,sp
 580:	00120213          	addi	tp,tp,1 # 1 <_start+0x1>
 584:	00200293          	li	t0,2
 588:	fe5212e3          	bne	tp,t0,56c <test_22+0x8>
 58c:	00000393          	li	t2,0
 590:	0e771263          	bne	a4,t2,674 <fail>

0000000000000594 <test_23>:
 594:	01700193          	li	gp,23
 598:	00000213          	li	tp,0
 59c:	00b00113          	li	sp,11
 5a0:	00000013          	nop
 5a4:	00d00093          	li	ra,13
 5a8:	0a20b733          	clmulh	a4,ra,sp
 5ac:	00120213          	addi	tp,tp,1 # 1 <_start+0x1>
 5b0:	00200293          	li	t0,2
 5b4:	fe5214e3          	bne	tp,t0,59c <test_23+0x8>
 5b8:	00000393          	li	t2,0
 5bc:	0a771c63          	bne	a4,t2,674 <fail>

00000000000005c0 <test_24>:
 5c0:	01800193          	li	gp,24
 5c4:	00000213          	li	tp,0
 5c8:	00b00113          	li	sp,11
 5cc:	00000013          	nop
 5d0:	00e00093          	li	ra,14
 5d4:	00000013          	nop
 5d8:	0a20b733          	clmulh	a4,ra,sp
 5dc:	00120213          	addi	tp,tp,1 # 1 <_start+0x1>
 5e0:	00200293          	li	t0,2
 5e4:	fe5212e3          	bne	tp,t0,5c8 <test_24+0x8>
 5e8:	00000393          	li	t2,0
 5ec:	08771463          	bne	a4,t2,674 <fail>

00000000000005f0 <test_25>:
 5f0:	01900193          	li	gp,25
 5f4:	00000213          	li	tp,0
 5f8:	00b00113          	li	sp,11
 5fc:	00000013          	nop
 600:	00000013          	nop
 604:	00f00093          	li	ra,15
 608:	0a20b733          	clmulh	a4,ra,sp
 60c:	00120213          	addi	tp,tp,1 # 1 <_start+0x1>
 610:	00200293          	li	t0,2
 614:	fe5212e3          	bne	tp,t0,5f8 <test_25+0x8>
 618:	00000393          	li	t2,0
 61c:	04771c63          	bne	a4,t2,674 <fail>

0000000000000620 <test_26>:
 620:	01a00193          	li	gp,26
 624:	01f00093          	li	ra,31
 628:	0a103133          	clmulh	sp,zero,ra
 62c:	00000393          	li	t2,0
 630:	04711263          	bne	sp,t2,674 <fail>

0000000000000634 <test_27>:
 634:	01b00193          	li	gp,27
 638:	02000093          	li	ra,32
 63c:	0a00b133          	clmulh	sp,ra,zero
 640:	00000393          	li	t2,0
 644:	02711863          	bne	sp,t2,674 <fail>

0000000000000648 <test_28>:
 648:	01c00193          	li	gp,28
 64c:	0a0030b3          	clmulh	ra,zero,zero
 650:	00000393          	li	t2,0
 654:	02709063          	bne	ra,t2,674 <fail>

0000000000000658 <test_29>:
 658:	01d00193          	li	gp,29
 65c:	02100093          	li	ra,33
 660:	02200113          	li	sp,34
 664:	0a20b033          	clmulh	zero,ra,sp
 668:	00000393          	li	t2,0
 66c:	00701463          	bne	zero,t2,674 <fail>
 670:	02301063          	bne	zero,gp,690 <pass>

0000000000000674 <fail>:
 674:	0ff0000f          	fence
 678:	00018063          	beqz	gp,678 <fail+0x4>
 67c:	00119193          	slli	gp,gp,0x1
 680:	0011e193          	ori	gp,gp,1
 684:	05d00893          	li	a7,93
 688:	00018513          	mv	a0,gp
 68c:	00000073          	ecall

0000000000000690 <pass>:
 690:	0ff0000f          	fence
 694:	00100193          	li	gp,1
 698:	05d00893          	li	a7,93
 69c:	00000513          	li	a0,0
 6a0:	00000073          	ecall
 6a4:	c0001073          	unimp
 6a8:	00000013          	nop
 6ac:	00000013          	nop
 6b0:	00000013          	nop
 6b4:	00000013          	nop
 6b8:	00000013          	nop
