
rv64uzbkb-v-packh:     ファイル形式 elf64-littleriscv


セクション .text.init の逆アセンブル:

0000000080000000 <_start>:
    80000000:	00c0006f          	j	8000000c <handle_reset>

0000000080000004 <nmi_vector>:
    80000004:	2b00206f          	j	800022b4 <wtf>

0000000080000008 <trap_vector>:
    80000008:	2ac0206f          	j	800022b4 <wtf>

000000008000000c <handle_reset>:
    8000000c:	00000093          	li	ra,0
    80000010:	00000113          	li	sp,0
    80000014:	00000193          	li	gp,0
    80000018:	00000213          	li	tp,0
    8000001c:	00000293          	li	t0,0
    80000020:	00000313          	li	t1,0
    80000024:	00000393          	li	t2,0
    80000028:	00000413          	li	s0,0
    8000002c:	00000493          	li	s1,0
    80000030:	00000513          	li	a0,0
    80000034:	00000593          	li	a1,0
    80000038:	00000613          	li	a2,0
    8000003c:	00000693          	li	a3,0
    80000040:	00000713          	li	a4,0
    80000044:	00000793          	li	a5,0
    80000048:	00000813          	li	a6,0
    8000004c:	00000893          	li	a7,0
    80000050:	00000913          	li	s2,0
    80000054:	00000993          	li	s3,0
    80000058:	00000a13          	li	s4,0
    8000005c:	00000a93          	li	s5,0
    80000060:	00000b13          	li	s6,0
    80000064:	00000b93          	li	s7,0
    80000068:	00000c13          	li	s8,0
    8000006c:	00000c93          	li	s9,0
    80000070:	00000d13          	li	s10,0
    80000074:	00000d93          	li	s11,0
    80000078:	00000e13          	li	t3,0
    8000007c:	00000e93          	li	t4,0
    80000080:	00000f13          	li	t5,0
    80000084:	00000f93          	li	t6,0
    80000088:	00000297          	auipc	t0,0x0
    8000008c:	01028293          	addi	t0,t0,16 # 80000098 <handle_reset+0x8c>
    80000090:	30529073          	csrw	mtvec,t0
    80000094:	74445073          	csrwi	mnstatus,8
    80000098:	00000297          	auipc	t0,0x0
    8000009c:	f7028293          	addi	t0,t0,-144 # 80000008 <trap_vector>
    800000a0:	30529073          	csrw	mtvec,t0
    800000a4:	0000d117          	auipc	sp,0xd
    800000a8:	e3c10113          	addi	sp,sp,-452 # 8000cee0 <freelist_head+0x3ed8>
    800000ac:	f14022f3          	csrr	t0,mhartid
    800000b0:	00c29293          	slli	t0,t0,0xc
    800000b4:	00510133          	add	sp,sp,t0
    800000b8:	34011073          	csrw	mscratch,sp
    800000bc:	129020ef          	jal	800029e4 <extra_boot>
    800000c0:	00003517          	auipc	a0,0x3
    800000c4:	93850513          	addi	a0,a0,-1736 # 800029f8 <userstart>
    800000c8:	7140206f          	j	800027dc <vm_boot>

00000000800000cc <pop_tf>:
    800000cc:	10853283          	ld	t0,264(a0)
    800000d0:	14129073          	csrw	sepc,t0
    800000d4:	00853083          	ld	ra,8(a0)
    800000d8:	01053103          	ld	sp,16(a0)
    800000dc:	01853183          	ld	gp,24(a0)
    800000e0:	02053203          	ld	tp,32(a0)
    800000e4:	02853283          	ld	t0,40(a0)
    800000e8:	03053303          	ld	t1,48(a0)
    800000ec:	03853383          	ld	t2,56(a0)
    800000f0:	04053403          	ld	s0,64(a0)
    800000f4:	04853483          	ld	s1,72(a0)
    800000f8:	05853583          	ld	a1,88(a0)
    800000fc:	06053603          	ld	a2,96(a0)
    80000100:	06853683          	ld	a3,104(a0)
    80000104:	07053703          	ld	a4,112(a0)
    80000108:	07853783          	ld	a5,120(a0)
    8000010c:	08053803          	ld	a6,128(a0)
    80000110:	08853883          	ld	a7,136(a0)
    80000114:	09053903          	ld	s2,144(a0)
    80000118:	09853983          	ld	s3,152(a0)
    8000011c:	0a053a03          	ld	s4,160(a0)
    80000120:	0a853a83          	ld	s5,168(a0)
    80000124:	0b053b03          	ld	s6,176(a0)
    80000128:	0b853b83          	ld	s7,184(a0)
    8000012c:	0c053c03          	ld	s8,192(a0)
    80000130:	0c853c83          	ld	s9,200(a0)
    80000134:	0d053d03          	ld	s10,208(a0)
    80000138:	0d853d83          	ld	s11,216(a0)
    8000013c:	0e053e03          	ld	t3,224(a0)
    80000140:	0e853e83          	ld	t4,232(a0)
    80000144:	0f053f03          	ld	t5,240(a0)
    80000148:	0f853f83          	ld	t6,248(a0)
    8000014c:	05053503          	ld	a0,80(a0)
    80000150:	10200073          	sret

0000000080000154 <trap_entry>:
    80000154:	14011173          	csrrw	sp,sscratch,sp
    80000158:	00113423          	sd	ra,8(sp)
    8000015c:	00313c23          	sd	gp,24(sp)
    80000160:	02413023          	sd	tp,32(sp)
    80000164:	02513423          	sd	t0,40(sp)
    80000168:	02613823          	sd	t1,48(sp)
    8000016c:	02713c23          	sd	t2,56(sp)
    80000170:	04813023          	sd	s0,64(sp)
    80000174:	04913423          	sd	s1,72(sp)
    80000178:	04a13823          	sd	a0,80(sp)
    8000017c:	04b13c23          	sd	a1,88(sp)
    80000180:	06c13023          	sd	a2,96(sp)
    80000184:	06d13423          	sd	a3,104(sp)
    80000188:	06e13823          	sd	a4,112(sp)
    8000018c:	06f13c23          	sd	a5,120(sp)
    80000190:	09013023          	sd	a6,128(sp)
    80000194:	09113423          	sd	a7,136(sp)
    80000198:	09213823          	sd	s2,144(sp)
    8000019c:	09313c23          	sd	s3,152(sp)
    800001a0:	0b413023          	sd	s4,160(sp)
    800001a4:	0b513423          	sd	s5,168(sp)
    800001a8:	0b613823          	sd	s6,176(sp)
    800001ac:	0b713c23          	sd	s7,184(sp)
    800001b0:	0d813023          	sd	s8,192(sp)
    800001b4:	0d913423          	sd	s9,200(sp)
    800001b8:	0da13823          	sd	s10,208(sp)
    800001bc:	0db13c23          	sd	s11,216(sp)
    800001c0:	0fc13023          	sd	t3,224(sp)
    800001c4:	0fd13423          	sd	t4,232(sp)
    800001c8:	0fe13823          	sd	t5,240(sp)
    800001cc:	0ff13c23          	sd	t6,248(sp)
    800001d0:	140112f3          	csrrw	t0,sscratch,sp
    800001d4:	00513823          	sd	t0,16(sp)
    800001d8:	100022f3          	csrr	t0,sstatus
    800001dc:	10513023          	sd	t0,256(sp)
    800001e0:	141022f3          	csrr	t0,sepc
    800001e4:	10513423          	sd	t0,264(sp)
    800001e8:	143022f3          	csrr	t0,stval
    800001ec:	10513823          	sd	t0,272(sp)
    800001f0:	142022f3          	csrr	t0,scause
    800001f4:	10513c23          	sd	t0,280(sp)
    800001f8:	00010513          	mv	a0,sp
    800001fc:	3700206f          	j	8000256c <handle_trap>

セクション .text の逆アセンブル:

0000000080002000 <memcpy>:
    80002000:	00c5e7b3          	or	a5,a1,a2
    80002004:	00f567b3          	or	a5,a0,a5
    80002008:	0077f793          	andi	a5,a5,7
    8000200c:	00c506b3          	add	a3,a0,a2
    80002010:	02078463          	beqz	a5,80002038 <memcpy+0x38>
    80002014:	00c58633          	add	a2,a1,a2
    80002018:	00050793          	mv	a5,a0
    8000201c:	02d57e63          	bgeu	a0,a3,80002058 <memcpy+0x58>
    80002020:	0005c703          	lbu	a4,0(a1)
    80002024:	00158593          	addi	a1,a1,1
    80002028:	00178793          	addi	a5,a5,1
    8000202c:	fee78fa3          	sb	a4,-1(a5)
    80002030:	feb618e3          	bne	a2,a1,80002020 <memcpy+0x20>
    80002034:	00008067          	ret
    80002038:	fed57ee3          	bgeu	a0,a3,80002034 <memcpy+0x34>
    8000203c:	00050793          	mv	a5,a0
    80002040:	0005b703          	ld	a4,0(a1)
    80002044:	00878793          	addi	a5,a5,8
    80002048:	00858593          	addi	a1,a1,8
    8000204c:	fee7bc23          	sd	a4,-8(a5)
    80002050:	fed7e8e3          	bltu	a5,a3,80002040 <memcpy+0x40>
    80002054:	00008067          	ret
    80002058:	00008067          	ret

000000008000205c <memset>:
    8000205c:	00c567b3          	or	a5,a0,a2
    80002060:	0077f793          	andi	a5,a5,7
    80002064:	00050693          	mv	a3,a0
    80002068:	00c50733          	add	a4,a0,a2
    8000206c:	00078863          	beqz	a5,8000207c <memset+0x20>
    80002070:	02e57a63          	bgeu	a0,a4,800020a4 <memset+0x48>
    80002074:	0ff5f593          	zext.b	a1,a1
    80002078:	fe5ff06f          	j	8000205c <memset>
    8000207c:	02e57463          	bgeu	a0,a4,800020a4 <memset+0x48>
    80002080:	010107b7          	lui	a5,0x1010
    80002084:	10178793          	addi	a5,a5,257 # 1010101 <_start-0x7efefeff>
    80002088:	08f7c7b3          	pack	a5,a5,a5
    8000208c:	0ff5f593          	zext.b	a1,a1
    80002090:	02f585b3          	mul	a1,a1,a5
    80002094:	00050793          	mv	a5,a0
    80002098:	00878793          	addi	a5,a5,8
    8000209c:	feb7bc23          	sd	a1,-8(a5)
    800020a0:	fee7ece3          	bltu	a5,a4,80002098 <memset+0x3c>
    800020a4:	00068513          	mv	a0,a3
    800020a8:	00008067          	ret

00000000800020ac <strlen>:
    800020ac:	00054783          	lbu	a5,0(a0)
    800020b0:	00078e63          	beqz	a5,800020cc <strlen+0x20>
    800020b4:	00050793          	mv	a5,a0
    800020b8:	0017c703          	lbu	a4,1(a5)
    800020bc:	00178793          	addi	a5,a5,1
    800020c0:	fe071ce3          	bnez	a4,800020b8 <strlen+0xc>
    800020c4:	40a78533          	sub	a0,a5,a0
    800020c8:	00008067          	ret
    800020cc:	00000513          	li	a0,0
    800020d0:	00008067          	ret

00000000800020d4 <strcmp>:
    800020d4:	00054683          	lbu	a3,0(a0)
    800020d8:	0005c603          	lbu	a2,0(a1)
    800020dc:	00150513          	addi	a0,a0,1
    800020e0:	00d037b3          	snez	a5,a3
    800020e4:	40c68733          	sub	a4,a3,a2
    800020e8:	00173713          	seqz	a4,a4
    800020ec:	00e7f7b3          	and	a5,a5,a4
    800020f0:	00158593          	addi	a1,a1,1
    800020f4:	fe0790e3          	bnez	a5,800020d4 <strcmp>
    800020f8:	40c6853b          	subw	a0,a3,a2
    800020fc:	00008067          	ret

0000000080002100 <memcmp>:
    80002100:	00b567b3          	or	a5,a0,a1
    80002104:	0077f793          	andi	a5,a5,7
    80002108:	02079e63          	bnez	a5,80002144 <memcmp+0x44>
    8000210c:	ff867813          	andi	a6,a2,-8
    80002110:	01050833          	add	a6,a0,a6
    80002114:	03057863          	bgeu	a0,a6,80002144 <memcmp+0x44>
    80002118:	00050793          	mv	a5,a0
    8000211c:	0100006f          	j	8000212c <memcmp+0x2c>
    80002120:	00878793          	addi	a5,a5,8
    80002124:	00858593          	addi	a1,a1,8
    80002128:	0107f863          	bgeu	a5,a6,80002138 <memcmp+0x38>
    8000212c:	0007b683          	ld	a3,0(a5)
    80002130:	0005b703          	ld	a4,0(a1)
    80002134:	fee686e3          	beq	a3,a4,80002120 <memcmp+0x20>
    80002138:	40a78533          	sub	a0,a5,a0
    8000213c:	40a60633          	sub	a2,a2,a0
    80002140:	00078513          	mv	a0,a5
    80002144:	00c58633          	add	a2,a1,a2
    80002148:	0140006f          	j	8000215c <memcmp+0x5c>
    8000214c:	fff54783          	lbu	a5,-1(a0)
    80002150:	0005c703          	lbu	a4,0(a1)
    80002154:	00158593          	addi	a1,a1,1
    80002158:	00e79a63          	bne	a5,a4,8000216c <memcmp+0x6c>
    8000215c:	00150513          	addi	a0,a0,1
    80002160:	feb616e3          	bne	a2,a1,8000214c <memcmp+0x4c>
    80002164:	00000513          	li	a0,0
    80002168:	00008067          	ret
    8000216c:	40e7853b          	subw	a0,a5,a4
    80002170:	00008067          	ret

0000000080002174 <strcpy>:
    80002174:	00050793          	mv	a5,a0
    80002178:	0005c703          	lbu	a4,0(a1)
    8000217c:	00158593          	addi	a1,a1,1
    80002180:	00178793          	addi	a5,a5,1
    80002184:	fee78fa3          	sb	a4,-1(a5)
    80002188:	fe0718e3          	bnez	a4,80002178 <strcpy+0x4>
    8000218c:	00008067          	ret

0000000080002190 <atol>:
    80002190:	00054703          	lbu	a4,0(a0)
    80002194:	02000693          	li	a3,32
    80002198:	00050793          	mv	a5,a0
    8000219c:	00d71863          	bne	a4,a3,800021ac <atol+0x1c>
    800021a0:	0017c703          	lbu	a4,1(a5)
    800021a4:	00178793          	addi	a5,a5,1
    800021a8:	fed70ce3          	beq	a4,a3,800021a0 <atol+0x10>
    800021ac:	fd57069b          	addiw	a3,a4,-43
    800021b0:	0fd6f693          	andi	a3,a3,253
    800021b4:	04069463          	bnez	a3,800021fc <atol+0x6c>
    800021b8:	0017c683          	lbu	a3,1(a5)
    800021bc:	fd370713          	addi	a4,a4,-45
    800021c0:	00173613          	seqz	a2,a4
    800021c4:	04068663          	beqz	a3,80002210 <atol+0x80>
    800021c8:	00178793          	addi	a5,a5,1
    800021cc:	00000513          	li	a0,0
    800021d0:	00178793          	addi	a5,a5,1
    800021d4:	fd06859b          	addiw	a1,a3,-48
    800021d8:	00251713          	slli	a4,a0,0x2
    800021dc:	0007c683          	lbu	a3,0(a5)
    800021e0:	00a70733          	add	a4,a4,a0
    800021e4:	00171713          	slli	a4,a4,0x1
    800021e8:	00e58533          	add	a0,a1,a4
    800021ec:	fe0692e3          	bnez	a3,800021d0 <atol+0x40>
    800021f0:	00060463          	beqz	a2,800021f8 <atol+0x68>
    800021f4:	40a00533          	neg	a0,a0
    800021f8:	00008067          	ret
    800021fc:	0007c683          	lbu	a3,0(a5)
    80002200:	00000613          	li	a2,0
    80002204:	fc0694e3          	bnez	a3,800021cc <atol+0x3c>
    80002208:	00000513          	li	a0,0
    8000220c:	00008067          	ret
    80002210:	00000513          	li	a0,0
    80002214:	fddff06f          	j	800021f0 <atol+0x60>

0000000080002218 <cputstring>:
    80002218:	00054783          	lbu	a5,0(a0)
    8000221c:	04078063          	beqz	a5,8000225c <cputstring+0x44>
    80002220:	10100593          	li	a1,257
    80002224:	03059593          	slli	a1,a1,0x30
    80002228:	fffff717          	auipc	a4,0xfffff
    8000222c:	dd870713          	addi	a4,a4,-552 # 80001000 <tohost>
    80002230:	00073603          	ld	a2,0(a4)
    80002234:	00150513          	addi	a0,a0,1
    80002238:	00b7e6b3          	or	a3,a5,a1
    8000223c:	00060a63          	beqz	a2,80002250 <cputstring+0x38>
    80002240:	fffff797          	auipc	a5,0xfffff
    80002244:	e007b023          	sd	zero,-512(a5) # 80001040 <fromhost>
    80002248:	00073783          	ld	a5,0(a4)
    8000224c:	fe079ae3          	bnez	a5,80002240 <cputstring+0x28>
    80002250:	00d73023          	sd	a3,0(a4)
    80002254:	00054783          	lbu	a5,0(a0)
    80002258:	fc079ce3          	bnez	a5,80002230 <cputstring+0x18>
    8000225c:	00008067          	ret

0000000080002260 <terminate>:
    80002260:	fffff717          	auipc	a4,0xfffff
    80002264:	da070713          	addi	a4,a4,-608 # 80001000 <tohost>
    80002268:	00073783          	ld	a5,0(a4)
    8000226c:	00078a63          	beqz	a5,80002280 <terminate+0x20>
    80002270:	fffff797          	auipc	a5,0xfffff
    80002274:	dc07b823          	sd	zero,-560(a5) # 80001040 <fromhost>
    80002278:	00073783          	ld	a5,0(a4)
    8000227c:	fe079ae3          	bnez	a5,80002270 <terminate+0x10>
    80002280:	00a73023          	sd	a0,0(a4)
    80002284:	0000006f          	j	80002284 <terminate+0x24>

0000000080002288 <terminate.constprop.0>:
    80002288:	fffff717          	auipc	a4,0xfffff
    8000228c:	d7870713          	addi	a4,a4,-648 # 80001000 <tohost>
    80002290:	00073783          	ld	a5,0(a4)
    80002294:	00078a63          	beqz	a5,800022a8 <terminate.constprop.0+0x20>
    80002298:	fffff797          	auipc	a5,0xfffff
    8000229c:	da07b423          	sd	zero,-600(a5) # 80001040 <fromhost>
    800022a0:	00073783          	ld	a5,0(a4)
    800022a4:	fe079ae3          	bnez	a5,80002298 <terminate.constprop.0+0x10>
    800022a8:	00300793          	li	a5,3
    800022ac:	00f73023          	sd	a5,0(a4)
    800022b0:	0000006f          	j	800022b0 <terminate.constprop.0+0x28>

00000000800022b4 <wtf>:
    800022b4:	ff010113          	addi	sp,sp,-16
    800022b8:	34900513          	li	a0,841
    800022bc:	00113423          	sd	ra,8(sp)
    800022c0:	fa1ff0ef          	jal	80002260 <terminate>

00000000800022c4 <printhex>:
    800022c4:	fe010113          	addi	sp,sp,-32
    800022c8:	00810613          	addi	a2,sp,8
    800022cc:	01710713          	addi	a4,sp,23
    800022d0:	00900593          	li	a1,9
    800022d4:	0080006f          	j	800022dc <printhex+0x18>
    800022d8:	fff70713          	addi	a4,a4,-1
    800022dc:	00f57693          	andi	a3,a0,15
    800022e0:	00d5b7b3          	sltu	a5,a1,a3
    800022e4:	40f007b3          	neg	a5,a5
    800022e8:	0277f793          	andi	a5,a5,39
    800022ec:	03078793          	addi	a5,a5,48
    800022f0:	00d787b3          	add	a5,a5,a3
    800022f4:	00f70023          	sb	a5,0(a4)
    800022f8:	00455513          	srli	a0,a0,0x4
    800022fc:	fce61ee3          	bne	a2,a4,800022d8 <printhex+0x14>
    80002300:	00814783          	lbu	a5,8(sp)
    80002304:	00010c23          	sb	zero,24(sp)
    80002308:	04078263          	beqz	a5,8000234c <printhex+0x88>
    8000230c:	10100513          	li	a0,257
    80002310:	00060693          	mv	a3,a2
    80002314:	03051513          	slli	a0,a0,0x30
    80002318:	fffff717          	auipc	a4,0xfffff
    8000231c:	ce870713          	addi	a4,a4,-792 # 80001000 <tohost>
    80002320:	00073583          	ld	a1,0(a4)
    80002324:	00168693          	addi	a3,a3,1
    80002328:	00a7e633          	or	a2,a5,a0
    8000232c:	00058a63          	beqz	a1,80002340 <printhex+0x7c>
    80002330:	fffff797          	auipc	a5,0xfffff
    80002334:	d007b823          	sd	zero,-752(a5) # 80001040 <fromhost>
    80002338:	00073783          	ld	a5,0(a4)
    8000233c:	fe079ae3          	bnez	a5,80002330 <printhex+0x6c>
    80002340:	0006c783          	lbu	a5,0(a3)
    80002344:	00c73023          	sd	a2,0(a4)
    80002348:	fc079ce3          	bnez	a5,80002320 <printhex+0x5c>
    8000234c:	02010113          	addi	sp,sp,32
    80002350:	00008067          	ret

0000000080002354 <handle_fault>:
    80002354:	fc010113          	addi	sp,sp,-64
    80002358:	00100793          	li	a5,1
    8000235c:	fffff737          	lui	a4,0xfffff
    80002360:	02f12223          	sw	a5,36(sp)
    80002364:	02113c23          	sd	ra,56(sp)
    80002368:	02013423          	sd	zero,40(sp)
    8000236c:	00e506b3          	add	a3,a0,a4
    80002370:	0003e7b7          	lui	a5,0x3e
    80002374:	1af6f863          	bgeu	a3,a5,80002524 <handle_fault+0x1d0>
    80002378:	00e577b3          	and	a5,a0,a4
    8000237c:	00c7d893          	srli	a7,a5,0xc
    80002380:	60088713          	addi	a4,a7,1536
    80002384:	00371693          	slli	a3,a4,0x3
    80002388:	00003817          	auipc	a6,0x3
    8000238c:	c7880813          	addi	a6,a6,-904 # 80005000 <pt>
    80002390:	00d806b3          	add	a3,a6,a3
    80002394:	0006b683          	ld	a3,0(a3)
    80002398:	12069263          	bnez	a3,800024bc <handle_fault+0x168>
    8000239c:	00007697          	auipc	a3,0x7
    800023a0:	c6c6b683          	ld	a3,-916(a3) # 80009008 <freelist_head>
    800023a4:	02813823          	sd	s0,48(sp)
    800023a8:	1a068263          	beqz	a3,8000254c <handle_fault+0x1f8>
    800023ac:	0086b603          	ld	a2,8(a3)
    800023b0:	00007597          	auipc	a1,0x7
    800023b4:	c505b583          	ld	a1,-944(a1) # 80009000 <freelist_tail>
    800023b8:	00007517          	auipc	a0,0x7
    800023bc:	c4c53823          	sd	a2,-944(a0) # 80009008 <freelist_head>
    800023c0:	14b60c63          	beq	a2,a1,80002518 <handle_fault+0x1c4>
    800023c4:	00078513          	mv	a0,a5
    800023c8:	02410613          	addi	a2,sp,36
    800023cc:	02810593          	addi	a1,sp,40
    800023d0:	0006b403          	ld	s0,0(a3)
    800023d4:	00e13c23          	sd	a4,24(sp)
    800023d8:	01113823          	sd	a7,16(sp)
    800023dc:	00f13423          	sd	a5,8(sp)
    800023e0:	00d13023          	sd	a3,0(sp)
    800023e4:	60c000ef          	jal	800029f0 <pf_filter>
    800023e8:	00013683          	ld	a3,0(sp)
    800023ec:	00813783          	ld	a5,8(sp)
    800023f0:	01013883          	ld	a7,16(sp)
    800023f4:	01813703          	ld	a4,24(sp)
    800023f8:	00003817          	auipc	a6,0x3
    800023fc:	c0880813          	addi	a6,a6,-1016 # 80005000 <pt>
    80002400:	0e051c63          	bnez	a0,800024f8 <handle_fault+0x1a4>
    80002404:	00c45613          	srli	a2,s0,0xc
    80002408:	00a61613          	slli	a2,a2,0xa
    8000240c:	01f66613          	ori	a2,a2,31
    80002410:	00371593          	slli	a1,a4,0x3
    80002414:	00b805b3          	add	a1,a6,a1
    80002418:	0c066513          	ori	a0,a2,192
    8000241c:	00a5b023          	sd	a0,0(a1)
    80002420:	12078073          	sfence.vma	a5
    80002424:	00002597          	auipc	a1,0x2
    80002428:	bdc58593          	addi	a1,a1,-1060 # 80004000 <user_mapping>
    8000242c:	00489893          	slli	a7,a7,0x4
    80002430:	011585b3          	add	a1,a1,a7
    80002434:	0005b503          	ld	a0,0(a1)
    80002438:	12051263          	bnez	a0,8000255c <handle_fault+0x208>
    8000243c:	0006b883          	ld	a7,0(a3)
    80002440:	00040537          	lui	a0,0x40
    80002444:	0115b023          	sd	a7,0(a1)
    80002448:	0086b683          	ld	a3,8(a3)
    8000244c:	00d5b423          	sd	a3,8(a1)
    80002450:	10052573          	csrrs	a0,sstatus,a0
    80002454:	ffe006b7          	lui	a3,0xffe00
    80002458:	00d786b3          	add	a3,a5,a3
    8000245c:	000018b7          	lui	a7,0x1
    80002460:	011688b3          	add	a7,a3,a7
    80002464:	00078593          	mv	a1,a5
    80002468:	0106b303          	ld	t1,16(a3) # ffffffffffe00010 <freelist_head+0xffffffff7fdf7008>
    8000246c:	0006be83          	ld	t4,0(a3)
    80002470:	0086be03          	ld	t3,8(a3)
    80002474:	0065b823          	sd	t1,16(a1)
    80002478:	01d5b023          	sd	t4,0(a1)
    8000247c:	01c5b423          	sd	t3,8(a1)
    80002480:	0186b303          	ld	t1,24(a3)
    80002484:	02068693          	addi	a3,a3,32
    80002488:	02058593          	addi	a1,a1,32
    8000248c:	fe65bc23          	sd	t1,-8(a1)
    80002490:	fd169ce3          	bne	a3,a7,80002468 <handle_fault+0x114>
    80002494:	10051073          	csrw	sstatus,a0
    80002498:	00371713          	slli	a4,a4,0x3
    8000249c:	00e80733          	add	a4,a6,a4
    800024a0:	00c73023          	sd	a2,0(a4) # fffffffffffff000 <freelist_head+0xffffffff7fff5ff8>
    800024a4:	12078073          	sfence.vma	a5
    800024a8:	0000100f          	fence.i
    800024ac:	03013403          	ld	s0,48(sp)
    800024b0:	03813083          	ld	ra,56(sp)
    800024b4:	04010113          	addi	sp,sp,64
    800024b8:	00008067          	ret
    800024bc:	0406f613          	andi	a2,a3,64
    800024c0:	04060863          	beqz	a2,80002510 <handle_fault+0x1bc>
    800024c4:	ff158593          	addi	a1,a1,-15
    800024c8:	0076d613          	srli	a2,a3,0x7
    800024cc:	0015b593          	seqz	a1,a1
    800024d0:	40c5f633          	andn	a2,a1,a2
    800024d4:	0806e693          	ori	a3,a3,128
    800024d8:	06060063          	beqz	a2,80002538 <handle_fault+0x1e4>
    800024dc:	00371713          	slli	a4,a4,0x3
    800024e0:	00e80733          	add	a4,a6,a4
    800024e4:	00d73023          	sd	a3,0(a4)
    800024e8:	12078073          	sfence.vma	a5
    800024ec:	03813083          	ld	ra,56(sp)
    800024f0:	04010113          	addi	sp,sp,64
    800024f4:	00008067          	ret
    800024f8:	0006b603          	ld	a2,0(a3)
    800024fc:	02813583          	ld	a1,40(sp)
    80002500:	00c65613          	srli	a2,a2,0xc
    80002504:	00a61613          	slli	a2,a2,0xa
    80002508:	00b66633          	or	a2,a2,a1
    8000250c:	f05ff06f          	j	80002410 <handle_fault+0xbc>
    80002510:	0406e693          	ori	a3,a3,64
    80002514:	fc9ff06f          	j	800024dc <handle_fault+0x188>
    80002518:	00007617          	auipc	a2,0x7
    8000251c:	ae063423          	sd	zero,-1304(a2) # 80009000 <freelist_tail>
    80002520:	ea5ff06f          	j	800023c4 <handle_fault+0x70>
    80002524:	00001517          	auipc	a0,0x1
    80002528:	a1450513          	addi	a0,a0,-1516 # 80002f38 <pass+0xc>
    8000252c:	02813823          	sd	s0,48(sp)
    80002530:	ce9ff0ef          	jal	80002218 <cputstring>
    80002534:	d55ff0ef          	jal	80002288 <terminate.constprop.0>
    80002538:	00001517          	auipc	a0,0x1
    8000253c:	a5050513          	addi	a0,a0,-1456 # 80002f88 <pass+0x5c>
    80002540:	02813823          	sd	s0,48(sp)
    80002544:	cd5ff0ef          	jal	80002218 <cputstring>
    80002548:	d41ff0ef          	jal	80002288 <terminate.constprop.0>
    8000254c:	00001517          	auipc	a0,0x1
    80002550:	a8450513          	addi	a0,a0,-1404 # 80002fd0 <pass+0xa4>
    80002554:	cc5ff0ef          	jal	80002218 <cputstring>
    80002558:	d31ff0ef          	jal	80002288 <terminate.constprop.0>
    8000255c:	00001517          	auipc	a0,0x1
    80002560:	a8c50513          	addi	a0,a0,-1396 # 80002fe8 <pass+0xbc>
    80002564:	cb5ff0ef          	jal	80002218 <cputstring>
    80002568:	d21ff0ef          	jal	80002288 <terminate.constprop.0>

000000008000256c <handle_trap>:
    8000256c:	fb010113          	addi	sp,sp,-80
    80002570:	04813023          	sd	s0,64(sp)
    80002574:	04113423          	sd	ra,72(sp)
    80002578:	00050413          	mv	s0,a0
    8000257c:	46c000ef          	jal	800029e8 <trap_filter>
    80002580:	0c051263          	bnez	a0,80002644 <handle_trap+0xd8>
    80002584:	11843583          	ld	a1,280(s0)
    80002588:	00800793          	li	a5,8
    8000258c:	0ef58063          	beq	a1,a5,8000266c <handle_trap+0x100>
    80002590:	00200793          	li	a5,2
    80002594:	02f58c63          	beq	a1,a5,800025cc <handle_trap+0x60>
    80002598:	ff458793          	addi	a5,a1,-12
    8000259c:	ff158713          	addi	a4,a1,-15
    800025a0:	0027b793          	sltiu	a5,a5,2
    800025a4:	00173713          	seqz	a4,a4
    800025a8:	00e7e7b3          	or	a5,a5,a4
    800025ac:	20078663          	beqz	a5,800027b8 <handle_trap+0x24c>
    800025b0:	11043503          	ld	a0,272(s0)
    800025b4:	da1ff0ef          	jal	80002354 <handle_fault>
    800025b8:	00040513          	mv	a0,s0
    800025bc:	04013403          	ld	s0,64(sp)
    800025c0:	04813083          	ld	ra,72(sp)
    800025c4:	05010113          	addi	sp,sp,80
    800025c8:	b05fd06f          	j	800000cc <pop_tf>
    800025cc:	10843783          	ld	a5,264(s0)
    800025d0:	0037f713          	andi	a4,a5,3
    800025d4:	08071263          	bnez	a4,80002658 <handle_trap+0xec>
    800025d8:	0007a703          	lw	a4,0(a5) # 3e000 <_start-0x7ffc2000>
    800025dc:	008007ef          	jal	a5,800025e4 <handle_trap+0x78>
    800025e0:	00301073          	fscsr	zero
    800025e4:	0007a783          	lw	a5,0(a5)
    800025e8:	02913c23          	sd	s1,56(sp)
    800025ec:	06f70263          	beq	a4,a5,80002650 <handle_trap+0xe4>
    800025f0:	10100513          	li	a0,257
    800025f4:	03051513          	slli	a0,a0,0x30
    800025f8:	04100793          	li	a5,65
    800025fc:	00001697          	auipc	a3,0x1
    80002600:	a2c68693          	addi	a3,a3,-1492 # 80003028 <pass+0xfc>
    80002604:	fffff717          	auipc	a4,0xfffff
    80002608:	9fc70713          	addi	a4,a4,-1540 # 80001000 <tohost>
    8000260c:	00001817          	auipc	a6,0x1
    80002610:	a4580813          	addi	a6,a6,-1467 # 80003051 <pass+0x125>
    80002614:	00073583          	ld	a1,0(a4)
    80002618:	00168693          	addi	a3,a3,1
    8000261c:	00a7e633          	or	a2,a5,a0
    80002620:	00058a63          	beqz	a1,80002634 <handle_trap+0xc8>
    80002624:	fffff797          	auipc	a5,0xfffff
    80002628:	a007be23          	sd	zero,-1508(a5) # 80001040 <fromhost>
    8000262c:	00073783          	ld	a5,0(a4)
    80002630:	fe079ae3          	bnez	a5,80002624 <handle_trap+0xb8>
    80002634:	00c73023          	sd	a2,0(a4)
    80002638:	0006c783          	lbu	a5,0(a3)
    8000263c:	fd069ce3          	bne	a3,a6,80002614 <handle_trap+0xa8>
    80002640:	c49ff0ef          	jal	80002288 <terminate.constprop.0>
    80002644:	00040513          	mv	a0,s0
    80002648:	a85fd0ef          	jal	800000cc <pop_tf>
    8000264c:	f39ff06f          	j	80002584 <handle_trap+0x18>
    80002650:	00100513          	li	a0,1
    80002654:	c0dff0ef          	jal	80002260 <terminate>
    80002658:	00001517          	auipc	a0,0x1
    8000265c:	a7050513          	addi	a0,a0,-1424 # 800030c8 <pass+0x19c>
    80002660:	02913c23          	sd	s1,56(sp)
    80002664:	bb5ff0ef          	jal	80002218 <cputstring>
    80002668:	c21ff0ef          	jal	80002288 <terminate.constprop.0>
    8000266c:	05043e03          	ld	t3,80(s0)
    80002670:	00001437          	lui	s0,0x1
    80002674:	02913c23          	sd	s1,56(sp)
    80002678:	00040313          	mv	t1,s0
    8000267c:	00002897          	auipc	a7,0x2
    80002680:	98488893          	addi	a7,a7,-1660 # 80004000 <user_mapping>
    80002684:	00003297          	auipc	t0,0x3
    80002688:	97c28293          	addi	t0,t0,-1668 # 80005000 <pt>
    8000268c:	00040fb7          	lui	t6,0x40
    80002690:	ffe00f37          	lui	t5,0xffe00
    80002694:	0003feb7          	lui	t4,0x3f
    80002698:	00c45793          	srli	a5,s0,0xc
    8000269c:	00479713          	slli	a4,a5,0x4
    800026a0:	00e886b3          	add	a3,a7,a4
    800026a4:	0006b683          	ld	a3,0(a3)
    800026a8:	0e068063          	beqz	a3,80002788 <handle_trap+0x21c>
    800026ac:	60078793          	addi	a5,a5,1536
    800026b0:	00379793          	slli	a5,a5,0x3
    800026b4:	00f287b3          	add	a5,t0,a5
    800026b8:	0007b683          	ld	a3,0(a5)
    800026bc:	0406f793          	andi	a5,a3,64
    800026c0:	0e078463          	beqz	a5,800027a8 <handle_trap+0x23c>
    800026c4:	02e13423          	sd	a4,40(sp)
    800026c8:	02d13023          	sd	a3,32(sp)
    800026cc:	01c13c23          	sd	t3,24(sp)
    800026d0:	100fa3f3          	csrrs	t2,sstatus,t6
    800026d4:	01e407b3          	add	a5,s0,t5
    800026d8:	00078593          	mv	a1,a5
    800026dc:	00040513          	mv	a0,s0
    800026e0:	00001637          	lui	a2,0x1
    800026e4:	00713823          	sd	t2,16(sp)
    800026e8:	00f13423          	sd	a5,8(sp)
    800026ec:	a15ff0ef          	jal	80002100 <memcmp>
    800026f0:	01013383          	ld	t2,16(sp)
    800026f4:	01813e03          	ld	t3,24(sp)
    800026f8:	02813703          	ld	a4,40(sp)
    800026fc:	ffe00f37          	lui	t5,0xffe00
    80002700:	00040fb7          	lui	t6,0x40
    80002704:	00002897          	auipc	a7,0x2
    80002708:	8fc88893          	addi	a7,a7,-1796 # 80004000 <user_mapping>
    8000270c:	00003297          	auipc	t0,0x3
    80002710:	8f428293          	addi	t0,t0,-1804 # 80005000 <pt>
    80002714:	00001337          	lui	t1,0x1
    80002718:	00007817          	auipc	a6,0x7
    8000271c:	8e880813          	addi	a6,a6,-1816 # 80009000 <freelist_tail>
    80002720:	0003feb7          	lui	t4,0x3f
    80002724:	04050463          	beqz	a0,8000276c <handle_trap+0x200>
    80002728:	02013683          	ld	a3,32(sp)
    8000272c:	00813783          	ld	a5,8(sp)
    80002730:	0806f693          	andi	a3,a3,128
    80002734:	08068c63          	beqz	a3,800027cc <handle_trap+0x260>
    80002738:	00040693          	mv	a3,s0
    8000273c:	00640633          	add	a2,s0,t1
    80002740:	0106b583          	ld	a1,16(a3)
    80002744:	0086b503          	ld	a0,8(a3)
    80002748:	0006b483          	ld	s1,0(a3)
    8000274c:	00b7b823          	sd	a1,16(a5)
    80002750:	00a7b423          	sd	a0,8(a5)
    80002754:	0097b023          	sd	s1,0(a5)
    80002758:	0186b583          	ld	a1,24(a3)
    8000275c:	02068693          	addi	a3,a3,32
    80002760:	02078793          	addi	a5,a5,32
    80002764:	feb7bc23          	sd	a1,-8(a5)
    80002768:	fcc69ce3          	bne	a3,a2,80002740 <handle_trap+0x1d4>
    8000276c:	00e887b3          	add	a5,a7,a4
    80002770:	10039073          	csrw	sstatus,t2
    80002774:	00083703          	ld	a4,0(a6)
    80002778:	0007b023          	sd	zero,0(a5)
    8000277c:	00070e63          	beqz	a4,80002798 <handle_trap+0x22c>
    80002780:	00f73423          	sd	a5,8(a4)
    80002784:	00f83023          	sd	a5,0(a6)
    80002788:	00640433          	add	s0,s0,t1
    8000278c:	f1d416e3          	bne	s0,t4,80002698 <handle_trap+0x12c>
    80002790:	000e051b          	sext.w	a0,t3
    80002794:	acdff0ef          	jal	80002260 <terminate>
    80002798:	00f83023          	sd	a5,0(a6)
    8000279c:	00007717          	auipc	a4,0x7
    800027a0:	86f73623          	sd	a5,-1940(a4) # 80009008 <freelist_head>
    800027a4:	fe5ff06f          	j	80002788 <handle_trap+0x21c>
    800027a8:	00001517          	auipc	a0,0x1
    800027ac:	8b050513          	addi	a0,a0,-1872 # 80003058 <pass+0x12c>
    800027b0:	a69ff0ef          	jal	80002218 <cputstring>
    800027b4:	ad5ff0ef          	jal	80002288 <terminate.constprop.0>
    800027b8:	00001517          	auipc	a0,0x1
    800027bc:	93850513          	addi	a0,a0,-1736 # 800030f0 <pass+0x1c4>
    800027c0:	02913c23          	sd	s1,56(sp)
    800027c4:	a55ff0ef          	jal	80002218 <cputstring>
    800027c8:	e79ff06f          	j	80002640 <handle_trap+0xd4>
    800027cc:	00001517          	auipc	a0,0x1
    800027d0:	8c450513          	addi	a0,a0,-1852 # 80003090 <pass+0x164>
    800027d4:	a45ff0ef          	jal	80002218 <cputstring>
    800027d8:	ab1ff0ef          	jal	80002288 <terminate.constprop.0>

00000000800027dc <vm_boot>:
    800027dc:	f14027f3          	csrr	a5,mhartid
    800027e0:	1a079263          	bnez	a5,80002984 <vm_boot+0x1a8>
    800027e4:	00004817          	auipc	a6,0x4
    800027e8:	81c80813          	addi	a6,a6,-2020 # 80006000 <pt+0x1000>
    800027ec:	00006897          	auipc	a7,0x6
    800027f0:	81488893          	addi	a7,a7,-2028 # 80008000 <pt+0x3000>
    800027f4:	00005797          	auipc	a5,0x5
    800027f8:	80c78793          	addi	a5,a5,-2036 # 80007000 <pt+0x2000>
    800027fc:	ed010113          	addi	sp,sp,-304
    80002800:	00c8d693          	srli	a3,a7,0xc
    80002804:	00c85713          	srli	a4,a6,0xc
    80002808:	00c7d793          	srli	a5,a5,0xc
    8000280c:	12813023          	sd	s0,288(sp)
    80002810:	00002317          	auipc	t1,0x2
    80002814:	7f030313          	addi	t1,t1,2032 # 80005000 <pt>
    80002818:	00050413          	mv	s0,a0
    8000281c:	fff00613          	li	a2,-1
    80002820:	00a79793          	slli	a5,a5,0xa
    80002824:	00a69693          	slli	a3,a3,0xa
    80002828:	00a71713          	slli	a4,a4,0xa
    8000282c:	20000537          	lui	a0,0x20000
    80002830:	12113423          	sd	ra,296(sp)
    80002834:	0017e793          	ori	a5,a5,1
    80002838:	0016e693          	ori	a3,a3,1
    8000283c:	00176713          	ori	a4,a4,1
    80002840:	00c35593          	srli	a1,t1,0xc
    80002844:	03f61e13          	slli	t3,a2,0x3f
    80002848:	0cf50513          	addi	a0,a0,207 # 200000cf <_start-0x5fffff31>
    8000284c:	fef83c23          	sd	a5,-8(a6)
    80002850:	00d83023          	sd	a3,0(a6)
    80002854:	00e33023          	sd	a4,0(t1)
    80002858:	01c5e7b3          	or	a5,a1,t3
    8000285c:	fea8bc23          	sd	a0,-8(a7)
    80002860:	18079073          	csrw	satp,a5
    80002864:	18002773          	csrr	a4,satp
    80002868:	16e79663          	bne	a5,a4,800029d4 <vm_boot+0x1f8>
    8000286c:	800007b7          	lui	a5,0x80000
    80002870:	12078073          	sfence.vma	a5
    80002874:	01f00793          	li	a5,31
    80002878:	00b65613          	srli	a2,a2,0xb
    8000287c:	00000297          	auipc	t0,0x0
    80002880:	01428293          	addi	t0,t0,20 # 80002890 <vm_boot+0xb4>
    80002884:	305292f3          	csrrw	t0,mtvec,t0
    80002888:	3b061073          	csrw	pmpaddr0,a2
    8000288c:	3a079073          	csrw	pmpcfg0,a5
    80002890:	30529073          	csrw	mtvec,t0
    80002894:	bff00693          	li	a3,-1025
    80002898:	01569693          	slli	a3,a3,0x15
    8000289c:	ffffe797          	auipc	a5,0xffffe
    800028a0:	8b878793          	addi	a5,a5,-1864 # 80000154 <trap_entry>
    800028a4:	00d787b3          	add	a5,a5,a3
    800028a8:	10579073          	csrw	stvec,a5
    800028ac:	340027f3          	csrr	a5,mscratch
    800028b0:	00d787b3          	add	a5,a5,a3
    800028b4:	14079073          	csrw	sscratch,a5
    800028b8:	0000b7b7          	lui	a5,0xb
    800028bc:	1007879b          	addiw	a5,a5,256 # b100 <_start-0x7fff4f00>
    800028c0:	30279073          	csrw	medeleg,a5
    800028c4:	0001e7b7          	lui	a5,0x1e
    800028c8:	6007879b          	addiw	a5,a5,1536 # 1e600 <_start-0x7ffe1a00>
    800028cc:	30079073          	csrw	mstatus,a5
    800028d0:	30405073          	csrwi	mie,0
    800028d4:	00002717          	auipc	a4,0x2
    800028d8:	b1c70713          	addi	a4,a4,-1252 # 800043f0 <freelist_nodes>
    800028dc:	3e068793          	addi	a5,a3,992
    800028e0:	bff00813          	li	a6,-1025
    800028e4:	00d706b3          	add	a3,a4,a3
    800028e8:	00f707b3          	add	a5,a4,a5
    800028ec:	01581813          	slli	a6,a6,0x15
    800028f0:	000808b7          	lui	a7,0x80
    800028f4:	00006617          	auipc	a2,0x6
    800028f8:	70d63a23          	sd	a3,1812(a2) # 80009008 <freelist_head>
    800028fc:	01080813          	addi	a6,a6,16
    80002900:	00006697          	auipc	a3,0x6
    80002904:	70f6b023          	sd	a5,1792(a3) # 80009000 <freelist_tail>
    80002908:	03f88893          	addi	a7,a7,63 # 8003f <_start-0x7ff7ffc1>
    8000290c:	00002317          	auipc	t1,0x2
    80002910:	ed430313          	addi	t1,t1,-300 # 800047e0 <freelist_nodes+0x3f0>
    80002914:	02c00793          	li	a5,44
    80002918:	0017d613          	srli	a2,a5,0x1
    8000291c:	00f646b3          	xor	a3,a2,a5
    80002920:	011787b3          	add	a5,a5,a7
    80002924:	00c79793          	slli	a5,a5,0xc
    80002928:	010705b3          	add	a1,a4,a6
    8000292c:	00569693          	slli	a3,a3,0x5
    80002930:	00f73023          	sd	a5,0(a4)
    80002934:	0206f693          	andi	a3,a3,32
    80002938:	00b73423          	sd	a1,8(a4)
    8000293c:	01070713          	addi	a4,a4,16
    80002940:	00d667b3          	or	a5,a2,a3
    80002944:	fce31ae3          	bne	t1,a4,80002918 <vm_boot+0x13c>
    80002948:	00010513          	mv	a0,sp
    8000294c:	12000613          	li	a2,288
    80002950:	00000593          	li	a1,0
    80002954:	00002797          	auipc	a5,0x2
    80002958:	e807b223          	sd	zero,-380(a5) # 800047d8 <freelist_nodes+0x3e8>
    8000295c:	f00ff0ef          	jal	8000205c <memset>
    80002960:	800007b7          	lui	a5,0x80000
    80002964:	00f40433          	add	s0,s0,a5
    80002968:	00010513          	mv	a0,sp
    8000296c:	10813423          	sd	s0,264(sp)
    80002970:	f5cfd0ef          	jal	800000cc <pop_tf>
    80002974:	12813083          	ld	ra,296(sp)
    80002978:	12013403          	ld	s0,288(sp)
    8000297c:	13010113          	addi	sp,sp,304
    80002980:	00008067          	ret
    80002984:	00100693          	li	a3,1
    80002988:	0ef5d7b7          	lui	a5,0xef5d
    8000298c:	00080637          	lui	a2,0x80
    80002990:	b1678793          	addi	a5,a5,-1258 # ef5cb16 <_start-0x710a34ea>
    80002994:	ffc60613          	addi	a2,a2,-4 # 7fffc <_start-0x7ff80004>
    80002998:	03e69693          	slli	a3,a3,0x3e
    8000299c:	80000537          	lui	a0,0x80000
    800029a0:	01c0006f          	j	800029bc <vm_boot+0x1e0>
    800029a4:	0007202f          	amoadd.w	zero,zero,(a4)
    800029a8:	0017d713          	srli	a4,a5,0x1
    800029ac:	00e7c7b3          	xor	a5,a5,a4
    800029b0:	03e79793          	slli	a5,a5,0x3e
    800029b4:	00d7f7b3          	and	a5,a5,a3
    800029b8:	00e7e7b3          	or	a5,a5,a4
    800029bc:	00c7f733          	and	a4,a5,a2
    800029c0:	0017f593          	andi	a1,a5,1
    800029c4:	40a70733          	sub	a4,a4,a0
    800029c8:	fc059ee3          	bnez	a1,800029a4 <vm_boot+0x1c8>
    800029cc:	00072003          	lw	zero,0(a4)
    800029d0:	fd9ff06f          	j	800029a8 <vm_boot+0x1cc>
    800029d4:	00000517          	auipc	a0,0x0
    800029d8:	74c50513          	addi	a0,a0,1868 # 80003120 <pass+0x1f4>
    800029dc:	83dff0ef          	jal	80002218 <cputstring>
    800029e0:	8a9ff0ef          	jal	80002288 <terminate.constprop.0>

00000000800029e4 <extra_boot>:
    800029e4:	00008067          	ret

00000000800029e8 <trap_filter>:
    800029e8:	00000513          	li	a0,0
    800029ec:	00008067          	ret

00000000800029f0 <pf_filter>:
    800029f0:	00000513          	li	a0,0
    800029f4:	00008067          	ret

00000000800029f8 <userstart>:
    800029f8:	00200193          	li	gp,2
    800029fc:	004495b7          	lui	a1,0x449
    80002a00:	8cd5859b          	addiw	a1,a1,-1843 # 4488cd <_start-0x7fbb7733>
    80002a04:	00e59593          	slli	a1,a1,0xe
    80002a08:	45558593          	addi	a1,a1,1109
    80002a0c:	00c59593          	slli	a1,a1,0xc
    80002a10:	66758593          	addi	a1,a1,1639
    80002a14:	00c59593          	slli	a1,a1,0xc
    80002a18:	78858593          	addi	a1,a1,1928
    80002a1c:	ffe67637          	lui	a2,0xffe67
    80002a20:	aaf6061b          	addiw	a2,a2,-1361 # ffffffffffe66aaf <freelist_head+0xffffffff7fe5daa7>
    80002a24:	00d61613          	slli	a2,a2,0xd
    80002a28:	e6760613          	addi	a2,a2,-409
    80002a2c:	00d61613          	slli	a2,a2,0xd
    80002a30:	def60613          	addi	a2,a2,-529
    80002a34:	01061613          	slli	a2,a2,0x10
    80002a38:	f0f60613          	addi	a2,a2,-241
    80002a3c:	08c5f733          	packh	a4,a1,a2
    80002a40:	000013b7          	lui	t2,0x1
    80002a44:	f883839b          	addiw	t2,t2,-120 # f88 <_start-0x7ffff078>
    80002a48:	4c771a63          	bne	a4,t2,80002f1c <fail>

0000000080002a4c <test_3>:
    80002a4c:	00300193          	li	gp,3
    80002a50:	fff00593          	li	a1,-1
    80002a54:	fff00613          	li	a2,-1
    80002a58:	08c5f733          	packh	a4,a1,a2
    80002a5c:	000103b7          	lui	t2,0x10
    80002a60:	fff3839b          	addiw	t2,t2,-1 # ffff <_start-0x7fff0001>
    80002a64:	4a771c63          	bne	a4,t2,80002f1c <fail>

0000000080002a68 <test_4>:
    80002a68:	00400193          	li	gp,4
    80002a6c:	00000593          	li	a1,0
    80002a70:	00000613          	li	a2,0
    80002a74:	08c5f733          	packh	a4,a1,a2
    80002a78:	00000393          	li	t2,0
    80002a7c:	4a771063          	bne	a4,t2,80002f1c <fail>

0000000080002a80 <test_5>:
    80002a80:	00500193          	li	gp,5
    80002a84:	0ab00593          	li	a1,171
    80002a88:	0cd00613          	li	a2,205
    80002a8c:	08c5f733          	packh	a4,a1,a2
    80002a90:	0000d3b7          	lui	t2,0xd
    80002a94:	dab3839b          	addiw	t2,t2,-597 # cdab <_start-0x7fff3255>
    80002a98:	48771263          	bne	a4,t2,80002f1c <fail>

0000000080002a9c <test_6>:
    80002a9c:	00600193          	li	gp,6
    80002aa0:	01200593          	li	a1,18
    80002aa4:	03400613          	li	a2,52
    80002aa8:	08c5f733          	packh	a4,a1,a2
    80002aac:	000033b7          	lui	t2,0x3
    80002ab0:	4123839b          	addiw	t2,t2,1042 # 3412 <_start-0x7fffcbee>
    80002ab4:	46771463          	bne	a4,t2,80002f1c <fail>

0000000080002ab8 <test_7>:
    80002ab8:	00700193          	li	gp,7
    80002abc:	123455b7          	lui	a1,0x12345
    80002ac0:	6785859b          	addiw	a1,a1,1656 # 12345678 <_start-0x6dcba988>
    80002ac4:	0004d637          	lui	a2,0x4d
    80002ac8:	5e76061b          	addiw	a2,a2,1511 # 4d5e7 <_start-0x7ffb2a19>
    80002acc:	00d61613          	slli	a2,a2,0xd
    80002ad0:	ef060613          	addi	a2,a2,-272
    80002ad4:	08c5f5b3          	packh	a1,a1,a2
    80002ad8:	0000f3b7          	lui	t2,0xf
    80002adc:	0783839b          	addiw	t2,t2,120 # f078 <_start-0x7fff0f88>
    80002ae0:	42759e63          	bne	a1,t2,80002f1c <fail>

0000000080002ae4 <test_8>:
    80002ae4:	00800193          	li	gp,8
    80002ae8:	123455b7          	lui	a1,0x12345
    80002aec:	6785859b          	addiw	a1,a1,1656 # 12345678 <_start-0x6dcba988>
    80002af0:	0004d637          	lui	a2,0x4d
    80002af4:	5e76061b          	addiw	a2,a2,1511 # 4d5e7 <_start-0x7ffb2a19>
    80002af8:	00d61613          	slli	a2,a2,0xd
    80002afc:	ef060613          	addi	a2,a2,-272
    80002b00:	08c5f633          	packh	a2,a1,a2
    80002b04:	0000f3b7          	lui	t2,0xf
    80002b08:	0783839b          	addiw	t2,t2,120 # f078 <_start-0x7fff0f88>
    80002b0c:	40761863          	bne	a2,t2,80002f1c <fail>

0000000080002b10 <test_9>:
    80002b10:	00900193          	li	gp,9
    80002b14:	0010059b          	addiw	a1,zero,1
    80002b18:	02059593          	slli	a1,a1,0x20
    80002b1c:	fff58593          	addi	a1,a1,-1
    80002b20:	08b5f5b3          	packh	a1,a1,a1
    80002b24:	000103b7          	lui	t2,0x10
    80002b28:	fff3839b          	addiw	t2,t2,-1 # ffff <_start-0x7fff0001>
    80002b2c:	3e759863          	bne	a1,t2,80002f1c <fail>

0000000080002b30 <test_10>:
    80002b30:	00a00193          	li	gp,10
    80002b34:	00000213          	li	tp,0
    80002b38:	123450b7          	lui	ra,0x12345
    80002b3c:	6780809b          	addiw	ra,ra,1656 # 12345678 <_start-0x6dcba988>
    80002b40:	0004d137          	lui	sp,0x4d
    80002b44:	5e71011b          	addiw	sp,sp,1511 # 4d5e7 <_start-0x7ffb2a19>
    80002b48:	00d11113          	slli	sp,sp,0xd
    80002b4c:	ef010113          	addi	sp,sp,-272
    80002b50:	0820f733          	packh	a4,ra,sp
    80002b54:	00070313          	mv	t1,a4
    80002b58:	00120213          	addi	tp,tp,1 # 1 <_start-0x7fffffff>
    80002b5c:	00200293          	li	t0,2
    80002b60:	fc521ce3          	bne	tp,t0,80002b38 <test_10+0x8>
    80002b64:	0000f3b7          	lui	t2,0xf
    80002b68:	0783839b          	addiw	t2,t2,120 # f078 <_start-0x7fff0f88>
    80002b6c:	3a731863          	bne	t1,t2,80002f1c <fail>

0000000080002b70 <test_11>:
    80002b70:	00b00193          	li	gp,11
    80002b74:	00000213          	li	tp,0
    80002b78:	0010009b          	addiw	ra,zero,1
    80002b7c:	02009093          	slli	ra,ra,0x20
    80002b80:	fff08093          	addi	ra,ra,-1
    80002b84:	0010011b          	addiw	sp,zero,1
    80002b88:	02011113          	slli	sp,sp,0x20
    80002b8c:	fff10113          	addi	sp,sp,-1
    80002b90:	0820f733          	packh	a4,ra,sp
    80002b94:	00000013          	nop
    80002b98:	00070313          	mv	t1,a4
    80002b9c:	00120213          	addi	tp,tp,1 # 1 <_start-0x7fffffff>
    80002ba0:	00200293          	li	t0,2
    80002ba4:	fc521ae3          	bne	tp,t0,80002b78 <test_11+0x8>
    80002ba8:	000103b7          	lui	t2,0x10
    80002bac:	fff3839b          	addiw	t2,t2,-1 # ffff <_start-0x7fff0001>
    80002bb0:	36731663          	bne	t1,t2,80002f1c <fail>

0000000080002bb4 <test_12>:
    80002bb4:	00c00193          	li	gp,12
    80002bb8:	00000213          	li	tp,0
    80002bbc:	00000093          	li	ra,0
    80002bc0:	00000113          	li	sp,0
    80002bc4:	0820f733          	packh	a4,ra,sp
    80002bc8:	00000013          	nop
    80002bcc:	00000013          	nop
    80002bd0:	00070313          	mv	t1,a4
    80002bd4:	00120213          	addi	tp,tp,1 # 1 <_start-0x7fffffff>
    80002bd8:	00200293          	li	t0,2
    80002bdc:	fe5210e3          	bne	tp,t0,80002bbc <test_12+0x8>
    80002be0:	00000393          	li	t2,0
    80002be4:	32731c63          	bne	t1,t2,80002f1c <fail>

0000000080002be8 <test_13>:
    80002be8:	00d00193          	li	gp,13
    80002bec:	00000213          	li	tp,0
    80002bf0:	123450b7          	lui	ra,0x12345
    80002bf4:	6780809b          	addiw	ra,ra,1656 # 12345678 <_start-0x6dcba988>
    80002bf8:	0004d137          	lui	sp,0x4d
    80002bfc:	5e71011b          	addiw	sp,sp,1511 # 4d5e7 <_start-0x7ffb2a19>
    80002c00:	00d11113          	slli	sp,sp,0xd
    80002c04:	ef010113          	addi	sp,sp,-272
    80002c08:	0820f733          	packh	a4,ra,sp
    80002c0c:	00120213          	addi	tp,tp,1 # 1 <_start-0x7fffffff>
    80002c10:	00200293          	li	t0,2
    80002c14:	fc521ee3          	bne	tp,t0,80002bf0 <test_13+0x8>
    80002c18:	0000f3b7          	lui	t2,0xf
    80002c1c:	0783839b          	addiw	t2,t2,120 # f078 <_start-0x7fff0f88>
    80002c20:	2e771e63          	bne	a4,t2,80002f1c <fail>

0000000080002c24 <test_14>:
    80002c24:	00e00193          	li	gp,14
    80002c28:	00000213          	li	tp,0
    80002c2c:	0010009b          	addiw	ra,zero,1
    80002c30:	02009093          	slli	ra,ra,0x20
    80002c34:	fff08093          	addi	ra,ra,-1
    80002c38:	0010011b          	addiw	sp,zero,1
    80002c3c:	02011113          	slli	sp,sp,0x20
    80002c40:	fff10113          	addi	sp,sp,-1
    80002c44:	00000013          	nop
    80002c48:	0820f733          	packh	a4,ra,sp
    80002c4c:	00120213          	addi	tp,tp,1 # 1 <_start-0x7fffffff>
    80002c50:	00200293          	li	t0,2
    80002c54:	fc521ce3          	bne	tp,t0,80002c2c <test_14+0x8>
    80002c58:	000103b7          	lui	t2,0x10
    80002c5c:	fff3839b          	addiw	t2,t2,-1 # ffff <_start-0x7fff0001>
    80002c60:	2a771e63          	bne	a4,t2,80002f1c <fail>

0000000080002c64 <test_15>:
    80002c64:	00f00193          	li	gp,15
    80002c68:	00000213          	li	tp,0
    80002c6c:	00000093          	li	ra,0
    80002c70:	00000113          	li	sp,0
    80002c74:	00000013          	nop
    80002c78:	00000013          	nop
    80002c7c:	0820f733          	packh	a4,ra,sp
    80002c80:	00120213          	addi	tp,tp,1 # 1 <_start-0x7fffffff>
    80002c84:	00200293          	li	t0,2
    80002c88:	fe5212e3          	bne	tp,t0,80002c6c <test_15+0x8>
    80002c8c:	00000393          	li	t2,0
    80002c90:	28771663          	bne	a4,t2,80002f1c <fail>

0000000080002c94 <test_16>:
    80002c94:	01000193          	li	gp,16
    80002c98:	00000213          	li	tp,0
    80002c9c:	123450b7          	lui	ra,0x12345
    80002ca0:	6780809b          	addiw	ra,ra,1656 # 12345678 <_start-0x6dcba988>
    80002ca4:	00000013          	nop
    80002ca8:	0004d137          	lui	sp,0x4d
    80002cac:	5e71011b          	addiw	sp,sp,1511 # 4d5e7 <_start-0x7ffb2a19>
    80002cb0:	00d11113          	slli	sp,sp,0xd
    80002cb4:	ef010113          	addi	sp,sp,-272
    80002cb8:	0820f733          	packh	a4,ra,sp
    80002cbc:	00120213          	addi	tp,tp,1 # 1 <_start-0x7fffffff>
    80002cc0:	00200293          	li	t0,2
    80002cc4:	fc521ce3          	bne	tp,t0,80002c9c <test_16+0x8>
    80002cc8:	0000f3b7          	lui	t2,0xf
    80002ccc:	0783839b          	addiw	t2,t2,120 # f078 <_start-0x7fff0f88>
    80002cd0:	24771663          	bne	a4,t2,80002f1c <fail>

0000000080002cd4 <test_17>:
    80002cd4:	01100193          	li	gp,17
    80002cd8:	00000213          	li	tp,0
    80002cdc:	0010009b          	addiw	ra,zero,1
    80002ce0:	02009093          	slli	ra,ra,0x20
    80002ce4:	fff08093          	addi	ra,ra,-1
    80002ce8:	00000013          	nop
    80002cec:	0010011b          	addiw	sp,zero,1
    80002cf0:	02011113          	slli	sp,sp,0x20
    80002cf4:	fff10113          	addi	sp,sp,-1
    80002cf8:	00000013          	nop
    80002cfc:	0820f733          	packh	a4,ra,sp
    80002d00:	00120213          	addi	tp,tp,1 # 1 <_start-0x7fffffff>
    80002d04:	00200293          	li	t0,2
    80002d08:	fc521ae3          	bne	tp,t0,80002cdc <test_17+0x8>
    80002d0c:	000103b7          	lui	t2,0x10
    80002d10:	fff3839b          	addiw	t2,t2,-1 # ffff <_start-0x7fff0001>
    80002d14:	20771463          	bne	a4,t2,80002f1c <fail>

0000000080002d18 <test_18>:
    80002d18:	01200193          	li	gp,18
    80002d1c:	00000213          	li	tp,0
    80002d20:	00000093          	li	ra,0
    80002d24:	00000013          	nop
    80002d28:	00000013          	nop
    80002d2c:	00000113          	li	sp,0
    80002d30:	0820f733          	packh	a4,ra,sp
    80002d34:	00120213          	addi	tp,tp,1 # 1 <_start-0x7fffffff>
    80002d38:	00200293          	li	t0,2
    80002d3c:	fe5212e3          	bne	tp,t0,80002d20 <test_18+0x8>
    80002d40:	00000393          	li	t2,0
    80002d44:	1c771c63          	bne	a4,t2,80002f1c <fail>

0000000080002d48 <test_19>:
    80002d48:	01300193          	li	gp,19
    80002d4c:	00000213          	li	tp,0
    80002d50:	0004d137          	lui	sp,0x4d
    80002d54:	5e71011b          	addiw	sp,sp,1511 # 4d5e7 <_start-0x7ffb2a19>
    80002d58:	00d11113          	slli	sp,sp,0xd
    80002d5c:	ef010113          	addi	sp,sp,-272
    80002d60:	123450b7          	lui	ra,0x12345
    80002d64:	6780809b          	addiw	ra,ra,1656 # 12345678 <_start-0x6dcba988>
    80002d68:	0820f733          	packh	a4,ra,sp
    80002d6c:	00120213          	addi	tp,tp,1 # 1 <_start-0x7fffffff>
    80002d70:	00200293          	li	t0,2
    80002d74:	fc521ee3          	bne	tp,t0,80002d50 <test_19+0x8>
    80002d78:	0000f3b7          	lui	t2,0xf
    80002d7c:	0783839b          	addiw	t2,t2,120 # f078 <_start-0x7fff0f88>
    80002d80:	18771e63          	bne	a4,t2,80002f1c <fail>

0000000080002d84 <test_20>:
    80002d84:	01400193          	li	gp,20
    80002d88:	00000213          	li	tp,0
    80002d8c:	0010011b          	addiw	sp,zero,1
    80002d90:	02011113          	slli	sp,sp,0x20
    80002d94:	fff10113          	addi	sp,sp,-1
    80002d98:	0010009b          	addiw	ra,zero,1
    80002d9c:	02009093          	slli	ra,ra,0x20
    80002da0:	fff08093          	addi	ra,ra,-1
    80002da4:	00000013          	nop
    80002da8:	0820f733          	packh	a4,ra,sp
    80002dac:	00120213          	addi	tp,tp,1 # 1 <_start-0x7fffffff>
    80002db0:	00200293          	li	t0,2
    80002db4:	fc521ce3          	bne	tp,t0,80002d8c <test_20+0x8>
    80002db8:	000103b7          	lui	t2,0x10
    80002dbc:	fff3839b          	addiw	t2,t2,-1 # ffff <_start-0x7fff0001>
    80002dc0:	14771e63          	bne	a4,t2,80002f1c <fail>

0000000080002dc4 <test_21>:
    80002dc4:	01500193          	li	gp,21
    80002dc8:	00000213          	li	tp,0
    80002dcc:	00000113          	li	sp,0
    80002dd0:	00000093          	li	ra,0
    80002dd4:	00000013          	nop
    80002dd8:	00000013          	nop
    80002ddc:	0820f733          	packh	a4,ra,sp
    80002de0:	00120213          	addi	tp,tp,1 # 1 <_start-0x7fffffff>
    80002de4:	00200293          	li	t0,2
    80002de8:	fe5212e3          	bne	tp,t0,80002dcc <test_21+0x8>
    80002dec:	00000393          	li	t2,0
    80002df0:	12771663          	bne	a4,t2,80002f1c <fail>

0000000080002df4 <test_22>:
    80002df4:	01600193          	li	gp,22
    80002df8:	00000213          	li	tp,0
    80002dfc:	0004d137          	lui	sp,0x4d
    80002e00:	5e71011b          	addiw	sp,sp,1511 # 4d5e7 <_start-0x7ffb2a19>
    80002e04:	00d11113          	slli	sp,sp,0xd
    80002e08:	ef010113          	addi	sp,sp,-272
    80002e0c:	00000013          	nop
    80002e10:	123450b7          	lui	ra,0x12345
    80002e14:	6780809b          	addiw	ra,ra,1656 # 12345678 <_start-0x6dcba988>
    80002e18:	0820f733          	packh	a4,ra,sp
    80002e1c:	00120213          	addi	tp,tp,1 # 1 <_start-0x7fffffff>
    80002e20:	00200293          	li	t0,2
    80002e24:	fc521ce3          	bne	tp,t0,80002dfc <test_22+0x8>
    80002e28:	0000f3b7          	lui	t2,0xf
    80002e2c:	0783839b          	addiw	t2,t2,120 # f078 <_start-0x7fff0f88>
    80002e30:	0e771663          	bne	a4,t2,80002f1c <fail>

0000000080002e34 <test_23>:
    80002e34:	01700193          	li	gp,23
    80002e38:	00000213          	li	tp,0
    80002e3c:	0010011b          	addiw	sp,zero,1
    80002e40:	02011113          	slli	sp,sp,0x20
    80002e44:	fff10113          	addi	sp,sp,-1
    80002e48:	00000013          	nop
    80002e4c:	0010009b          	addiw	ra,zero,1
    80002e50:	02009093          	slli	ra,ra,0x20
    80002e54:	fff08093          	addi	ra,ra,-1
    80002e58:	00000013          	nop
    80002e5c:	0820f733          	packh	a4,ra,sp
    80002e60:	00120213          	addi	tp,tp,1 # 1 <_start-0x7fffffff>
    80002e64:	00200293          	li	t0,2
    80002e68:	fc521ae3          	bne	tp,t0,80002e3c <test_23+0x8>
    80002e6c:	000103b7          	lui	t2,0x10
    80002e70:	fff3839b          	addiw	t2,t2,-1 # ffff <_start-0x7fff0001>
    80002e74:	0a771463          	bne	a4,t2,80002f1c <fail>

0000000080002e78 <test_24>:
    80002e78:	01800193          	li	gp,24
    80002e7c:	00000213          	li	tp,0
    80002e80:	00000113          	li	sp,0
    80002e84:	00000013          	nop
    80002e88:	00000013          	nop
    80002e8c:	00000093          	li	ra,0
    80002e90:	0820f733          	packh	a4,ra,sp
    80002e94:	00120213          	addi	tp,tp,1 # 1 <_start-0x7fffffff>
    80002e98:	00200293          	li	t0,2
    80002e9c:	fe5212e3          	bne	tp,t0,80002e80 <test_24+0x8>
    80002ea0:	00000393          	li	t2,0
    80002ea4:	06771c63          	bne	a4,t2,80002f1c <fail>

0000000080002ea8 <test_25>:
    80002ea8:	01900193          	li	gp,25
    80002eac:	0004d0b7          	lui	ra,0x4d
    80002eb0:	5e70809b          	addiw	ra,ra,1511 # 4d5e7 <_start-0x7ffb2a19>
    80002eb4:	00d09093          	slli	ra,ra,0xd
    80002eb8:	ef008093          	addi	ra,ra,-272
    80002ebc:	08107133          	packh	sp,zero,ra
    80002ec0:	0000f3b7          	lui	t2,0xf
    80002ec4:	04711c63          	bne	sp,t2,80002f1c <fail>

0000000080002ec8 <test_26>:
    80002ec8:	01a00193          	li	gp,26
    80002ecc:	123450b7          	lui	ra,0x12345
    80002ed0:	6780809b          	addiw	ra,ra,1656 # 12345678 <_start-0x6dcba988>
    80002ed4:	0800f133          	packh	sp,ra,zero
    80002ed8:	07800393          	li	t2,120
    80002edc:	04711063          	bne	sp,t2,80002f1c <fail>

0000000080002ee0 <test_27>:
    80002ee0:	01b00193          	li	gp,27
    80002ee4:	080070b3          	packh	ra,zero,zero
    80002ee8:	00000393          	li	t2,0
    80002eec:	02709863          	bne	ra,t2,80002f1c <fail>

0000000080002ef0 <test_28>:
    80002ef0:	01c00193          	li	gp,28
    80002ef4:	123450b7          	lui	ra,0x12345
    80002ef8:	6780809b          	addiw	ra,ra,1656 # 12345678 <_start-0x6dcba988>
    80002efc:	0004d137          	lui	sp,0x4d
    80002f00:	5e71011b          	addiw	sp,sp,1511 # 4d5e7 <_start-0x7ffb2a19>
    80002f04:	00d11113          	slli	sp,sp,0xd
    80002f08:	ef010113          	addi	sp,sp,-272
    80002f0c:	0820f033          	packh	zero,ra,sp
    80002f10:	00000393          	li	t2,0
    80002f14:	00701463          	bne	zero,t2,80002f1c <fail>
    80002f18:	00301a63          	bne	zero,gp,80002f2c <pass>

0000000080002f1c <fail>:
    80002f1c:	00119513          	slli	a0,gp,0x1
    80002f20:	00050063          	beqz	a0,80002f20 <fail+0x4>
    80002f24:	00156513          	ori	a0,a0,1
    80002f28:	00000073          	ecall

0000000080002f2c <pass>:
    80002f2c:	00100513          	li	a0,1
    80002f30:	00000073          	ecall
    80002f34:	c0001073          	unimp
