
rv64uzbkb-v-pack:     ファイル形式 elf64-littleriscv


セクション .text.init の逆アセンブル:

0000000000000000 <_start>:
   0:	00c0006f          	j	c <handle_reset>

0000000000000004 <nmi_vector>:
   4:	2b00206f          	j	22b4 <wtf>

0000000000000008 <trap_vector>:
   8:	2ac0206f          	j	22b4 <wtf>

000000000000000c <handle_reset>:
   c:	00000093          	li	ra,0
  10:	00000113          	li	sp,0
  14:	00000193          	li	gp,0
  18:	00000213          	li	tp,0
  1c:	00000293          	li	t0,0
  20:	00000313          	li	t1,0
  24:	00000393          	li	t2,0
  28:	00000413          	li	s0,0
  2c:	00000493          	li	s1,0
  30:	00000513          	li	a0,0
  34:	00000593          	li	a1,0
  38:	00000613          	li	a2,0
  3c:	00000693          	li	a3,0
  40:	00000713          	li	a4,0
  44:	00000793          	li	a5,0
  48:	00000813          	li	a6,0
  4c:	00000893          	li	a7,0
  50:	00000913          	li	s2,0
  54:	00000993          	li	s3,0
  58:	00000a13          	li	s4,0
  5c:	00000a93          	li	s5,0
  60:	00000b13          	li	s6,0
  64:	00000b93          	li	s7,0
  68:	00000c13          	li	s8,0
  6c:	00000c93          	li	s9,0
  70:	00000d13          	li	s10,0
  74:	00000d93          	li	s11,0
  78:	00000e13          	li	t3,0
  7c:	00000e93          	li	t4,0
  80:	00000f13          	li	t5,0
  84:	00000f93          	li	t6,0
  88:	00000297          	auipc	t0,0x0
  8c:	01028293          	addi	t0,t0,16 # 98 <handle_reset+0x8c>
  90:	30529073          	csrw	mtvec,t0
  94:	74445073          	csrwi	mnstatus,8
  98:	00000297          	auipc	t0,0x0
  9c:	f7028293          	addi	t0,t0,-144 # 8 <trap_vector>
  a0:	30529073          	csrw	mtvec,t0
  a4:	0000d117          	auipc	sp,0xd
  a8:	e3c10113          	addi	sp,sp,-452 # cee0 <freelist_head+0x3ed8>
  ac:	f14022f3          	csrr	t0,mhartid
  b0:	00c29293          	slli	t0,t0,0xc
  b4:	00510133          	add	sp,sp,t0
  b8:	34011073          	csrw	mscratch,sp
  bc:	129020ef          	jal	29e4 <extra_boot>
  c0:	00003517          	auipc	a0,0x3
  c4:	93850513          	addi	a0,a0,-1736 # 29f8 <userstart>
  c8:	7140206f          	j	27dc <vm_boot>

00000000000000cc <pop_tf>:
  cc:	10853283          	ld	t0,264(a0)
  d0:	14129073          	csrw	sepc,t0
  d4:	00853083          	ld	ra,8(a0)
  d8:	01053103          	ld	sp,16(a0)
  dc:	01853183          	ld	gp,24(a0)
  e0:	02053203          	ld	tp,32(a0)
  e4:	02853283          	ld	t0,40(a0)
  e8:	03053303          	ld	t1,48(a0)
  ec:	03853383          	ld	t2,56(a0)
  f0:	04053403          	ld	s0,64(a0)
  f4:	04853483          	ld	s1,72(a0)
  f8:	05853583          	ld	a1,88(a0)
  fc:	06053603          	ld	a2,96(a0)
 100:	06853683          	ld	a3,104(a0)
 104:	07053703          	ld	a4,112(a0)
 108:	07853783          	ld	a5,120(a0)
 10c:	08053803          	ld	a6,128(a0)
 110:	08853883          	ld	a7,136(a0)
 114:	09053903          	ld	s2,144(a0)
 118:	09853983          	ld	s3,152(a0)
 11c:	0a053a03          	ld	s4,160(a0)
 120:	0a853a83          	ld	s5,168(a0)
 124:	0b053b03          	ld	s6,176(a0)
 128:	0b853b83          	ld	s7,184(a0)
 12c:	0c053c03          	ld	s8,192(a0)
 130:	0c853c83          	ld	s9,200(a0)
 134:	0d053d03          	ld	s10,208(a0)
 138:	0d853d83          	ld	s11,216(a0)
 13c:	0e053e03          	ld	t3,224(a0)
 140:	0e853e83          	ld	t4,232(a0)
 144:	0f053f03          	ld	t5,240(a0)
 148:	0f853f83          	ld	t6,248(a0)
 14c:	05053503          	ld	a0,80(a0)
 150:	10200073          	sret

0000000000000154 <trap_entry>:
 154:	14011173          	csrrw	sp,sscratch,sp
 158:	00113423          	sd	ra,8(sp)
 15c:	00313c23          	sd	gp,24(sp)
 160:	02413023          	sd	tp,32(sp)
 164:	02513423          	sd	t0,40(sp)
 168:	02613823          	sd	t1,48(sp)
 16c:	02713c23          	sd	t2,56(sp)
 170:	04813023          	sd	s0,64(sp)
 174:	04913423          	sd	s1,72(sp)
 178:	04a13823          	sd	a0,80(sp)
 17c:	04b13c23          	sd	a1,88(sp)
 180:	06c13023          	sd	a2,96(sp)
 184:	06d13423          	sd	a3,104(sp)
 188:	06e13823          	sd	a4,112(sp)
 18c:	06f13c23          	sd	a5,120(sp)
 190:	09013023          	sd	a6,128(sp)
 194:	09113423          	sd	a7,136(sp)
 198:	09213823          	sd	s2,144(sp)
 19c:	09313c23          	sd	s3,152(sp)
 1a0:	0b413023          	sd	s4,160(sp)
 1a4:	0b513423          	sd	s5,168(sp)
 1a8:	0b613823          	sd	s6,176(sp)
 1ac:	0b713c23          	sd	s7,184(sp)
 1b0:	0d813023          	sd	s8,192(sp)
 1b4:	0d913423          	sd	s9,200(sp)
 1b8:	0da13823          	sd	s10,208(sp)
 1bc:	0db13c23          	sd	s11,216(sp)
 1c0:	0fc13023          	sd	t3,224(sp)
 1c4:	0fd13423          	sd	t4,232(sp)
 1c8:	0fe13823          	sd	t5,240(sp)
 1cc:	0ff13c23          	sd	t6,248(sp)
 1d0:	140112f3          	csrrw	t0,sscratch,sp
 1d4:	00513823          	sd	t0,16(sp)
 1d8:	100022f3          	csrr	t0,sstatus
 1dc:	10513023          	sd	t0,256(sp)
 1e0:	141022f3          	csrr	t0,sepc
 1e4:	10513423          	sd	t0,264(sp)
 1e8:	143022f3          	csrr	t0,stval
 1ec:	10513823          	sd	t0,272(sp)
 1f0:	142022f3          	csrr	t0,scause
 1f4:	10513c23          	sd	t0,280(sp)
 1f8:	00010513          	mv	a0,sp
 1fc:	3700206f          	j	256c <handle_trap>

セクション .text の逆アセンブル:

0000000000002000 <memcpy>:
    2000:	00c5e7b3          	or	a5,a1,a2
    2004:	00f567b3          	or	a5,a0,a5
    2008:	0077f793          	andi	a5,a5,7
    200c:	00c506b3          	add	a3,a0,a2
    2010:	02078463          	beqz	a5,2038 <memcpy+0x38>
    2014:	00c58633          	add	a2,a1,a2
    2018:	00050793          	mv	a5,a0
    201c:	02d57e63          	bgeu	a0,a3,2058 <memcpy+0x58>
    2020:	0005c703          	lbu	a4,0(a1)
    2024:	00158593          	addi	a1,a1,1
    2028:	00178793          	addi	a5,a5,1
    202c:	fee78fa3          	sb	a4,-1(a5)
    2030:	feb618e3          	bne	a2,a1,2020 <memcpy+0x20>
    2034:	00008067          	ret
    2038:	fed57ee3          	bgeu	a0,a3,2034 <memcpy+0x34>
    203c:	00050793          	mv	a5,a0
    2040:	0005b703          	ld	a4,0(a1)
    2044:	00878793          	addi	a5,a5,8
    2048:	00858593          	addi	a1,a1,8
    204c:	fee7bc23          	sd	a4,-8(a5)
    2050:	fed7e8e3          	bltu	a5,a3,2040 <memcpy+0x40>
    2054:	00008067          	ret
    2058:	00008067          	ret

000000000000205c <memset>:
    205c:	00c567b3          	or	a5,a0,a2
    2060:	0077f793          	andi	a5,a5,7
    2064:	00050693          	mv	a3,a0
    2068:	00c50733          	add	a4,a0,a2
    206c:	00078863          	beqz	a5,207c <memset+0x20>
    2070:	02e57a63          	bgeu	a0,a4,20a4 <memset+0x48>
    2074:	0ff5f593          	zext.b	a1,a1
    2078:	fe5ff06f          	j	205c <memset>
    207c:	02e57463          	bgeu	a0,a4,20a4 <memset+0x48>
    2080:	010107b7          	lui	a5,0x1010
    2084:	10178793          	addi	a5,a5,257 # 1010101 <freelist_head+0x10070f9>
    2088:	08f7c7b3          	pack	a5,a5,a5
    208c:	0ff5f593          	zext.b	a1,a1
    2090:	02f585b3          	mul	a1,a1,a5
    2094:	00050793          	mv	a5,a0
    2098:	00878793          	addi	a5,a5,8
    209c:	feb7bc23          	sd	a1,-8(a5)
    20a0:	fee7ece3          	bltu	a5,a4,2098 <memset+0x3c>
    20a4:	00068513          	mv	a0,a3
    20a8:	00008067          	ret

00000000000020ac <strlen>:
    20ac:	00054783          	lbu	a5,0(a0)
    20b0:	00078e63          	beqz	a5,20cc <strlen+0x20>
    20b4:	00050793          	mv	a5,a0
    20b8:	0017c703          	lbu	a4,1(a5)
    20bc:	00178793          	addi	a5,a5,1
    20c0:	fe071ce3          	bnez	a4,20b8 <strlen+0xc>
    20c4:	40a78533          	sub	a0,a5,a0
    20c8:	00008067          	ret
    20cc:	00000513          	li	a0,0
    20d0:	00008067          	ret

00000000000020d4 <strcmp>:
    20d4:	00054683          	lbu	a3,0(a0)
    20d8:	0005c603          	lbu	a2,0(a1)
    20dc:	00150513          	addi	a0,a0,1
    20e0:	00d037b3          	snez	a5,a3
    20e4:	40c68733          	sub	a4,a3,a2
    20e8:	00173713          	seqz	a4,a4
    20ec:	00e7f7b3          	and	a5,a5,a4
    20f0:	00158593          	addi	a1,a1,1
    20f4:	fe0790e3          	bnez	a5,20d4 <strcmp>
    20f8:	40c6853b          	subw	a0,a3,a2
    20fc:	00008067          	ret

0000000000002100 <memcmp>:
    2100:	00b567b3          	or	a5,a0,a1
    2104:	0077f793          	andi	a5,a5,7
    2108:	02079e63          	bnez	a5,2144 <memcmp+0x44>
    210c:	ff867813          	andi	a6,a2,-8
    2110:	01050833          	add	a6,a0,a6
    2114:	03057863          	bgeu	a0,a6,2144 <memcmp+0x44>
    2118:	00050793          	mv	a5,a0
    211c:	0100006f          	j	212c <memcmp+0x2c>
    2120:	00878793          	addi	a5,a5,8
    2124:	00858593          	addi	a1,a1,8
    2128:	0107f863          	bgeu	a5,a6,2138 <memcmp+0x38>
    212c:	0007b683          	ld	a3,0(a5)
    2130:	0005b703          	ld	a4,0(a1)
    2134:	fee686e3          	beq	a3,a4,2120 <memcmp+0x20>
    2138:	40a78533          	sub	a0,a5,a0
    213c:	40a60633          	sub	a2,a2,a0
    2140:	00078513          	mv	a0,a5
    2144:	00c58633          	add	a2,a1,a2
    2148:	0140006f          	j	215c <memcmp+0x5c>
    214c:	fff54783          	lbu	a5,-1(a0)
    2150:	0005c703          	lbu	a4,0(a1)
    2154:	00158593          	addi	a1,a1,1
    2158:	00e79a63          	bne	a5,a4,216c <memcmp+0x6c>
    215c:	00150513          	addi	a0,a0,1
    2160:	feb616e3          	bne	a2,a1,214c <memcmp+0x4c>
    2164:	00000513          	li	a0,0
    2168:	00008067          	ret
    216c:	40e7853b          	subw	a0,a5,a4
    2170:	00008067          	ret

0000000000002174 <strcpy>:
    2174:	00050793          	mv	a5,a0
    2178:	0005c703          	lbu	a4,0(a1)
    217c:	00158593          	addi	a1,a1,1
    2180:	00178793          	addi	a5,a5,1
    2184:	fee78fa3          	sb	a4,-1(a5)
    2188:	fe0718e3          	bnez	a4,2178 <strcpy+0x4>
    218c:	00008067          	ret

0000000000002190 <atol>:
    2190:	00054703          	lbu	a4,0(a0)
    2194:	02000693          	li	a3,32
    2198:	00050793          	mv	a5,a0
    219c:	00d71863          	bne	a4,a3,21ac <atol+0x1c>
    21a0:	0017c703          	lbu	a4,1(a5)
    21a4:	00178793          	addi	a5,a5,1
    21a8:	fed70ce3          	beq	a4,a3,21a0 <atol+0x10>
    21ac:	fd57069b          	addiw	a3,a4,-43
    21b0:	0fd6f693          	andi	a3,a3,253
    21b4:	04069463          	bnez	a3,21fc <atol+0x6c>
    21b8:	0017c683          	lbu	a3,1(a5)
    21bc:	fd370713          	addi	a4,a4,-45
    21c0:	00173613          	seqz	a2,a4
    21c4:	04068663          	beqz	a3,2210 <atol+0x80>
    21c8:	00178793          	addi	a5,a5,1
    21cc:	00000513          	li	a0,0
    21d0:	00178793          	addi	a5,a5,1
    21d4:	fd06859b          	addiw	a1,a3,-48
    21d8:	00251713          	slli	a4,a0,0x2
    21dc:	0007c683          	lbu	a3,0(a5)
    21e0:	00a70733          	add	a4,a4,a0
    21e4:	00171713          	slli	a4,a4,0x1
    21e8:	00e58533          	add	a0,a1,a4
    21ec:	fe0692e3          	bnez	a3,21d0 <atol+0x40>
    21f0:	00060463          	beqz	a2,21f8 <atol+0x68>
    21f4:	40a00533          	neg	a0,a0
    21f8:	00008067          	ret
    21fc:	0007c683          	lbu	a3,0(a5)
    2200:	00000613          	li	a2,0
    2204:	fc0694e3          	bnez	a3,21cc <atol+0x3c>
    2208:	00000513          	li	a0,0
    220c:	00008067          	ret
    2210:	00000513          	li	a0,0
    2214:	fddff06f          	j	21f0 <atol+0x60>

0000000000002218 <cputstring>:
    2218:	00054783          	lbu	a5,0(a0)
    221c:	04078063          	beqz	a5,225c <cputstring+0x44>
    2220:	10100593          	li	a1,257
    2224:	03059593          	slli	a1,a1,0x30
    2228:	fffff717          	auipc	a4,0xfffff
    222c:	dd870713          	addi	a4,a4,-552 # 1000 <tohost>
    2230:	00073603          	ld	a2,0(a4)
    2234:	00150513          	addi	a0,a0,1
    2238:	00b7e6b3          	or	a3,a5,a1
    223c:	00060a63          	beqz	a2,2250 <cputstring+0x38>
    2240:	fffff797          	auipc	a5,0xfffff
    2244:	e007b023          	sd	zero,-512(a5) # 1040 <fromhost>
    2248:	00073783          	ld	a5,0(a4)
    224c:	fe079ae3          	bnez	a5,2240 <cputstring+0x28>
    2250:	00d73023          	sd	a3,0(a4)
    2254:	00054783          	lbu	a5,0(a0)
    2258:	fc079ce3          	bnez	a5,2230 <cputstring+0x18>
    225c:	00008067          	ret

0000000000002260 <terminate>:
    2260:	fffff717          	auipc	a4,0xfffff
    2264:	da070713          	addi	a4,a4,-608 # 1000 <tohost>
    2268:	00073783          	ld	a5,0(a4)
    226c:	00078a63          	beqz	a5,2280 <terminate+0x20>
    2270:	fffff797          	auipc	a5,0xfffff
    2274:	dc07b823          	sd	zero,-560(a5) # 1040 <fromhost>
    2278:	00073783          	ld	a5,0(a4)
    227c:	fe079ae3          	bnez	a5,2270 <terminate+0x10>
    2280:	00a73023          	sd	a0,0(a4)
    2284:	0000006f          	j	2284 <terminate+0x24>

0000000000002288 <terminate.constprop.0>:
    2288:	fffff717          	auipc	a4,0xfffff
    228c:	d7870713          	addi	a4,a4,-648 # 1000 <tohost>
    2290:	00073783          	ld	a5,0(a4)
    2294:	00078a63          	beqz	a5,22a8 <terminate.constprop.0+0x20>
    2298:	fffff797          	auipc	a5,0xfffff
    229c:	da07b423          	sd	zero,-600(a5) # 1040 <fromhost>
    22a0:	00073783          	ld	a5,0(a4)
    22a4:	fe079ae3          	bnez	a5,2298 <terminate.constprop.0+0x10>
    22a8:	00300793          	li	a5,3
    22ac:	00f73023          	sd	a5,0(a4)
    22b0:	0000006f          	j	22b0 <terminate.constprop.0+0x28>

00000000000022b4 <wtf>:
    22b4:	ff010113          	addi	sp,sp,-16
    22b8:	34900513          	li	a0,841
    22bc:	00113423          	sd	ra,8(sp)
    22c0:	fa1ff0ef          	jal	2260 <terminate>

00000000000022c4 <printhex>:
    22c4:	fe010113          	addi	sp,sp,-32
    22c8:	00810613          	addi	a2,sp,8
    22cc:	01710713          	addi	a4,sp,23
    22d0:	00900593          	li	a1,9
    22d4:	0080006f          	j	22dc <printhex+0x18>
    22d8:	fff70713          	addi	a4,a4,-1
    22dc:	00f57693          	andi	a3,a0,15
    22e0:	00d5b7b3          	sltu	a5,a1,a3
    22e4:	40f007b3          	neg	a5,a5
    22e8:	0277f793          	andi	a5,a5,39
    22ec:	03078793          	addi	a5,a5,48
    22f0:	00d787b3          	add	a5,a5,a3
    22f4:	00f70023          	sb	a5,0(a4)
    22f8:	00455513          	srli	a0,a0,0x4
    22fc:	fce61ee3          	bne	a2,a4,22d8 <printhex+0x14>
    2300:	00814783          	lbu	a5,8(sp)
    2304:	00010c23          	sb	zero,24(sp)
    2308:	04078263          	beqz	a5,234c <printhex+0x88>
    230c:	10100513          	li	a0,257
    2310:	00060693          	mv	a3,a2
    2314:	03051513          	slli	a0,a0,0x30
    2318:	fffff717          	auipc	a4,0xfffff
    231c:	ce870713          	addi	a4,a4,-792 # 1000 <tohost>
    2320:	00073583          	ld	a1,0(a4)
    2324:	00168693          	addi	a3,a3,1
    2328:	00a7e633          	or	a2,a5,a0
    232c:	00058a63          	beqz	a1,2340 <printhex+0x7c>
    2330:	fffff797          	auipc	a5,0xfffff
    2334:	d007b823          	sd	zero,-752(a5) # 1040 <fromhost>
    2338:	00073783          	ld	a5,0(a4)
    233c:	fe079ae3          	bnez	a5,2330 <printhex+0x6c>
    2340:	0006c783          	lbu	a5,0(a3)
    2344:	00c73023          	sd	a2,0(a4)
    2348:	fc079ce3          	bnez	a5,2320 <printhex+0x5c>
    234c:	02010113          	addi	sp,sp,32
    2350:	00008067          	ret

0000000000002354 <handle_fault>:
    2354:	fc010113          	addi	sp,sp,-64
    2358:	00100793          	li	a5,1
    235c:	fffff737          	lui	a4,0xfffff
    2360:	02f12223          	sw	a5,36(sp)
    2364:	02113c23          	sd	ra,56(sp)
    2368:	02013423          	sd	zero,40(sp)
    236c:	00e506b3          	add	a3,a0,a4
    2370:	0003e7b7          	lui	a5,0x3e
    2374:	1af6f863          	bgeu	a3,a5,2524 <handle_fault+0x1d0>
    2378:	00e577b3          	and	a5,a0,a4
    237c:	00c7d893          	srli	a7,a5,0xc
    2380:	60088713          	addi	a4,a7,1536
    2384:	00371693          	slli	a3,a4,0x3
    2388:	00003817          	auipc	a6,0x3
    238c:	c7880813          	addi	a6,a6,-904 # 5000 <pt>
    2390:	00d806b3          	add	a3,a6,a3
    2394:	0006b683          	ld	a3,0(a3)
    2398:	12069263          	bnez	a3,24bc <handle_fault+0x168>
    239c:	00007697          	auipc	a3,0x7
    23a0:	c6c6b683          	ld	a3,-916(a3) # 9008 <freelist_head>
    23a4:	02813823          	sd	s0,48(sp)
    23a8:	1a068263          	beqz	a3,254c <handle_fault+0x1f8>
    23ac:	0086b603          	ld	a2,8(a3)
    23b0:	00007597          	auipc	a1,0x7
    23b4:	c505b583          	ld	a1,-944(a1) # 9000 <freelist_tail>
    23b8:	00007517          	auipc	a0,0x7
    23bc:	c4c53823          	sd	a2,-944(a0) # 9008 <freelist_head>
    23c0:	14b60c63          	beq	a2,a1,2518 <handle_fault+0x1c4>
    23c4:	00078513          	mv	a0,a5
    23c8:	02410613          	addi	a2,sp,36
    23cc:	02810593          	addi	a1,sp,40
    23d0:	0006b403          	ld	s0,0(a3)
    23d4:	00e13c23          	sd	a4,24(sp)
    23d8:	01113823          	sd	a7,16(sp)
    23dc:	00f13423          	sd	a5,8(sp)
    23e0:	00d13023          	sd	a3,0(sp)
    23e4:	60c000ef          	jal	29f0 <pf_filter>
    23e8:	00013683          	ld	a3,0(sp)
    23ec:	00813783          	ld	a5,8(sp)
    23f0:	01013883          	ld	a7,16(sp)
    23f4:	01813703          	ld	a4,24(sp)
    23f8:	00003817          	auipc	a6,0x3
    23fc:	c0880813          	addi	a6,a6,-1016 # 5000 <pt>
    2400:	0e051c63          	bnez	a0,24f8 <handle_fault+0x1a4>
    2404:	00c45613          	srli	a2,s0,0xc
    2408:	00a61613          	slli	a2,a2,0xa
    240c:	01f66613          	ori	a2,a2,31
    2410:	00371593          	slli	a1,a4,0x3
    2414:	00b805b3          	add	a1,a6,a1
    2418:	0c066513          	ori	a0,a2,192
    241c:	00a5b023          	sd	a0,0(a1)
    2420:	12078073          	sfence.vma	a5
    2424:	00002597          	auipc	a1,0x2
    2428:	bdc58593          	addi	a1,a1,-1060 # 4000 <user_mapping>
    242c:	00489893          	slli	a7,a7,0x4
    2430:	011585b3          	add	a1,a1,a7
    2434:	0005b503          	ld	a0,0(a1)
    2438:	12051263          	bnez	a0,255c <handle_fault+0x208>
    243c:	0006b883          	ld	a7,0(a3)
    2440:	00040537          	lui	a0,0x40
    2444:	0115b023          	sd	a7,0(a1)
    2448:	0086b683          	ld	a3,8(a3)
    244c:	00d5b423          	sd	a3,8(a1)
    2450:	10052573          	csrrs	a0,sstatus,a0
    2454:	ffe006b7          	lui	a3,0xffe00
    2458:	00d786b3          	add	a3,a5,a3
    245c:	000018b7          	lui	a7,0x1
    2460:	011688b3          	add	a7,a3,a7
    2464:	00078593          	mv	a1,a5
    2468:	0106b303          	ld	t1,16(a3) # ffffffffffe00010 <freelist_head+0xffffffffffdf7008>
    246c:	0006be83          	ld	t4,0(a3)
    2470:	0086be03          	ld	t3,8(a3)
    2474:	0065b823          	sd	t1,16(a1)
    2478:	01d5b023          	sd	t4,0(a1)
    247c:	01c5b423          	sd	t3,8(a1)
    2480:	0186b303          	ld	t1,24(a3)
    2484:	02068693          	addi	a3,a3,32
    2488:	02058593          	addi	a1,a1,32
    248c:	fe65bc23          	sd	t1,-8(a1)
    2490:	fd169ce3          	bne	a3,a7,2468 <handle_fault+0x114>
    2494:	10051073          	csrw	sstatus,a0
    2498:	00371713          	slli	a4,a4,0x3
    249c:	00e80733          	add	a4,a6,a4
    24a0:	00c73023          	sd	a2,0(a4) # fffffffffffff000 <freelist_head+0xffffffffffff5ff8>
    24a4:	12078073          	sfence.vma	a5
    24a8:	0000100f          	fence.i
    24ac:	03013403          	ld	s0,48(sp)
    24b0:	03813083          	ld	ra,56(sp)
    24b4:	04010113          	addi	sp,sp,64
    24b8:	00008067          	ret
    24bc:	0406f613          	andi	a2,a3,64
    24c0:	04060863          	beqz	a2,2510 <handle_fault+0x1bc>
    24c4:	ff158593          	addi	a1,a1,-15
    24c8:	0076d613          	srli	a2,a3,0x7
    24cc:	0015b593          	seqz	a1,a1
    24d0:	40c5f633          	andn	a2,a1,a2
    24d4:	0806e693          	ori	a3,a3,128
    24d8:	06060063          	beqz	a2,2538 <handle_fault+0x1e4>
    24dc:	00371713          	slli	a4,a4,0x3
    24e0:	00e80733          	add	a4,a6,a4
    24e4:	00d73023          	sd	a3,0(a4)
    24e8:	12078073          	sfence.vma	a5
    24ec:	03813083          	ld	ra,56(sp)
    24f0:	04010113          	addi	sp,sp,64
    24f4:	00008067          	ret
    24f8:	0006b603          	ld	a2,0(a3)
    24fc:	02813583          	ld	a1,40(sp)
    2500:	00c65613          	srli	a2,a2,0xc
    2504:	00a61613          	slli	a2,a2,0xa
    2508:	00b66633          	or	a2,a2,a1
    250c:	f05ff06f          	j	2410 <handle_fault+0xbc>
    2510:	0406e693          	ori	a3,a3,64
    2514:	fc9ff06f          	j	24dc <handle_fault+0x188>
    2518:	00007617          	auipc	a2,0x7
    251c:	ae063423          	sd	zero,-1304(a2) # 9000 <freelist_tail>
    2520:	ea5ff06f          	j	23c4 <handle_fault+0x70>
    2524:	00001517          	auipc	a0,0x1
    2528:	cac50513          	addi	a0,a0,-852 # 31d0 <pass+0xc>
    252c:	02813823          	sd	s0,48(sp)
    2530:	ce9ff0ef          	jal	2218 <cputstring>
    2534:	d55ff0ef          	jal	2288 <terminate.constprop.0>
    2538:	00001517          	auipc	a0,0x1
    253c:	ce850513          	addi	a0,a0,-792 # 3220 <pass+0x5c>
    2540:	02813823          	sd	s0,48(sp)
    2544:	cd5ff0ef          	jal	2218 <cputstring>
    2548:	d41ff0ef          	jal	2288 <terminate.constprop.0>
    254c:	00001517          	auipc	a0,0x1
    2550:	d1c50513          	addi	a0,a0,-740 # 3268 <pass+0xa4>
    2554:	cc5ff0ef          	jal	2218 <cputstring>
    2558:	d31ff0ef          	jal	2288 <terminate.constprop.0>
    255c:	00001517          	auipc	a0,0x1
    2560:	d2450513          	addi	a0,a0,-732 # 3280 <pass+0xbc>
    2564:	cb5ff0ef          	jal	2218 <cputstring>
    2568:	d21ff0ef          	jal	2288 <terminate.constprop.0>

000000000000256c <handle_trap>:
    256c:	fb010113          	addi	sp,sp,-80
    2570:	04813023          	sd	s0,64(sp)
    2574:	04113423          	sd	ra,72(sp)
    2578:	00050413          	mv	s0,a0
    257c:	46c000ef          	jal	29e8 <trap_filter>
    2580:	0c051263          	bnez	a0,2644 <handle_trap+0xd8>
    2584:	11843583          	ld	a1,280(s0)
    2588:	00800793          	li	a5,8
    258c:	0ef58063          	beq	a1,a5,266c <handle_trap+0x100>
    2590:	00200793          	li	a5,2
    2594:	02f58c63          	beq	a1,a5,25cc <handle_trap+0x60>
    2598:	ff458793          	addi	a5,a1,-12
    259c:	ff158713          	addi	a4,a1,-15
    25a0:	0027b793          	sltiu	a5,a5,2
    25a4:	00173713          	seqz	a4,a4
    25a8:	00e7e7b3          	or	a5,a5,a4
    25ac:	20078663          	beqz	a5,27b8 <handle_trap+0x24c>
    25b0:	11043503          	ld	a0,272(s0)
    25b4:	da1ff0ef          	jal	2354 <handle_fault>
    25b8:	00040513          	mv	a0,s0
    25bc:	04013403          	ld	s0,64(sp)
    25c0:	04813083          	ld	ra,72(sp)
    25c4:	05010113          	addi	sp,sp,80
    25c8:	b05fd06f          	j	cc <pop_tf>
    25cc:	10843783          	ld	a5,264(s0)
    25d0:	0037f713          	andi	a4,a5,3
    25d4:	08071263          	bnez	a4,2658 <handle_trap+0xec>
    25d8:	0007a703          	lw	a4,0(a5) # 3e000 <freelist_head+0x34ff8>
    25dc:	008007ef          	jal	a5,25e4 <handle_trap+0x78>
    25e0:	00301073          	fscsr	zero
    25e4:	0007a783          	lw	a5,0(a5)
    25e8:	02913c23          	sd	s1,56(sp)
    25ec:	06f70263          	beq	a4,a5,2650 <handle_trap+0xe4>
    25f0:	10100513          	li	a0,257
    25f4:	03051513          	slli	a0,a0,0x30
    25f8:	04100793          	li	a5,65
    25fc:	00001697          	auipc	a3,0x1
    2600:	cc468693          	addi	a3,a3,-828 # 32c0 <pass+0xfc>
    2604:	fffff717          	auipc	a4,0xfffff
    2608:	9fc70713          	addi	a4,a4,-1540 # 1000 <tohost>
    260c:	00001817          	auipc	a6,0x1
    2610:	cdd80813          	addi	a6,a6,-803 # 32e9 <pass+0x125>
    2614:	00073583          	ld	a1,0(a4)
    2618:	00168693          	addi	a3,a3,1
    261c:	00a7e633          	or	a2,a5,a0
    2620:	00058a63          	beqz	a1,2634 <handle_trap+0xc8>
    2624:	fffff797          	auipc	a5,0xfffff
    2628:	a007be23          	sd	zero,-1508(a5) # 1040 <fromhost>
    262c:	00073783          	ld	a5,0(a4)
    2630:	fe079ae3          	bnez	a5,2624 <handle_trap+0xb8>
    2634:	00c73023          	sd	a2,0(a4)
    2638:	0006c783          	lbu	a5,0(a3)
    263c:	fd069ce3          	bne	a3,a6,2614 <handle_trap+0xa8>
    2640:	c49ff0ef          	jal	2288 <terminate.constprop.0>
    2644:	00040513          	mv	a0,s0
    2648:	a85fd0ef          	jal	cc <pop_tf>
    264c:	f39ff06f          	j	2584 <handle_trap+0x18>
    2650:	00100513          	li	a0,1
    2654:	c0dff0ef          	jal	2260 <terminate>
    2658:	00001517          	auipc	a0,0x1
    265c:	d0850513          	addi	a0,a0,-760 # 3360 <pass+0x19c>
    2660:	02913c23          	sd	s1,56(sp)
    2664:	bb5ff0ef          	jal	2218 <cputstring>
    2668:	c21ff0ef          	jal	2288 <terminate.constprop.0>
    266c:	05043e03          	ld	t3,80(s0)
    2670:	00001437          	lui	s0,0x1
    2674:	02913c23          	sd	s1,56(sp)
    2678:	00040313          	mv	t1,s0
    267c:	00002897          	auipc	a7,0x2
    2680:	98488893          	addi	a7,a7,-1660 # 4000 <user_mapping>
    2684:	00003297          	auipc	t0,0x3
    2688:	97c28293          	addi	t0,t0,-1668 # 5000 <pt>
    268c:	00040fb7          	lui	t6,0x40
    2690:	ffe00f37          	lui	t5,0xffe00
    2694:	0003feb7          	lui	t4,0x3f
    2698:	00c45793          	srli	a5,s0,0xc
    269c:	00479713          	slli	a4,a5,0x4
    26a0:	00e886b3          	add	a3,a7,a4
    26a4:	0006b683          	ld	a3,0(a3)
    26a8:	0e068063          	beqz	a3,2788 <handle_trap+0x21c>
    26ac:	60078793          	addi	a5,a5,1536
    26b0:	00379793          	slli	a5,a5,0x3
    26b4:	00f287b3          	add	a5,t0,a5
    26b8:	0007b683          	ld	a3,0(a5)
    26bc:	0406f793          	andi	a5,a3,64
    26c0:	0e078463          	beqz	a5,27a8 <handle_trap+0x23c>
    26c4:	02e13423          	sd	a4,40(sp)
    26c8:	02d13023          	sd	a3,32(sp)
    26cc:	01c13c23          	sd	t3,24(sp)
    26d0:	100fa3f3          	csrrs	t2,sstatus,t6
    26d4:	01e407b3          	add	a5,s0,t5
    26d8:	00078593          	mv	a1,a5
    26dc:	00040513          	mv	a0,s0
    26e0:	00001637          	lui	a2,0x1
    26e4:	00713823          	sd	t2,16(sp)
    26e8:	00f13423          	sd	a5,8(sp)
    26ec:	a15ff0ef          	jal	2100 <memcmp>
    26f0:	01013383          	ld	t2,16(sp)
    26f4:	01813e03          	ld	t3,24(sp)
    26f8:	02813703          	ld	a4,40(sp)
    26fc:	ffe00f37          	lui	t5,0xffe00
    2700:	00040fb7          	lui	t6,0x40
    2704:	00002897          	auipc	a7,0x2
    2708:	8fc88893          	addi	a7,a7,-1796 # 4000 <user_mapping>
    270c:	00003297          	auipc	t0,0x3
    2710:	8f428293          	addi	t0,t0,-1804 # 5000 <pt>
    2714:	00001337          	lui	t1,0x1
    2718:	00007817          	auipc	a6,0x7
    271c:	8e880813          	addi	a6,a6,-1816 # 9000 <freelist_tail>
    2720:	0003feb7          	lui	t4,0x3f
    2724:	04050463          	beqz	a0,276c <handle_trap+0x200>
    2728:	02013683          	ld	a3,32(sp)
    272c:	00813783          	ld	a5,8(sp)
    2730:	0806f693          	andi	a3,a3,128
    2734:	08068c63          	beqz	a3,27cc <handle_trap+0x260>
    2738:	00040693          	mv	a3,s0
    273c:	00640633          	add	a2,s0,t1
    2740:	0106b583          	ld	a1,16(a3)
    2744:	0086b503          	ld	a0,8(a3)
    2748:	0006b483          	ld	s1,0(a3)
    274c:	00b7b823          	sd	a1,16(a5)
    2750:	00a7b423          	sd	a0,8(a5)
    2754:	0097b023          	sd	s1,0(a5)
    2758:	0186b583          	ld	a1,24(a3)
    275c:	02068693          	addi	a3,a3,32
    2760:	02078793          	addi	a5,a5,32
    2764:	feb7bc23          	sd	a1,-8(a5)
    2768:	fcc69ce3          	bne	a3,a2,2740 <handle_trap+0x1d4>
    276c:	00e887b3          	add	a5,a7,a4
    2770:	10039073          	csrw	sstatus,t2
    2774:	00083703          	ld	a4,0(a6)
    2778:	0007b023          	sd	zero,0(a5)
    277c:	00070e63          	beqz	a4,2798 <handle_trap+0x22c>
    2780:	00f73423          	sd	a5,8(a4)
    2784:	00f83023          	sd	a5,0(a6)
    2788:	00640433          	add	s0,s0,t1
    278c:	f1d416e3          	bne	s0,t4,2698 <handle_trap+0x12c>
    2790:	000e051b          	sext.w	a0,t3
    2794:	acdff0ef          	jal	2260 <terminate>
    2798:	00f83023          	sd	a5,0(a6)
    279c:	00007717          	auipc	a4,0x7
    27a0:	86f73623          	sd	a5,-1940(a4) # 9008 <freelist_head>
    27a4:	fe5ff06f          	j	2788 <handle_trap+0x21c>
    27a8:	00001517          	auipc	a0,0x1
    27ac:	b4850513          	addi	a0,a0,-1208 # 32f0 <pass+0x12c>
    27b0:	a69ff0ef          	jal	2218 <cputstring>
    27b4:	ad5ff0ef          	jal	2288 <terminate.constprop.0>
    27b8:	00001517          	auipc	a0,0x1
    27bc:	bd050513          	addi	a0,a0,-1072 # 3388 <pass+0x1c4>
    27c0:	02913c23          	sd	s1,56(sp)
    27c4:	a55ff0ef          	jal	2218 <cputstring>
    27c8:	e79ff06f          	j	2640 <handle_trap+0xd4>
    27cc:	00001517          	auipc	a0,0x1
    27d0:	b5c50513          	addi	a0,a0,-1188 # 3328 <pass+0x164>
    27d4:	a45ff0ef          	jal	2218 <cputstring>
    27d8:	ab1ff0ef          	jal	2288 <terminate.constprop.0>

00000000000027dc <vm_boot>:
    27dc:	f14027f3          	csrr	a5,mhartid
    27e0:	1a079263          	bnez	a5,2984 <vm_boot+0x1a8>
    27e4:	00004817          	auipc	a6,0x4
    27e8:	81c80813          	addi	a6,a6,-2020 # 6000 <pt+0x1000>
    27ec:	00006897          	auipc	a7,0x6
    27f0:	81488893          	addi	a7,a7,-2028 # 8000 <pt+0x3000>
    27f4:	00005797          	auipc	a5,0x5
    27f8:	80c78793          	addi	a5,a5,-2036 # 7000 <pt+0x2000>
    27fc:	ed010113          	addi	sp,sp,-304
    2800:	00c8d693          	srli	a3,a7,0xc
    2804:	00c85713          	srli	a4,a6,0xc
    2808:	00c7d793          	srli	a5,a5,0xc
    280c:	12813023          	sd	s0,288(sp)
    2810:	00002317          	auipc	t1,0x2
    2814:	7f030313          	addi	t1,t1,2032 # 5000 <pt>
    2818:	00050413          	mv	s0,a0
    281c:	fff00613          	li	a2,-1
    2820:	00a79793          	slli	a5,a5,0xa
    2824:	00a69693          	slli	a3,a3,0xa
    2828:	00a71713          	slli	a4,a4,0xa
    282c:	20000537          	lui	a0,0x20000
    2830:	12113423          	sd	ra,296(sp)
    2834:	0017e793          	ori	a5,a5,1
    2838:	0016e693          	ori	a3,a3,1
    283c:	00176713          	ori	a4,a4,1
    2840:	00c35593          	srli	a1,t1,0xc
    2844:	03f61e13          	slli	t3,a2,0x3f
    2848:	0cf50513          	addi	a0,a0,207 # 200000cf <freelist_head+0x1fff70c7>
    284c:	fef83c23          	sd	a5,-8(a6)
    2850:	00d83023          	sd	a3,0(a6)
    2854:	00e33023          	sd	a4,0(t1)
    2858:	01c5e7b3          	or	a5,a1,t3
    285c:	fea8bc23          	sd	a0,-8(a7)
    2860:	18079073          	csrw	satp,a5
    2864:	18002773          	csrr	a4,satp
    2868:	16e79663          	bne	a5,a4,29d4 <vm_boot+0x1f8>
    286c:	800007b7          	lui	a5,0x80000
    2870:	12078073          	sfence.vma	a5
    2874:	01f00793          	li	a5,31
    2878:	00b65613          	srli	a2,a2,0xb
    287c:	00000297          	auipc	t0,0x0
    2880:	01428293          	addi	t0,t0,20 # 2890 <vm_boot+0xb4>
    2884:	305292f3          	csrrw	t0,mtvec,t0
    2888:	3b061073          	csrw	pmpaddr0,a2
    288c:	3a079073          	csrw	pmpcfg0,a5
    2890:	30529073          	csrw	mtvec,t0
    2894:	bff00693          	li	a3,-1025
    2898:	01569693          	slli	a3,a3,0x15
    289c:	ffffe797          	auipc	a5,0xffffe
    28a0:	8b878793          	addi	a5,a5,-1864 # 154 <trap_entry>
    28a4:	00d787b3          	add	a5,a5,a3
    28a8:	10579073          	csrw	stvec,a5
    28ac:	340027f3          	csrr	a5,mscratch
    28b0:	00d787b3          	add	a5,a5,a3
    28b4:	14079073          	csrw	sscratch,a5
    28b8:	0000b7b7          	lui	a5,0xb
    28bc:	1007879b          	addiw	a5,a5,256 # b100 <freelist_head+0x20f8>
    28c0:	30279073          	csrw	medeleg,a5
    28c4:	0001e7b7          	lui	a5,0x1e
    28c8:	6007879b          	addiw	a5,a5,1536 # 1e600 <freelist_head+0x155f8>
    28cc:	30079073          	csrw	mstatus,a5
    28d0:	30405073          	csrwi	mie,0
    28d4:	00002717          	auipc	a4,0x2
    28d8:	b1c70713          	addi	a4,a4,-1252 # 43f0 <freelist_nodes>
    28dc:	3e068793          	addi	a5,a3,992
    28e0:	bff00813          	li	a6,-1025
    28e4:	00d706b3          	add	a3,a4,a3
    28e8:	00f707b3          	add	a5,a4,a5
    28ec:	01581813          	slli	a6,a6,0x15
    28f0:	000808b7          	lui	a7,0x80
    28f4:	00006617          	auipc	a2,0x6
    28f8:	70d63a23          	sd	a3,1812(a2) # 9008 <freelist_head>
    28fc:	01080813          	addi	a6,a6,16
    2900:	00006697          	auipc	a3,0x6
    2904:	70f6b023          	sd	a5,1792(a3) # 9000 <freelist_tail>
    2908:	03f88893          	addi	a7,a7,63 # 8003f <freelist_head+0x77037>
    290c:	00002317          	auipc	t1,0x2
    2910:	ed430313          	addi	t1,t1,-300 # 47e0 <freelist_nodes+0x3f0>
    2914:	03700793          	li	a5,55
    2918:	0017d613          	srli	a2,a5,0x1
    291c:	00f646b3          	xor	a3,a2,a5
    2920:	011787b3          	add	a5,a5,a7
    2924:	00c79793          	slli	a5,a5,0xc
    2928:	010705b3          	add	a1,a4,a6
    292c:	00569693          	slli	a3,a3,0x5
    2930:	00f73023          	sd	a5,0(a4)
    2934:	0206f693          	andi	a3,a3,32
    2938:	00b73423          	sd	a1,8(a4)
    293c:	01070713          	addi	a4,a4,16
    2940:	00d667b3          	or	a5,a2,a3
    2944:	fce31ae3          	bne	t1,a4,2918 <vm_boot+0x13c>
    2948:	00010513          	mv	a0,sp
    294c:	12000613          	li	a2,288
    2950:	00000593          	li	a1,0
    2954:	00002797          	auipc	a5,0x2
    2958:	e807b223          	sd	zero,-380(a5) # 47d8 <freelist_nodes+0x3e8>
    295c:	f00ff0ef          	jal	205c <memset>
    2960:	800007b7          	lui	a5,0x80000
    2964:	00f40433          	add	s0,s0,a5
    2968:	00010513          	mv	a0,sp
    296c:	10813423          	sd	s0,264(sp)
    2970:	f5cfd0ef          	jal	cc <pop_tf>
    2974:	12813083          	ld	ra,296(sp)
    2978:	12013403          	ld	s0,288(sp)
    297c:	13010113          	addi	sp,sp,304
    2980:	00008067          	ret
    2984:	00100693          	li	a3,1
    2988:	044417b7          	lui	a5,0x4441
    298c:	00080637          	lui	a2,0x80
    2990:	8be78793          	addi	a5,a5,-1858 # 44408be <freelist_head+0x44378b6>
    2994:	ffc60613          	addi	a2,a2,-4 # 7fffc <freelist_head+0x76ff4>
    2998:	03e69693          	slli	a3,a3,0x3e
    299c:	80000537          	lui	a0,0x80000
    29a0:	01c0006f          	j	29bc <vm_boot+0x1e0>
    29a4:	0007202f          	amoadd.w	zero,zero,(a4)
    29a8:	0017d713          	srli	a4,a5,0x1
    29ac:	00e7c7b3          	xor	a5,a5,a4
    29b0:	03e79793          	slli	a5,a5,0x3e
    29b4:	00d7f7b3          	and	a5,a5,a3
    29b8:	00e7e7b3          	or	a5,a5,a4
    29bc:	00c7f733          	and	a4,a5,a2
    29c0:	0017f593          	andi	a1,a5,1
    29c4:	40a70733          	sub	a4,a4,a0
    29c8:	fc059ee3          	bnez	a1,29a4 <vm_boot+0x1c8>
    29cc:	00072003          	lw	zero,0(a4)
    29d0:	fd9ff06f          	j	29a8 <vm_boot+0x1cc>
    29d4:	00001517          	auipc	a0,0x1
    29d8:	9e450513          	addi	a0,a0,-1564 # 33b8 <pass+0x1f4>
    29dc:	83dff0ef          	jal	2218 <cputstring>
    29e0:	8a9ff0ef          	jal	2288 <terminate.constprop.0>

00000000000029e4 <extra_boot>:
    29e4:	00008067          	ret

00000000000029e8 <trap_filter>:
    29e8:	00000513          	li	a0,0
    29ec:	00008067          	ret

00000000000029f0 <pf_filter>:
    29f0:	00000513          	li	a0,0
    29f4:	00008067          	ret

00000000000029f8 <userstart>:
    29f8:	00200193          	li	gp,2
    29fc:	123455b7          	lui	a1,0x12345
    2a00:	6785859b          	addiw	a1,a1,1656 # 12345678 <freelist_head+0x1233c670>
    2a04:	0004d637          	lui	a2,0x4d
    2a08:	5e76061b          	addiw	a2,a2,1511 # 4d5e7 <freelist_head+0x445df>
    2a0c:	00d61613          	slli	a2,a2,0xd
    2a10:	ef060613          	addi	a2,a2,-272
    2a14:	08c5c733          	pack	a4,a1,a2
    2a18:	ff9ac3b7          	lui	t2,0xff9ac
    2a1c:	cdf3839b          	addiw	t2,t2,-801 # ffffffffff9abcdf <freelist_head+0xffffffffff9a2cd7>
    2a20:	00f39393          	slli	t2,t2,0xf
    2a24:	80938393          	addi	t2,t2,-2039
    2a28:	00d39393          	slli	t2,t2,0xd
    2a2c:	34538393          	addi	t2,t2,837
    2a30:	00c39393          	slli	t2,t2,0xc
    2a34:	67838393          	addi	t2,t2,1656
    2a38:	76771e63          	bne	a4,t2,31b4 <fail>

0000000000002a3c <test_3>:
    2a3c:	00300193          	li	gp,3
    2a40:	000105b7          	lui	a1,0x10
    2a44:	fff5859b          	addiw	a1,a1,-1 # ffff <freelist_head+0x6ff7>
    2a48:	00010637          	lui	a2,0x10
    2a4c:	fff6061b          	addiw	a2,a2,-1 # ffff <freelist_head+0x6ff7>
    2a50:	01061613          	slli	a2,a2,0x10
    2a54:	08c5c733          	pack	a4,a1,a2
    2a58:	fff0039b          	addiw	t2,zero,-1
    2a5c:	02039393          	slli	t2,t2,0x20
    2a60:	00138393          	addi	t2,t2,1
    2a64:	01039393          	slli	t2,t2,0x10
    2a68:	fff38393          	addi	t2,t2,-1
    2a6c:	74771463          	bne	a4,t2,31b4 <fail>

0000000000002a70 <test_4>:
    2a70:	00400193          	li	gp,4
    2a74:	0010059b          	addiw	a1,zero,1
    2a78:	02059593          	slli	a1,a1,0x20
    2a7c:	fff58593          	addi	a1,a1,-1
    2a80:	0010061b          	addiw	a2,zero,1
    2a84:	02061613          	slli	a2,a2,0x20
    2a88:	fff60613          	addi	a2,a2,-1
    2a8c:	08c5c733          	pack	a4,a1,a2
    2a90:	fff00393          	li	t2,-1
    2a94:	72771063          	bne	a4,t2,31b4 <fail>

0000000000002a98 <test_5>:
    2a98:	00500193          	li	gp,5
    2a9c:	00000593          	li	a1,0
    2aa0:	00000613          	li	a2,0
    2aa4:	08c5c733          	pack	a4,a1,a2
    2aa8:	00000393          	li	t2,0
    2aac:	70771463          	bne	a4,t2,31b4 <fail>

0000000000002ab0 <test_6>:
    2ab0:	00600193          	li	gp,6
    2ab4:	000ab5b7          	lui	a1,0xab
    2ab8:	aab5859b          	addiw	a1,a1,-1365 # aaaab <freelist_head+0xa1aa3>
    2abc:	00c59593          	slli	a1,a1,0xc
    2ac0:	aaa58593          	addi	a1,a1,-1366
    2ac4:	55555637          	lui	a2,0x55555
    2ac8:	5556061b          	addiw	a2,a2,1365 # 55555555 <freelist_head+0x5554c54d>
    2acc:	08c5c733          	pack	a4,a1,a2
    2ad0:	055553b7          	lui	t2,0x5555
    2ad4:	5553839b          	addiw	t2,t2,1365 # 5555555 <freelist_head+0x554c54d>
    2ad8:	00c39393          	slli	t2,t2,0xc
    2adc:	5ab38393          	addi	t2,t2,1451
    2ae0:	00c39393          	slli	t2,t2,0xc
    2ae4:	aab38393          	addi	t2,t2,-1365
    2ae8:	00c39393          	slli	t2,t2,0xc
    2aec:	aaa38393          	addi	t2,t2,-1366
    2af0:	6c771263          	bne	a4,t2,31b4 <fail>

0000000000002af4 <test_7>:
    2af4:	00700193          	li	gp,7
    2af8:	004495b7          	lui	a1,0x449
    2afc:	8cd5859b          	addiw	a1,a1,-1843 # 4488cd <freelist_head+0x43f8c5>
    2b00:	00e59593          	slli	a1,a1,0xe
    2b04:	45558593          	addi	a1,a1,1109
    2b08:	00c59593          	slli	a1,a1,0xc
    2b0c:	66758593          	addi	a1,a1,1639
    2b10:	00c59593          	slli	a1,a1,0xc
    2b14:	78858593          	addi	a1,a1,1928
    2b18:	ffe67637          	lui	a2,0xffe67
    2b1c:	aaf6061b          	addiw	a2,a2,-1361 # ffffffffffe66aaf <freelist_head+0xffffffffffe5daa7>
    2b20:	00d61613          	slli	a2,a2,0xd
    2b24:	e6760613          	addi	a2,a2,-409
    2b28:	00d61613          	slli	a2,a2,0xd
    2b2c:	def60613          	addi	a2,a2,-529
    2b30:	01061613          	slli	a2,a2,0x10
    2b34:	f0060613          	addi	a2,a2,-256
    2b38:	08c5c733          	pack	a4,a1,a2
    2b3c:	ffddf3b7          	lui	t2,0xffddf
    2b40:	eff3839b          	addiw	t2,t2,-257 # ffffffffffddeeff <freelist_head+0xffffffffffdd5ef7>
    2b44:	01039393          	slli	t2,t2,0x10
    2b48:	05538393          	addi	t2,t2,85
    2b4c:	00c39393          	slli	t2,t2,0xc
    2b50:	66738393          	addi	t2,t2,1639
    2b54:	00c39393          	slli	t2,t2,0xc
    2b58:	78838393          	addi	t2,t2,1928
    2b5c:	64771c63          	bne	a4,t2,31b4 <fail>

0000000000002b60 <test_8>:
    2b60:	00800193          	li	gp,8
    2b64:	0010059b          	addiw	a1,zero,1
    2b68:	02059593          	slli	a1,a1,0x20
    2b6c:	fff58593          	addi	a1,a1,-1
    2b70:	fff0061b          	addiw	a2,zero,-1
    2b74:	02061613          	slli	a2,a2,0x20
    2b78:	08c5c733          	pack	a4,a1,a2
    2b7c:	0010039b          	addiw	t2,zero,1
    2b80:	02039393          	slli	t2,t2,0x20
    2b84:	fff38393          	addi	t2,t2,-1
    2b88:	62771663          	bne	a4,t2,31b4 <fail>

0000000000002b8c <test_9>:
    2b8c:	00900193          	li	gp,9
    2b90:	fff00593          	li	a1,-1
    2b94:	fff00613          	li	a2,-1
    2b98:	08c5c733          	pack	a4,a1,a2
    2b9c:	fff00393          	li	t2,-1
    2ba0:	60771a63          	bne	a4,t2,31b4 <fail>

0000000000002ba4 <test_10>:
    2ba4:	00a00193          	li	gp,10
    2ba8:	00000593          	li	a1,0
    2bac:	00000613          	li	a2,0
    2bb0:	08c5c733          	pack	a4,a1,a2
    2bb4:	00000393          	li	t2,0
    2bb8:	5e771e63          	bne	a4,t2,31b4 <fail>

0000000000002bbc <test_11>:
    2bbc:	00b00193          	li	gp,11
    2bc0:	faaab5b7          	lui	a1,0xfaaab
    2bc4:	aab5859b          	addiw	a1,a1,-1365 # fffffffffaaaaaab <freelist_head+0xfffffffffaaa1aa3>
    2bc8:	00c59593          	slli	a1,a1,0xc
    2bcc:	aab58593          	addi	a1,a1,-1365
    2bd0:	00c59593          	slli	a1,a1,0xc
    2bd4:	aab58593          	addi	a1,a1,-1365
    2bd8:	00c59593          	slli	a1,a1,0xc
    2bdc:	aaa58593          	addi	a1,a1,-1366
    2be0:	05555637          	lui	a2,0x5555
    2be4:	5556061b          	addiw	a2,a2,1365 # 5555555 <freelist_head+0x554c54d>
    2be8:	00c61613          	slli	a2,a2,0xc
    2bec:	55560613          	addi	a2,a2,1365
    2bf0:	00c61613          	slli	a2,a2,0xc
    2bf4:	55560613          	addi	a2,a2,1365
    2bf8:	00c61613          	slli	a2,a2,0xc
    2bfc:	55560613          	addi	a2,a2,1365
    2c00:	08c5c733          	pack	a4,a1,a2
    2c04:	055553b7          	lui	t2,0x5555
    2c08:	5553839b          	addiw	t2,t2,1365 # 5555555 <freelist_head+0x554c54d>
    2c0c:	00c39393          	slli	t2,t2,0xc
    2c10:	5ab38393          	addi	t2,t2,1451
    2c14:	00c39393          	slli	t2,t2,0xc
    2c18:	aab38393          	addi	t2,t2,-1365
    2c1c:	00c39393          	slli	t2,t2,0xc
    2c20:	aaa38393          	addi	t2,t2,-1366
    2c24:	58771863          	bne	a4,t2,31b4 <fail>

0000000000002c28 <test_12>:
    2c28:	00c00193          	li	gp,12
    2c2c:	123455b7          	lui	a1,0x12345
    2c30:	6785859b          	addiw	a1,a1,1656 # 12345678 <freelist_head+0x1233c670>
    2c34:	0004d637          	lui	a2,0x4d
    2c38:	5e76061b          	addiw	a2,a2,1511 # 4d5e7 <freelist_head+0x445df>
    2c3c:	00d61613          	slli	a2,a2,0xd
    2c40:	ef060613          	addi	a2,a2,-272
    2c44:	08c5c5b3          	pack	a1,a1,a2
    2c48:	ff9ac3b7          	lui	t2,0xff9ac
    2c4c:	cdf3839b          	addiw	t2,t2,-801 # ffffffffff9abcdf <freelist_head+0xffffffffff9a2cd7>
    2c50:	00f39393          	slli	t2,t2,0xf
    2c54:	80938393          	addi	t2,t2,-2039
    2c58:	00d39393          	slli	t2,t2,0xd
    2c5c:	34538393          	addi	t2,t2,837
    2c60:	00c39393          	slli	t2,t2,0xc
    2c64:	67838393          	addi	t2,t2,1656
    2c68:	54759663          	bne	a1,t2,31b4 <fail>

0000000000002c6c <test_13>:
    2c6c:	00d00193          	li	gp,13
    2c70:	123455b7          	lui	a1,0x12345
    2c74:	6785859b          	addiw	a1,a1,1656 # 12345678 <freelist_head+0x1233c670>
    2c78:	0004d637          	lui	a2,0x4d
    2c7c:	5e76061b          	addiw	a2,a2,1511 # 4d5e7 <freelist_head+0x445df>
    2c80:	00d61613          	slli	a2,a2,0xd
    2c84:	ef060613          	addi	a2,a2,-272
    2c88:	08c5c633          	pack	a2,a1,a2
    2c8c:	ff9ac3b7          	lui	t2,0xff9ac
    2c90:	cdf3839b          	addiw	t2,t2,-801 # ffffffffff9abcdf <freelist_head+0xffffffffff9a2cd7>
    2c94:	00f39393          	slli	t2,t2,0xf
    2c98:	80938393          	addi	t2,t2,-2039
    2c9c:	00d39393          	slli	t2,t2,0xd
    2ca0:	34538393          	addi	t2,t2,837
    2ca4:	00c39393          	slli	t2,t2,0xc
    2ca8:	67838393          	addi	t2,t2,1656
    2cac:	50761463          	bne	a2,t2,31b4 <fail>

0000000000002cb0 <test_14>:
    2cb0:	00e00193          	li	gp,14
    2cb4:	0010059b          	addiw	a1,zero,1
    2cb8:	02059593          	slli	a1,a1,0x20
    2cbc:	fff58593          	addi	a1,a1,-1
    2cc0:	08b5c5b3          	pack	a1,a1,a1
    2cc4:	fff00393          	li	t2,-1
    2cc8:	4e759663          	bne	a1,t2,31b4 <fail>

0000000000002ccc <test_15>:
    2ccc:	00f00193          	li	gp,15
    2cd0:	00000213          	li	tp,0
    2cd4:	123450b7          	lui	ra,0x12345
    2cd8:	6780809b          	addiw	ra,ra,1656 # 12345678 <freelist_head+0x1233c670>
    2cdc:	0004d137          	lui	sp,0x4d
    2ce0:	5e71011b          	addiw	sp,sp,1511 # 4d5e7 <freelist_head+0x445df>
    2ce4:	00d11113          	slli	sp,sp,0xd
    2ce8:	ef010113          	addi	sp,sp,-272
    2cec:	0820c733          	pack	a4,ra,sp
    2cf0:	00070313          	mv	t1,a4
    2cf4:	00120213          	addi	tp,tp,1 # 1 <_start+0x1>
    2cf8:	00200293          	li	t0,2
    2cfc:	fc521ce3          	bne	tp,t0,2cd4 <test_15+0x8>
    2d00:	ff9ac3b7          	lui	t2,0xff9ac
    2d04:	cdf3839b          	addiw	t2,t2,-801 # ffffffffff9abcdf <freelist_head+0xffffffffff9a2cd7>
    2d08:	00f39393          	slli	t2,t2,0xf
    2d0c:	80938393          	addi	t2,t2,-2039
    2d10:	00d39393          	slli	t2,t2,0xd
    2d14:	34538393          	addi	t2,t2,837
    2d18:	00c39393          	slli	t2,t2,0xc
    2d1c:	67838393          	addi	t2,t2,1656
    2d20:	48731a63          	bne	t1,t2,31b4 <fail>

0000000000002d24 <test_16>:
    2d24:	01000193          	li	gp,16
    2d28:	00000213          	li	tp,0
    2d2c:	000100b7          	lui	ra,0x10
    2d30:	fff0809b          	addiw	ra,ra,-1 # ffff <freelist_head+0x6ff7>
    2d34:	00010137          	lui	sp,0x10
    2d38:	fff1011b          	addiw	sp,sp,-1 # ffff <freelist_head+0x6ff7>
    2d3c:	01011113          	slli	sp,sp,0x10
    2d40:	0820c733          	pack	a4,ra,sp
    2d44:	00000013          	nop
    2d48:	00070313          	mv	t1,a4
    2d4c:	00120213          	addi	tp,tp,1 # 1 <_start+0x1>
    2d50:	00200293          	li	t0,2
    2d54:	fc521ce3          	bne	tp,t0,2d2c <test_16+0x8>
    2d58:	fff0039b          	addiw	t2,zero,-1
    2d5c:	02039393          	slli	t2,t2,0x20
    2d60:	00138393          	addi	t2,t2,1
    2d64:	01039393          	slli	t2,t2,0x10
    2d68:	fff38393          	addi	t2,t2,-1
    2d6c:	44731463          	bne	t1,t2,31b4 <fail>

0000000000002d70 <test_17>:
    2d70:	01100193          	li	gp,17
    2d74:	00000213          	li	tp,0
    2d78:	0010009b          	addiw	ra,zero,1
    2d7c:	02009093          	slli	ra,ra,0x20
    2d80:	fff08093          	addi	ra,ra,-1
    2d84:	0010011b          	addiw	sp,zero,1
    2d88:	02011113          	slli	sp,sp,0x20
    2d8c:	fff10113          	addi	sp,sp,-1
    2d90:	0820c733          	pack	a4,ra,sp
    2d94:	00000013          	nop
    2d98:	00000013          	nop
    2d9c:	00070313          	mv	t1,a4
    2da0:	00120213          	addi	tp,tp,1 # 1 <_start+0x1>
    2da4:	00200293          	li	t0,2
    2da8:	fc5218e3          	bne	tp,t0,2d78 <test_17+0x8>
    2dac:	fff00393          	li	t2,-1
    2db0:	40731263          	bne	t1,t2,31b4 <fail>

0000000000002db4 <test_18>:
    2db4:	01200193          	li	gp,18
    2db8:	00000213          	li	tp,0
    2dbc:	123450b7          	lui	ra,0x12345
    2dc0:	6780809b          	addiw	ra,ra,1656 # 12345678 <freelist_head+0x1233c670>
    2dc4:	0004d137          	lui	sp,0x4d
    2dc8:	5e71011b          	addiw	sp,sp,1511 # 4d5e7 <freelist_head+0x445df>
    2dcc:	00d11113          	slli	sp,sp,0xd
    2dd0:	ef010113          	addi	sp,sp,-272
    2dd4:	0820c733          	pack	a4,ra,sp
    2dd8:	00120213          	addi	tp,tp,1 # 1 <_start+0x1>
    2ddc:	00200293          	li	t0,2
    2de0:	fc521ee3          	bne	tp,t0,2dbc <test_18+0x8>
    2de4:	ff9ac3b7          	lui	t2,0xff9ac
    2de8:	cdf3839b          	addiw	t2,t2,-801 # ffffffffff9abcdf <freelist_head+0xffffffffff9a2cd7>
    2dec:	00f39393          	slli	t2,t2,0xf
    2df0:	80938393          	addi	t2,t2,-2039
    2df4:	00d39393          	slli	t2,t2,0xd
    2df8:	34538393          	addi	t2,t2,837
    2dfc:	00c39393          	slli	t2,t2,0xc
    2e00:	67838393          	addi	t2,t2,1656
    2e04:	3a771863          	bne	a4,t2,31b4 <fail>

0000000000002e08 <test_19>:
    2e08:	01300193          	li	gp,19
    2e0c:	00000213          	li	tp,0
    2e10:	000100b7          	lui	ra,0x10
    2e14:	fff0809b          	addiw	ra,ra,-1 # ffff <freelist_head+0x6ff7>
    2e18:	00010137          	lui	sp,0x10
    2e1c:	fff1011b          	addiw	sp,sp,-1 # ffff <freelist_head+0x6ff7>
    2e20:	01011113          	slli	sp,sp,0x10
    2e24:	00000013          	nop
    2e28:	0820c733          	pack	a4,ra,sp
    2e2c:	00120213          	addi	tp,tp,1 # 1 <_start+0x1>
    2e30:	00200293          	li	t0,2
    2e34:	fc521ee3          	bne	tp,t0,2e10 <test_19+0x8>
    2e38:	fff0039b          	addiw	t2,zero,-1
    2e3c:	02039393          	slli	t2,t2,0x20
    2e40:	00138393          	addi	t2,t2,1
    2e44:	01039393          	slli	t2,t2,0x10
    2e48:	fff38393          	addi	t2,t2,-1
    2e4c:	36771463          	bne	a4,t2,31b4 <fail>

0000000000002e50 <test_20>:
    2e50:	01400193          	li	gp,20
    2e54:	00000213          	li	tp,0
    2e58:	0010009b          	addiw	ra,zero,1
    2e5c:	02009093          	slli	ra,ra,0x20
    2e60:	fff08093          	addi	ra,ra,-1
    2e64:	0010011b          	addiw	sp,zero,1
    2e68:	02011113          	slli	sp,sp,0x20
    2e6c:	fff10113          	addi	sp,sp,-1
    2e70:	00000013          	nop
    2e74:	00000013          	nop
    2e78:	0820c733          	pack	a4,ra,sp
    2e7c:	00120213          	addi	tp,tp,1 # 1 <_start+0x1>
    2e80:	00200293          	li	t0,2
    2e84:	fc521ae3          	bne	tp,t0,2e58 <test_20+0x8>
    2e88:	fff00393          	li	t2,-1
    2e8c:	32771463          	bne	a4,t2,31b4 <fail>

0000000000002e90 <test_21>:
    2e90:	01500193          	li	gp,21
    2e94:	00000213          	li	tp,0
    2e98:	123450b7          	lui	ra,0x12345
    2e9c:	6780809b          	addiw	ra,ra,1656 # 12345678 <freelist_head+0x1233c670>
    2ea0:	00000013          	nop
    2ea4:	0004d137          	lui	sp,0x4d
    2ea8:	5e71011b          	addiw	sp,sp,1511 # 4d5e7 <freelist_head+0x445df>
    2eac:	00d11113          	slli	sp,sp,0xd
    2eb0:	ef010113          	addi	sp,sp,-272
    2eb4:	0820c733          	pack	a4,ra,sp
    2eb8:	00120213          	addi	tp,tp,1 # 1 <_start+0x1>
    2ebc:	00200293          	li	t0,2
    2ec0:	fc521ce3          	bne	tp,t0,2e98 <test_21+0x8>
    2ec4:	ff9ac3b7          	lui	t2,0xff9ac
    2ec8:	cdf3839b          	addiw	t2,t2,-801 # ffffffffff9abcdf <freelist_head+0xffffffffff9a2cd7>
    2ecc:	00f39393          	slli	t2,t2,0xf
    2ed0:	80938393          	addi	t2,t2,-2039
    2ed4:	00d39393          	slli	t2,t2,0xd
    2ed8:	34538393          	addi	t2,t2,837
    2edc:	00c39393          	slli	t2,t2,0xc
    2ee0:	67838393          	addi	t2,t2,1656
    2ee4:	2c771863          	bne	a4,t2,31b4 <fail>

0000000000002ee8 <test_22>:
    2ee8:	01600193          	li	gp,22
    2eec:	00000213          	li	tp,0
    2ef0:	000100b7          	lui	ra,0x10
    2ef4:	fff0809b          	addiw	ra,ra,-1 # ffff <freelist_head+0x6ff7>
    2ef8:	00000013          	nop
    2efc:	00010137          	lui	sp,0x10
    2f00:	fff1011b          	addiw	sp,sp,-1 # ffff <freelist_head+0x6ff7>
    2f04:	01011113          	slli	sp,sp,0x10
    2f08:	00000013          	nop
    2f0c:	0820c733          	pack	a4,ra,sp
    2f10:	00120213          	addi	tp,tp,1 # 1 <_start+0x1>
    2f14:	00200293          	li	t0,2
    2f18:	fc521ce3          	bne	tp,t0,2ef0 <test_22+0x8>
    2f1c:	fff0039b          	addiw	t2,zero,-1
    2f20:	02039393          	slli	t2,t2,0x20
    2f24:	00138393          	addi	t2,t2,1
    2f28:	01039393          	slli	t2,t2,0x10
    2f2c:	fff38393          	addi	t2,t2,-1
    2f30:	28771263          	bne	a4,t2,31b4 <fail>

0000000000002f34 <test_23>:
    2f34:	01700193          	li	gp,23
    2f38:	00000213          	li	tp,0
    2f3c:	0010009b          	addiw	ra,zero,1
    2f40:	02009093          	slli	ra,ra,0x20
    2f44:	fff08093          	addi	ra,ra,-1
    2f48:	00000013          	nop
    2f4c:	00000013          	nop
    2f50:	0010011b          	addiw	sp,zero,1
    2f54:	02011113          	slli	sp,sp,0x20
    2f58:	fff10113          	addi	sp,sp,-1
    2f5c:	0820c733          	pack	a4,ra,sp
    2f60:	00120213          	addi	tp,tp,1 # 1 <_start+0x1>
    2f64:	00200293          	li	t0,2
    2f68:	fc521ae3          	bne	tp,t0,2f3c <test_23+0x8>
    2f6c:	fff00393          	li	t2,-1
    2f70:	24771263          	bne	a4,t2,31b4 <fail>

0000000000002f74 <test_24>:
    2f74:	01800193          	li	gp,24
    2f78:	00000213          	li	tp,0
    2f7c:	0004d137          	lui	sp,0x4d
    2f80:	5e71011b          	addiw	sp,sp,1511 # 4d5e7 <freelist_head+0x445df>
    2f84:	00d11113          	slli	sp,sp,0xd
    2f88:	ef010113          	addi	sp,sp,-272
    2f8c:	123450b7          	lui	ra,0x12345
    2f90:	6780809b          	addiw	ra,ra,1656 # 12345678 <freelist_head+0x1233c670>
    2f94:	0820c733          	pack	a4,ra,sp
    2f98:	00120213          	addi	tp,tp,1 # 1 <_start+0x1>
    2f9c:	00200293          	li	t0,2
    2fa0:	fc521ee3          	bne	tp,t0,2f7c <test_24+0x8>
    2fa4:	ff9ac3b7          	lui	t2,0xff9ac
    2fa8:	cdf3839b          	addiw	t2,t2,-801 # ffffffffff9abcdf <freelist_head+0xffffffffff9a2cd7>
    2fac:	00f39393          	slli	t2,t2,0xf
    2fb0:	80938393          	addi	t2,t2,-2039
    2fb4:	00d39393          	slli	t2,t2,0xd
    2fb8:	34538393          	addi	t2,t2,837
    2fbc:	00c39393          	slli	t2,t2,0xc
    2fc0:	67838393          	addi	t2,t2,1656
    2fc4:	1e771863          	bne	a4,t2,31b4 <fail>

0000000000002fc8 <test_25>:
    2fc8:	01900193          	li	gp,25
    2fcc:	00000213          	li	tp,0
    2fd0:	00010137          	lui	sp,0x10
    2fd4:	fff1011b          	addiw	sp,sp,-1 # ffff <freelist_head+0x6ff7>
    2fd8:	01011113          	slli	sp,sp,0x10
    2fdc:	000100b7          	lui	ra,0x10
    2fe0:	fff0809b          	addiw	ra,ra,-1 # ffff <freelist_head+0x6ff7>
    2fe4:	00000013          	nop
    2fe8:	0820c733          	pack	a4,ra,sp
    2fec:	00120213          	addi	tp,tp,1 # 1 <_start+0x1>
    2ff0:	00200293          	li	t0,2
    2ff4:	fc521ee3          	bne	tp,t0,2fd0 <test_25+0x8>
    2ff8:	fff0039b          	addiw	t2,zero,-1
    2ffc:	02039393          	slli	t2,t2,0x20
    3000:	00138393          	addi	t2,t2,1
    3004:	01039393          	slli	t2,t2,0x10
    3008:	fff38393          	addi	t2,t2,-1
    300c:	1a771463          	bne	a4,t2,31b4 <fail>

0000000000003010 <test_26>:
    3010:	01a00193          	li	gp,26
    3014:	00000213          	li	tp,0
    3018:	0010011b          	addiw	sp,zero,1
    301c:	02011113          	slli	sp,sp,0x20
    3020:	fff10113          	addi	sp,sp,-1
    3024:	0010009b          	addiw	ra,zero,1
    3028:	02009093          	slli	ra,ra,0x20
    302c:	fff08093          	addi	ra,ra,-1
    3030:	00000013          	nop
    3034:	00000013          	nop
    3038:	0820c733          	pack	a4,ra,sp
    303c:	00120213          	addi	tp,tp,1 # 1 <_start+0x1>
    3040:	00200293          	li	t0,2
    3044:	fc521ae3          	bne	tp,t0,3018 <test_26+0x8>
    3048:	fff00393          	li	t2,-1
    304c:	16771463          	bne	a4,t2,31b4 <fail>

0000000000003050 <test_27>:
    3050:	01b00193          	li	gp,27
    3054:	00000213          	li	tp,0
    3058:	0004d137          	lui	sp,0x4d
    305c:	5e71011b          	addiw	sp,sp,1511 # 4d5e7 <freelist_head+0x445df>
    3060:	00d11113          	slli	sp,sp,0xd
    3064:	ef010113          	addi	sp,sp,-272
    3068:	00000013          	nop
    306c:	123450b7          	lui	ra,0x12345
    3070:	6780809b          	addiw	ra,ra,1656 # 12345678 <freelist_head+0x1233c670>
    3074:	0820c733          	pack	a4,ra,sp
    3078:	00120213          	addi	tp,tp,1 # 1 <_start+0x1>
    307c:	00200293          	li	t0,2
    3080:	fc521ce3          	bne	tp,t0,3058 <test_27+0x8>
    3084:	ff9ac3b7          	lui	t2,0xff9ac
    3088:	cdf3839b          	addiw	t2,t2,-801 # ffffffffff9abcdf <freelist_head+0xffffffffff9a2cd7>
    308c:	00f39393          	slli	t2,t2,0xf
    3090:	80938393          	addi	t2,t2,-2039
    3094:	00d39393          	slli	t2,t2,0xd
    3098:	34538393          	addi	t2,t2,837
    309c:	00c39393          	slli	t2,t2,0xc
    30a0:	67838393          	addi	t2,t2,1656
    30a4:	10771863          	bne	a4,t2,31b4 <fail>

00000000000030a8 <test_28>:
    30a8:	01c00193          	li	gp,28
    30ac:	00000213          	li	tp,0
    30b0:	00010137          	lui	sp,0x10
    30b4:	fff1011b          	addiw	sp,sp,-1 # ffff <freelist_head+0x6ff7>
    30b8:	01011113          	slli	sp,sp,0x10
    30bc:	00000013          	nop
    30c0:	000100b7          	lui	ra,0x10
    30c4:	fff0809b          	addiw	ra,ra,-1 # ffff <freelist_head+0x6ff7>
    30c8:	00000013          	nop
    30cc:	0820c733          	pack	a4,ra,sp
    30d0:	00120213          	addi	tp,tp,1 # 1 <_start+0x1>
    30d4:	00200293          	li	t0,2
    30d8:	fc521ce3          	bne	tp,t0,30b0 <test_28+0x8>
    30dc:	fff0039b          	addiw	t2,zero,-1
    30e0:	02039393          	slli	t2,t2,0x20
    30e4:	00138393          	addi	t2,t2,1
    30e8:	01039393          	slli	t2,t2,0x10
    30ec:	fff38393          	addi	t2,t2,-1
    30f0:	0c771263          	bne	a4,t2,31b4 <fail>

00000000000030f4 <test_29>:
    30f4:	01d00193          	li	gp,29
    30f8:	00000213          	li	tp,0
    30fc:	0010011b          	addiw	sp,zero,1
    3100:	02011113          	slli	sp,sp,0x20
    3104:	fff10113          	addi	sp,sp,-1
    3108:	00000013          	nop
    310c:	00000013          	nop
    3110:	0010009b          	addiw	ra,zero,1
    3114:	02009093          	slli	ra,ra,0x20
    3118:	fff08093          	addi	ra,ra,-1
    311c:	0820c733          	pack	a4,ra,sp
    3120:	00120213          	addi	tp,tp,1 # 1 <_start+0x1>
    3124:	00200293          	li	t0,2
    3128:	fc521ae3          	bne	tp,t0,30fc <test_29+0x8>
    312c:	fff00393          	li	t2,-1
    3130:	08771263          	bne	a4,t2,31b4 <fail>

0000000000003134 <test_30>:
    3134:	01e00193          	li	gp,30
    3138:	0004d0b7          	lui	ra,0x4d
    313c:	5e70809b          	addiw	ra,ra,1511 # 4d5e7 <freelist_head+0x445df>
    3140:	00d09093          	slli	ra,ra,0xd
    3144:	ef008093          	addi	ra,ra,-272
    3148:	08104133          	pack	sp,zero,ra
    314c:	f9abd3b7          	lui	t2,0xf9abd
    3150:	def3839b          	addiw	t2,t2,-529 # fffffffff9abcdef <freelist_head+0xfffffffff9ab3de7>
    3154:	02439393          	slli	t2,t2,0x24
    3158:	04711e63          	bne	sp,t2,31b4 <fail>

000000000000315c <test_31>:
    315c:	01f00193          	li	gp,31
    3160:	123450b7          	lui	ra,0x12345
    3164:	6780809b          	addiw	ra,ra,1656 # 12345678 <freelist_head+0x1233c670>
    3168:	0800c133          	pack	sp,ra,zero
    316c:	123453b7          	lui	t2,0x12345
    3170:	6783839b          	addiw	t2,t2,1656 # 12345678 <freelist_head+0x1233c670>
    3174:	04711063          	bne	sp,t2,31b4 <fail>

0000000000003178 <test_32>:
    3178:	02000193          	li	gp,32
    317c:	080040b3          	pack	ra,zero,zero
    3180:	00000393          	li	t2,0
    3184:	02709863          	bne	ra,t2,31b4 <fail>

0000000000003188 <test_33>:
    3188:	02100193          	li	gp,33
    318c:	123450b7          	lui	ra,0x12345
    3190:	6780809b          	addiw	ra,ra,1656 # 12345678 <freelist_head+0x1233c670>
    3194:	0004d137          	lui	sp,0x4d
    3198:	5e71011b          	addiw	sp,sp,1511 # 4d5e7 <freelist_head+0x445df>
    319c:	00d11113          	slli	sp,sp,0xd
    31a0:	ef010113          	addi	sp,sp,-272
    31a4:	0820c033          	pack	zero,ra,sp
    31a8:	00000393          	li	t2,0
    31ac:	00701463          	bne	zero,t2,31b4 <fail>
    31b0:	00301a63          	bne	zero,gp,31c4 <pass>

00000000000031b4 <fail>:
    31b4:	00119513          	slli	a0,gp,0x1
    31b8:	00050063          	beqz	a0,31b8 <fail+0x4>
    31bc:	00156513          	ori	a0,a0,1
    31c0:	00000073          	ecall

00000000000031c4 <pass>:
    31c4:	00100513          	li	a0,1
    31c8:	00000073          	ecall
    31cc:	c0001073          	unimp
