
rv64mi-p-ma_fetch:     ファイル形式 elf64-littleriscv


セクション .text.init の逆アセンブル:

0000000000000000 <_start>:
   0:	0540006f          	j	54 <reset_vector>

0000000000000004 <trap_vector>:
   4:	34202f73          	csrr	t5,mcause
   8:	00800f93          	li	t6,8
   c:	03ff0a63          	beq	t5,t6,40 <write_tohost>
  10:	00900f93          	li	t6,9
  14:	03ff0663          	beq	t5,t6,40 <write_tohost>
  18:	00b00f93          	li	t6,11
  1c:	03ff0263          	beq	t5,t6,40 <write_tohost>
  20:	00000f17          	auipc	t5,0x0
  24:	2e8f0f13          	addi	t5,t5,744 # 308 <mtvec_handler>
  28:	000f0463          	beqz	t5,30 <trap_vector+0x2c>
  2c:	000f0067          	jr	t5
  30:	34202f73          	csrr	t5,mcause
  34:	000f5463          	bgez	t5,3c <handle_exception>
  38:	0040006f          	j	3c <handle_exception>

000000000000003c <handle_exception>:
  3c:	5391e193          	ori	gp,gp,1337

0000000000000040 <write_tohost>:
  40:	00001f17          	auipc	t5,0x1
  44:	fc3f2023          	sw	gp,-64(t5) # 1000 <tohost>
  48:	00001f17          	auipc	t5,0x1
  4c:	fa0f2e23          	sw	zero,-68(t5) # 1004 <tohost+0x4>
  50:	ff1ff06f          	j	40 <write_tohost>

0000000000000054 <reset_vector>:
  54:	00000093          	li	ra,0
  58:	00000113          	li	sp,0
  5c:	00000193          	li	gp,0
  60:	00000213          	li	tp,0
  64:	00000293          	li	t0,0
  68:	00000313          	li	t1,0
  6c:	00000393          	li	t2,0
  70:	00000413          	li	s0,0
  74:	00000493          	li	s1,0
  78:	00000513          	li	a0,0
  7c:	00000593          	li	a1,0
  80:	00000613          	li	a2,0
  84:	00000693          	li	a3,0
  88:	00000713          	li	a4,0
  8c:	00000793          	li	a5,0
  90:	00000813          	li	a6,0
  94:	00000893          	li	a7,0
  98:	00000913          	li	s2,0
  9c:	00000993          	li	s3,0
  a0:	00000a13          	li	s4,0
  a4:	00000a93          	li	s5,0
  a8:	00000b13          	li	s6,0
  ac:	00000b93          	li	s7,0
  b0:	00000c13          	li	s8,0
  b4:	00000c93          	li	s9,0
  b8:	00000d13          	li	s10,0
  bc:	00000d93          	li	s11,0
  c0:	00000e13          	li	t3,0
  c4:	00000e93          	li	t4,0
  c8:	00000f13          	li	t5,0
  cc:	00000f93          	li	t6,0
  d0:	f1402573          	csrr	a0,mhartid
  d4:	00051063          	bnez	a0,d4 <reset_vector+0x80>
  d8:	00000297          	auipc	t0,0x0
  dc:	01028293          	addi	t0,t0,16 # e8 <reset_vector+0x94>
  e0:	30529073          	csrw	mtvec,t0
  e4:	74445073          	csrwi	mnstatus,8
  e8:	00000297          	auipc	t0,0x0
  ec:	01028293          	addi	t0,t0,16 # f8 <reset_vector+0xa4>
  f0:	30529073          	csrw	mtvec,t0
  f4:	18005073          	csrwi	satp,0
  f8:	00000297          	auipc	t0,0x0
  fc:	02428293          	addi	t0,t0,36 # 11c <reset_vector+0xc8>
 100:	30529073          	csrw	mtvec,t0
 104:	0010029b          	addiw	t0,zero,1
 108:	03529293          	slli	t0,t0,0x35
 10c:	fff28293          	addi	t0,t0,-1
 110:	3b029073          	csrw	pmpaddr0,t0
 114:	01f00293          	li	t0,31
 118:	3a029073          	csrw	pmpcfg0,t0
 11c:	30405073          	csrwi	mie,0
 120:	00000297          	auipc	t0,0x0
 124:	01428293          	addi	t0,t0,20 # 134 <reset_vector+0xe0>
 128:	30529073          	csrw	mtvec,t0
 12c:	30205073          	csrwi	medeleg,0
 130:	30305073          	csrwi	mideleg,0
 134:	00000193          	li	gp,0
 138:	00000297          	auipc	t0,0x0
 13c:	ecc28293          	addi	t0,t0,-308 # 4 <trap_vector>
 140:	30529073          	csrw	mtvec,t0
 144:	00100513          	li	a0,1
 148:	01f51513          	slli	a0,a0,0x1f
 14c:	00055c63          	bgez	a0,164 <reset_vector+0x110>
 150:	0ff0000f          	fence
 154:	00100193          	li	gp,1
 158:	05d00893          	li	a7,93
 15c:	00000513          	li	a0,0
 160:	00000073          	ecall
 164:	00000293          	li	t0,0
 168:	00028a63          	beqz	t0,17c <reset_vector+0x128>
 16c:	10529073          	csrw	stvec,t0
 170:	0000b2b7          	lui	t0,0xb
 174:	1092829b          	addiw	t0,t0,265 # b109 <_end+0x9109>
 178:	30229073          	csrw	medeleg,t0
 17c:	30005073          	csrwi	mstatus,0
 180:	00002537          	lui	a0,0x2
 184:	8005051b          	addiw	a0,a0,-2048 # 1800 <fromhost+0x7c0>
 188:	30052073          	csrs	mstatus,a0
 18c:	00000297          	auipc	t0,0x0
 190:	01428293          	addi	t0,t0,20 # 1a0 <reset_vector+0x14c>
 194:	34129073          	csrw	mepc,t0
 198:	f1402573          	csrr	a0,mhartid
 19c:	30200073          	mret
 1a0:	00200193          	li	gp,2
 1a4:	00000313          	li	t1,0
 1a8:	00000297          	auipc	t0,0x0
 1ac:	00c28293          	addi	t0,t0,12 # 1b4 <reset_vector+0x160>
 1b0:	00228367          	jalr	t1,2(t0)
 1b4:	a011                	j	1b8 <reset_vector+0x164>
 1b6:	a019                	j	1bc <reset_vector+0x168>
 1b8:	1200006f          	j	2d8 <fail>
 1bc:	00300193          	li	gp,3
 1c0:	00000297          	auipc	t0,0x0
 1c4:	00c28293          	addi	t0,t0,12 # 1cc <reset_vector+0x178>
 1c8:	00128367          	jalr	t1,1(t0)
 1cc:	0080006f          	j	1d4 <reset_vector+0x180>
 1d0:	1080006f          	j	2d8 <fail>
 1d4:	00400193          	li	gp,4
 1d8:	00000313          	li	t1,0
 1dc:	00000297          	auipc	t0,0x0
 1e0:	00c28293          	addi	t0,t0,12 # 1e8 <reset_vector+0x194>
 1e4:	00328367          	jalr	t1,3(t0)
 1e8:	a011                	j	1ec <reset_vector+0x198>
 1ea:	a019                	j	1f0 <reset_vector+0x19c>
 1ec:	0ec0006f          	j	2d8 <fail>
 1f0:	00500193          	li	gp,5
 1f4:	00000313          	li	t1,0
 1f8:	00000297          	auipc	t0,0x0
 1fc:	00c28293          	addi	t0,t0,12 # 204 <reset_vector+0x1b0>
 200:	0060036f          	jal	t1,206 <reset_vector+0x1b2>
 204:	a011                	j	208 <reset_vector+0x1b4>
 206:	a019                	j	20c <reset_vector+0x1b8>
 208:	0d00006f          	j	2d8 <fail>
 20c:	00600193          	li	gp,6
 210:	00000313          	li	t1,0
 214:	00000297          	auipc	t0,0x0
 218:	00c28293          	addi	t0,t0,12 # 220 <reset_vector+0x1cc>
 21c:	00000363          	beqz	zero,222 <reset_vector+0x1ce>
 220:	a011                	j	224 <reset_vector+0x1d0>
 222:	a019                	j	228 <reset_vector+0x1d4>
 224:	0b40006f          	j	2d8 <fail>
 228:	00700193          	li	gp,7
 22c:	00001563          	bnez	zero,236 <reset_vector+0x1e2>
 230:	00c0006f          	j	23c <reset_vector+0x1e8>
 234:	a009                	j	236 <reset_vector+0x1e2>
 236:	a009                	j	238 <reset_vector+0x1e4>
 238:	0a00006f          	j	2d8 <fail>
 23c:	30126073          	csrsi	misa,4
 240:	301023f3          	csrr	t2,misa
 244:	0043f393          	andi	t2,t2,4
 248:	0a038663          	beqz	t2,2f4 <pass>
 24c:	30127073          	csrci	misa,4
 250:	301023f3          	csrr	t2,misa
 254:	0043f393          	andi	t2,t2,4
 258:	08039e63          	bnez	t2,2f4 <pass>
 25c:	305022f3          	csrr	t0,mtvec
 260:	00000317          	auipc	t1,0x0
 264:	01630313          	addi	t1,t1,22 # 276 <reset_vector+0x222>
 268:	00230313          	addi	t1,t1,2
 26c:	30531073          	csrw	mtvec,t1
 270:	0060006f          	j	276 <reset_vector+0x222>
 274:	0001                	nop
 276:	a8bd                	j	2f4 <pass>
 278:	30529073          	csrw	mtvec,t0
 27c:	30126073          	csrsi	misa,4
 280:	00800193          	li	gp,8
 284:	301023f3          	csrr	t2,misa
 288:	0043f393          	andi	t2,t2,4
 28c:	06038463          	beqz	t2,2f4 <pass>
 290:	0001                	nop
 292:	30127073          	csrci	misa,4
 296:	0001                	nop
 298:	301023f3          	csrr	t2,misa
 29c:	0043f393          	andi	t2,t2,4
 2a0:	02038c63          	beqz	t2,2d8 <fail>
 2a4:	00000297          	auipc	t0,0x0
 2a8:	02828293          	addi	t0,t0,40 # 2cc <reset_vector+0x278>
 2ac:	ffe28293          	addi	t0,t0,-2
 2b0:	34129073          	csrw	mepc,t0
 2b4:	30127073          	csrci	misa,4
 2b8:	000023b7          	lui	t2,0x2
 2bc:	8003839b          	addiw	t2,t2,-2048 # 1800 <fromhost+0x7c0>
 2c0:	3003a073          	csrs	mstatus,t2
 2c4:	30200073          	mret
 2c8:	00000263          	beqz	zero,2cc <reset_vector+0x278>
 2cc:	30126073          	csrsi	misa,4
 2d0:	0240006f          	j	2f4 <pass>
 2d4:	02301063          	bne	zero,gp,2f4 <pass>

00000000000002d8 <fail>:
 2d8:	0ff0000f          	fence
 2dc:	00018063          	beqz	gp,2dc <fail+0x4>
 2e0:	00119193          	slli	gp,gp,0x1
 2e4:	0011e193          	ori	gp,gp,1
 2e8:	05d00893          	li	a7,93
 2ec:	00018513          	mv	a0,gp
 2f0:	00000073          	ecall

00000000000002f4 <pass>:
 2f4:	0ff0000f          	fence
 2f8:	00100193          	li	gp,1
 2fc:	05d00893          	li	a7,93
 300:	00000513          	li	a0,0
 304:	00000073          	ecall

0000000000000308 <mtvec_handler>:
 308:	00200513          	li	a0,2
 30c:	02a18063          	beq	gp,a0,32c <mtvec_handler+0x24>
 310:	00400513          	li	a0,4
 314:	00a18c63          	beq	gp,a0,32c <mtvec_handler+0x24>
 318:	00500513          	li	a0,5
 31c:	00a18863          	beq	gp,a0,32c <mtvec_handler+0x24>
 320:	00600513          	li	a0,6
 324:	00a18463          	beq	gp,a0,32c <mtvec_handler+0x24>
 328:	fb1ff06f          	j	2d8 <fail>
 32c:	fa0316e3          	bnez	t1,2d8 <fail>
 330:	00000593          	li	a1,0
 334:	34202573          	csrr	a0,mcause
 338:	fab510e3          	bne	a0,a1,2d8 <fail>
 33c:	341025f3          	csrr	a1,mepc
 340:	00458593          	addi	a1,a1,4
 344:	f8b29ae3          	bne	t0,a1,2d8 <fail>
 348:	34302573          	csrr	a0,mtval
 34c:	00050663          	beqz	a0,358 <mtvec_handler+0x50>
 350:	ffe50513          	addi	a0,a0,-2
 354:	f85512e3          	bne	a0,t0,2d8 <fail>
 358:	00858593          	addi	a1,a1,8
 35c:	34159073          	csrw	mepc,a1
 360:	30200073          	mret
 364:	c0001073          	unimp
 368:	00000013          	nop
 36c:	00000013          	nop
 370:	00000013          	nop
 374:	00000013          	nop
 378:	00000013          	nop
 37c:	00000013          	nop
