
rv64uzbb-p-sext_h:     ファイル形式 elf64-littleriscv


セクション .text.init の逆アセンブル:

0000000000000000 <_start>:
   0:	0500006f          	j	50 <reset_vector>

0000000000000004 <trap_vector>:
   4:	34202f73          	csrr	t5,mcause
   8:	00800f93          	li	t6,8
   c:	03ff0863          	beq	t5,t6,3c <write_tohost>
  10:	00900f93          	li	t6,9
  14:	03ff0463          	beq	t5,t6,3c <write_tohost>
  18:	00b00f93          	li	t6,11
  1c:	03ff0063          	beq	t5,t6,3c <write_tohost>
  20:	00000f13          	li	t5,0
  24:	000f0463          	beqz	t5,2c <trap_vector+0x28>
  28:	000f0067          	jr	t5
  2c:	34202f73          	csrr	t5,mcause
  30:	000f5463          	bgez	t5,38 <handle_exception>
  34:	0040006f          	j	38 <handle_exception>

0000000000000038 <handle_exception>:
  38:	5391e193          	ori	gp,gp,1337

000000000000003c <write_tohost>:
  3c:	00001f17          	auipc	t5,0x1
  40:	fc3f2223          	sw	gp,-60(t5) # 1000 <tohost>
  44:	00001f17          	auipc	t5,0x1
  48:	fc0f2023          	sw	zero,-64(t5) # 1004 <tohost+0x4>
  4c:	ff1ff06f          	j	3c <write_tohost>

0000000000000050 <reset_vector>:
  50:	00000093          	li	ra,0
  54:	00000113          	li	sp,0
  58:	00000193          	li	gp,0
  5c:	00000213          	li	tp,0
  60:	00000293          	li	t0,0
  64:	00000313          	li	t1,0
  68:	00000393          	li	t2,0
  6c:	00000413          	li	s0,0
  70:	00000493          	li	s1,0
  74:	00000513          	li	a0,0
  78:	00000593          	li	a1,0
  7c:	00000613          	li	a2,0
  80:	00000693          	li	a3,0
  84:	00000713          	li	a4,0
  88:	00000793          	li	a5,0
  8c:	00000813          	li	a6,0
  90:	00000893          	li	a7,0
  94:	00000913          	li	s2,0
  98:	00000993          	li	s3,0
  9c:	00000a13          	li	s4,0
  a0:	00000a93          	li	s5,0
  a4:	00000b13          	li	s6,0
  a8:	00000b93          	li	s7,0
  ac:	00000c13          	li	s8,0
  b0:	00000c93          	li	s9,0
  b4:	00000d13          	li	s10,0
  b8:	00000d93          	li	s11,0
  bc:	00000e13          	li	t3,0
  c0:	00000e93          	li	t4,0
  c4:	00000f13          	li	t5,0
  c8:	00000f93          	li	t6,0
  cc:	f1402573          	csrr	a0,mhartid
  d0:	00051063          	bnez	a0,d0 <reset_vector+0x80>
  d4:	00000297          	auipc	t0,0x0
  d8:	01028293          	addi	t0,t0,16 # e4 <reset_vector+0x94>
  dc:	30529073          	csrw	mtvec,t0
  e0:	74445073          	csrwi	mnstatus,8
  e4:	00000297          	auipc	t0,0x0
  e8:	01028293          	addi	t0,t0,16 # f4 <reset_vector+0xa4>
  ec:	30529073          	csrw	mtvec,t0
  f0:	18005073          	csrwi	satp,0
  f4:	00000297          	auipc	t0,0x0
  f8:	02428293          	addi	t0,t0,36 # 118 <reset_vector+0xc8>
  fc:	30529073          	csrw	mtvec,t0
 100:	0010029b          	addiw	t0,zero,1
 104:	03529293          	slli	t0,t0,0x35
 108:	fff28293          	addi	t0,t0,-1
 10c:	3b029073          	csrw	pmpaddr0,t0
 110:	01f00293          	li	t0,31
 114:	3a029073          	csrw	pmpcfg0,t0
 118:	30405073          	csrwi	mie,0
 11c:	00000297          	auipc	t0,0x0
 120:	01428293          	addi	t0,t0,20 # 130 <reset_vector+0xe0>
 124:	30529073          	csrw	mtvec,t0
 128:	30205073          	csrwi	medeleg,0
 12c:	30305073          	csrwi	mideleg,0
 130:	00000193          	li	gp,0
 134:	00000297          	auipc	t0,0x0
 138:	ed028293          	addi	t0,t0,-304 # 4 <trap_vector>
 13c:	30529073          	csrw	mtvec,t0
 140:	00100513          	li	a0,1
 144:	01f51513          	slli	a0,a0,0x1f
 148:	00055c63          	bgez	a0,160 <reset_vector+0x110>
 14c:	0ff0000f          	fence
 150:	00100193          	li	gp,1
 154:	05d00893          	li	a7,93
 158:	00000513          	li	a0,0
 15c:	00000073          	ecall
 160:	00000293          	li	t0,0
 164:	00028a63          	beqz	t0,178 <reset_vector+0x128>
 168:	10529073          	csrw	stvec,t0
 16c:	0000b2b7          	lui	t0,0xb
 170:	1092829b          	addiw	t0,t0,265 # b109 <_end+0x9109>
 174:	30229073          	csrw	medeleg,t0
 178:	30005073          	csrwi	mstatus,0
 17c:	00000297          	auipc	t0,0x0
 180:	01428293          	addi	t0,t0,20 # 190 <test_2>
 184:	34129073          	csrw	mepc,t0
 188:	f1402573          	csrr	a0,mhartid
 18c:	30200073          	mret

0000000000000190 <test_2>:
 190:	00200193          	li	gp,2
 194:	00000093          	li	ra,0
 198:	60509713          	sext.h	a4,ra
 19c:	00000393          	li	t2,0
 1a0:	2a771063          	bne	a4,t2,440 <fail>

00000000000001a4 <test_3>:
 1a4:	00300193          	li	gp,3
 1a8:	00100093          	li	ra,1
 1ac:	60509713          	sext.h	a4,ra
 1b0:	00100393          	li	t2,1
 1b4:	28771663          	bne	a4,t2,440 <fail>

00000000000001b8 <test_4>:
 1b8:	00400193          	li	gp,4
 1bc:	00300093          	li	ra,3
 1c0:	60509713          	sext.h	a4,ra
 1c4:	00300393          	li	t2,3
 1c8:	26771c63          	bne	a4,t2,440 <fail>

00000000000001cc <test_5>:
 1cc:	00500193          	li	gp,5
 1d0:	ffff80b7          	lui	ra,0xffff8
 1d4:	60509713          	sext.h	a4,ra
 1d8:	ffff83b7          	lui	t2,0xffff8
 1dc:	26771263          	bne	a4,t2,440 <fail>

00000000000001e0 <test_6>:
 1e0:	00600193          	li	gp,6
 1e4:	008000b7          	lui	ra,0x800
 1e8:	60509713          	sext.h	a4,ra
 1ec:	00000393          	li	t2,0
 1f0:	24771863          	bne	a4,t2,440 <fail>

00000000000001f4 <test_7>:
 1f4:	00700193          	li	gp,7
 1f8:	0050009b          	addiw	ra,zero,5
 1fc:	02109093          	slli	ra,ra,0x21
 200:	fff08093          	addi	ra,ra,-1 # 7fffff <_end+0x7fdfff>
 204:	00f09093          	slli	ra,ra,0xf
 208:	60509713          	sext.h	a4,ra
 20c:	ffff83b7          	lui	t2,0xffff8
 210:	22771863          	bne	a4,t2,440 <fail>

0000000000000214 <test_8>:
 214:	00800193          	li	gp,8
 218:	000080b7          	lui	ra,0x8
 21c:	fff0809b          	addiw	ra,ra,-1 # 7fff <_end+0x5fff>
 220:	60509713          	sext.h	a4,ra
 224:	000083b7          	lui	t2,0x8
 228:	fff3839b          	addiw	t2,t2,-1 # 7fff <_end+0x5fff>
 22c:	20771a63          	bne	a4,t2,440 <fail>

0000000000000230 <test_9>:
 230:	00900193          	li	gp,9
 234:	800000b7          	lui	ra,0x80000
 238:	fff0809b          	addiw	ra,ra,-1 # 7fffffff <_end+0x7fffdfff>
 23c:	60509713          	sext.h	a4,ra
 240:	fff00393          	li	t2,-1
 244:	1e771e63          	bne	a4,t2,440 <fail>

0000000000000248 <test_10>:
 248:	00a00193          	li	gp,10
 24c:	000800b7          	lui	ra,0x80
 250:	fff0809b          	addiw	ra,ra,-1 # 7ffff <_end+0x7dfff>
 254:	60509713          	sext.h	a4,ra
 258:	fff00393          	li	t2,-1
 25c:	1e771263          	bne	a4,t2,440 <fail>

0000000000000260 <test_11>:
 260:	00b00193          	li	gp,11
 264:	800000b7          	lui	ra,0x80000
 268:	60509713          	sext.h	a4,ra
 26c:	00000393          	li	t2,0
 270:	1c771863          	bne	a4,t2,440 <fail>

0000000000000274 <test_12>:
 274:	00c00193          	li	gp,12
 278:	7fabc0b7          	lui	ra,0x7fabc
 27c:	7890809b          	addiw	ra,ra,1929 # 7fabc789 <_end+0x7faba789>
 280:	00d09093          	slli	ra,ra,0xd
 284:	1f508093          	addi	ra,ra,501
 288:	00c09093          	slli	ra,ra,0xc
 28c:	60509713          	sext.h	a4,ra
 290:	000053b7          	lui	t2,0x5
 294:	1a771663          	bne	a4,t2,440 <fail>

0000000000000298 <test_13>:
 298:	00d00193          	li	gp,13
 29c:	fff0009b          	addiw	ra,zero,-1
 2a0:	03f09093          	slli	ra,ra,0x3f
 2a4:	60509713          	sext.h	a4,ra
 2a8:	00000393          	li	t2,0
 2ac:	18771a63          	bne	a4,t2,440 <fail>

00000000000002b0 <test_14>:
 2b0:	00e00193          	li	gp,14
 2b4:	00e00093          	li	ra,14
 2b8:	60509713          	sext.h	a4,ra
 2bc:	00e00393          	li	t2,14
 2c0:	18771063          	bne	a4,t2,440 <fail>

00000000000002c4 <test_15>:
 2c4:	00f00193          	li	gp,15
 2c8:	ffd0009b          	addiw	ra,zero,-3
 2cc:	02009093          	slli	ra,ra,0x20
 2d0:	01908093          	addi	ra,ra,25
 2d4:	01109093          	slli	ra,ra,0x11
 2d8:	40108093          	addi	ra,ra,1025
 2dc:	00c09093          	slli	ra,ra,0xc
 2e0:	34108093          	addi	ra,ra,833
 2e4:	60509713          	sext.h	a4,ra
 2e8:	000013b7          	lui	t2,0x1
 2ec:	3413839b          	addiw	t2,t2,833 # 1341 <fromhost+0x301>
 2f0:	14771863          	bne	a4,t2,440 <fail>

00000000000002f4 <test_16>:
 2f4:	01000193          	li	gp,16
 2f8:	00d00093          	li	ra,13
 2fc:	60509093          	sext.h	ra,ra
 300:	00d00393          	li	t2,13
 304:	12709e63          	bne	ra,t2,440 <fail>

0000000000000308 <test_17>:
 308:	01100193          	li	gp,17
 30c:	00b00093          	li	ra,11
 310:	60509093          	sext.h	ra,ra
 314:	00b00393          	li	t2,11
 318:	12709463          	bne	ra,t2,440 <fail>

000000000000031c <test_18>:
 31c:	01200193          	li	gp,18
 320:	00000213          	li	tp,0
 324:	00d00093          	li	ra,13
 328:	60509713          	sext.h	a4,ra
 32c:	00070313          	mv	t1,a4
 330:	00120213          	addi	tp,tp,1 # 1 <_start+0x1>
 334:	00200293          	li	t0,2
 338:	fe5216e3          	bne	tp,t0,324 <test_18+0x8>
 33c:	00d00393          	li	t2,13
 340:	10731063          	bne	t1,t2,440 <fail>

0000000000000344 <test_29>:
 344:	01d00193          	li	gp,29
 348:	00000213          	li	tp,0
 34c:	01300093          	li	ra,19
 350:	60509713          	sext.h	a4,ra
 354:	00000013          	nop
 358:	00070313          	mv	t1,a4
 35c:	00120213          	addi	tp,tp,1 # 1 <_start+0x1>
 360:	00200293          	li	t0,2
 364:	fe5214e3          	bne	tp,t0,34c <test_29+0x8>
 368:	01300393          	li	t2,19
 36c:	0c731a63          	bne	t1,t2,440 <fail>

0000000000000370 <test_20>:
 370:	01400193          	li	gp,20
 374:	00000213          	li	tp,0
 378:	02200093          	li	ra,34
 37c:	60509713          	sext.h	a4,ra
 380:	00000013          	nop
 384:	00000013          	nop
 388:	00070313          	mv	t1,a4
 38c:	00120213          	addi	tp,tp,1 # 1 <_start+0x1>
 390:	00200293          	li	t0,2
 394:	fe5212e3          	bne	tp,t0,378 <test_20+0x8>
 398:	02200393          	li	t2,34
 39c:	0a731263          	bne	t1,t2,440 <fail>

00000000000003a0 <test_21>:
 3a0:	01500193          	li	gp,21
 3a4:	007f80b7          	lui	ra,0x7f8
 3a8:	60509713          	sext.h	a4,ra
 3ac:	ffff83b7          	lui	t2,0xffff8
 3b0:	08771863          	bne	a4,t2,440 <fail>

00000000000003b4 <test_22>:
 3b4:	01600193          	li	gp,22
 3b8:	008080b7          	lui	ra,0x808
 3bc:	60509713          	sext.h	a4,ra
 3c0:	ffff83b7          	lui	t2,0xffff8
 3c4:	06771e63          	bne	a4,t2,440 <fail>

00000000000003c8 <test_23>:
 3c8:	01700193          	li	gp,23
 3cc:	018080b7          	lui	ra,0x1808
 3d0:	60509713          	sext.h	a4,ra
 3d4:	ffff83b7          	lui	t2,0xffff8
 3d8:	06771463          	bne	a4,t2,440 <fail>

00000000000003dc <test_24>:
 3dc:	01800193          	li	gp,24
 3e0:	000600b7          	lui	ra,0x60
 3e4:	0010809b          	addiw	ra,ra,1 # 60001 <_end+0x5e001>
 3e8:	00f09093          	slli	ra,ra,0xf
 3ec:	fff08093          	addi	ra,ra,-1
 3f0:	60509713          	sext.h	a4,ra
 3f4:	000083b7          	lui	t2,0x8
 3f8:	fff3839b          	addiw	t2,t2,-1 # 7fff <_end+0x5fff>
 3fc:	04771263          	bne	a4,t2,440 <fail>

0000000000000400 <test_25>:
 400:	01900193          	li	gp,25
 404:	00f0009b          	addiw	ra,zero,15
 408:	01f09093          	slli	ra,ra,0x1f
 40c:	fff08093          	addi	ra,ra,-1
 410:	60509713          	sext.h	a4,ra
 414:	fff00393          	li	t2,-1
 418:	02771463          	bne	a4,t2,440 <fail>

000000000000041c <test_26>:
 41c:	01a00193          	li	gp,26
 420:	0001e0b7          	lui	ra,0x1e
 424:	0010809b          	addiw	ra,ra,1 # 1e001 <_end+0x1c001>
 428:	01309093          	slli	ra,ra,0x13
 42c:	fff08093          	addi	ra,ra,-1
 430:	60509713          	sext.h	a4,ra
 434:	fff00393          	li	t2,-1
 438:	00771463          	bne	a4,t2,440 <fail>
 43c:	02301063          	bne	zero,gp,45c <pass>

0000000000000440 <fail>:
 440:	0ff0000f          	fence
 444:	00018063          	beqz	gp,444 <fail+0x4>
 448:	00119193          	slli	gp,gp,0x1
 44c:	0011e193          	ori	gp,gp,1
 450:	05d00893          	li	a7,93
 454:	00018513          	mv	a0,gp
 458:	00000073          	ecall

000000000000045c <pass>:
 45c:	0ff0000f          	fence
 460:	00100193          	li	gp,1
 464:	05d00893          	li	a7,93
 468:	00000513          	li	a0,0
 46c:	00000073          	ecall
 470:	c0001073          	unimp
 474:	00000013          	nop
 478:	00000013          	nop
