
rv64uc-v-rvc:     ファイル形式 elf64-littleriscv


セクション .text.init の逆アセンブル:

0000000000000000 <_start>:
   0:	00c0006f          	j	c <handle_reset>

0000000000000004 <nmi_vector>:
   4:	2b40206f          	j	22b8 <wtf>

0000000000000008 <trap_vector>:
   8:	2b00206f          	j	22b8 <wtf>

000000000000000c <handle_reset>:
   c:	00000093          	li	ra,0
  10:	00000113          	li	sp,0
  14:	00000193          	li	gp,0
  18:	00000213          	li	tp,0
  1c:	00000293          	li	t0,0
  20:	00000313          	li	t1,0
  24:	00000393          	li	t2,0
  28:	00000413          	li	s0,0
  2c:	00000493          	li	s1,0
  30:	00000513          	li	a0,0
  34:	00000593          	li	a1,0
  38:	00000613          	li	a2,0
  3c:	00000693          	li	a3,0
  40:	00000713          	li	a4,0
  44:	00000793          	li	a5,0
  48:	00000813          	li	a6,0
  4c:	00000893          	li	a7,0
  50:	00000913          	li	s2,0
  54:	00000993          	li	s3,0
  58:	00000a13          	li	s4,0
  5c:	00000a93          	li	s5,0
  60:	00000b13          	li	s6,0
  64:	00000b93          	li	s7,0
  68:	00000c13          	li	s8,0
  6c:	00000c93          	li	s9,0
  70:	00000d13          	li	s10,0
  74:	00000d93          	li	s11,0
  78:	00000e13          	li	t3,0
  7c:	00000e93          	li	t4,0
  80:	00000f13          	li	t5,0
  84:	00000f93          	li	t6,0
  88:	00000297          	auipc	t0,0x0
  8c:	01028293          	addi	t0,t0,16 # 98 <handle_reset+0x8c>
  90:	30529073          	csrw	mtvec,t0
  94:	74445073          	csrwi	mnstatus,8
  98:	00000297          	auipc	t0,0x0
  9c:	f7028293          	addi	t0,t0,-144 # 8 <trap_vector>
  a0:	30529073          	csrw	mtvec,t0
  a4:	00010117          	auipc	sp,0x10
  a8:	e3c10113          	addi	sp,sp,-452 # fee0 <freelist_head+0x3ed8>
  ac:	f14022f3          	csrr	t0,mhartid
  b0:	00c29293          	slli	t0,t0,0xc
  b4:	00510133          	add	sp,sp,t0
  b8:	34011073          	csrw	mscratch,sp
  bc:	745020ef          	jal	3000 <extra_boot>
  c0:	00003517          	auipc	a0,0x3
  c4:	f5450513          	addi	a0,a0,-172 # 3014 <userstart>
  c8:	71c0206f          	j	27e4 <vm_boot>

00000000000000cc <pop_tf>:
  cc:	10853283          	ld	t0,264(a0)
  d0:	14129073          	csrw	sepc,t0
  d4:	00853083          	ld	ra,8(a0)
  d8:	01053103          	ld	sp,16(a0)
  dc:	01853183          	ld	gp,24(a0)
  e0:	02053203          	ld	tp,32(a0)
  e4:	02853283          	ld	t0,40(a0)
  e8:	03053303          	ld	t1,48(a0)
  ec:	03853383          	ld	t2,56(a0)
  f0:	04053403          	ld	s0,64(a0)
  f4:	04853483          	ld	s1,72(a0)
  f8:	05853583          	ld	a1,88(a0)
  fc:	06053603          	ld	a2,96(a0)
 100:	06853683          	ld	a3,104(a0)
 104:	07053703          	ld	a4,112(a0)
 108:	07853783          	ld	a5,120(a0)
 10c:	08053803          	ld	a6,128(a0)
 110:	08853883          	ld	a7,136(a0)
 114:	09053903          	ld	s2,144(a0)
 118:	09853983          	ld	s3,152(a0)
 11c:	0a053a03          	ld	s4,160(a0)
 120:	0a853a83          	ld	s5,168(a0)
 124:	0b053b03          	ld	s6,176(a0)
 128:	0b853b83          	ld	s7,184(a0)
 12c:	0c053c03          	ld	s8,192(a0)
 130:	0c853c83          	ld	s9,200(a0)
 134:	0d053d03          	ld	s10,208(a0)
 138:	0d853d83          	ld	s11,216(a0)
 13c:	0e053e03          	ld	t3,224(a0)
 140:	0e853e83          	ld	t4,232(a0)
 144:	0f053f03          	ld	t5,240(a0)
 148:	0f853f83          	ld	t6,248(a0)
 14c:	05053503          	ld	a0,80(a0)
 150:	10200073          	sret

0000000000000154 <trap_entry>:
 154:	14011173          	csrrw	sp,sscratch,sp
 158:	00113423          	sd	ra,8(sp)
 15c:	00313c23          	sd	gp,24(sp)
 160:	02413023          	sd	tp,32(sp)
 164:	02513423          	sd	t0,40(sp)
 168:	02613823          	sd	t1,48(sp)
 16c:	02713c23          	sd	t2,56(sp)
 170:	04813023          	sd	s0,64(sp)
 174:	04913423          	sd	s1,72(sp)
 178:	04a13823          	sd	a0,80(sp)
 17c:	04b13c23          	sd	a1,88(sp)
 180:	06c13023          	sd	a2,96(sp)
 184:	06d13423          	sd	a3,104(sp)
 188:	06e13823          	sd	a4,112(sp)
 18c:	06f13c23          	sd	a5,120(sp)
 190:	09013023          	sd	a6,128(sp)
 194:	09113423          	sd	a7,136(sp)
 198:	09213823          	sd	s2,144(sp)
 19c:	09313c23          	sd	s3,152(sp)
 1a0:	0b413023          	sd	s4,160(sp)
 1a4:	0b513423          	sd	s5,168(sp)
 1a8:	0b613823          	sd	s6,176(sp)
 1ac:	0b713c23          	sd	s7,184(sp)
 1b0:	0d813023          	sd	s8,192(sp)
 1b4:	0d913423          	sd	s9,200(sp)
 1b8:	0da13823          	sd	s10,208(sp)
 1bc:	0db13c23          	sd	s11,216(sp)
 1c0:	0fc13023          	sd	t3,224(sp)
 1c4:	0fd13423          	sd	t4,232(sp)
 1c8:	0fe13823          	sd	t5,240(sp)
 1cc:	0ff13c23          	sd	t6,248(sp)
 1d0:	140112f3          	csrrw	t0,sscratch,sp
 1d4:	00513823          	sd	t0,16(sp)
 1d8:	100022f3          	csrr	t0,sstatus
 1dc:	10513023          	sd	t0,256(sp)
 1e0:	141022f3          	csrr	t0,sepc
 1e4:	10513423          	sd	t0,264(sp)
 1e8:	143022f3          	csrr	t0,stval
 1ec:	10513823          	sd	t0,272(sp)
 1f0:	142022f3          	csrr	t0,scause
 1f4:	10513c23          	sd	t0,280(sp)
 1f8:	00010513          	mv	a0,sp
 1fc:	3780206f          	j	2574 <handle_trap>

セクション .text の逆アセンブル:

0000000000002000 <memcpy>:
    2000:	00c5e7b3          	or	a5,a1,a2
    2004:	00f567b3          	or	a5,a0,a5
    2008:	0077f793          	andi	a5,a5,7
    200c:	00c506b3          	add	a3,a0,a2
    2010:	02078463          	beqz	a5,2038 <memcpy+0x38>
    2014:	00c58633          	add	a2,a1,a2
    2018:	00050793          	mv	a5,a0
    201c:	02d57e63          	bgeu	a0,a3,2058 <memcpy+0x58>
    2020:	0005c703          	lbu	a4,0(a1)
    2024:	00158593          	addi	a1,a1,1
    2028:	00178793          	addi	a5,a5,1
    202c:	fee78fa3          	sb	a4,-1(a5)
    2030:	feb618e3          	bne	a2,a1,2020 <memcpy+0x20>
    2034:	00008067          	ret
    2038:	fed57ee3          	bgeu	a0,a3,2034 <memcpy+0x34>
    203c:	00050793          	mv	a5,a0
    2040:	0005b703          	ld	a4,0(a1)
    2044:	00878793          	addi	a5,a5,8
    2048:	00858593          	addi	a1,a1,8
    204c:	fee7bc23          	sd	a4,-8(a5)
    2050:	fed7e8e3          	bltu	a5,a3,2040 <memcpy+0x40>
    2054:	00008067          	ret
    2058:	00008067          	ret

000000000000205c <memset>:
    205c:	00c567b3          	or	a5,a0,a2
    2060:	0077f793          	andi	a5,a5,7
    2064:	00050693          	mv	a3,a0
    2068:	00c50733          	add	a4,a0,a2
    206c:	00078863          	beqz	a5,207c <memset+0x20>
    2070:	02e57c63          	bgeu	a0,a4,20a8 <memset+0x4c>
    2074:	0ff5f593          	zext.b	a1,a1
    2078:	fe5ff06f          	j	205c <memset>
    207c:	02e57663          	bgeu	a0,a4,20a8 <memset+0x4c>
    2080:	010107b7          	lui	a5,0x1010
    2084:	10178793          	addi	a5,a5,257 # 1010101 <freelist_head+0x10040f9>
    2088:	02079613          	slli	a2,a5,0x20
    208c:	00f60633          	add	a2,a2,a5
    2090:	0ff5f593          	zext.b	a1,a1
    2094:	02c585b3          	mul	a1,a1,a2
    2098:	00050793          	mv	a5,a0
    209c:	00878793          	addi	a5,a5,8
    20a0:	feb7bc23          	sd	a1,-8(a5)
    20a4:	fee7ece3          	bltu	a5,a4,209c <memset+0x40>
    20a8:	00068513          	mv	a0,a3
    20ac:	00008067          	ret

00000000000020b0 <strlen>:
    20b0:	00054783          	lbu	a5,0(a0)
    20b4:	00078e63          	beqz	a5,20d0 <strlen+0x20>
    20b8:	00050793          	mv	a5,a0
    20bc:	0017c703          	lbu	a4,1(a5)
    20c0:	00178793          	addi	a5,a5,1
    20c4:	fe071ce3          	bnez	a4,20bc <strlen+0xc>
    20c8:	40a78533          	sub	a0,a5,a0
    20cc:	00008067          	ret
    20d0:	00000513          	li	a0,0
    20d4:	00008067          	ret

00000000000020d8 <strcmp>:
    20d8:	00054683          	lbu	a3,0(a0)
    20dc:	0005c603          	lbu	a2,0(a1)
    20e0:	00150513          	addi	a0,a0,1
    20e4:	00d037b3          	snez	a5,a3
    20e8:	40c68733          	sub	a4,a3,a2
    20ec:	00173713          	seqz	a4,a4
    20f0:	00e7f7b3          	and	a5,a5,a4
    20f4:	00158593          	addi	a1,a1,1
    20f8:	fe0790e3          	bnez	a5,20d8 <strcmp>
    20fc:	40c6853b          	subw	a0,a3,a2
    2100:	00008067          	ret

0000000000002104 <memcmp>:
    2104:	00b567b3          	or	a5,a0,a1
    2108:	0077f793          	andi	a5,a5,7
    210c:	02079e63          	bnez	a5,2148 <memcmp+0x44>
    2110:	ff867813          	andi	a6,a2,-8
    2114:	01050833          	add	a6,a0,a6
    2118:	03057863          	bgeu	a0,a6,2148 <memcmp+0x44>
    211c:	00050793          	mv	a5,a0
    2120:	0100006f          	j	2130 <memcmp+0x2c>
    2124:	00878793          	addi	a5,a5,8
    2128:	00858593          	addi	a1,a1,8
    212c:	0107f863          	bgeu	a5,a6,213c <memcmp+0x38>
    2130:	0007b683          	ld	a3,0(a5)
    2134:	0005b703          	ld	a4,0(a1)
    2138:	fee686e3          	beq	a3,a4,2124 <memcmp+0x20>
    213c:	40a78533          	sub	a0,a5,a0
    2140:	40a60633          	sub	a2,a2,a0
    2144:	00078513          	mv	a0,a5
    2148:	00c58633          	add	a2,a1,a2
    214c:	0140006f          	j	2160 <memcmp+0x5c>
    2150:	fff54783          	lbu	a5,-1(a0)
    2154:	0005c703          	lbu	a4,0(a1)
    2158:	00158593          	addi	a1,a1,1
    215c:	00e79a63          	bne	a5,a4,2170 <memcmp+0x6c>
    2160:	00150513          	addi	a0,a0,1
    2164:	feb616e3          	bne	a2,a1,2150 <memcmp+0x4c>
    2168:	00000513          	li	a0,0
    216c:	00008067          	ret
    2170:	40e7853b          	subw	a0,a5,a4
    2174:	00008067          	ret

0000000000002178 <strcpy>:
    2178:	00050793          	mv	a5,a0
    217c:	0005c703          	lbu	a4,0(a1)
    2180:	00158593          	addi	a1,a1,1
    2184:	00178793          	addi	a5,a5,1
    2188:	fee78fa3          	sb	a4,-1(a5)
    218c:	fe0718e3          	bnez	a4,217c <strcpy+0x4>
    2190:	00008067          	ret

0000000000002194 <atol>:
    2194:	00054703          	lbu	a4,0(a0)
    2198:	02000693          	li	a3,32
    219c:	00050793          	mv	a5,a0
    21a0:	00d71863          	bne	a4,a3,21b0 <atol+0x1c>
    21a4:	0017c703          	lbu	a4,1(a5)
    21a8:	00178793          	addi	a5,a5,1
    21ac:	fed70ce3          	beq	a4,a3,21a4 <atol+0x10>
    21b0:	fd57069b          	addiw	a3,a4,-43
    21b4:	0fd6f693          	andi	a3,a3,253
    21b8:	04069463          	bnez	a3,2200 <atol+0x6c>
    21bc:	0017c683          	lbu	a3,1(a5)
    21c0:	fd370713          	addi	a4,a4,-45
    21c4:	00173613          	seqz	a2,a4
    21c8:	04068663          	beqz	a3,2214 <atol+0x80>
    21cc:	00178793          	addi	a5,a5,1
    21d0:	00000513          	li	a0,0
    21d4:	00178793          	addi	a5,a5,1
    21d8:	fd06859b          	addiw	a1,a3,-48
    21dc:	00251713          	slli	a4,a0,0x2
    21e0:	0007c683          	lbu	a3,0(a5)
    21e4:	00a70733          	add	a4,a4,a0
    21e8:	00171713          	slli	a4,a4,0x1
    21ec:	00e58533          	add	a0,a1,a4
    21f0:	fe0692e3          	bnez	a3,21d4 <atol+0x40>
    21f4:	00060463          	beqz	a2,21fc <atol+0x68>
    21f8:	40a00533          	neg	a0,a0
    21fc:	00008067          	ret
    2200:	0007c683          	lbu	a3,0(a5)
    2204:	00000613          	li	a2,0
    2208:	fc0694e3          	bnez	a3,21d0 <atol+0x3c>
    220c:	00000513          	li	a0,0
    2210:	00008067          	ret
    2214:	00000513          	li	a0,0
    2218:	fddff06f          	j	21f4 <atol+0x60>

000000000000221c <cputstring>:
    221c:	00054783          	lbu	a5,0(a0)
    2220:	04078063          	beqz	a5,2260 <cputstring+0x44>
    2224:	10100593          	li	a1,257
    2228:	03059593          	slli	a1,a1,0x30
    222c:	fffff717          	auipc	a4,0xfffff
    2230:	dd470713          	addi	a4,a4,-556 # 1000 <tohost>
    2234:	00073603          	ld	a2,0(a4)
    2238:	00150513          	addi	a0,a0,1
    223c:	00b7e6b3          	or	a3,a5,a1
    2240:	00060a63          	beqz	a2,2254 <cputstring+0x38>
    2244:	fffff797          	auipc	a5,0xfffff
    2248:	de07be23          	sd	zero,-516(a5) # 1040 <fromhost>
    224c:	00073783          	ld	a5,0(a4)
    2250:	fe079ae3          	bnez	a5,2244 <cputstring+0x28>
    2254:	00d73023          	sd	a3,0(a4)
    2258:	00054783          	lbu	a5,0(a0)
    225c:	fc079ce3          	bnez	a5,2234 <cputstring+0x18>
    2260:	00008067          	ret

0000000000002264 <terminate>:
    2264:	fffff717          	auipc	a4,0xfffff
    2268:	d9c70713          	addi	a4,a4,-612 # 1000 <tohost>
    226c:	00073783          	ld	a5,0(a4)
    2270:	00078a63          	beqz	a5,2284 <terminate+0x20>
    2274:	fffff797          	auipc	a5,0xfffff
    2278:	dc07b623          	sd	zero,-564(a5) # 1040 <fromhost>
    227c:	00073783          	ld	a5,0(a4)
    2280:	fe079ae3          	bnez	a5,2274 <terminate+0x10>
    2284:	00a73023          	sd	a0,0(a4)
    2288:	0000006f          	j	2288 <terminate+0x24>

000000000000228c <terminate.constprop.0>:
    228c:	fffff717          	auipc	a4,0xfffff
    2290:	d7470713          	addi	a4,a4,-652 # 1000 <tohost>
    2294:	00073783          	ld	a5,0(a4)
    2298:	00078a63          	beqz	a5,22ac <terminate.constprop.0+0x20>
    229c:	fffff797          	auipc	a5,0xfffff
    22a0:	da07b223          	sd	zero,-604(a5) # 1040 <fromhost>
    22a4:	00073783          	ld	a5,0(a4)
    22a8:	fe079ae3          	bnez	a5,229c <terminate.constprop.0+0x10>
    22ac:	00300793          	li	a5,3
    22b0:	00f73023          	sd	a5,0(a4)
    22b4:	0000006f          	j	22b4 <terminate.constprop.0+0x28>

00000000000022b8 <wtf>:
    22b8:	ff010113          	addi	sp,sp,-16
    22bc:	34900513          	li	a0,841
    22c0:	00113423          	sd	ra,8(sp)
    22c4:	fa1ff0ef          	jal	2264 <terminate>

00000000000022c8 <printhex>:
    22c8:	fe010113          	addi	sp,sp,-32
    22cc:	00810613          	addi	a2,sp,8
    22d0:	01710713          	addi	a4,sp,23
    22d4:	00900593          	li	a1,9
    22d8:	0080006f          	j	22e0 <printhex+0x18>
    22dc:	fff70713          	addi	a4,a4,-1
    22e0:	00f57693          	andi	a3,a0,15
    22e4:	00d5b7b3          	sltu	a5,a1,a3
    22e8:	40f007b3          	neg	a5,a5
    22ec:	0277f793          	andi	a5,a5,39
    22f0:	03078793          	addi	a5,a5,48
    22f4:	00d787b3          	add	a5,a5,a3
    22f8:	00f70023          	sb	a5,0(a4)
    22fc:	00455513          	srli	a0,a0,0x4
    2300:	fce61ee3          	bne	a2,a4,22dc <printhex+0x14>
    2304:	00814783          	lbu	a5,8(sp)
    2308:	00010c23          	sb	zero,24(sp)
    230c:	04078263          	beqz	a5,2350 <printhex+0x88>
    2310:	10100513          	li	a0,257
    2314:	00060693          	mv	a3,a2
    2318:	03051513          	slli	a0,a0,0x30
    231c:	fffff717          	auipc	a4,0xfffff
    2320:	ce470713          	addi	a4,a4,-796 # 1000 <tohost>
    2324:	00073583          	ld	a1,0(a4)
    2328:	00168693          	addi	a3,a3,1
    232c:	00a7e633          	or	a2,a5,a0
    2330:	00058a63          	beqz	a1,2344 <printhex+0x7c>
    2334:	fffff797          	auipc	a5,0xfffff
    2338:	d007b623          	sd	zero,-756(a5) # 1040 <fromhost>
    233c:	00073783          	ld	a5,0(a4)
    2340:	fe079ae3          	bnez	a5,2334 <printhex+0x6c>
    2344:	0006c783          	lbu	a5,0(a3)
    2348:	00c73023          	sd	a2,0(a4)
    234c:	fc079ce3          	bnez	a5,2324 <printhex+0x5c>
    2350:	02010113          	addi	sp,sp,32
    2354:	00008067          	ret

0000000000002358 <handle_fault>:
    2358:	fc010113          	addi	sp,sp,-64
    235c:	00100793          	li	a5,1
    2360:	fffff737          	lui	a4,0xfffff
    2364:	02f12223          	sw	a5,36(sp)
    2368:	02113c23          	sd	ra,56(sp)
    236c:	02013423          	sd	zero,40(sp)
    2370:	00e506b3          	add	a3,a0,a4
    2374:	0003e7b7          	lui	a5,0x3e
    2378:	1af6fa63          	bgeu	a3,a5,252c <handle_fault+0x1d4>
    237c:	00e577b3          	and	a5,a0,a4
    2380:	00c7d893          	srli	a7,a5,0xc
    2384:	60088713          	addi	a4,a7,1536
    2388:	00371693          	slli	a3,a4,0x3
    238c:	00006817          	auipc	a6,0x6
    2390:	c7480813          	addi	a6,a6,-908 # 8000 <pt>
    2394:	00d806b3          	add	a3,a6,a3
    2398:	0006b683          	ld	a3,0(a3)
    239c:	12069263          	bnez	a3,24c0 <handle_fault+0x168>
    23a0:	0000a697          	auipc	a3,0xa
    23a4:	c686b683          	ld	a3,-920(a3) # c008 <freelist_head>
    23a8:	02813823          	sd	s0,48(sp)
    23ac:	1a068463          	beqz	a3,2554 <handle_fault+0x1fc>
    23b0:	0086b603          	ld	a2,8(a3)
    23b4:	0000a597          	auipc	a1,0xa
    23b8:	c4c5b583          	ld	a1,-948(a1) # c000 <freelist_tail>
    23bc:	0000a517          	auipc	a0,0xa
    23c0:	c4c53623          	sd	a2,-948(a0) # c008 <freelist_head>
    23c4:	14b60e63          	beq	a2,a1,2520 <handle_fault+0x1c8>
    23c8:	00078513          	mv	a0,a5
    23cc:	02410613          	addi	a2,sp,36
    23d0:	02810593          	addi	a1,sp,40
    23d4:	0006b403          	ld	s0,0(a3)
    23d8:	00e13c23          	sd	a4,24(sp)
    23dc:	01113823          	sd	a7,16(sp)
    23e0:	00f13423          	sd	a5,8(sp)
    23e4:	00d13023          	sd	a3,0(sp)
    23e8:	425000ef          	jal	300c <pf_filter>
    23ec:	00013683          	ld	a3,0(sp)
    23f0:	00813783          	ld	a5,8(sp)
    23f4:	01013883          	ld	a7,16(sp)
    23f8:	01813703          	ld	a4,24(sp)
    23fc:	00006817          	auipc	a6,0x6
    2400:	c0480813          	addi	a6,a6,-1020 # 8000 <pt>
    2404:	0e051e63          	bnez	a0,2500 <handle_fault+0x1a8>
    2408:	00c45613          	srli	a2,s0,0xc
    240c:	00a61613          	slli	a2,a2,0xa
    2410:	01f66613          	ori	a2,a2,31
    2414:	00371593          	slli	a1,a4,0x3
    2418:	00b805b3          	add	a1,a6,a1
    241c:	0c066513          	ori	a0,a2,192
    2420:	00a5b023          	sd	a0,0(a1)
    2424:	12078073          	sfence.vma	a5
    2428:	00005597          	auipc	a1,0x5
    242c:	bd858593          	addi	a1,a1,-1064 # 7000 <user_mapping>
    2430:	00489893          	slli	a7,a7,0x4
    2434:	011585b3          	add	a1,a1,a7
    2438:	0005b503          	ld	a0,0(a1)
    243c:	12051463          	bnez	a0,2564 <handle_fault+0x20c>
    2440:	0006b883          	ld	a7,0(a3)
    2444:	00040537          	lui	a0,0x40
    2448:	0115b023          	sd	a7,0(a1)
    244c:	0086b683          	ld	a3,8(a3)
    2450:	00d5b423          	sd	a3,8(a1)
    2454:	10052573          	csrrs	a0,sstatus,a0
    2458:	ffe006b7          	lui	a3,0xffe00
    245c:	00d786b3          	add	a3,a5,a3
    2460:	000018b7          	lui	a7,0x1
    2464:	011688b3          	add	a7,a3,a7
    2468:	00078593          	mv	a1,a5
    246c:	0106b303          	ld	t1,16(a3) # ffffffffffe00010 <freelist_head+0xffffffffffdf4008>
    2470:	0006be83          	ld	t4,0(a3)
    2474:	0086be03          	ld	t3,8(a3)
    2478:	0065b823          	sd	t1,16(a1)
    247c:	01d5b023          	sd	t4,0(a1)
    2480:	01c5b423          	sd	t3,8(a1)
    2484:	0186b303          	ld	t1,24(a3)
    2488:	02068693          	addi	a3,a3,32
    248c:	02058593          	addi	a1,a1,32
    2490:	fe65bc23          	sd	t1,-8(a1)
    2494:	fd169ce3          	bne	a3,a7,246c <handle_fault+0x114>
    2498:	10051073          	csrw	sstatus,a0
    249c:	00371713          	slli	a4,a4,0x3
    24a0:	00e80733          	add	a4,a6,a4
    24a4:	00c73023          	sd	a2,0(a4) # fffffffffffff000 <freelist_head+0xffffffffffff2ff8>
    24a8:	12078073          	sfence.vma	a5
    24ac:	0000100f          	fence.i
    24b0:	03013403          	ld	s0,48(sp)
    24b4:	03813083          	ld	ra,56(sp)
    24b8:	04010113          	addi	sp,sp,64
    24bc:	00008067          	ret
    24c0:	0406f613          	andi	a2,a3,64
    24c4:	04060a63          	beqz	a2,2518 <handle_fault+0x1c0>
    24c8:	0076d613          	srli	a2,a3,0x7
    24cc:	ff158593          	addi	a1,a1,-15
    24d0:	0015b593          	seqz	a1,a1
    24d4:	fff64613          	not	a2,a2
    24d8:	00b67633          	and	a2,a2,a1
    24dc:	0806e693          	ori	a3,a3,128
    24e0:	06060063          	beqz	a2,2540 <handle_fault+0x1e8>
    24e4:	00371713          	slli	a4,a4,0x3
    24e8:	00e80733          	add	a4,a6,a4
    24ec:	00d73023          	sd	a3,0(a4)
    24f0:	12078073          	sfence.vma	a5
    24f4:	03813083          	ld	ra,56(sp)
    24f8:	04010113          	addi	sp,sp,64
    24fc:	00008067          	ret
    2500:	0006b603          	ld	a2,0(a3)
    2504:	02813583          	ld	a1,40(sp)
    2508:	00c65613          	srli	a2,a2,0xc
    250c:	00a61613          	slli	a2,a2,0xa
    2510:	00b66633          	or	a2,a2,a1
    2514:	f01ff06f          	j	2414 <handle_fault+0xbc>
    2518:	0406e693          	ori	a3,a3,64
    251c:	fc9ff06f          	j	24e4 <handle_fault+0x18c>
    2520:	0000a617          	auipc	a2,0xa
    2524:	ae063023          	sd	zero,-1312(a2) # c000 <freelist_tail>
    2528:	ea1ff06f          	j	23c8 <handle_fault+0x70>
    252c:	00004517          	auipc	a0,0x4
    2530:	a8c50513          	addi	a0,a0,-1396 # 5fb8 <pass+0xce4>
    2534:	02813823          	sd	s0,48(sp)
    2538:	ce5ff0ef          	jal	221c <cputstring>
    253c:	d51ff0ef          	jal	228c <terminate.constprop.0>
    2540:	00004517          	auipc	a0,0x4
    2544:	ac850513          	addi	a0,a0,-1336 # 6008 <pass+0xd34>
    2548:	02813823          	sd	s0,48(sp)
    254c:	cd1ff0ef          	jal	221c <cputstring>
    2550:	d3dff0ef          	jal	228c <terminate.constprop.0>
    2554:	00004517          	auipc	a0,0x4
    2558:	afc50513          	addi	a0,a0,-1284 # 6050 <pass+0xd7c>
    255c:	cc1ff0ef          	jal	221c <cputstring>
    2560:	d2dff0ef          	jal	228c <terminate.constprop.0>
    2564:	00004517          	auipc	a0,0x4
    2568:	b0450513          	addi	a0,a0,-1276 # 6068 <pass+0xd94>
    256c:	cb1ff0ef          	jal	221c <cputstring>
    2570:	d1dff0ef          	jal	228c <terminate.constprop.0>

0000000000002574 <handle_trap>:
    2574:	fb010113          	addi	sp,sp,-80
    2578:	04813023          	sd	s0,64(sp)
    257c:	04113423          	sd	ra,72(sp)
    2580:	00050413          	mv	s0,a0
    2584:	281000ef          	jal	3004 <trap_filter>
    2588:	0c051263          	bnez	a0,264c <handle_trap+0xd8>
    258c:	11843583          	ld	a1,280(s0)
    2590:	00800793          	li	a5,8
    2594:	0ef58063          	beq	a1,a5,2674 <handle_trap+0x100>
    2598:	00200793          	li	a5,2
    259c:	02f58c63          	beq	a1,a5,25d4 <handle_trap+0x60>
    25a0:	ff458793          	addi	a5,a1,-12
    25a4:	ff158713          	addi	a4,a1,-15
    25a8:	0027b793          	sltiu	a5,a5,2
    25ac:	00173713          	seqz	a4,a4
    25b0:	00e7e7b3          	or	a5,a5,a4
    25b4:	20078663          	beqz	a5,27c0 <handle_trap+0x24c>
    25b8:	11043503          	ld	a0,272(s0)
    25bc:	d9dff0ef          	jal	2358 <handle_fault>
    25c0:	00040513          	mv	a0,s0
    25c4:	04013403          	ld	s0,64(sp)
    25c8:	04813083          	ld	ra,72(sp)
    25cc:	05010113          	addi	sp,sp,80
    25d0:	afdfd06f          	j	cc <pop_tf>
    25d4:	10843783          	ld	a5,264(s0)
    25d8:	0037f713          	andi	a4,a5,3
    25dc:	08071263          	bnez	a4,2660 <handle_trap+0xec>
    25e0:	0007a703          	lw	a4,0(a5) # 3e000 <freelist_head+0x31ff8>
    25e4:	008007ef          	jal	a5,25ec <handle_trap+0x78>
    25e8:	00301073          	fscsr	zero
    25ec:	0007a783          	lw	a5,0(a5)
    25f0:	02913c23          	sd	s1,56(sp)
    25f4:	06f70263          	beq	a4,a5,2658 <handle_trap+0xe4>
    25f8:	10100513          	li	a0,257
    25fc:	03051513          	slli	a0,a0,0x30
    2600:	04100793          	li	a5,65
    2604:	00004697          	auipc	a3,0x4
    2608:	aa468693          	addi	a3,a3,-1372 # 60a8 <pass+0xdd4>
    260c:	fffff717          	auipc	a4,0xfffff
    2610:	9f470713          	addi	a4,a4,-1548 # 1000 <tohost>
    2614:	00004817          	auipc	a6,0x4
    2618:	abd80813          	addi	a6,a6,-1347 # 60d1 <pass+0xdfd>
    261c:	00073583          	ld	a1,0(a4)
    2620:	00168693          	addi	a3,a3,1
    2624:	00a7e633          	or	a2,a5,a0
    2628:	00058a63          	beqz	a1,263c <handle_trap+0xc8>
    262c:	fffff797          	auipc	a5,0xfffff
    2630:	a007ba23          	sd	zero,-1516(a5) # 1040 <fromhost>
    2634:	00073783          	ld	a5,0(a4)
    2638:	fe079ae3          	bnez	a5,262c <handle_trap+0xb8>
    263c:	00c73023          	sd	a2,0(a4)
    2640:	0006c783          	lbu	a5,0(a3)
    2644:	fd069ce3          	bne	a3,a6,261c <handle_trap+0xa8>
    2648:	c45ff0ef          	jal	228c <terminate.constprop.0>
    264c:	00040513          	mv	a0,s0
    2650:	a7dfd0ef          	jal	cc <pop_tf>
    2654:	f39ff06f          	j	258c <handle_trap+0x18>
    2658:	00100513          	li	a0,1
    265c:	c09ff0ef          	jal	2264 <terminate>
    2660:	00004517          	auipc	a0,0x4
    2664:	ae850513          	addi	a0,a0,-1304 # 6148 <pass+0xe74>
    2668:	02913c23          	sd	s1,56(sp)
    266c:	bb1ff0ef          	jal	221c <cputstring>
    2670:	c1dff0ef          	jal	228c <terminate.constprop.0>
    2674:	05043e03          	ld	t3,80(s0)
    2678:	00001437          	lui	s0,0x1
    267c:	02913c23          	sd	s1,56(sp)
    2680:	00040313          	mv	t1,s0
    2684:	00005897          	auipc	a7,0x5
    2688:	97c88893          	addi	a7,a7,-1668 # 7000 <user_mapping>
    268c:	00006297          	auipc	t0,0x6
    2690:	97428293          	addi	t0,t0,-1676 # 8000 <pt>
    2694:	00040fb7          	lui	t6,0x40
    2698:	ffe00f37          	lui	t5,0xffe00
    269c:	0003feb7          	lui	t4,0x3f
    26a0:	00c45793          	srli	a5,s0,0xc
    26a4:	00479713          	slli	a4,a5,0x4
    26a8:	00e886b3          	add	a3,a7,a4
    26ac:	0006b683          	ld	a3,0(a3)
    26b0:	0e068063          	beqz	a3,2790 <handle_trap+0x21c>
    26b4:	60078793          	addi	a5,a5,1536
    26b8:	00379793          	slli	a5,a5,0x3
    26bc:	00f287b3          	add	a5,t0,a5
    26c0:	0007b683          	ld	a3,0(a5)
    26c4:	0406f793          	andi	a5,a3,64
    26c8:	0e078463          	beqz	a5,27b0 <handle_trap+0x23c>
    26cc:	02e13423          	sd	a4,40(sp)
    26d0:	02d13023          	sd	a3,32(sp)
    26d4:	01c13c23          	sd	t3,24(sp)
    26d8:	100fa3f3          	csrrs	t2,sstatus,t6
    26dc:	01e407b3          	add	a5,s0,t5
    26e0:	00078593          	mv	a1,a5
    26e4:	00040513          	mv	a0,s0
    26e8:	00001637          	lui	a2,0x1
    26ec:	00713823          	sd	t2,16(sp)
    26f0:	00f13423          	sd	a5,8(sp)
    26f4:	a11ff0ef          	jal	2104 <memcmp>
    26f8:	01013383          	ld	t2,16(sp)
    26fc:	01813e03          	ld	t3,24(sp)
    2700:	02813703          	ld	a4,40(sp)
    2704:	ffe00f37          	lui	t5,0xffe00
    2708:	00040fb7          	lui	t6,0x40
    270c:	00005897          	auipc	a7,0x5
    2710:	8f488893          	addi	a7,a7,-1804 # 7000 <user_mapping>
    2714:	00006297          	auipc	t0,0x6
    2718:	8ec28293          	addi	t0,t0,-1812 # 8000 <pt>
    271c:	00001337          	lui	t1,0x1
    2720:	0000a817          	auipc	a6,0xa
    2724:	8e080813          	addi	a6,a6,-1824 # c000 <freelist_tail>
    2728:	0003feb7          	lui	t4,0x3f
    272c:	04050463          	beqz	a0,2774 <handle_trap+0x200>
    2730:	02013683          	ld	a3,32(sp)
    2734:	00813783          	ld	a5,8(sp)
    2738:	0806f693          	andi	a3,a3,128
    273c:	08068c63          	beqz	a3,27d4 <handle_trap+0x260>
    2740:	00040693          	mv	a3,s0
    2744:	00640633          	add	a2,s0,t1
    2748:	0106b583          	ld	a1,16(a3)
    274c:	0086b503          	ld	a0,8(a3)
    2750:	0006b483          	ld	s1,0(a3)
    2754:	00b7b823          	sd	a1,16(a5)
    2758:	00a7b423          	sd	a0,8(a5)
    275c:	0097b023          	sd	s1,0(a5)
    2760:	0186b583          	ld	a1,24(a3)
    2764:	02068693          	addi	a3,a3,32
    2768:	02078793          	addi	a5,a5,32
    276c:	feb7bc23          	sd	a1,-8(a5)
    2770:	fcc69ce3          	bne	a3,a2,2748 <handle_trap+0x1d4>
    2774:	00e887b3          	add	a5,a7,a4
    2778:	10039073          	csrw	sstatus,t2
    277c:	00083703          	ld	a4,0(a6)
    2780:	0007b023          	sd	zero,0(a5)
    2784:	00070e63          	beqz	a4,27a0 <handle_trap+0x22c>
    2788:	00f73423          	sd	a5,8(a4)
    278c:	00f83023          	sd	a5,0(a6)
    2790:	00640433          	add	s0,s0,t1
    2794:	f1d416e3          	bne	s0,t4,26a0 <handle_trap+0x12c>
    2798:	000e051b          	sext.w	a0,t3
    279c:	ac9ff0ef          	jal	2264 <terminate>
    27a0:	00f83023          	sd	a5,0(a6)
    27a4:	0000a717          	auipc	a4,0xa
    27a8:	86f73223          	sd	a5,-1948(a4) # c008 <freelist_head>
    27ac:	fe5ff06f          	j	2790 <handle_trap+0x21c>
    27b0:	00004517          	auipc	a0,0x4
    27b4:	92850513          	addi	a0,a0,-1752 # 60d8 <pass+0xe04>
    27b8:	a65ff0ef          	jal	221c <cputstring>
    27bc:	ad1ff0ef          	jal	228c <terminate.constprop.0>
    27c0:	00004517          	auipc	a0,0x4
    27c4:	9b050513          	addi	a0,a0,-1616 # 6170 <pass+0xe9c>
    27c8:	02913c23          	sd	s1,56(sp)
    27cc:	a51ff0ef          	jal	221c <cputstring>
    27d0:	e79ff06f          	j	2648 <handle_trap+0xd4>
    27d4:	00004517          	auipc	a0,0x4
    27d8:	93c50513          	addi	a0,a0,-1732 # 6110 <pass+0xe3c>
    27dc:	a41ff0ef          	jal	221c <cputstring>
    27e0:	aadff0ef          	jal	228c <terminate.constprop.0>

00000000000027e4 <vm_boot>:
    27e4:	f14027f3          	csrr	a5,mhartid
    27e8:	1a079263          	bnez	a5,298c <vm_boot+0x1a8>
    27ec:	00007817          	auipc	a6,0x7
    27f0:	81480813          	addi	a6,a6,-2028 # 9000 <pt+0x1000>
    27f4:	00009897          	auipc	a7,0x9
    27f8:	80c88893          	addi	a7,a7,-2036 # b000 <pt+0x3000>
    27fc:	00008797          	auipc	a5,0x8
    2800:	80478793          	addi	a5,a5,-2044 # a000 <pt+0x2000>
    2804:	ed010113          	addi	sp,sp,-304
    2808:	00c8d693          	srli	a3,a7,0xc
    280c:	00c85713          	srli	a4,a6,0xc
    2810:	00c7d793          	srli	a5,a5,0xc
    2814:	12813023          	sd	s0,288(sp)
    2818:	00005317          	auipc	t1,0x5
    281c:	7e830313          	addi	t1,t1,2024 # 8000 <pt>
    2820:	00050413          	mv	s0,a0
    2824:	fff00613          	li	a2,-1
    2828:	00a79793          	slli	a5,a5,0xa
    282c:	00a69693          	slli	a3,a3,0xa
    2830:	00a71713          	slli	a4,a4,0xa
    2834:	20000537          	lui	a0,0x20000
    2838:	12113423          	sd	ra,296(sp)
    283c:	0017e793          	ori	a5,a5,1
    2840:	0016e693          	ori	a3,a3,1
    2844:	00176713          	ori	a4,a4,1
    2848:	00c35593          	srli	a1,t1,0xc
    284c:	03f61e13          	slli	t3,a2,0x3f
    2850:	0cf50513          	addi	a0,a0,207 # 200000cf <freelist_head+0x1fff40c7>
    2854:	fef83c23          	sd	a5,-8(a6)
    2858:	00d83023          	sd	a3,0(a6)
    285c:	00e33023          	sd	a4,0(t1)
    2860:	01c5e7b3          	or	a5,a1,t3
    2864:	fea8bc23          	sd	a0,-8(a7)
    2868:	18079073          	csrw	satp,a5
    286c:	18002773          	csrr	a4,satp
    2870:	16e79663          	bne	a5,a4,29dc <vm_boot+0x1f8>
    2874:	800007b7          	lui	a5,0x80000
    2878:	12078073          	sfence.vma	a5
    287c:	01f00793          	li	a5,31
    2880:	00b65613          	srli	a2,a2,0xb
    2884:	00000297          	auipc	t0,0x0
    2888:	01428293          	addi	t0,t0,20 # 2898 <vm_boot+0xb4>
    288c:	305292f3          	csrrw	t0,mtvec,t0
    2890:	3b061073          	csrw	pmpaddr0,a2
    2894:	3a079073          	csrw	pmpcfg0,a5
    2898:	30529073          	csrw	mtvec,t0
    289c:	bff00693          	li	a3,-1025
    28a0:	01569693          	slli	a3,a3,0x15
    28a4:	ffffe797          	auipc	a5,0xffffe
    28a8:	8b078793          	addi	a5,a5,-1872 # 154 <trap_entry>
    28ac:	00d787b3          	add	a5,a5,a3
    28b0:	10579073          	csrw	stvec,a5
    28b4:	340027f3          	csrr	a5,mscratch
    28b8:	00d787b3          	add	a5,a5,a3
    28bc:	14079073          	csrw	sscratch,a5
    28c0:	0000b7b7          	lui	a5,0xb
    28c4:	1007879b          	addiw	a5,a5,256 # b100 <pt+0x3100>
    28c8:	30279073          	csrw	medeleg,a5
    28cc:	0001e7b7          	lui	a5,0x1e
    28d0:	6007879b          	addiw	a5,a5,1536 # 1e600 <freelist_head+0x125f8>
    28d4:	30079073          	csrw	mstatus,a5
    28d8:	30405073          	csrwi	mie,0
    28dc:	00005717          	auipc	a4,0x5
    28e0:	b1470713          	addi	a4,a4,-1260 # 73f0 <freelist_nodes>
    28e4:	3e068793          	addi	a5,a3,992
    28e8:	bff00813          	li	a6,-1025
    28ec:	00d706b3          	add	a3,a4,a3
    28f0:	00f707b3          	add	a5,a4,a5
    28f4:	01581813          	slli	a6,a6,0x15
    28f8:	000808b7          	lui	a7,0x80
    28fc:	00009617          	auipc	a2,0x9
    2900:	70d63623          	sd	a3,1804(a2) # c008 <freelist_head>
    2904:	01080813          	addi	a6,a6,16
    2908:	00009697          	auipc	a3,0x9
    290c:	6ef6bc23          	sd	a5,1784(a3) # c000 <freelist_tail>
    2910:	03f88893          	addi	a7,a7,63 # 8003f <freelist_head+0x74037>
    2914:	00005317          	auipc	t1,0x5
    2918:	ecc30313          	addi	t1,t1,-308 # 77e0 <freelist_nodes+0x3f0>
    291c:	03000793          	li	a5,48
    2920:	0017d613          	srli	a2,a5,0x1
    2924:	00f646b3          	xor	a3,a2,a5
    2928:	011787b3          	add	a5,a5,a7
    292c:	00c79793          	slli	a5,a5,0xc
    2930:	010705b3          	add	a1,a4,a6
    2934:	00569693          	slli	a3,a3,0x5
    2938:	00f73023          	sd	a5,0(a4)
    293c:	0206f693          	andi	a3,a3,32
    2940:	00b73423          	sd	a1,8(a4)
    2944:	01070713          	addi	a4,a4,16
    2948:	00d667b3          	or	a5,a2,a3
    294c:	fce31ae3          	bne	t1,a4,2920 <vm_boot+0x13c>
    2950:	00010513          	mv	a0,sp
    2954:	12000613          	li	a2,288
    2958:	00000593          	li	a1,0
    295c:	00005797          	auipc	a5,0x5
    2960:	e607be23          	sd	zero,-388(a5) # 77d8 <freelist_nodes+0x3e8>
    2964:	ef8ff0ef          	jal	205c <memset>
    2968:	800007b7          	lui	a5,0x80000
    296c:	00f40433          	add	s0,s0,a5
    2970:	00010513          	mv	a0,sp
    2974:	10813423          	sd	s0,264(sp)
    2978:	f54fd0ef          	jal	cc <pop_tf>
    297c:	12813083          	ld	ra,296(sp)
    2980:	12013403          	ld	s0,288(sp)
    2984:	13010113          	addi	sp,sp,304
    2988:	00008067          	ret
    298c:	00100693          	li	a3,1
    2990:	0db157b7          	lui	a5,0xdb15
    2994:	00080637          	lui	a2,0x80
    2998:	50c78793          	addi	a5,a5,1292 # db1550c <freelist_head+0xdb09504>
    299c:	ffc60613          	addi	a2,a2,-4 # 7fffc <freelist_head+0x73ff4>
    29a0:	03e69693          	slli	a3,a3,0x3e
    29a4:	80000537          	lui	a0,0x80000
    29a8:	01c0006f          	j	29c4 <vm_boot+0x1e0>
    29ac:	0007202f          	amoadd.w	zero,zero,(a4)
    29b0:	0017d713          	srli	a4,a5,0x1
    29b4:	00e7c7b3          	xor	a5,a5,a4
    29b8:	03e79793          	slli	a5,a5,0x3e
    29bc:	00d7f7b3          	and	a5,a5,a3
    29c0:	00e7e7b3          	or	a5,a5,a4
    29c4:	00c7f733          	and	a4,a5,a2
    29c8:	0017f593          	andi	a1,a5,1
    29cc:	40a70733          	sub	a4,a4,a0
    29d0:	fc059ee3          	bnez	a1,29ac <vm_boot+0x1c8>
    29d4:	00072003          	lw	zero,0(a4)
    29d8:	fd9ff06f          	j	29b0 <vm_boot+0x1cc>
    29dc:	00003517          	auipc	a0,0x3
    29e0:	7c450513          	addi	a0,a0,1988 # 61a0 <pass+0xecc>
    29e4:	839ff0ef          	jal	221c <cputstring>
    29e8:	8a5ff0ef          	jal	228c <terminate.constprop.0>
    29ec:	0000                	.insn	2, 0x0000
    29ee:	0000                	.insn	2, 0x0000
    29f0:	0000                	.insn	2, 0x0000
    29f2:	0000                	.insn	2, 0x0000
    29f4:	0000                	.insn	2, 0x0000
    29f6:	0000                	.insn	2, 0x0000
    29f8:	0000                	.insn	2, 0x0000
    29fa:	0000                	.insn	2, 0x0000
    29fc:	0000                	.insn	2, 0x0000
    29fe:	0000                	.insn	2, 0x0000
    2a00:	0000                	.insn	2, 0x0000
    2a02:	0000                	.insn	2, 0x0000
    2a04:	0000                	.insn	2, 0x0000
    2a06:	0000                	.insn	2, 0x0000
    2a08:	0000                	.insn	2, 0x0000
    2a0a:	0000                	.insn	2, 0x0000
    2a0c:	0000                	.insn	2, 0x0000
    2a0e:	0000                	.insn	2, 0x0000
    2a10:	0000                	.insn	2, 0x0000
    2a12:	0000                	.insn	2, 0x0000
    2a14:	0000                	.insn	2, 0x0000
    2a16:	0000                	.insn	2, 0x0000
    2a18:	0000                	.insn	2, 0x0000
    2a1a:	0000                	.insn	2, 0x0000
    2a1c:	0000                	.insn	2, 0x0000
    2a1e:	0000                	.insn	2, 0x0000
    2a20:	0000                	.insn	2, 0x0000
    2a22:	0000                	.insn	2, 0x0000
    2a24:	0000                	.insn	2, 0x0000
    2a26:	0000                	.insn	2, 0x0000
    2a28:	0000                	.insn	2, 0x0000
    2a2a:	0000                	.insn	2, 0x0000
    2a2c:	0000                	.insn	2, 0x0000
    2a2e:	0000                	.insn	2, 0x0000
    2a30:	0000                	.insn	2, 0x0000
    2a32:	0000                	.insn	2, 0x0000
    2a34:	0000                	.insn	2, 0x0000
    2a36:	0000                	.insn	2, 0x0000
    2a38:	0000                	.insn	2, 0x0000
    2a3a:	0000                	.insn	2, 0x0000
    2a3c:	0000                	.insn	2, 0x0000
    2a3e:	0000                	.insn	2, 0x0000
    2a40:	0000                	.insn	2, 0x0000
    2a42:	0000                	.insn	2, 0x0000
    2a44:	0000                	.insn	2, 0x0000
    2a46:	0000                	.insn	2, 0x0000
    2a48:	0000                	.insn	2, 0x0000
    2a4a:	0000                	.insn	2, 0x0000
    2a4c:	0000                	.insn	2, 0x0000
    2a4e:	0000                	.insn	2, 0x0000
    2a50:	0000                	.insn	2, 0x0000
    2a52:	0000                	.insn	2, 0x0000
    2a54:	0000                	.insn	2, 0x0000
    2a56:	0000                	.insn	2, 0x0000
    2a58:	0000                	.insn	2, 0x0000
    2a5a:	0000                	.insn	2, 0x0000
    2a5c:	0000                	.insn	2, 0x0000
    2a5e:	0000                	.insn	2, 0x0000
    2a60:	0000                	.insn	2, 0x0000
    2a62:	0000                	.insn	2, 0x0000
    2a64:	0000                	.insn	2, 0x0000
    2a66:	0000                	.insn	2, 0x0000
    2a68:	0000                	.insn	2, 0x0000
    2a6a:	0000                	.insn	2, 0x0000
    2a6c:	0000                	.insn	2, 0x0000
    2a6e:	0000                	.insn	2, 0x0000
    2a70:	0000                	.insn	2, 0x0000
    2a72:	0000                	.insn	2, 0x0000
    2a74:	0000                	.insn	2, 0x0000
    2a76:	0000                	.insn	2, 0x0000
    2a78:	0000                	.insn	2, 0x0000
    2a7a:	0000                	.insn	2, 0x0000
    2a7c:	0000                	.insn	2, 0x0000
    2a7e:	0000                	.insn	2, 0x0000
    2a80:	0000                	.insn	2, 0x0000
    2a82:	0000                	.insn	2, 0x0000
    2a84:	0000                	.insn	2, 0x0000
    2a86:	0000                	.insn	2, 0x0000
    2a88:	0000                	.insn	2, 0x0000
    2a8a:	0000                	.insn	2, 0x0000
    2a8c:	0000                	.insn	2, 0x0000
    2a8e:	0000                	.insn	2, 0x0000
    2a90:	0000                	.insn	2, 0x0000
    2a92:	0000                	.insn	2, 0x0000
    2a94:	0000                	.insn	2, 0x0000
    2a96:	0000                	.insn	2, 0x0000
    2a98:	0000                	.insn	2, 0x0000
    2a9a:	0000                	.insn	2, 0x0000
    2a9c:	0000                	.insn	2, 0x0000
    2a9e:	0000                	.insn	2, 0x0000
    2aa0:	0000                	.insn	2, 0x0000
    2aa2:	0000                	.insn	2, 0x0000
    2aa4:	0000                	.insn	2, 0x0000
    2aa6:	0000                	.insn	2, 0x0000
    2aa8:	0000                	.insn	2, 0x0000
    2aaa:	0000                	.insn	2, 0x0000
    2aac:	0000                	.insn	2, 0x0000
    2aae:	0000                	.insn	2, 0x0000
    2ab0:	0000                	.insn	2, 0x0000
    2ab2:	0000                	.insn	2, 0x0000
    2ab4:	0000                	.insn	2, 0x0000
    2ab6:	0000                	.insn	2, 0x0000
    2ab8:	0000                	.insn	2, 0x0000
    2aba:	0000                	.insn	2, 0x0000
    2abc:	0000                	.insn	2, 0x0000
    2abe:	0000                	.insn	2, 0x0000
    2ac0:	0000                	.insn	2, 0x0000
    2ac2:	0000                	.insn	2, 0x0000
    2ac4:	0000                	.insn	2, 0x0000
    2ac6:	0000                	.insn	2, 0x0000
    2ac8:	0000                	.insn	2, 0x0000
    2aca:	0000                	.insn	2, 0x0000
    2acc:	0000                	.insn	2, 0x0000
    2ace:	0000                	.insn	2, 0x0000
    2ad0:	0000                	.insn	2, 0x0000
    2ad2:	0000                	.insn	2, 0x0000
    2ad4:	0000                	.insn	2, 0x0000
    2ad6:	0000                	.insn	2, 0x0000
    2ad8:	0000                	.insn	2, 0x0000
    2ada:	0000                	.insn	2, 0x0000
    2adc:	0000                	.insn	2, 0x0000
    2ade:	0000                	.insn	2, 0x0000
    2ae0:	0000                	.insn	2, 0x0000
    2ae2:	0000                	.insn	2, 0x0000
    2ae4:	0000                	.insn	2, 0x0000
    2ae6:	0000                	.insn	2, 0x0000
    2ae8:	0000                	.insn	2, 0x0000
    2aea:	0000                	.insn	2, 0x0000
    2aec:	0000                	.insn	2, 0x0000
    2aee:	0000                	.insn	2, 0x0000
    2af0:	0000                	.insn	2, 0x0000
    2af2:	0000                	.insn	2, 0x0000
    2af4:	0000                	.insn	2, 0x0000
    2af6:	0000                	.insn	2, 0x0000
    2af8:	0000                	.insn	2, 0x0000
    2afa:	0000                	.insn	2, 0x0000
    2afc:	0000                	.insn	2, 0x0000
    2afe:	0000                	.insn	2, 0x0000
    2b00:	0000                	.insn	2, 0x0000
    2b02:	0000                	.insn	2, 0x0000
    2b04:	0000                	.insn	2, 0x0000
    2b06:	0000                	.insn	2, 0x0000
    2b08:	0000                	.insn	2, 0x0000
    2b0a:	0000                	.insn	2, 0x0000
    2b0c:	0000                	.insn	2, 0x0000
    2b0e:	0000                	.insn	2, 0x0000
    2b10:	0000                	.insn	2, 0x0000
    2b12:	0000                	.insn	2, 0x0000
    2b14:	0000                	.insn	2, 0x0000
    2b16:	0000                	.insn	2, 0x0000
    2b18:	0000                	.insn	2, 0x0000
    2b1a:	0000                	.insn	2, 0x0000
    2b1c:	0000                	.insn	2, 0x0000
    2b1e:	0000                	.insn	2, 0x0000
    2b20:	0000                	.insn	2, 0x0000
    2b22:	0000                	.insn	2, 0x0000
    2b24:	0000                	.insn	2, 0x0000
    2b26:	0000                	.insn	2, 0x0000
    2b28:	0000                	.insn	2, 0x0000
    2b2a:	0000                	.insn	2, 0x0000
    2b2c:	0000                	.insn	2, 0x0000
    2b2e:	0000                	.insn	2, 0x0000
    2b30:	0000                	.insn	2, 0x0000
    2b32:	0000                	.insn	2, 0x0000
    2b34:	0000                	.insn	2, 0x0000
    2b36:	0000                	.insn	2, 0x0000
    2b38:	0000                	.insn	2, 0x0000
    2b3a:	0000                	.insn	2, 0x0000
    2b3c:	0000                	.insn	2, 0x0000
    2b3e:	0000                	.insn	2, 0x0000
    2b40:	0000                	.insn	2, 0x0000
    2b42:	0000                	.insn	2, 0x0000
    2b44:	0000                	.insn	2, 0x0000
    2b46:	0000                	.insn	2, 0x0000
    2b48:	0000                	.insn	2, 0x0000
    2b4a:	0000                	.insn	2, 0x0000
    2b4c:	0000                	.insn	2, 0x0000
    2b4e:	0000                	.insn	2, 0x0000
    2b50:	0000                	.insn	2, 0x0000
    2b52:	0000                	.insn	2, 0x0000
    2b54:	0000                	.insn	2, 0x0000
    2b56:	0000                	.insn	2, 0x0000
    2b58:	0000                	.insn	2, 0x0000
    2b5a:	0000                	.insn	2, 0x0000
    2b5c:	0000                	.insn	2, 0x0000
    2b5e:	0000                	.insn	2, 0x0000
    2b60:	0000                	.insn	2, 0x0000
    2b62:	0000                	.insn	2, 0x0000
    2b64:	0000                	.insn	2, 0x0000
    2b66:	0000                	.insn	2, 0x0000
    2b68:	0000                	.insn	2, 0x0000
    2b6a:	0000                	.insn	2, 0x0000
    2b6c:	0000                	.insn	2, 0x0000
    2b6e:	0000                	.insn	2, 0x0000
    2b70:	0000                	.insn	2, 0x0000
    2b72:	0000                	.insn	2, 0x0000
    2b74:	0000                	.insn	2, 0x0000
    2b76:	0000                	.insn	2, 0x0000
    2b78:	0000                	.insn	2, 0x0000
    2b7a:	0000                	.insn	2, 0x0000
    2b7c:	0000                	.insn	2, 0x0000
    2b7e:	0000                	.insn	2, 0x0000
    2b80:	0000                	.insn	2, 0x0000
    2b82:	0000                	.insn	2, 0x0000
    2b84:	0000                	.insn	2, 0x0000
    2b86:	0000                	.insn	2, 0x0000
    2b88:	0000                	.insn	2, 0x0000
    2b8a:	0000                	.insn	2, 0x0000
    2b8c:	0000                	.insn	2, 0x0000
    2b8e:	0000                	.insn	2, 0x0000
    2b90:	0000                	.insn	2, 0x0000
    2b92:	0000                	.insn	2, 0x0000
    2b94:	0000                	.insn	2, 0x0000
    2b96:	0000                	.insn	2, 0x0000
    2b98:	0000                	.insn	2, 0x0000
    2b9a:	0000                	.insn	2, 0x0000
    2b9c:	0000                	.insn	2, 0x0000
    2b9e:	0000                	.insn	2, 0x0000
    2ba0:	0000                	.insn	2, 0x0000
    2ba2:	0000                	.insn	2, 0x0000
    2ba4:	0000                	.insn	2, 0x0000
    2ba6:	0000                	.insn	2, 0x0000
    2ba8:	0000                	.insn	2, 0x0000
    2baa:	0000                	.insn	2, 0x0000
    2bac:	0000                	.insn	2, 0x0000
    2bae:	0000                	.insn	2, 0x0000
    2bb0:	0000                	.insn	2, 0x0000
    2bb2:	0000                	.insn	2, 0x0000
    2bb4:	0000                	.insn	2, 0x0000
    2bb6:	0000                	.insn	2, 0x0000
    2bb8:	0000                	.insn	2, 0x0000
    2bba:	0000                	.insn	2, 0x0000
    2bbc:	0000                	.insn	2, 0x0000
    2bbe:	0000                	.insn	2, 0x0000
    2bc0:	0000                	.insn	2, 0x0000
    2bc2:	0000                	.insn	2, 0x0000
    2bc4:	0000                	.insn	2, 0x0000
    2bc6:	0000                	.insn	2, 0x0000
    2bc8:	0000                	.insn	2, 0x0000
    2bca:	0000                	.insn	2, 0x0000
    2bcc:	0000                	.insn	2, 0x0000
    2bce:	0000                	.insn	2, 0x0000
    2bd0:	0000                	.insn	2, 0x0000
    2bd2:	0000                	.insn	2, 0x0000
    2bd4:	0000                	.insn	2, 0x0000
    2bd6:	0000                	.insn	2, 0x0000
    2bd8:	0000                	.insn	2, 0x0000
    2bda:	0000                	.insn	2, 0x0000
    2bdc:	0000                	.insn	2, 0x0000
    2bde:	0000                	.insn	2, 0x0000
    2be0:	0000                	.insn	2, 0x0000
    2be2:	0000                	.insn	2, 0x0000
    2be4:	0000                	.insn	2, 0x0000
    2be6:	0000                	.insn	2, 0x0000
    2be8:	0000                	.insn	2, 0x0000
    2bea:	0000                	.insn	2, 0x0000
    2bec:	0000                	.insn	2, 0x0000
    2bee:	0000                	.insn	2, 0x0000
    2bf0:	0000                	.insn	2, 0x0000
    2bf2:	0000                	.insn	2, 0x0000
    2bf4:	0000                	.insn	2, 0x0000
    2bf6:	0000                	.insn	2, 0x0000
    2bf8:	0000                	.insn	2, 0x0000
    2bfa:	0000                	.insn	2, 0x0000
    2bfc:	0000                	.insn	2, 0x0000
    2bfe:	0000                	.insn	2, 0x0000
    2c00:	0000                	.insn	2, 0x0000
    2c02:	0000                	.insn	2, 0x0000
    2c04:	0000                	.insn	2, 0x0000
    2c06:	0000                	.insn	2, 0x0000
    2c08:	0000                	.insn	2, 0x0000
    2c0a:	0000                	.insn	2, 0x0000
    2c0c:	0000                	.insn	2, 0x0000
    2c0e:	0000                	.insn	2, 0x0000
    2c10:	0000                	.insn	2, 0x0000
    2c12:	0000                	.insn	2, 0x0000
    2c14:	0000                	.insn	2, 0x0000
    2c16:	0000                	.insn	2, 0x0000
    2c18:	0000                	.insn	2, 0x0000
    2c1a:	0000                	.insn	2, 0x0000
    2c1c:	0000                	.insn	2, 0x0000
    2c1e:	0000                	.insn	2, 0x0000
    2c20:	0000                	.insn	2, 0x0000
    2c22:	0000                	.insn	2, 0x0000
    2c24:	0000                	.insn	2, 0x0000
    2c26:	0000                	.insn	2, 0x0000
    2c28:	0000                	.insn	2, 0x0000
    2c2a:	0000                	.insn	2, 0x0000
    2c2c:	0000                	.insn	2, 0x0000
    2c2e:	0000                	.insn	2, 0x0000
    2c30:	0000                	.insn	2, 0x0000
    2c32:	0000                	.insn	2, 0x0000
    2c34:	0000                	.insn	2, 0x0000
    2c36:	0000                	.insn	2, 0x0000
    2c38:	0000                	.insn	2, 0x0000
    2c3a:	0000                	.insn	2, 0x0000
    2c3c:	0000                	.insn	2, 0x0000
    2c3e:	0000                	.insn	2, 0x0000
    2c40:	0000                	.insn	2, 0x0000
    2c42:	0000                	.insn	2, 0x0000
    2c44:	0000                	.insn	2, 0x0000
    2c46:	0000                	.insn	2, 0x0000
    2c48:	0000                	.insn	2, 0x0000
    2c4a:	0000                	.insn	2, 0x0000
    2c4c:	0000                	.insn	2, 0x0000
    2c4e:	0000                	.insn	2, 0x0000
    2c50:	0000                	.insn	2, 0x0000
    2c52:	0000                	.insn	2, 0x0000
    2c54:	0000                	.insn	2, 0x0000
    2c56:	0000                	.insn	2, 0x0000
    2c58:	0000                	.insn	2, 0x0000
    2c5a:	0000                	.insn	2, 0x0000
    2c5c:	0000                	.insn	2, 0x0000
    2c5e:	0000                	.insn	2, 0x0000
    2c60:	0000                	.insn	2, 0x0000
    2c62:	0000                	.insn	2, 0x0000
    2c64:	0000                	.insn	2, 0x0000
    2c66:	0000                	.insn	2, 0x0000
    2c68:	0000                	.insn	2, 0x0000
    2c6a:	0000                	.insn	2, 0x0000
    2c6c:	0000                	.insn	2, 0x0000
    2c6e:	0000                	.insn	2, 0x0000
    2c70:	0000                	.insn	2, 0x0000
    2c72:	0000                	.insn	2, 0x0000
    2c74:	0000                	.insn	2, 0x0000
    2c76:	0000                	.insn	2, 0x0000
    2c78:	0000                	.insn	2, 0x0000
    2c7a:	0000                	.insn	2, 0x0000
    2c7c:	0000                	.insn	2, 0x0000
    2c7e:	0000                	.insn	2, 0x0000
    2c80:	0000                	.insn	2, 0x0000
    2c82:	0000                	.insn	2, 0x0000
    2c84:	0000                	.insn	2, 0x0000
    2c86:	0000                	.insn	2, 0x0000
    2c88:	0000                	.insn	2, 0x0000
    2c8a:	0000                	.insn	2, 0x0000
    2c8c:	0000                	.insn	2, 0x0000
    2c8e:	0000                	.insn	2, 0x0000
    2c90:	0000                	.insn	2, 0x0000
    2c92:	0000                	.insn	2, 0x0000
    2c94:	0000                	.insn	2, 0x0000
    2c96:	0000                	.insn	2, 0x0000
    2c98:	0000                	.insn	2, 0x0000
    2c9a:	0000                	.insn	2, 0x0000
    2c9c:	0000                	.insn	2, 0x0000
    2c9e:	0000                	.insn	2, 0x0000
    2ca0:	0000                	.insn	2, 0x0000
    2ca2:	0000                	.insn	2, 0x0000
    2ca4:	0000                	.insn	2, 0x0000
    2ca6:	0000                	.insn	2, 0x0000
    2ca8:	0000                	.insn	2, 0x0000
    2caa:	0000                	.insn	2, 0x0000
    2cac:	0000                	.insn	2, 0x0000
    2cae:	0000                	.insn	2, 0x0000
    2cb0:	0000                	.insn	2, 0x0000
    2cb2:	0000                	.insn	2, 0x0000
    2cb4:	0000                	.insn	2, 0x0000
    2cb6:	0000                	.insn	2, 0x0000
    2cb8:	0000                	.insn	2, 0x0000
    2cba:	0000                	.insn	2, 0x0000
    2cbc:	0000                	.insn	2, 0x0000
    2cbe:	0000                	.insn	2, 0x0000
    2cc0:	0000                	.insn	2, 0x0000
    2cc2:	0000                	.insn	2, 0x0000
    2cc4:	0000                	.insn	2, 0x0000
    2cc6:	0000                	.insn	2, 0x0000
    2cc8:	0000                	.insn	2, 0x0000
    2cca:	0000                	.insn	2, 0x0000
    2ccc:	0000                	.insn	2, 0x0000
    2cce:	0000                	.insn	2, 0x0000
    2cd0:	0000                	.insn	2, 0x0000
    2cd2:	0000                	.insn	2, 0x0000
    2cd4:	0000                	.insn	2, 0x0000
    2cd6:	0000                	.insn	2, 0x0000
    2cd8:	0000                	.insn	2, 0x0000
    2cda:	0000                	.insn	2, 0x0000
    2cdc:	0000                	.insn	2, 0x0000
    2cde:	0000                	.insn	2, 0x0000
    2ce0:	0000                	.insn	2, 0x0000
    2ce2:	0000                	.insn	2, 0x0000
    2ce4:	0000                	.insn	2, 0x0000
    2ce6:	0000                	.insn	2, 0x0000
    2ce8:	0000                	.insn	2, 0x0000
    2cea:	0000                	.insn	2, 0x0000
    2cec:	0000                	.insn	2, 0x0000
    2cee:	0000                	.insn	2, 0x0000
    2cf0:	0000                	.insn	2, 0x0000
    2cf2:	0000                	.insn	2, 0x0000
    2cf4:	0000                	.insn	2, 0x0000
    2cf6:	0000                	.insn	2, 0x0000
    2cf8:	0000                	.insn	2, 0x0000
    2cfa:	0000                	.insn	2, 0x0000
    2cfc:	0000                	.insn	2, 0x0000
    2cfe:	0000                	.insn	2, 0x0000
    2d00:	0000                	.insn	2, 0x0000
    2d02:	0000                	.insn	2, 0x0000
    2d04:	0000                	.insn	2, 0x0000
    2d06:	0000                	.insn	2, 0x0000
    2d08:	0000                	.insn	2, 0x0000
    2d0a:	0000                	.insn	2, 0x0000
    2d0c:	0000                	.insn	2, 0x0000
    2d0e:	0000                	.insn	2, 0x0000
    2d10:	0000                	.insn	2, 0x0000
    2d12:	0000                	.insn	2, 0x0000
    2d14:	0000                	.insn	2, 0x0000
    2d16:	0000                	.insn	2, 0x0000
    2d18:	0000                	.insn	2, 0x0000
    2d1a:	0000                	.insn	2, 0x0000
    2d1c:	0000                	.insn	2, 0x0000
    2d1e:	0000                	.insn	2, 0x0000
    2d20:	0000                	.insn	2, 0x0000
    2d22:	0000                	.insn	2, 0x0000
    2d24:	0000                	.insn	2, 0x0000
    2d26:	0000                	.insn	2, 0x0000
    2d28:	0000                	.insn	2, 0x0000
    2d2a:	0000                	.insn	2, 0x0000
    2d2c:	0000                	.insn	2, 0x0000
    2d2e:	0000                	.insn	2, 0x0000
    2d30:	0000                	.insn	2, 0x0000
    2d32:	0000                	.insn	2, 0x0000
    2d34:	0000                	.insn	2, 0x0000
    2d36:	0000                	.insn	2, 0x0000
    2d38:	0000                	.insn	2, 0x0000
    2d3a:	0000                	.insn	2, 0x0000
    2d3c:	0000                	.insn	2, 0x0000
    2d3e:	0000                	.insn	2, 0x0000
    2d40:	0000                	.insn	2, 0x0000
    2d42:	0000                	.insn	2, 0x0000
    2d44:	0000                	.insn	2, 0x0000
    2d46:	0000                	.insn	2, 0x0000
    2d48:	0000                	.insn	2, 0x0000
    2d4a:	0000                	.insn	2, 0x0000
    2d4c:	0000                	.insn	2, 0x0000
    2d4e:	0000                	.insn	2, 0x0000
    2d50:	0000                	.insn	2, 0x0000
    2d52:	0000                	.insn	2, 0x0000
    2d54:	0000                	.insn	2, 0x0000
    2d56:	0000                	.insn	2, 0x0000
    2d58:	0000                	.insn	2, 0x0000
    2d5a:	0000                	.insn	2, 0x0000
    2d5c:	0000                	.insn	2, 0x0000
    2d5e:	0000                	.insn	2, 0x0000
    2d60:	0000                	.insn	2, 0x0000
    2d62:	0000                	.insn	2, 0x0000
    2d64:	0000                	.insn	2, 0x0000
    2d66:	0000                	.insn	2, 0x0000
    2d68:	0000                	.insn	2, 0x0000
    2d6a:	0000                	.insn	2, 0x0000
    2d6c:	0000                	.insn	2, 0x0000
    2d6e:	0000                	.insn	2, 0x0000
    2d70:	0000                	.insn	2, 0x0000
    2d72:	0000                	.insn	2, 0x0000
    2d74:	0000                	.insn	2, 0x0000
    2d76:	0000                	.insn	2, 0x0000
    2d78:	0000                	.insn	2, 0x0000
    2d7a:	0000                	.insn	2, 0x0000
    2d7c:	0000                	.insn	2, 0x0000
    2d7e:	0000                	.insn	2, 0x0000
    2d80:	0000                	.insn	2, 0x0000
    2d82:	0000                	.insn	2, 0x0000
    2d84:	0000                	.insn	2, 0x0000
    2d86:	0000                	.insn	2, 0x0000
    2d88:	0000                	.insn	2, 0x0000
    2d8a:	0000                	.insn	2, 0x0000
    2d8c:	0000                	.insn	2, 0x0000
    2d8e:	0000                	.insn	2, 0x0000
    2d90:	0000                	.insn	2, 0x0000
    2d92:	0000                	.insn	2, 0x0000
    2d94:	0000                	.insn	2, 0x0000
    2d96:	0000                	.insn	2, 0x0000
    2d98:	0000                	.insn	2, 0x0000
    2d9a:	0000                	.insn	2, 0x0000
    2d9c:	0000                	.insn	2, 0x0000
    2d9e:	0000                	.insn	2, 0x0000
    2da0:	0000                	.insn	2, 0x0000
    2da2:	0000                	.insn	2, 0x0000
    2da4:	0000                	.insn	2, 0x0000
    2da6:	0000                	.insn	2, 0x0000
    2da8:	0000                	.insn	2, 0x0000
    2daa:	0000                	.insn	2, 0x0000
    2dac:	0000                	.insn	2, 0x0000
    2dae:	0000                	.insn	2, 0x0000
    2db0:	0000                	.insn	2, 0x0000
    2db2:	0000                	.insn	2, 0x0000
    2db4:	0000                	.insn	2, 0x0000
    2db6:	0000                	.insn	2, 0x0000
    2db8:	0000                	.insn	2, 0x0000
    2dba:	0000                	.insn	2, 0x0000
    2dbc:	0000                	.insn	2, 0x0000
    2dbe:	0000                	.insn	2, 0x0000
    2dc0:	0000                	.insn	2, 0x0000
    2dc2:	0000                	.insn	2, 0x0000
    2dc4:	0000                	.insn	2, 0x0000
    2dc6:	0000                	.insn	2, 0x0000
    2dc8:	0000                	.insn	2, 0x0000
    2dca:	0000                	.insn	2, 0x0000
    2dcc:	0000                	.insn	2, 0x0000
    2dce:	0000                	.insn	2, 0x0000
    2dd0:	0000                	.insn	2, 0x0000
    2dd2:	0000                	.insn	2, 0x0000
    2dd4:	0000                	.insn	2, 0x0000
    2dd6:	0000                	.insn	2, 0x0000
    2dd8:	0000                	.insn	2, 0x0000
    2dda:	0000                	.insn	2, 0x0000
    2ddc:	0000                	.insn	2, 0x0000
    2dde:	0000                	.insn	2, 0x0000
    2de0:	0000                	.insn	2, 0x0000
    2de2:	0000                	.insn	2, 0x0000
    2de4:	0000                	.insn	2, 0x0000
    2de6:	0000                	.insn	2, 0x0000
    2de8:	0000                	.insn	2, 0x0000
    2dea:	0000                	.insn	2, 0x0000
    2dec:	0000                	.insn	2, 0x0000
    2dee:	0000                	.insn	2, 0x0000
    2df0:	0000                	.insn	2, 0x0000
    2df2:	0000                	.insn	2, 0x0000
    2df4:	0000                	.insn	2, 0x0000
    2df6:	0000                	.insn	2, 0x0000
    2df8:	0000                	.insn	2, 0x0000
    2dfa:	0000                	.insn	2, 0x0000
    2dfc:	0000                	.insn	2, 0x0000
    2dfe:	0000                	.insn	2, 0x0000
    2e00:	0000                	.insn	2, 0x0000
    2e02:	0000                	.insn	2, 0x0000
    2e04:	0000                	.insn	2, 0x0000
    2e06:	0000                	.insn	2, 0x0000
    2e08:	0000                	.insn	2, 0x0000
    2e0a:	0000                	.insn	2, 0x0000
    2e0c:	0000                	.insn	2, 0x0000
    2e0e:	0000                	.insn	2, 0x0000
    2e10:	0000                	.insn	2, 0x0000
    2e12:	0000                	.insn	2, 0x0000
    2e14:	0000                	.insn	2, 0x0000
    2e16:	0000                	.insn	2, 0x0000
    2e18:	0000                	.insn	2, 0x0000
    2e1a:	0000                	.insn	2, 0x0000
    2e1c:	0000                	.insn	2, 0x0000
    2e1e:	0000                	.insn	2, 0x0000
    2e20:	0000                	.insn	2, 0x0000
    2e22:	0000                	.insn	2, 0x0000
    2e24:	0000                	.insn	2, 0x0000
    2e26:	0000                	.insn	2, 0x0000
    2e28:	0000                	.insn	2, 0x0000
    2e2a:	0000                	.insn	2, 0x0000
    2e2c:	0000                	.insn	2, 0x0000
    2e2e:	0000                	.insn	2, 0x0000
    2e30:	0000                	.insn	2, 0x0000
    2e32:	0000                	.insn	2, 0x0000
    2e34:	0000                	.insn	2, 0x0000
    2e36:	0000                	.insn	2, 0x0000
    2e38:	0000                	.insn	2, 0x0000
    2e3a:	0000                	.insn	2, 0x0000
    2e3c:	0000                	.insn	2, 0x0000
    2e3e:	0000                	.insn	2, 0x0000
    2e40:	0000                	.insn	2, 0x0000
    2e42:	0000                	.insn	2, 0x0000
    2e44:	0000                	.insn	2, 0x0000
    2e46:	0000                	.insn	2, 0x0000
    2e48:	0000                	.insn	2, 0x0000
    2e4a:	0000                	.insn	2, 0x0000
    2e4c:	0000                	.insn	2, 0x0000
    2e4e:	0000                	.insn	2, 0x0000
    2e50:	0000                	.insn	2, 0x0000
    2e52:	0000                	.insn	2, 0x0000
    2e54:	0000                	.insn	2, 0x0000
    2e56:	0000                	.insn	2, 0x0000
    2e58:	0000                	.insn	2, 0x0000
    2e5a:	0000                	.insn	2, 0x0000
    2e5c:	0000                	.insn	2, 0x0000
    2e5e:	0000                	.insn	2, 0x0000
    2e60:	0000                	.insn	2, 0x0000
    2e62:	0000                	.insn	2, 0x0000
    2e64:	0000                	.insn	2, 0x0000
    2e66:	0000                	.insn	2, 0x0000
    2e68:	0000                	.insn	2, 0x0000
    2e6a:	0000                	.insn	2, 0x0000
    2e6c:	0000                	.insn	2, 0x0000
    2e6e:	0000                	.insn	2, 0x0000
    2e70:	0000                	.insn	2, 0x0000
    2e72:	0000                	.insn	2, 0x0000
    2e74:	0000                	.insn	2, 0x0000
    2e76:	0000                	.insn	2, 0x0000
    2e78:	0000                	.insn	2, 0x0000
    2e7a:	0000                	.insn	2, 0x0000
    2e7c:	0000                	.insn	2, 0x0000
    2e7e:	0000                	.insn	2, 0x0000
    2e80:	0000                	.insn	2, 0x0000
    2e82:	0000                	.insn	2, 0x0000
    2e84:	0000                	.insn	2, 0x0000
    2e86:	0000                	.insn	2, 0x0000
    2e88:	0000                	.insn	2, 0x0000
    2e8a:	0000                	.insn	2, 0x0000
    2e8c:	0000                	.insn	2, 0x0000
    2e8e:	0000                	.insn	2, 0x0000
    2e90:	0000                	.insn	2, 0x0000
    2e92:	0000                	.insn	2, 0x0000
    2e94:	0000                	.insn	2, 0x0000
    2e96:	0000                	.insn	2, 0x0000
    2e98:	0000                	.insn	2, 0x0000
    2e9a:	0000                	.insn	2, 0x0000
    2e9c:	0000                	.insn	2, 0x0000
    2e9e:	0000                	.insn	2, 0x0000
    2ea0:	0000                	.insn	2, 0x0000
    2ea2:	0000                	.insn	2, 0x0000
    2ea4:	0000                	.insn	2, 0x0000
    2ea6:	0000                	.insn	2, 0x0000
    2ea8:	0000                	.insn	2, 0x0000
    2eaa:	0000                	.insn	2, 0x0000
    2eac:	0000                	.insn	2, 0x0000
    2eae:	0000                	.insn	2, 0x0000
    2eb0:	0000                	.insn	2, 0x0000
    2eb2:	0000                	.insn	2, 0x0000
    2eb4:	0000                	.insn	2, 0x0000
    2eb6:	0000                	.insn	2, 0x0000
    2eb8:	0000                	.insn	2, 0x0000
    2eba:	0000                	.insn	2, 0x0000
    2ebc:	0000                	.insn	2, 0x0000
    2ebe:	0000                	.insn	2, 0x0000
    2ec0:	0000                	.insn	2, 0x0000
    2ec2:	0000                	.insn	2, 0x0000
    2ec4:	0000                	.insn	2, 0x0000
    2ec6:	0000                	.insn	2, 0x0000
    2ec8:	0000                	.insn	2, 0x0000
    2eca:	0000                	.insn	2, 0x0000
    2ecc:	0000                	.insn	2, 0x0000
    2ece:	0000                	.insn	2, 0x0000
    2ed0:	0000                	.insn	2, 0x0000
    2ed2:	0000                	.insn	2, 0x0000
    2ed4:	0000                	.insn	2, 0x0000
    2ed6:	0000                	.insn	2, 0x0000
    2ed8:	0000                	.insn	2, 0x0000
    2eda:	0000                	.insn	2, 0x0000
    2edc:	0000                	.insn	2, 0x0000
    2ede:	0000                	.insn	2, 0x0000
    2ee0:	0000                	.insn	2, 0x0000
    2ee2:	0000                	.insn	2, 0x0000
    2ee4:	0000                	.insn	2, 0x0000
    2ee6:	0000                	.insn	2, 0x0000
    2ee8:	0000                	.insn	2, 0x0000
    2eea:	0000                	.insn	2, 0x0000
    2eec:	0000                	.insn	2, 0x0000
    2eee:	0000                	.insn	2, 0x0000
    2ef0:	0000                	.insn	2, 0x0000
    2ef2:	0000                	.insn	2, 0x0000
    2ef4:	0000                	.insn	2, 0x0000
    2ef6:	0000                	.insn	2, 0x0000
    2ef8:	0000                	.insn	2, 0x0000
    2efa:	0000                	.insn	2, 0x0000
    2efc:	0000                	.insn	2, 0x0000
    2efe:	0000                	.insn	2, 0x0000
    2f00:	0000                	.insn	2, 0x0000
    2f02:	0000                	.insn	2, 0x0000
    2f04:	0000                	.insn	2, 0x0000
    2f06:	0000                	.insn	2, 0x0000
    2f08:	0000                	.insn	2, 0x0000
    2f0a:	0000                	.insn	2, 0x0000
    2f0c:	0000                	.insn	2, 0x0000
    2f0e:	0000                	.insn	2, 0x0000
    2f10:	0000                	.insn	2, 0x0000
    2f12:	0000                	.insn	2, 0x0000
    2f14:	0000                	.insn	2, 0x0000
    2f16:	0000                	.insn	2, 0x0000
    2f18:	0000                	.insn	2, 0x0000
    2f1a:	0000                	.insn	2, 0x0000
    2f1c:	0000                	.insn	2, 0x0000
    2f1e:	0000                	.insn	2, 0x0000
    2f20:	0000                	.insn	2, 0x0000
    2f22:	0000                	.insn	2, 0x0000
    2f24:	0000                	.insn	2, 0x0000
    2f26:	0000                	.insn	2, 0x0000
    2f28:	0000                	.insn	2, 0x0000
    2f2a:	0000                	.insn	2, 0x0000
    2f2c:	0000                	.insn	2, 0x0000
    2f2e:	0000                	.insn	2, 0x0000
    2f30:	0000                	.insn	2, 0x0000
    2f32:	0000                	.insn	2, 0x0000
    2f34:	0000                	.insn	2, 0x0000
    2f36:	0000                	.insn	2, 0x0000
    2f38:	0000                	.insn	2, 0x0000
    2f3a:	0000                	.insn	2, 0x0000
    2f3c:	0000                	.insn	2, 0x0000
    2f3e:	0000                	.insn	2, 0x0000
    2f40:	0000                	.insn	2, 0x0000
    2f42:	0000                	.insn	2, 0x0000
    2f44:	0000                	.insn	2, 0x0000
    2f46:	0000                	.insn	2, 0x0000
    2f48:	0000                	.insn	2, 0x0000
    2f4a:	0000                	.insn	2, 0x0000
    2f4c:	0000                	.insn	2, 0x0000
    2f4e:	0000                	.insn	2, 0x0000
    2f50:	0000                	.insn	2, 0x0000
    2f52:	0000                	.insn	2, 0x0000
    2f54:	0000                	.insn	2, 0x0000
    2f56:	0000                	.insn	2, 0x0000
    2f58:	0000                	.insn	2, 0x0000
    2f5a:	0000                	.insn	2, 0x0000
    2f5c:	0000                	.insn	2, 0x0000
    2f5e:	0000                	.insn	2, 0x0000
    2f60:	0000                	.insn	2, 0x0000
    2f62:	0000                	.insn	2, 0x0000
    2f64:	0000                	.insn	2, 0x0000
    2f66:	0000                	.insn	2, 0x0000
    2f68:	0000                	.insn	2, 0x0000
    2f6a:	0000                	.insn	2, 0x0000
    2f6c:	0000                	.insn	2, 0x0000
    2f6e:	0000                	.insn	2, 0x0000
    2f70:	0000                	.insn	2, 0x0000
    2f72:	0000                	.insn	2, 0x0000
    2f74:	0000                	.insn	2, 0x0000
    2f76:	0000                	.insn	2, 0x0000
    2f78:	0000                	.insn	2, 0x0000
    2f7a:	0000                	.insn	2, 0x0000
    2f7c:	0000                	.insn	2, 0x0000
    2f7e:	0000                	.insn	2, 0x0000
    2f80:	0000                	.insn	2, 0x0000
    2f82:	0000                	.insn	2, 0x0000
    2f84:	0000                	.insn	2, 0x0000
    2f86:	0000                	.insn	2, 0x0000
    2f88:	0000                	.insn	2, 0x0000
    2f8a:	0000                	.insn	2, 0x0000
    2f8c:	0000                	.insn	2, 0x0000
    2f8e:	0000                	.insn	2, 0x0000
    2f90:	0000                	.insn	2, 0x0000
    2f92:	0000                	.insn	2, 0x0000
    2f94:	0000                	.insn	2, 0x0000
    2f96:	0000                	.insn	2, 0x0000
    2f98:	0000                	.insn	2, 0x0000
    2f9a:	0000                	.insn	2, 0x0000
    2f9c:	0000                	.insn	2, 0x0000
    2f9e:	0000                	.insn	2, 0x0000
    2fa0:	0000                	.insn	2, 0x0000
    2fa2:	0000                	.insn	2, 0x0000
    2fa4:	0000                	.insn	2, 0x0000
    2fa6:	0000                	.insn	2, 0x0000
    2fa8:	0000                	.insn	2, 0x0000
    2faa:	0000                	.insn	2, 0x0000
    2fac:	0000                	.insn	2, 0x0000
    2fae:	0000                	.insn	2, 0x0000
    2fb0:	0000                	.insn	2, 0x0000
    2fb2:	0000                	.insn	2, 0x0000
    2fb4:	0000                	.insn	2, 0x0000
    2fb6:	0000                	.insn	2, 0x0000
    2fb8:	0000                	.insn	2, 0x0000
    2fba:	0000                	.insn	2, 0x0000
    2fbc:	0000                	.insn	2, 0x0000
    2fbe:	0000                	.insn	2, 0x0000
    2fc0:	0000                	.insn	2, 0x0000
    2fc2:	0000                	.insn	2, 0x0000
    2fc4:	0000                	.insn	2, 0x0000
    2fc6:	0000                	.insn	2, 0x0000
    2fc8:	0000                	.insn	2, 0x0000
    2fca:	0000                	.insn	2, 0x0000
    2fcc:	0000                	.insn	2, 0x0000
    2fce:	0000                	.insn	2, 0x0000
    2fd0:	0000                	.insn	2, 0x0000
    2fd2:	0000                	.insn	2, 0x0000
    2fd4:	0000                	.insn	2, 0x0000
    2fd6:	0000                	.insn	2, 0x0000
    2fd8:	0000                	.insn	2, 0x0000
    2fda:	0000                	.insn	2, 0x0000
    2fdc:	0000                	.insn	2, 0x0000
    2fde:	0000                	.insn	2, 0x0000
    2fe0:	0000                	.insn	2, 0x0000
    2fe2:	0000                	.insn	2, 0x0000
    2fe4:	0000                	.insn	2, 0x0000
    2fe6:	0000                	.insn	2, 0x0000
    2fe8:	0000                	.insn	2, 0x0000
    2fea:	0000                	.insn	2, 0x0000
    2fec:	0000                	.insn	2, 0x0000
    2fee:	0000                	.insn	2, 0x0000
    2ff0:	0000                	.insn	2, 0x0000
    2ff2:	0000                	.insn	2, 0x0000
    2ff4:	0000                	.insn	2, 0x0000
    2ff6:	0000                	.insn	2, 0x0000
    2ff8:	0000                	.insn	2, 0x0000
    2ffa:	0000                	.insn	2, 0x0000
    2ffc:	0000                	.insn	2, 0x0000
    2ffe:	0000                	.insn	2, 0x0000

0000000000003000 <extra_boot>:
    3000:	00008067          	ret

0000000000003004 <trap_filter>:
    3004:	00000513          	li	a0,0
    3008:	00008067          	ret

000000000000300c <pf_filter>:
    300c:	00000513          	li	a0,0
    3010:	00008067          	ret

0000000000003014 <userstart>:
    3014:	00200193          	li	gp,2
    3018:	29a00593          	li	a1,666

000000000000301c <test_2>:
    301c:	00200193          	li	gp,2
    3020:	7df0106f          	j	4ffe <data+0x1fd6>
    3024:	00000013          	nop

0000000000003028 <data>:
    3028:	3210                	.insn	2, 0x3210
    302a:	7654                	.insn	2, 0x7654
    302c:	ba98                	.insn	2, 0xba98
    302e:	fedc                	.insn	2, 0xfedc
    3030:	3210                	.insn	2, 0x3210
    3032:	7654                	.insn	2, 0x7654
    3034:	ba98                	.insn	2, 0xba98
    3036:	fedc                	.insn	2, 0xfedc
    3038:	00000013          	nop
    303c:	00000013          	nop
    3040:	00000013          	nop
    3044:	00000013          	nop
    3048:	00000013          	nop
    304c:	00000013          	nop
    3050:	00000013          	nop
    3054:	00000013          	nop
    3058:	00000013          	nop
    305c:	00000013          	nop
    3060:	00000013          	nop
    3064:	00000013          	nop
    3068:	00000013          	nop
    306c:	00000013          	nop
    3070:	00000013          	nop
    3074:	00000013          	nop
    3078:	00000013          	nop
    307c:	00000013          	nop
    3080:	00000013          	nop
    3084:	00000013          	nop
    3088:	00000013          	nop
    308c:	00000013          	nop
    3090:	00000013          	nop
    3094:	00000013          	nop
    3098:	00000013          	nop
    309c:	00000013          	nop
    30a0:	00000013          	nop
    30a4:	00000013          	nop
    30a8:	00000013          	nop
    30ac:	00000013          	nop
    30b0:	00000013          	nop
    30b4:	00000013          	nop
    30b8:	00000013          	nop
    30bc:	00000013          	nop
    30c0:	00000013          	nop
    30c4:	00000013          	nop
    30c8:	00000013          	nop
    30cc:	00000013          	nop
    30d0:	00000013          	nop
    30d4:	00000013          	nop
    30d8:	00000013          	nop
    30dc:	00000013          	nop
    30e0:	00000013          	nop
    30e4:	00000013          	nop
    30e8:	00000013          	nop
    30ec:	00000013          	nop
    30f0:	00000013          	nop
    30f4:	00000013          	nop
    30f8:	00000013          	nop
    30fc:	00000013          	nop
    3100:	00000013          	nop
    3104:	00000013          	nop
    3108:	00000013          	nop
    310c:	00000013          	nop
    3110:	00000013          	nop
    3114:	00000013          	nop
    3118:	00000013          	nop
    311c:	00000013          	nop
    3120:	00000013          	nop
    3124:	00000013          	nop
    3128:	00000013          	nop
    312c:	00000013          	nop
    3130:	00000013          	nop
    3134:	00000013          	nop
    3138:	00000013          	nop
    313c:	00000013          	nop
    3140:	00000013          	nop
    3144:	00000013          	nop
    3148:	00000013          	nop
    314c:	00000013          	nop
    3150:	00000013          	nop
    3154:	00000013          	nop
    3158:	00000013          	nop
    315c:	00000013          	nop
    3160:	00000013          	nop
    3164:	00000013          	nop
    3168:	00000013          	nop
    316c:	00000013          	nop
    3170:	00000013          	nop
    3174:	00000013          	nop
    3178:	00000013          	nop
    317c:	00000013          	nop
    3180:	00000013          	nop
    3184:	00000013          	nop
    3188:	00000013          	nop
    318c:	00000013          	nop
    3190:	00000013          	nop
    3194:	00000013          	nop
    3198:	00000013          	nop
    319c:	00000013          	nop
    31a0:	00000013          	nop
    31a4:	00000013          	nop
    31a8:	00000013          	nop
    31ac:	00000013          	nop
    31b0:	00000013          	nop
    31b4:	00000013          	nop
    31b8:	00000013          	nop
    31bc:	00000013          	nop
    31c0:	00000013          	nop
    31c4:	00000013          	nop
    31c8:	00000013          	nop
    31cc:	00000013          	nop
    31d0:	00000013          	nop
    31d4:	00000013          	nop
    31d8:	00000013          	nop
    31dc:	00000013          	nop
    31e0:	00000013          	nop
    31e4:	00000013          	nop
    31e8:	00000013          	nop
    31ec:	00000013          	nop
    31f0:	00000013          	nop
    31f4:	00000013          	nop
    31f8:	00000013          	nop
    31fc:	00000013          	nop
    3200:	00000013          	nop
    3204:	00000013          	nop
    3208:	00000013          	nop
    320c:	00000013          	nop
    3210:	00000013          	nop
    3214:	00000013          	nop
    3218:	00000013          	nop
    321c:	00000013          	nop
    3220:	00000013          	nop
    3224:	00000013          	nop
    3228:	00000013          	nop
    322c:	00000013          	nop
    3230:	00000013          	nop
    3234:	00000013          	nop
    3238:	00000013          	nop
    323c:	00000013          	nop
    3240:	00000013          	nop
    3244:	00000013          	nop
    3248:	00000013          	nop
    324c:	00000013          	nop
    3250:	00000013          	nop
    3254:	00000013          	nop
    3258:	00000013          	nop
    325c:	00000013          	nop
    3260:	00000013          	nop
    3264:	00000013          	nop
    3268:	00000013          	nop
    326c:	00000013          	nop
    3270:	00000013          	nop
    3274:	00000013          	nop
    3278:	00000013          	nop
    327c:	00000013          	nop
    3280:	00000013          	nop
    3284:	00000013          	nop
    3288:	00000013          	nop
    328c:	00000013          	nop
    3290:	00000013          	nop
    3294:	00000013          	nop
    3298:	00000013          	nop
    329c:	00000013          	nop
    32a0:	00000013          	nop
    32a4:	00000013          	nop
    32a8:	00000013          	nop
    32ac:	00000013          	nop
    32b0:	00000013          	nop
    32b4:	00000013          	nop
    32b8:	00000013          	nop
    32bc:	00000013          	nop
    32c0:	00000013          	nop
    32c4:	00000013          	nop
    32c8:	00000013          	nop
    32cc:	00000013          	nop
    32d0:	00000013          	nop
    32d4:	00000013          	nop
    32d8:	00000013          	nop
    32dc:	00000013          	nop
    32e0:	00000013          	nop
    32e4:	00000013          	nop
    32e8:	00000013          	nop
    32ec:	00000013          	nop
    32f0:	00000013          	nop
    32f4:	00000013          	nop
    32f8:	00000013          	nop
    32fc:	00000013          	nop
    3300:	00000013          	nop
    3304:	00000013          	nop
    3308:	00000013          	nop
    330c:	00000013          	nop
    3310:	00000013          	nop
    3314:	00000013          	nop
    3318:	00000013          	nop
    331c:	00000013          	nop
    3320:	00000013          	nop
    3324:	00000013          	nop
    3328:	00000013          	nop
    332c:	00000013          	nop
    3330:	00000013          	nop
    3334:	00000013          	nop
    3338:	00000013          	nop
    333c:	00000013          	nop
    3340:	00000013          	nop
    3344:	00000013          	nop
    3348:	00000013          	nop
    334c:	00000013          	nop
    3350:	00000013          	nop
    3354:	00000013          	nop
    3358:	00000013          	nop
    335c:	00000013          	nop
    3360:	00000013          	nop
    3364:	00000013          	nop
    3368:	00000013          	nop
    336c:	00000013          	nop
    3370:	00000013          	nop
    3374:	00000013          	nop
    3378:	00000013          	nop
    337c:	00000013          	nop
    3380:	00000013          	nop
    3384:	00000013          	nop
    3388:	00000013          	nop
    338c:	00000013          	nop
    3390:	00000013          	nop
    3394:	00000013          	nop
    3398:	00000013          	nop
    339c:	00000013          	nop
    33a0:	00000013          	nop
    33a4:	00000013          	nop
    33a8:	00000013          	nop
    33ac:	00000013          	nop
    33b0:	00000013          	nop
    33b4:	00000013          	nop
    33b8:	00000013          	nop
    33bc:	00000013          	nop
    33c0:	00000013          	nop
    33c4:	00000013          	nop
    33c8:	00000013          	nop
    33cc:	00000013          	nop
    33d0:	00000013          	nop
    33d4:	00000013          	nop
    33d8:	00000013          	nop
    33dc:	00000013          	nop
    33e0:	00000013          	nop
    33e4:	00000013          	nop
    33e8:	00000013          	nop
    33ec:	00000013          	nop
    33f0:	00000013          	nop
    33f4:	00000013          	nop
    33f8:	00000013          	nop
    33fc:	00000013          	nop
    3400:	00000013          	nop
    3404:	00000013          	nop
    3408:	00000013          	nop
    340c:	00000013          	nop
    3410:	00000013          	nop
    3414:	00000013          	nop
    3418:	00000013          	nop
    341c:	00000013          	nop
    3420:	00000013          	nop
    3424:	00000013          	nop
    3428:	00000013          	nop
    342c:	00000013          	nop
    3430:	00000013          	nop
    3434:	00000013          	nop
    3438:	00000013          	nop
    343c:	00000013          	nop
    3440:	00000013          	nop
    3444:	00000013          	nop
    3448:	00000013          	nop
    344c:	00000013          	nop
    3450:	00000013          	nop
    3454:	00000013          	nop
    3458:	00000013          	nop
    345c:	00000013          	nop
    3460:	00000013          	nop
    3464:	00000013          	nop
    3468:	00000013          	nop
    346c:	00000013          	nop
    3470:	00000013          	nop
    3474:	00000013          	nop
    3478:	00000013          	nop
    347c:	00000013          	nop
    3480:	00000013          	nop
    3484:	00000013          	nop
    3488:	00000013          	nop
    348c:	00000013          	nop
    3490:	00000013          	nop
    3494:	00000013          	nop
    3498:	00000013          	nop
    349c:	00000013          	nop
    34a0:	00000013          	nop
    34a4:	00000013          	nop
    34a8:	00000013          	nop
    34ac:	00000013          	nop
    34b0:	00000013          	nop
    34b4:	00000013          	nop
    34b8:	00000013          	nop
    34bc:	00000013          	nop
    34c0:	00000013          	nop
    34c4:	00000013          	nop
    34c8:	00000013          	nop
    34cc:	00000013          	nop
    34d0:	00000013          	nop
    34d4:	00000013          	nop
    34d8:	00000013          	nop
    34dc:	00000013          	nop
    34e0:	00000013          	nop
    34e4:	00000013          	nop
    34e8:	00000013          	nop
    34ec:	00000013          	nop
    34f0:	00000013          	nop
    34f4:	00000013          	nop
    34f8:	00000013          	nop
    34fc:	00000013          	nop
    3500:	00000013          	nop
    3504:	00000013          	nop
    3508:	00000013          	nop
    350c:	00000013          	nop
    3510:	00000013          	nop
    3514:	00000013          	nop
    3518:	00000013          	nop
    351c:	00000013          	nop
    3520:	00000013          	nop
    3524:	00000013          	nop
    3528:	00000013          	nop
    352c:	00000013          	nop
    3530:	00000013          	nop
    3534:	00000013          	nop
    3538:	00000013          	nop
    353c:	00000013          	nop
    3540:	00000013          	nop
    3544:	00000013          	nop
    3548:	00000013          	nop
    354c:	00000013          	nop
    3550:	00000013          	nop
    3554:	00000013          	nop
    3558:	00000013          	nop
    355c:	00000013          	nop
    3560:	00000013          	nop
    3564:	00000013          	nop
    3568:	00000013          	nop
    356c:	00000013          	nop
    3570:	00000013          	nop
    3574:	00000013          	nop
    3578:	00000013          	nop
    357c:	00000013          	nop
    3580:	00000013          	nop
    3584:	00000013          	nop
    3588:	00000013          	nop
    358c:	00000013          	nop
    3590:	00000013          	nop
    3594:	00000013          	nop
    3598:	00000013          	nop
    359c:	00000013          	nop
    35a0:	00000013          	nop
    35a4:	00000013          	nop
    35a8:	00000013          	nop
    35ac:	00000013          	nop
    35b0:	00000013          	nop
    35b4:	00000013          	nop
    35b8:	00000013          	nop
    35bc:	00000013          	nop
    35c0:	00000013          	nop
    35c4:	00000013          	nop
    35c8:	00000013          	nop
    35cc:	00000013          	nop
    35d0:	00000013          	nop
    35d4:	00000013          	nop
    35d8:	00000013          	nop
    35dc:	00000013          	nop
    35e0:	00000013          	nop
    35e4:	00000013          	nop
    35e8:	00000013          	nop
    35ec:	00000013          	nop
    35f0:	00000013          	nop
    35f4:	00000013          	nop
    35f8:	00000013          	nop
    35fc:	00000013          	nop
    3600:	00000013          	nop
    3604:	00000013          	nop
    3608:	00000013          	nop
    360c:	00000013          	nop
    3610:	00000013          	nop
    3614:	00000013          	nop
    3618:	00000013          	nop
    361c:	00000013          	nop
    3620:	00000013          	nop
    3624:	00000013          	nop
    3628:	00000013          	nop
    362c:	00000013          	nop
    3630:	00000013          	nop
    3634:	00000013          	nop
    3638:	00000013          	nop
    363c:	00000013          	nop
    3640:	00000013          	nop
    3644:	00000013          	nop
    3648:	00000013          	nop
    364c:	00000013          	nop
    3650:	00000013          	nop
    3654:	00000013          	nop
    3658:	00000013          	nop
    365c:	00000013          	nop
    3660:	00000013          	nop
    3664:	00000013          	nop
    3668:	00000013          	nop
    366c:	00000013          	nop
    3670:	00000013          	nop
    3674:	00000013          	nop
    3678:	00000013          	nop
    367c:	00000013          	nop
    3680:	00000013          	nop
    3684:	00000013          	nop
    3688:	00000013          	nop
    368c:	00000013          	nop
    3690:	00000013          	nop
    3694:	00000013          	nop
    3698:	00000013          	nop
    369c:	00000013          	nop
    36a0:	00000013          	nop
    36a4:	00000013          	nop
    36a8:	00000013          	nop
    36ac:	00000013          	nop
    36b0:	00000013          	nop
    36b4:	00000013          	nop
    36b8:	00000013          	nop
    36bc:	00000013          	nop
    36c0:	00000013          	nop
    36c4:	00000013          	nop
    36c8:	00000013          	nop
    36cc:	00000013          	nop
    36d0:	00000013          	nop
    36d4:	00000013          	nop
    36d8:	00000013          	nop
    36dc:	00000013          	nop
    36e0:	00000013          	nop
    36e4:	00000013          	nop
    36e8:	00000013          	nop
    36ec:	00000013          	nop
    36f0:	00000013          	nop
    36f4:	00000013          	nop
    36f8:	00000013          	nop
    36fc:	00000013          	nop
    3700:	00000013          	nop
    3704:	00000013          	nop
    3708:	00000013          	nop
    370c:	00000013          	nop
    3710:	00000013          	nop
    3714:	00000013          	nop
    3718:	00000013          	nop
    371c:	00000013          	nop
    3720:	00000013          	nop
    3724:	00000013          	nop
    3728:	00000013          	nop
    372c:	00000013          	nop
    3730:	00000013          	nop
    3734:	00000013          	nop
    3738:	00000013          	nop
    373c:	00000013          	nop
    3740:	00000013          	nop
    3744:	00000013          	nop
    3748:	00000013          	nop
    374c:	00000013          	nop
    3750:	00000013          	nop
    3754:	00000013          	nop
    3758:	00000013          	nop
    375c:	00000013          	nop
    3760:	00000013          	nop
    3764:	00000013          	nop
    3768:	00000013          	nop
    376c:	00000013          	nop
    3770:	00000013          	nop
    3774:	00000013          	nop
    3778:	00000013          	nop
    377c:	00000013          	nop
    3780:	00000013          	nop
    3784:	00000013          	nop
    3788:	00000013          	nop
    378c:	00000013          	nop
    3790:	00000013          	nop
    3794:	00000013          	nop
    3798:	00000013          	nop
    379c:	00000013          	nop
    37a0:	00000013          	nop
    37a4:	00000013          	nop
    37a8:	00000013          	nop
    37ac:	00000013          	nop
    37b0:	00000013          	nop
    37b4:	00000013          	nop
    37b8:	00000013          	nop
    37bc:	00000013          	nop
    37c0:	00000013          	nop
    37c4:	00000013          	nop
    37c8:	00000013          	nop
    37cc:	00000013          	nop
    37d0:	00000013          	nop
    37d4:	00000013          	nop
    37d8:	00000013          	nop
    37dc:	00000013          	nop
    37e0:	00000013          	nop
    37e4:	00000013          	nop
    37e8:	00000013          	nop
    37ec:	00000013          	nop
    37f0:	00000013          	nop
    37f4:	00000013          	nop
    37f8:	00000013          	nop
    37fc:	00000013          	nop
    3800:	00000013          	nop
    3804:	00000013          	nop
    3808:	00000013          	nop
    380c:	00000013          	nop
    3810:	00000013          	nop
    3814:	00000013          	nop
    3818:	00000013          	nop
    381c:	00000013          	nop
    3820:	00000013          	nop
    3824:	00000013          	nop
    3828:	00000013          	nop
    382c:	00000013          	nop
    3830:	00000013          	nop
    3834:	00000013          	nop
    3838:	00000013          	nop
    383c:	00000013          	nop
    3840:	00000013          	nop
    3844:	00000013          	nop
    3848:	00000013          	nop
    384c:	00000013          	nop
    3850:	00000013          	nop
    3854:	00000013          	nop
    3858:	00000013          	nop
    385c:	00000013          	nop
    3860:	00000013          	nop
    3864:	00000013          	nop
    3868:	00000013          	nop
    386c:	00000013          	nop
    3870:	00000013          	nop
    3874:	00000013          	nop
    3878:	00000013          	nop
    387c:	00000013          	nop
    3880:	00000013          	nop
    3884:	00000013          	nop
    3888:	00000013          	nop
    388c:	00000013          	nop
    3890:	00000013          	nop
    3894:	00000013          	nop
    3898:	00000013          	nop
    389c:	00000013          	nop
    38a0:	00000013          	nop
    38a4:	00000013          	nop
    38a8:	00000013          	nop
    38ac:	00000013          	nop
    38b0:	00000013          	nop
    38b4:	00000013          	nop
    38b8:	00000013          	nop
    38bc:	00000013          	nop
    38c0:	00000013          	nop
    38c4:	00000013          	nop
    38c8:	00000013          	nop
    38cc:	00000013          	nop
    38d0:	00000013          	nop
    38d4:	00000013          	nop
    38d8:	00000013          	nop
    38dc:	00000013          	nop
    38e0:	00000013          	nop
    38e4:	00000013          	nop
    38e8:	00000013          	nop
    38ec:	00000013          	nop
    38f0:	00000013          	nop
    38f4:	00000013          	nop
    38f8:	00000013          	nop
    38fc:	00000013          	nop
    3900:	00000013          	nop
    3904:	00000013          	nop
    3908:	00000013          	nop
    390c:	00000013          	nop
    3910:	00000013          	nop
    3914:	00000013          	nop
    3918:	00000013          	nop
    391c:	00000013          	nop
    3920:	00000013          	nop
    3924:	00000013          	nop
    3928:	00000013          	nop
    392c:	00000013          	nop
    3930:	00000013          	nop
    3934:	00000013          	nop
    3938:	00000013          	nop
    393c:	00000013          	nop
    3940:	00000013          	nop
    3944:	00000013          	nop
    3948:	00000013          	nop
    394c:	00000013          	nop
    3950:	00000013          	nop
    3954:	00000013          	nop
    3958:	00000013          	nop
    395c:	00000013          	nop
    3960:	00000013          	nop
    3964:	00000013          	nop
    3968:	00000013          	nop
    396c:	00000013          	nop
    3970:	00000013          	nop
    3974:	00000013          	nop
    3978:	00000013          	nop
    397c:	00000013          	nop
    3980:	00000013          	nop
    3984:	00000013          	nop
    3988:	00000013          	nop
    398c:	00000013          	nop
    3990:	00000013          	nop
    3994:	00000013          	nop
    3998:	00000013          	nop
    399c:	00000013          	nop
    39a0:	00000013          	nop
    39a4:	00000013          	nop
    39a8:	00000013          	nop
    39ac:	00000013          	nop
    39b0:	00000013          	nop
    39b4:	00000013          	nop
    39b8:	00000013          	nop
    39bc:	00000013          	nop
    39c0:	00000013          	nop
    39c4:	00000013          	nop
    39c8:	00000013          	nop
    39cc:	00000013          	nop
    39d0:	00000013          	nop
    39d4:	00000013          	nop
    39d8:	00000013          	nop
    39dc:	00000013          	nop
    39e0:	00000013          	nop
    39e4:	00000013          	nop
    39e8:	00000013          	nop
    39ec:	00000013          	nop
    39f0:	00000013          	nop
    39f4:	00000013          	nop
    39f8:	00000013          	nop
    39fc:	00000013          	nop
    3a00:	00000013          	nop
    3a04:	00000013          	nop
    3a08:	00000013          	nop
    3a0c:	00000013          	nop
    3a10:	00000013          	nop
    3a14:	00000013          	nop
    3a18:	00000013          	nop
    3a1c:	00000013          	nop
    3a20:	00000013          	nop
    3a24:	00000013          	nop
    3a28:	00000013          	nop
    3a2c:	00000013          	nop
    3a30:	00000013          	nop
    3a34:	00000013          	nop
    3a38:	00000013          	nop
    3a3c:	00000013          	nop
    3a40:	00000013          	nop
    3a44:	00000013          	nop
    3a48:	00000013          	nop
    3a4c:	00000013          	nop
    3a50:	00000013          	nop
    3a54:	00000013          	nop
    3a58:	00000013          	nop
    3a5c:	00000013          	nop
    3a60:	00000013          	nop
    3a64:	00000013          	nop
    3a68:	00000013          	nop
    3a6c:	00000013          	nop
    3a70:	00000013          	nop
    3a74:	00000013          	nop
    3a78:	00000013          	nop
    3a7c:	00000013          	nop
    3a80:	00000013          	nop
    3a84:	00000013          	nop
    3a88:	00000013          	nop
    3a8c:	00000013          	nop
    3a90:	00000013          	nop
    3a94:	00000013          	nop
    3a98:	00000013          	nop
    3a9c:	00000013          	nop
    3aa0:	00000013          	nop
    3aa4:	00000013          	nop
    3aa8:	00000013          	nop
    3aac:	00000013          	nop
    3ab0:	00000013          	nop
    3ab4:	00000013          	nop
    3ab8:	00000013          	nop
    3abc:	00000013          	nop
    3ac0:	00000013          	nop
    3ac4:	00000013          	nop
    3ac8:	00000013          	nop
    3acc:	00000013          	nop
    3ad0:	00000013          	nop
    3ad4:	00000013          	nop
    3ad8:	00000013          	nop
    3adc:	00000013          	nop
    3ae0:	00000013          	nop
    3ae4:	00000013          	nop
    3ae8:	00000013          	nop
    3aec:	00000013          	nop
    3af0:	00000013          	nop
    3af4:	00000013          	nop
    3af8:	00000013          	nop
    3afc:	00000013          	nop
    3b00:	00000013          	nop
    3b04:	00000013          	nop
    3b08:	00000013          	nop
    3b0c:	00000013          	nop
    3b10:	00000013          	nop
    3b14:	00000013          	nop
    3b18:	00000013          	nop
    3b1c:	00000013          	nop
    3b20:	00000013          	nop
    3b24:	00000013          	nop
    3b28:	00000013          	nop
    3b2c:	00000013          	nop
    3b30:	00000013          	nop
    3b34:	00000013          	nop
    3b38:	00000013          	nop
    3b3c:	00000013          	nop
    3b40:	00000013          	nop
    3b44:	00000013          	nop
    3b48:	00000013          	nop
    3b4c:	00000013          	nop
    3b50:	00000013          	nop
    3b54:	00000013          	nop
    3b58:	00000013          	nop
    3b5c:	00000013          	nop
    3b60:	00000013          	nop
    3b64:	00000013          	nop
    3b68:	00000013          	nop
    3b6c:	00000013          	nop
    3b70:	00000013          	nop
    3b74:	00000013          	nop
    3b78:	00000013          	nop
    3b7c:	00000013          	nop
    3b80:	00000013          	nop
    3b84:	00000013          	nop
    3b88:	00000013          	nop
    3b8c:	00000013          	nop
    3b90:	00000013          	nop
    3b94:	00000013          	nop
    3b98:	00000013          	nop
    3b9c:	00000013          	nop
    3ba0:	00000013          	nop
    3ba4:	00000013          	nop
    3ba8:	00000013          	nop
    3bac:	00000013          	nop
    3bb0:	00000013          	nop
    3bb4:	00000013          	nop
    3bb8:	00000013          	nop
    3bbc:	00000013          	nop
    3bc0:	00000013          	nop
    3bc4:	00000013          	nop
    3bc8:	00000013          	nop
    3bcc:	00000013          	nop
    3bd0:	00000013          	nop
    3bd4:	00000013          	nop
    3bd8:	00000013          	nop
    3bdc:	00000013          	nop
    3be0:	00000013          	nop
    3be4:	00000013          	nop
    3be8:	00000013          	nop
    3bec:	00000013          	nop
    3bf0:	00000013          	nop
    3bf4:	00000013          	nop
    3bf8:	00000013          	nop
    3bfc:	00000013          	nop
    3c00:	00000013          	nop
    3c04:	00000013          	nop
    3c08:	00000013          	nop
    3c0c:	00000013          	nop
    3c10:	00000013          	nop
    3c14:	00000013          	nop
    3c18:	00000013          	nop
    3c1c:	00000013          	nop
    3c20:	00000013          	nop
    3c24:	00000013          	nop
    3c28:	00000013          	nop
    3c2c:	00000013          	nop
    3c30:	00000013          	nop
    3c34:	00000013          	nop
    3c38:	00000013          	nop
    3c3c:	00000013          	nop
    3c40:	00000013          	nop
    3c44:	00000013          	nop
    3c48:	00000013          	nop
    3c4c:	00000013          	nop
    3c50:	00000013          	nop
    3c54:	00000013          	nop
    3c58:	00000013          	nop
    3c5c:	00000013          	nop
    3c60:	00000013          	nop
    3c64:	00000013          	nop
    3c68:	00000013          	nop
    3c6c:	00000013          	nop
    3c70:	00000013          	nop
    3c74:	00000013          	nop
    3c78:	00000013          	nop
    3c7c:	00000013          	nop
    3c80:	00000013          	nop
    3c84:	00000013          	nop
    3c88:	00000013          	nop
    3c8c:	00000013          	nop
    3c90:	00000013          	nop
    3c94:	00000013          	nop
    3c98:	00000013          	nop
    3c9c:	00000013          	nop
    3ca0:	00000013          	nop
    3ca4:	00000013          	nop
    3ca8:	00000013          	nop
    3cac:	00000013          	nop
    3cb0:	00000013          	nop
    3cb4:	00000013          	nop
    3cb8:	00000013          	nop
    3cbc:	00000013          	nop
    3cc0:	00000013          	nop
    3cc4:	00000013          	nop
    3cc8:	00000013          	nop
    3ccc:	00000013          	nop
    3cd0:	00000013          	nop
    3cd4:	00000013          	nop
    3cd8:	00000013          	nop
    3cdc:	00000013          	nop
    3ce0:	00000013          	nop
    3ce4:	00000013          	nop
    3ce8:	00000013          	nop
    3cec:	00000013          	nop
    3cf0:	00000013          	nop
    3cf4:	00000013          	nop
    3cf8:	00000013          	nop
    3cfc:	00000013          	nop
    3d00:	00000013          	nop
    3d04:	00000013          	nop
    3d08:	00000013          	nop
    3d0c:	00000013          	nop
    3d10:	00000013          	nop
    3d14:	00000013          	nop
    3d18:	00000013          	nop
    3d1c:	00000013          	nop
    3d20:	00000013          	nop
    3d24:	00000013          	nop
    3d28:	00000013          	nop
    3d2c:	00000013          	nop
    3d30:	00000013          	nop
    3d34:	00000013          	nop
    3d38:	00000013          	nop
    3d3c:	00000013          	nop
    3d40:	00000013          	nop
    3d44:	00000013          	nop
    3d48:	00000013          	nop
    3d4c:	00000013          	nop
    3d50:	00000013          	nop
    3d54:	00000013          	nop
    3d58:	00000013          	nop
    3d5c:	00000013          	nop
    3d60:	00000013          	nop
    3d64:	00000013          	nop
    3d68:	00000013          	nop
    3d6c:	00000013          	nop
    3d70:	00000013          	nop
    3d74:	00000013          	nop
    3d78:	00000013          	nop
    3d7c:	00000013          	nop
    3d80:	00000013          	nop
    3d84:	00000013          	nop
    3d88:	00000013          	nop
    3d8c:	00000013          	nop
    3d90:	00000013          	nop
    3d94:	00000013          	nop
    3d98:	00000013          	nop
    3d9c:	00000013          	nop
    3da0:	00000013          	nop
    3da4:	00000013          	nop
    3da8:	00000013          	nop
    3dac:	00000013          	nop
    3db0:	00000013          	nop
    3db4:	00000013          	nop
    3db8:	00000013          	nop
    3dbc:	00000013          	nop
    3dc0:	00000013          	nop
    3dc4:	00000013          	nop
    3dc8:	00000013          	nop
    3dcc:	00000013          	nop
    3dd0:	00000013          	nop
    3dd4:	00000013          	nop
    3dd8:	00000013          	nop
    3ddc:	00000013          	nop
    3de0:	00000013          	nop
    3de4:	00000013          	nop
    3de8:	00000013          	nop
    3dec:	00000013          	nop
    3df0:	00000013          	nop
    3df4:	00000013          	nop
    3df8:	00000013          	nop
    3dfc:	00000013          	nop
    3e00:	00000013          	nop
    3e04:	00000013          	nop
    3e08:	00000013          	nop
    3e0c:	00000013          	nop
    3e10:	00000013          	nop
    3e14:	00000013          	nop
    3e18:	00000013          	nop
    3e1c:	00000013          	nop
    3e20:	00000013          	nop
    3e24:	00000013          	nop
    3e28:	00000013          	nop
    3e2c:	00000013          	nop
    3e30:	00000013          	nop
    3e34:	00000013          	nop
    3e38:	00000013          	nop
    3e3c:	00000013          	nop
    3e40:	00000013          	nop
    3e44:	00000013          	nop
    3e48:	00000013          	nop
    3e4c:	00000013          	nop
    3e50:	00000013          	nop
    3e54:	00000013          	nop
    3e58:	00000013          	nop
    3e5c:	00000013          	nop
    3e60:	00000013          	nop
    3e64:	00000013          	nop
    3e68:	00000013          	nop
    3e6c:	00000013          	nop
    3e70:	00000013          	nop
    3e74:	00000013          	nop
    3e78:	00000013          	nop
    3e7c:	00000013          	nop
    3e80:	00000013          	nop
    3e84:	00000013          	nop
    3e88:	00000013          	nop
    3e8c:	00000013          	nop
    3e90:	00000013          	nop
    3e94:	00000013          	nop
    3e98:	00000013          	nop
    3e9c:	00000013          	nop
    3ea0:	00000013          	nop
    3ea4:	00000013          	nop
    3ea8:	00000013          	nop
    3eac:	00000013          	nop
    3eb0:	00000013          	nop
    3eb4:	00000013          	nop
    3eb8:	00000013          	nop
    3ebc:	00000013          	nop
    3ec0:	00000013          	nop
    3ec4:	00000013          	nop
    3ec8:	00000013          	nop
    3ecc:	00000013          	nop
    3ed0:	00000013          	nop
    3ed4:	00000013          	nop
    3ed8:	00000013          	nop
    3edc:	00000013          	nop
    3ee0:	00000013          	nop
    3ee4:	00000013          	nop
    3ee8:	00000013          	nop
    3eec:	00000013          	nop
    3ef0:	00000013          	nop
    3ef4:	00000013          	nop
    3ef8:	00000013          	nop
    3efc:	00000013          	nop
    3f00:	00000013          	nop
    3f04:	00000013          	nop
    3f08:	00000013          	nop
    3f0c:	00000013          	nop
    3f10:	00000013          	nop
    3f14:	00000013          	nop
    3f18:	00000013          	nop
    3f1c:	00000013          	nop
    3f20:	00000013          	nop
    3f24:	00000013          	nop
    3f28:	00000013          	nop
    3f2c:	00000013          	nop
    3f30:	00000013          	nop
    3f34:	00000013          	nop
    3f38:	00000013          	nop
    3f3c:	00000013          	nop
    3f40:	00000013          	nop
    3f44:	00000013          	nop
    3f48:	00000013          	nop
    3f4c:	00000013          	nop
    3f50:	00000013          	nop
    3f54:	00000013          	nop
    3f58:	00000013          	nop
    3f5c:	00000013          	nop
    3f60:	00000013          	nop
    3f64:	00000013          	nop
    3f68:	00000013          	nop
    3f6c:	00000013          	nop
    3f70:	00000013          	nop
    3f74:	00000013          	nop
    3f78:	00000013          	nop
    3f7c:	00000013          	nop
    3f80:	00000013          	nop
    3f84:	00000013          	nop
    3f88:	00000013          	nop
    3f8c:	00000013          	nop
    3f90:	00000013          	nop
    3f94:	00000013          	nop
    3f98:	00000013          	nop
    3f9c:	00000013          	nop
    3fa0:	00000013          	nop
    3fa4:	00000013          	nop
    3fa8:	00000013          	nop
    3fac:	00000013          	nop
    3fb0:	00000013          	nop
    3fb4:	00000013          	nop
    3fb8:	00000013          	nop
    3fbc:	00000013          	nop
    3fc0:	00000013          	nop
    3fc4:	00000013          	nop
    3fc8:	00000013          	nop
    3fcc:	00000013          	nop
    3fd0:	00000013          	nop
    3fd4:	00000013          	nop
    3fd8:	00000013          	nop
    3fdc:	00000013          	nop
    3fe0:	00000013          	nop
    3fe4:	00000013          	nop
    3fe8:	00000013          	nop
    3fec:	00000013          	nop
    3ff0:	00000013          	nop
    3ff4:	00000013          	nop
    3ff8:	00000013          	nop
    3ffc:	00000013          	nop
    4000:	0000                	.insn	2, 0x0000
    4002:	0000                	.insn	2, 0x0000
    4004:	0000                	.insn	2, 0x0000
    4006:	0000                	.insn	2, 0x0000
    4008:	0000                	.insn	2, 0x0000
    400a:	0000                	.insn	2, 0x0000
    400c:	0000                	.insn	2, 0x0000
    400e:	0000                	.insn	2, 0x0000
    4010:	0000                	.insn	2, 0x0000
    4012:	0000                	.insn	2, 0x0000
    4014:	0000                	.insn	2, 0x0000
    4016:	0000                	.insn	2, 0x0000
    4018:	0000                	.insn	2, 0x0000
    401a:	0000                	.insn	2, 0x0000
    401c:	0000                	.insn	2, 0x0000
    401e:	0000                	.insn	2, 0x0000
    4020:	0000                	.insn	2, 0x0000
    4022:	0000                	.insn	2, 0x0000
    4024:	0000                	.insn	2, 0x0000
    4026:	0000                	.insn	2, 0x0000
    4028:	0000                	.insn	2, 0x0000
    402a:	0000                	.insn	2, 0x0000
    402c:	0000                	.insn	2, 0x0000
    402e:	0000                	.insn	2, 0x0000
    4030:	0000                	.insn	2, 0x0000
    4032:	0000                	.insn	2, 0x0000
    4034:	0000                	.insn	2, 0x0000
    4036:	0000                	.insn	2, 0x0000
    4038:	0000                	.insn	2, 0x0000
    403a:	0000                	.insn	2, 0x0000
    403c:	0000                	.insn	2, 0x0000
    403e:	0000                	.insn	2, 0x0000
    4040:	0000                	.insn	2, 0x0000
    4042:	0000                	.insn	2, 0x0000
    4044:	0000                	.insn	2, 0x0000
    4046:	0000                	.insn	2, 0x0000
    4048:	0000                	.insn	2, 0x0000
    404a:	0000                	.insn	2, 0x0000
    404c:	0000                	.insn	2, 0x0000
    404e:	0000                	.insn	2, 0x0000
    4050:	0000                	.insn	2, 0x0000
    4052:	0000                	.insn	2, 0x0000
    4054:	0000                	.insn	2, 0x0000
    4056:	0000                	.insn	2, 0x0000
    4058:	0000                	.insn	2, 0x0000
    405a:	0000                	.insn	2, 0x0000
    405c:	0000                	.insn	2, 0x0000
    405e:	0000                	.insn	2, 0x0000
    4060:	0000                	.insn	2, 0x0000
    4062:	0000                	.insn	2, 0x0000
    4064:	0000                	.insn	2, 0x0000
    4066:	0000                	.insn	2, 0x0000
    4068:	0000                	.insn	2, 0x0000
    406a:	0000                	.insn	2, 0x0000
    406c:	0000                	.insn	2, 0x0000
    406e:	0000                	.insn	2, 0x0000
    4070:	0000                	.insn	2, 0x0000
    4072:	0000                	.insn	2, 0x0000
    4074:	0000                	.insn	2, 0x0000
    4076:	0000                	.insn	2, 0x0000
    4078:	0000                	.insn	2, 0x0000
    407a:	0000                	.insn	2, 0x0000
    407c:	0000                	.insn	2, 0x0000
    407e:	0000                	.insn	2, 0x0000
    4080:	0000                	.insn	2, 0x0000
    4082:	0000                	.insn	2, 0x0000
    4084:	0000                	.insn	2, 0x0000
    4086:	0000                	.insn	2, 0x0000
    4088:	0000                	.insn	2, 0x0000
    408a:	0000                	.insn	2, 0x0000
    408c:	0000                	.insn	2, 0x0000
    408e:	0000                	.insn	2, 0x0000
    4090:	0000                	.insn	2, 0x0000
    4092:	0000                	.insn	2, 0x0000
    4094:	0000                	.insn	2, 0x0000
    4096:	0000                	.insn	2, 0x0000
    4098:	0000                	.insn	2, 0x0000
    409a:	0000                	.insn	2, 0x0000
    409c:	0000                	.insn	2, 0x0000
    409e:	0000                	.insn	2, 0x0000
    40a0:	0000                	.insn	2, 0x0000
    40a2:	0000                	.insn	2, 0x0000
    40a4:	0000                	.insn	2, 0x0000
    40a6:	0000                	.insn	2, 0x0000
    40a8:	0000                	.insn	2, 0x0000
    40aa:	0000                	.insn	2, 0x0000
    40ac:	0000                	.insn	2, 0x0000
    40ae:	0000                	.insn	2, 0x0000
    40b0:	0000                	.insn	2, 0x0000
    40b2:	0000                	.insn	2, 0x0000
    40b4:	0000                	.insn	2, 0x0000
    40b6:	0000                	.insn	2, 0x0000
    40b8:	0000                	.insn	2, 0x0000
    40ba:	0000                	.insn	2, 0x0000
    40bc:	0000                	.insn	2, 0x0000
    40be:	0000                	.insn	2, 0x0000
    40c0:	0000                	.insn	2, 0x0000
    40c2:	0000                	.insn	2, 0x0000
    40c4:	0000                	.insn	2, 0x0000
    40c6:	0000                	.insn	2, 0x0000
    40c8:	0000                	.insn	2, 0x0000
    40ca:	0000                	.insn	2, 0x0000
    40cc:	0000                	.insn	2, 0x0000
    40ce:	0000                	.insn	2, 0x0000
    40d0:	0000                	.insn	2, 0x0000
    40d2:	0000                	.insn	2, 0x0000
    40d4:	0000                	.insn	2, 0x0000
    40d6:	0000                	.insn	2, 0x0000
    40d8:	0000                	.insn	2, 0x0000
    40da:	0000                	.insn	2, 0x0000
    40dc:	0000                	.insn	2, 0x0000
    40de:	0000                	.insn	2, 0x0000
    40e0:	0000                	.insn	2, 0x0000
    40e2:	0000                	.insn	2, 0x0000
    40e4:	0000                	.insn	2, 0x0000
    40e6:	0000                	.insn	2, 0x0000
    40e8:	0000                	.insn	2, 0x0000
    40ea:	0000                	.insn	2, 0x0000
    40ec:	0000                	.insn	2, 0x0000
    40ee:	0000                	.insn	2, 0x0000
    40f0:	0000                	.insn	2, 0x0000
    40f2:	0000                	.insn	2, 0x0000
    40f4:	0000                	.insn	2, 0x0000
    40f6:	0000                	.insn	2, 0x0000
    40f8:	0000                	.insn	2, 0x0000
    40fa:	0000                	.insn	2, 0x0000
    40fc:	0000                	.insn	2, 0x0000
    40fe:	0000                	.insn	2, 0x0000
    4100:	0000                	.insn	2, 0x0000
    4102:	0000                	.insn	2, 0x0000
    4104:	0000                	.insn	2, 0x0000
    4106:	0000                	.insn	2, 0x0000
    4108:	0000                	.insn	2, 0x0000
    410a:	0000                	.insn	2, 0x0000
    410c:	0000                	.insn	2, 0x0000
    410e:	0000                	.insn	2, 0x0000
    4110:	0000                	.insn	2, 0x0000
    4112:	0000                	.insn	2, 0x0000
    4114:	0000                	.insn	2, 0x0000
    4116:	0000                	.insn	2, 0x0000
    4118:	0000                	.insn	2, 0x0000
    411a:	0000                	.insn	2, 0x0000
    411c:	0000                	.insn	2, 0x0000
    411e:	0000                	.insn	2, 0x0000
    4120:	0000                	.insn	2, 0x0000
    4122:	0000                	.insn	2, 0x0000
    4124:	0000                	.insn	2, 0x0000
    4126:	0000                	.insn	2, 0x0000
    4128:	0000                	.insn	2, 0x0000
    412a:	0000                	.insn	2, 0x0000
    412c:	0000                	.insn	2, 0x0000
    412e:	0000                	.insn	2, 0x0000
    4130:	0000                	.insn	2, 0x0000
    4132:	0000                	.insn	2, 0x0000
    4134:	0000                	.insn	2, 0x0000
    4136:	0000                	.insn	2, 0x0000
    4138:	0000                	.insn	2, 0x0000
    413a:	0000                	.insn	2, 0x0000
    413c:	0000                	.insn	2, 0x0000
    413e:	0000                	.insn	2, 0x0000
    4140:	0000                	.insn	2, 0x0000
    4142:	0000                	.insn	2, 0x0000
    4144:	0000                	.insn	2, 0x0000
    4146:	0000                	.insn	2, 0x0000
    4148:	0000                	.insn	2, 0x0000
    414a:	0000                	.insn	2, 0x0000
    414c:	0000                	.insn	2, 0x0000
    414e:	0000                	.insn	2, 0x0000
    4150:	0000                	.insn	2, 0x0000
    4152:	0000                	.insn	2, 0x0000
    4154:	0000                	.insn	2, 0x0000
    4156:	0000                	.insn	2, 0x0000
    4158:	0000                	.insn	2, 0x0000
    415a:	0000                	.insn	2, 0x0000
    415c:	0000                	.insn	2, 0x0000
    415e:	0000                	.insn	2, 0x0000
    4160:	0000                	.insn	2, 0x0000
    4162:	0000                	.insn	2, 0x0000
    4164:	0000                	.insn	2, 0x0000
    4166:	0000                	.insn	2, 0x0000
    4168:	0000                	.insn	2, 0x0000
    416a:	0000                	.insn	2, 0x0000
    416c:	0000                	.insn	2, 0x0000
    416e:	0000                	.insn	2, 0x0000
    4170:	0000                	.insn	2, 0x0000
    4172:	0000                	.insn	2, 0x0000
    4174:	0000                	.insn	2, 0x0000
    4176:	0000                	.insn	2, 0x0000
    4178:	0000                	.insn	2, 0x0000
    417a:	0000                	.insn	2, 0x0000
    417c:	0000                	.insn	2, 0x0000
    417e:	0000                	.insn	2, 0x0000
    4180:	0000                	.insn	2, 0x0000
    4182:	0000                	.insn	2, 0x0000
    4184:	0000                	.insn	2, 0x0000
    4186:	0000                	.insn	2, 0x0000
    4188:	0000                	.insn	2, 0x0000
    418a:	0000                	.insn	2, 0x0000
    418c:	0000                	.insn	2, 0x0000
    418e:	0000                	.insn	2, 0x0000
    4190:	0000                	.insn	2, 0x0000
    4192:	0000                	.insn	2, 0x0000
    4194:	0000                	.insn	2, 0x0000
    4196:	0000                	.insn	2, 0x0000
    4198:	0000                	.insn	2, 0x0000
    419a:	0000                	.insn	2, 0x0000
    419c:	0000                	.insn	2, 0x0000
    419e:	0000                	.insn	2, 0x0000
    41a0:	0000                	.insn	2, 0x0000
    41a2:	0000                	.insn	2, 0x0000
    41a4:	0000                	.insn	2, 0x0000
    41a6:	0000                	.insn	2, 0x0000
    41a8:	0000                	.insn	2, 0x0000
    41aa:	0000                	.insn	2, 0x0000
    41ac:	0000                	.insn	2, 0x0000
    41ae:	0000                	.insn	2, 0x0000
    41b0:	0000                	.insn	2, 0x0000
    41b2:	0000                	.insn	2, 0x0000
    41b4:	0000                	.insn	2, 0x0000
    41b6:	0000                	.insn	2, 0x0000
    41b8:	0000                	.insn	2, 0x0000
    41ba:	0000                	.insn	2, 0x0000
    41bc:	0000                	.insn	2, 0x0000
    41be:	0000                	.insn	2, 0x0000
    41c0:	0000                	.insn	2, 0x0000
    41c2:	0000                	.insn	2, 0x0000
    41c4:	0000                	.insn	2, 0x0000
    41c6:	0000                	.insn	2, 0x0000
    41c8:	0000                	.insn	2, 0x0000
    41ca:	0000                	.insn	2, 0x0000
    41cc:	0000                	.insn	2, 0x0000
    41ce:	0000                	.insn	2, 0x0000
    41d0:	0000                	.insn	2, 0x0000
    41d2:	0000                	.insn	2, 0x0000
    41d4:	0000                	.insn	2, 0x0000
    41d6:	0000                	.insn	2, 0x0000
    41d8:	0000                	.insn	2, 0x0000
    41da:	0000                	.insn	2, 0x0000
    41dc:	0000                	.insn	2, 0x0000
    41de:	0000                	.insn	2, 0x0000
    41e0:	0000                	.insn	2, 0x0000
    41e2:	0000                	.insn	2, 0x0000
    41e4:	0000                	.insn	2, 0x0000
    41e6:	0000                	.insn	2, 0x0000
    41e8:	0000                	.insn	2, 0x0000
    41ea:	0000                	.insn	2, 0x0000
    41ec:	0000                	.insn	2, 0x0000
    41ee:	0000                	.insn	2, 0x0000
    41f0:	0000                	.insn	2, 0x0000
    41f2:	0000                	.insn	2, 0x0000
    41f4:	0000                	.insn	2, 0x0000
    41f6:	0000                	.insn	2, 0x0000
    41f8:	0000                	.insn	2, 0x0000
    41fa:	0000                	.insn	2, 0x0000
    41fc:	0000                	.insn	2, 0x0000
    41fe:	0000                	.insn	2, 0x0000
    4200:	0000                	.insn	2, 0x0000
    4202:	0000                	.insn	2, 0x0000
    4204:	0000                	.insn	2, 0x0000
    4206:	0000                	.insn	2, 0x0000
    4208:	0000                	.insn	2, 0x0000
    420a:	0000                	.insn	2, 0x0000
    420c:	0000                	.insn	2, 0x0000
    420e:	0000                	.insn	2, 0x0000
    4210:	0000                	.insn	2, 0x0000
    4212:	0000                	.insn	2, 0x0000
    4214:	0000                	.insn	2, 0x0000
    4216:	0000                	.insn	2, 0x0000
    4218:	0000                	.insn	2, 0x0000
    421a:	0000                	.insn	2, 0x0000
    421c:	0000                	.insn	2, 0x0000
    421e:	0000                	.insn	2, 0x0000
    4220:	0000                	.insn	2, 0x0000
    4222:	0000                	.insn	2, 0x0000
    4224:	0000                	.insn	2, 0x0000
    4226:	0000                	.insn	2, 0x0000
    4228:	0000                	.insn	2, 0x0000
    422a:	0000                	.insn	2, 0x0000
    422c:	0000                	.insn	2, 0x0000
    422e:	0000                	.insn	2, 0x0000
    4230:	0000                	.insn	2, 0x0000
    4232:	0000                	.insn	2, 0x0000
    4234:	0000                	.insn	2, 0x0000
    4236:	0000                	.insn	2, 0x0000
    4238:	0000                	.insn	2, 0x0000
    423a:	0000                	.insn	2, 0x0000
    423c:	0000                	.insn	2, 0x0000
    423e:	0000                	.insn	2, 0x0000
    4240:	0000                	.insn	2, 0x0000
    4242:	0000                	.insn	2, 0x0000
    4244:	0000                	.insn	2, 0x0000
    4246:	0000                	.insn	2, 0x0000
    4248:	0000                	.insn	2, 0x0000
    424a:	0000                	.insn	2, 0x0000
    424c:	0000                	.insn	2, 0x0000
    424e:	0000                	.insn	2, 0x0000
    4250:	0000                	.insn	2, 0x0000
    4252:	0000                	.insn	2, 0x0000
    4254:	0000                	.insn	2, 0x0000
    4256:	0000                	.insn	2, 0x0000
    4258:	0000                	.insn	2, 0x0000
    425a:	0000                	.insn	2, 0x0000
    425c:	0000                	.insn	2, 0x0000
    425e:	0000                	.insn	2, 0x0000
    4260:	0000                	.insn	2, 0x0000
    4262:	0000                	.insn	2, 0x0000
    4264:	0000                	.insn	2, 0x0000
    4266:	0000                	.insn	2, 0x0000
    4268:	0000                	.insn	2, 0x0000
    426a:	0000                	.insn	2, 0x0000
    426c:	0000                	.insn	2, 0x0000
    426e:	0000                	.insn	2, 0x0000
    4270:	0000                	.insn	2, 0x0000
    4272:	0000                	.insn	2, 0x0000
    4274:	0000                	.insn	2, 0x0000
    4276:	0000                	.insn	2, 0x0000
    4278:	0000                	.insn	2, 0x0000
    427a:	0000                	.insn	2, 0x0000
    427c:	0000                	.insn	2, 0x0000
    427e:	0000                	.insn	2, 0x0000
    4280:	0000                	.insn	2, 0x0000
    4282:	0000                	.insn	2, 0x0000
    4284:	0000                	.insn	2, 0x0000
    4286:	0000                	.insn	2, 0x0000
    4288:	0000                	.insn	2, 0x0000
    428a:	0000                	.insn	2, 0x0000
    428c:	0000                	.insn	2, 0x0000
    428e:	0000                	.insn	2, 0x0000
    4290:	0000                	.insn	2, 0x0000
    4292:	0000                	.insn	2, 0x0000
    4294:	0000                	.insn	2, 0x0000
    4296:	0000                	.insn	2, 0x0000
    4298:	0000                	.insn	2, 0x0000
    429a:	0000                	.insn	2, 0x0000
    429c:	0000                	.insn	2, 0x0000
    429e:	0000                	.insn	2, 0x0000
    42a0:	0000                	.insn	2, 0x0000
    42a2:	0000                	.insn	2, 0x0000
    42a4:	0000                	.insn	2, 0x0000
    42a6:	0000                	.insn	2, 0x0000
    42a8:	0000                	.insn	2, 0x0000
    42aa:	0000                	.insn	2, 0x0000
    42ac:	0000                	.insn	2, 0x0000
    42ae:	0000                	.insn	2, 0x0000
    42b0:	0000                	.insn	2, 0x0000
    42b2:	0000                	.insn	2, 0x0000
    42b4:	0000                	.insn	2, 0x0000
    42b6:	0000                	.insn	2, 0x0000
    42b8:	0000                	.insn	2, 0x0000
    42ba:	0000                	.insn	2, 0x0000
    42bc:	0000                	.insn	2, 0x0000
    42be:	0000                	.insn	2, 0x0000
    42c0:	0000                	.insn	2, 0x0000
    42c2:	0000                	.insn	2, 0x0000
    42c4:	0000                	.insn	2, 0x0000
    42c6:	0000                	.insn	2, 0x0000
    42c8:	0000                	.insn	2, 0x0000
    42ca:	0000                	.insn	2, 0x0000
    42cc:	0000                	.insn	2, 0x0000
    42ce:	0000                	.insn	2, 0x0000
    42d0:	0000                	.insn	2, 0x0000
    42d2:	0000                	.insn	2, 0x0000
    42d4:	0000                	.insn	2, 0x0000
    42d6:	0000                	.insn	2, 0x0000
    42d8:	0000                	.insn	2, 0x0000
    42da:	0000                	.insn	2, 0x0000
    42dc:	0000                	.insn	2, 0x0000
    42de:	0000                	.insn	2, 0x0000
    42e0:	0000                	.insn	2, 0x0000
    42e2:	0000                	.insn	2, 0x0000
    42e4:	0000                	.insn	2, 0x0000
    42e6:	0000                	.insn	2, 0x0000
    42e8:	0000                	.insn	2, 0x0000
    42ea:	0000                	.insn	2, 0x0000
    42ec:	0000                	.insn	2, 0x0000
    42ee:	0000                	.insn	2, 0x0000
    42f0:	0000                	.insn	2, 0x0000
    42f2:	0000                	.insn	2, 0x0000
    42f4:	0000                	.insn	2, 0x0000
    42f6:	0000                	.insn	2, 0x0000
    42f8:	0000                	.insn	2, 0x0000
    42fa:	0000                	.insn	2, 0x0000
    42fc:	0000                	.insn	2, 0x0000
    42fe:	0000                	.insn	2, 0x0000
    4300:	0000                	.insn	2, 0x0000
    4302:	0000                	.insn	2, 0x0000
    4304:	0000                	.insn	2, 0x0000
    4306:	0000                	.insn	2, 0x0000
    4308:	0000                	.insn	2, 0x0000
    430a:	0000                	.insn	2, 0x0000
    430c:	0000                	.insn	2, 0x0000
    430e:	0000                	.insn	2, 0x0000
    4310:	0000                	.insn	2, 0x0000
    4312:	0000                	.insn	2, 0x0000
    4314:	0000                	.insn	2, 0x0000
    4316:	0000                	.insn	2, 0x0000
    4318:	0000                	.insn	2, 0x0000
    431a:	0000                	.insn	2, 0x0000
    431c:	0000                	.insn	2, 0x0000
    431e:	0000                	.insn	2, 0x0000
    4320:	0000                	.insn	2, 0x0000
    4322:	0000                	.insn	2, 0x0000
    4324:	0000                	.insn	2, 0x0000
    4326:	0000                	.insn	2, 0x0000
    4328:	0000                	.insn	2, 0x0000
    432a:	0000                	.insn	2, 0x0000
    432c:	0000                	.insn	2, 0x0000
    432e:	0000                	.insn	2, 0x0000
    4330:	0000                	.insn	2, 0x0000
    4332:	0000                	.insn	2, 0x0000
    4334:	0000                	.insn	2, 0x0000
    4336:	0000                	.insn	2, 0x0000
    4338:	0000                	.insn	2, 0x0000
    433a:	0000                	.insn	2, 0x0000
    433c:	0000                	.insn	2, 0x0000
    433e:	0000                	.insn	2, 0x0000
    4340:	0000                	.insn	2, 0x0000
    4342:	0000                	.insn	2, 0x0000
    4344:	0000                	.insn	2, 0x0000
    4346:	0000                	.insn	2, 0x0000
    4348:	0000                	.insn	2, 0x0000
    434a:	0000                	.insn	2, 0x0000
    434c:	0000                	.insn	2, 0x0000
    434e:	0000                	.insn	2, 0x0000
    4350:	0000                	.insn	2, 0x0000
    4352:	0000                	.insn	2, 0x0000
    4354:	0000                	.insn	2, 0x0000
    4356:	0000                	.insn	2, 0x0000
    4358:	0000                	.insn	2, 0x0000
    435a:	0000                	.insn	2, 0x0000
    435c:	0000                	.insn	2, 0x0000
    435e:	0000                	.insn	2, 0x0000
    4360:	0000                	.insn	2, 0x0000
    4362:	0000                	.insn	2, 0x0000
    4364:	0000                	.insn	2, 0x0000
    4366:	0000                	.insn	2, 0x0000
    4368:	0000                	.insn	2, 0x0000
    436a:	0000                	.insn	2, 0x0000
    436c:	0000                	.insn	2, 0x0000
    436e:	0000                	.insn	2, 0x0000
    4370:	0000                	.insn	2, 0x0000
    4372:	0000                	.insn	2, 0x0000
    4374:	0000                	.insn	2, 0x0000
    4376:	0000                	.insn	2, 0x0000
    4378:	0000                	.insn	2, 0x0000
    437a:	0000                	.insn	2, 0x0000
    437c:	0000                	.insn	2, 0x0000
    437e:	0000                	.insn	2, 0x0000
    4380:	0000                	.insn	2, 0x0000
    4382:	0000                	.insn	2, 0x0000
    4384:	0000                	.insn	2, 0x0000
    4386:	0000                	.insn	2, 0x0000
    4388:	0000                	.insn	2, 0x0000
    438a:	0000                	.insn	2, 0x0000
    438c:	0000                	.insn	2, 0x0000
    438e:	0000                	.insn	2, 0x0000
    4390:	0000                	.insn	2, 0x0000
    4392:	0000                	.insn	2, 0x0000
    4394:	0000                	.insn	2, 0x0000
    4396:	0000                	.insn	2, 0x0000
    4398:	0000                	.insn	2, 0x0000
    439a:	0000                	.insn	2, 0x0000
    439c:	0000                	.insn	2, 0x0000
    439e:	0000                	.insn	2, 0x0000
    43a0:	0000                	.insn	2, 0x0000
    43a2:	0000                	.insn	2, 0x0000
    43a4:	0000                	.insn	2, 0x0000
    43a6:	0000                	.insn	2, 0x0000
    43a8:	0000                	.insn	2, 0x0000
    43aa:	0000                	.insn	2, 0x0000
    43ac:	0000                	.insn	2, 0x0000
    43ae:	0000                	.insn	2, 0x0000
    43b0:	0000                	.insn	2, 0x0000
    43b2:	0000                	.insn	2, 0x0000
    43b4:	0000                	.insn	2, 0x0000
    43b6:	0000                	.insn	2, 0x0000
    43b8:	0000                	.insn	2, 0x0000
    43ba:	0000                	.insn	2, 0x0000
    43bc:	0000                	.insn	2, 0x0000
    43be:	0000                	.insn	2, 0x0000
    43c0:	0000                	.insn	2, 0x0000
    43c2:	0000                	.insn	2, 0x0000
    43c4:	0000                	.insn	2, 0x0000
    43c6:	0000                	.insn	2, 0x0000
    43c8:	0000                	.insn	2, 0x0000
    43ca:	0000                	.insn	2, 0x0000
    43cc:	0000                	.insn	2, 0x0000
    43ce:	0000                	.insn	2, 0x0000
    43d0:	0000                	.insn	2, 0x0000
    43d2:	0000                	.insn	2, 0x0000
    43d4:	0000                	.insn	2, 0x0000
    43d6:	0000                	.insn	2, 0x0000
    43d8:	0000                	.insn	2, 0x0000
    43da:	0000                	.insn	2, 0x0000
    43dc:	0000                	.insn	2, 0x0000
    43de:	0000                	.insn	2, 0x0000
    43e0:	0000                	.insn	2, 0x0000
    43e2:	0000                	.insn	2, 0x0000
    43e4:	0000                	.insn	2, 0x0000
    43e6:	0000                	.insn	2, 0x0000
    43e8:	0000                	.insn	2, 0x0000
    43ea:	0000                	.insn	2, 0x0000
    43ec:	0000                	.insn	2, 0x0000
    43ee:	0000                	.insn	2, 0x0000
    43f0:	0000                	.insn	2, 0x0000
    43f2:	0000                	.insn	2, 0x0000
    43f4:	0000                	.insn	2, 0x0000
    43f6:	0000                	.insn	2, 0x0000
    43f8:	0000                	.insn	2, 0x0000
    43fa:	0000                	.insn	2, 0x0000
    43fc:	0000                	.insn	2, 0x0000
    43fe:	0000                	.insn	2, 0x0000
    4400:	0000                	.insn	2, 0x0000
    4402:	0000                	.insn	2, 0x0000
    4404:	0000                	.insn	2, 0x0000
    4406:	0000                	.insn	2, 0x0000
    4408:	0000                	.insn	2, 0x0000
    440a:	0000                	.insn	2, 0x0000
    440c:	0000                	.insn	2, 0x0000
    440e:	0000                	.insn	2, 0x0000
    4410:	0000                	.insn	2, 0x0000
    4412:	0000                	.insn	2, 0x0000
    4414:	0000                	.insn	2, 0x0000
    4416:	0000                	.insn	2, 0x0000
    4418:	0000                	.insn	2, 0x0000
    441a:	0000                	.insn	2, 0x0000
    441c:	0000                	.insn	2, 0x0000
    441e:	0000                	.insn	2, 0x0000
    4420:	0000                	.insn	2, 0x0000
    4422:	0000                	.insn	2, 0x0000
    4424:	0000                	.insn	2, 0x0000
    4426:	0000                	.insn	2, 0x0000
    4428:	0000                	.insn	2, 0x0000
    442a:	0000                	.insn	2, 0x0000
    442c:	0000                	.insn	2, 0x0000
    442e:	0000                	.insn	2, 0x0000
    4430:	0000                	.insn	2, 0x0000
    4432:	0000                	.insn	2, 0x0000
    4434:	0000                	.insn	2, 0x0000
    4436:	0000                	.insn	2, 0x0000
    4438:	0000                	.insn	2, 0x0000
    443a:	0000                	.insn	2, 0x0000
    443c:	0000                	.insn	2, 0x0000
    443e:	0000                	.insn	2, 0x0000
    4440:	0000                	.insn	2, 0x0000
    4442:	0000                	.insn	2, 0x0000
    4444:	0000                	.insn	2, 0x0000
    4446:	0000                	.insn	2, 0x0000
    4448:	0000                	.insn	2, 0x0000
    444a:	0000                	.insn	2, 0x0000
    444c:	0000                	.insn	2, 0x0000
    444e:	0000                	.insn	2, 0x0000
    4450:	0000                	.insn	2, 0x0000
    4452:	0000                	.insn	2, 0x0000
    4454:	0000                	.insn	2, 0x0000
    4456:	0000                	.insn	2, 0x0000
    4458:	0000                	.insn	2, 0x0000
    445a:	0000                	.insn	2, 0x0000
    445c:	0000                	.insn	2, 0x0000
    445e:	0000                	.insn	2, 0x0000
    4460:	0000                	.insn	2, 0x0000
    4462:	0000                	.insn	2, 0x0000
    4464:	0000                	.insn	2, 0x0000
    4466:	0000                	.insn	2, 0x0000
    4468:	0000                	.insn	2, 0x0000
    446a:	0000                	.insn	2, 0x0000
    446c:	0000                	.insn	2, 0x0000
    446e:	0000                	.insn	2, 0x0000
    4470:	0000                	.insn	2, 0x0000
    4472:	0000                	.insn	2, 0x0000
    4474:	0000                	.insn	2, 0x0000
    4476:	0000                	.insn	2, 0x0000
    4478:	0000                	.insn	2, 0x0000
    447a:	0000                	.insn	2, 0x0000
    447c:	0000                	.insn	2, 0x0000
    447e:	0000                	.insn	2, 0x0000
    4480:	0000                	.insn	2, 0x0000
    4482:	0000                	.insn	2, 0x0000
    4484:	0000                	.insn	2, 0x0000
    4486:	0000                	.insn	2, 0x0000
    4488:	0000                	.insn	2, 0x0000
    448a:	0000                	.insn	2, 0x0000
    448c:	0000                	.insn	2, 0x0000
    448e:	0000                	.insn	2, 0x0000
    4490:	0000                	.insn	2, 0x0000
    4492:	0000                	.insn	2, 0x0000
    4494:	0000                	.insn	2, 0x0000
    4496:	0000                	.insn	2, 0x0000
    4498:	0000                	.insn	2, 0x0000
    449a:	0000                	.insn	2, 0x0000
    449c:	0000                	.insn	2, 0x0000
    449e:	0000                	.insn	2, 0x0000
    44a0:	0000                	.insn	2, 0x0000
    44a2:	0000                	.insn	2, 0x0000
    44a4:	0000                	.insn	2, 0x0000
    44a6:	0000                	.insn	2, 0x0000
    44a8:	0000                	.insn	2, 0x0000
    44aa:	0000                	.insn	2, 0x0000
    44ac:	0000                	.insn	2, 0x0000
    44ae:	0000                	.insn	2, 0x0000
    44b0:	0000                	.insn	2, 0x0000
    44b2:	0000                	.insn	2, 0x0000
    44b4:	0000                	.insn	2, 0x0000
    44b6:	0000                	.insn	2, 0x0000
    44b8:	0000                	.insn	2, 0x0000
    44ba:	0000                	.insn	2, 0x0000
    44bc:	0000                	.insn	2, 0x0000
    44be:	0000                	.insn	2, 0x0000
    44c0:	0000                	.insn	2, 0x0000
    44c2:	0000                	.insn	2, 0x0000
    44c4:	0000                	.insn	2, 0x0000
    44c6:	0000                	.insn	2, 0x0000
    44c8:	0000                	.insn	2, 0x0000
    44ca:	0000                	.insn	2, 0x0000
    44cc:	0000                	.insn	2, 0x0000
    44ce:	0000                	.insn	2, 0x0000
    44d0:	0000                	.insn	2, 0x0000
    44d2:	0000                	.insn	2, 0x0000
    44d4:	0000                	.insn	2, 0x0000
    44d6:	0000                	.insn	2, 0x0000
    44d8:	0000                	.insn	2, 0x0000
    44da:	0000                	.insn	2, 0x0000
    44dc:	0000                	.insn	2, 0x0000
    44de:	0000                	.insn	2, 0x0000
    44e0:	0000                	.insn	2, 0x0000
    44e2:	0000                	.insn	2, 0x0000
    44e4:	0000                	.insn	2, 0x0000
    44e6:	0000                	.insn	2, 0x0000
    44e8:	0000                	.insn	2, 0x0000
    44ea:	0000                	.insn	2, 0x0000
    44ec:	0000                	.insn	2, 0x0000
    44ee:	0000                	.insn	2, 0x0000
    44f0:	0000                	.insn	2, 0x0000
    44f2:	0000                	.insn	2, 0x0000
    44f4:	0000                	.insn	2, 0x0000
    44f6:	0000                	.insn	2, 0x0000
    44f8:	0000                	.insn	2, 0x0000
    44fa:	0000                	.insn	2, 0x0000
    44fc:	0000                	.insn	2, 0x0000
    44fe:	0000                	.insn	2, 0x0000
    4500:	0000                	.insn	2, 0x0000
    4502:	0000                	.insn	2, 0x0000
    4504:	0000                	.insn	2, 0x0000
    4506:	0000                	.insn	2, 0x0000
    4508:	0000                	.insn	2, 0x0000
    450a:	0000                	.insn	2, 0x0000
    450c:	0000                	.insn	2, 0x0000
    450e:	0000                	.insn	2, 0x0000
    4510:	0000                	.insn	2, 0x0000
    4512:	0000                	.insn	2, 0x0000
    4514:	0000                	.insn	2, 0x0000
    4516:	0000                	.insn	2, 0x0000
    4518:	0000                	.insn	2, 0x0000
    451a:	0000                	.insn	2, 0x0000
    451c:	0000                	.insn	2, 0x0000
    451e:	0000                	.insn	2, 0x0000
    4520:	0000                	.insn	2, 0x0000
    4522:	0000                	.insn	2, 0x0000
    4524:	0000                	.insn	2, 0x0000
    4526:	0000                	.insn	2, 0x0000
    4528:	0000                	.insn	2, 0x0000
    452a:	0000                	.insn	2, 0x0000
    452c:	0000                	.insn	2, 0x0000
    452e:	0000                	.insn	2, 0x0000
    4530:	0000                	.insn	2, 0x0000
    4532:	0000                	.insn	2, 0x0000
    4534:	0000                	.insn	2, 0x0000
    4536:	0000                	.insn	2, 0x0000
    4538:	0000                	.insn	2, 0x0000
    453a:	0000                	.insn	2, 0x0000
    453c:	0000                	.insn	2, 0x0000
    453e:	0000                	.insn	2, 0x0000
    4540:	0000                	.insn	2, 0x0000
    4542:	0000                	.insn	2, 0x0000
    4544:	0000                	.insn	2, 0x0000
    4546:	0000                	.insn	2, 0x0000
    4548:	0000                	.insn	2, 0x0000
    454a:	0000                	.insn	2, 0x0000
    454c:	0000                	.insn	2, 0x0000
    454e:	0000                	.insn	2, 0x0000
    4550:	0000                	.insn	2, 0x0000
    4552:	0000                	.insn	2, 0x0000
    4554:	0000                	.insn	2, 0x0000
    4556:	0000                	.insn	2, 0x0000
    4558:	0000                	.insn	2, 0x0000
    455a:	0000                	.insn	2, 0x0000
    455c:	0000                	.insn	2, 0x0000
    455e:	0000                	.insn	2, 0x0000
    4560:	0000                	.insn	2, 0x0000
    4562:	0000                	.insn	2, 0x0000
    4564:	0000                	.insn	2, 0x0000
    4566:	0000                	.insn	2, 0x0000
    4568:	0000                	.insn	2, 0x0000
    456a:	0000                	.insn	2, 0x0000
    456c:	0000                	.insn	2, 0x0000
    456e:	0000                	.insn	2, 0x0000
    4570:	0000                	.insn	2, 0x0000
    4572:	0000                	.insn	2, 0x0000
    4574:	0000                	.insn	2, 0x0000
    4576:	0000                	.insn	2, 0x0000
    4578:	0000                	.insn	2, 0x0000
    457a:	0000                	.insn	2, 0x0000
    457c:	0000                	.insn	2, 0x0000
    457e:	0000                	.insn	2, 0x0000
    4580:	0000                	.insn	2, 0x0000
    4582:	0000                	.insn	2, 0x0000
    4584:	0000                	.insn	2, 0x0000
    4586:	0000                	.insn	2, 0x0000
    4588:	0000                	.insn	2, 0x0000
    458a:	0000                	.insn	2, 0x0000
    458c:	0000                	.insn	2, 0x0000
    458e:	0000                	.insn	2, 0x0000
    4590:	0000                	.insn	2, 0x0000
    4592:	0000                	.insn	2, 0x0000
    4594:	0000                	.insn	2, 0x0000
    4596:	0000                	.insn	2, 0x0000
    4598:	0000                	.insn	2, 0x0000
    459a:	0000                	.insn	2, 0x0000
    459c:	0000                	.insn	2, 0x0000
    459e:	0000                	.insn	2, 0x0000
    45a0:	0000                	.insn	2, 0x0000
    45a2:	0000                	.insn	2, 0x0000
    45a4:	0000                	.insn	2, 0x0000
    45a6:	0000                	.insn	2, 0x0000
    45a8:	0000                	.insn	2, 0x0000
    45aa:	0000                	.insn	2, 0x0000
    45ac:	0000                	.insn	2, 0x0000
    45ae:	0000                	.insn	2, 0x0000
    45b0:	0000                	.insn	2, 0x0000
    45b2:	0000                	.insn	2, 0x0000
    45b4:	0000                	.insn	2, 0x0000
    45b6:	0000                	.insn	2, 0x0000
    45b8:	0000                	.insn	2, 0x0000
    45ba:	0000                	.insn	2, 0x0000
    45bc:	0000                	.insn	2, 0x0000
    45be:	0000                	.insn	2, 0x0000
    45c0:	0000                	.insn	2, 0x0000
    45c2:	0000                	.insn	2, 0x0000
    45c4:	0000                	.insn	2, 0x0000
    45c6:	0000                	.insn	2, 0x0000
    45c8:	0000                	.insn	2, 0x0000
    45ca:	0000                	.insn	2, 0x0000
    45cc:	0000                	.insn	2, 0x0000
    45ce:	0000                	.insn	2, 0x0000
    45d0:	0000                	.insn	2, 0x0000
    45d2:	0000                	.insn	2, 0x0000
    45d4:	0000                	.insn	2, 0x0000
    45d6:	0000                	.insn	2, 0x0000
    45d8:	0000                	.insn	2, 0x0000
    45da:	0000                	.insn	2, 0x0000
    45dc:	0000                	.insn	2, 0x0000
    45de:	0000                	.insn	2, 0x0000
    45e0:	0000                	.insn	2, 0x0000
    45e2:	0000                	.insn	2, 0x0000
    45e4:	0000                	.insn	2, 0x0000
    45e6:	0000                	.insn	2, 0x0000
    45e8:	0000                	.insn	2, 0x0000
    45ea:	0000                	.insn	2, 0x0000
    45ec:	0000                	.insn	2, 0x0000
    45ee:	0000                	.insn	2, 0x0000
    45f0:	0000                	.insn	2, 0x0000
    45f2:	0000                	.insn	2, 0x0000
    45f4:	0000                	.insn	2, 0x0000
    45f6:	0000                	.insn	2, 0x0000
    45f8:	0000                	.insn	2, 0x0000
    45fa:	0000                	.insn	2, 0x0000
    45fc:	0000                	.insn	2, 0x0000
    45fe:	0000                	.insn	2, 0x0000
    4600:	0000                	.insn	2, 0x0000
    4602:	0000                	.insn	2, 0x0000
    4604:	0000                	.insn	2, 0x0000
    4606:	0000                	.insn	2, 0x0000
    4608:	0000                	.insn	2, 0x0000
    460a:	0000                	.insn	2, 0x0000
    460c:	0000                	.insn	2, 0x0000
    460e:	0000                	.insn	2, 0x0000
    4610:	0000                	.insn	2, 0x0000
    4612:	0000                	.insn	2, 0x0000
    4614:	0000                	.insn	2, 0x0000
    4616:	0000                	.insn	2, 0x0000
    4618:	0000                	.insn	2, 0x0000
    461a:	0000                	.insn	2, 0x0000
    461c:	0000                	.insn	2, 0x0000
    461e:	0000                	.insn	2, 0x0000
    4620:	0000                	.insn	2, 0x0000
    4622:	0000                	.insn	2, 0x0000
    4624:	0000                	.insn	2, 0x0000
    4626:	0000                	.insn	2, 0x0000
    4628:	0000                	.insn	2, 0x0000
    462a:	0000                	.insn	2, 0x0000
    462c:	0000                	.insn	2, 0x0000
    462e:	0000                	.insn	2, 0x0000
    4630:	0000                	.insn	2, 0x0000
    4632:	0000                	.insn	2, 0x0000
    4634:	0000                	.insn	2, 0x0000
    4636:	0000                	.insn	2, 0x0000
    4638:	0000                	.insn	2, 0x0000
    463a:	0000                	.insn	2, 0x0000
    463c:	0000                	.insn	2, 0x0000
    463e:	0000                	.insn	2, 0x0000
    4640:	0000                	.insn	2, 0x0000
    4642:	0000                	.insn	2, 0x0000
    4644:	0000                	.insn	2, 0x0000
    4646:	0000                	.insn	2, 0x0000
    4648:	0000                	.insn	2, 0x0000
    464a:	0000                	.insn	2, 0x0000
    464c:	0000                	.insn	2, 0x0000
    464e:	0000                	.insn	2, 0x0000
    4650:	0000                	.insn	2, 0x0000
    4652:	0000                	.insn	2, 0x0000
    4654:	0000                	.insn	2, 0x0000
    4656:	0000                	.insn	2, 0x0000
    4658:	0000                	.insn	2, 0x0000
    465a:	0000                	.insn	2, 0x0000
    465c:	0000                	.insn	2, 0x0000
    465e:	0000                	.insn	2, 0x0000
    4660:	0000                	.insn	2, 0x0000
    4662:	0000                	.insn	2, 0x0000
    4664:	0000                	.insn	2, 0x0000
    4666:	0000                	.insn	2, 0x0000
    4668:	0000                	.insn	2, 0x0000
    466a:	0000                	.insn	2, 0x0000
    466c:	0000                	.insn	2, 0x0000
    466e:	0000                	.insn	2, 0x0000
    4670:	0000                	.insn	2, 0x0000
    4672:	0000                	.insn	2, 0x0000
    4674:	0000                	.insn	2, 0x0000
    4676:	0000                	.insn	2, 0x0000
    4678:	0000                	.insn	2, 0x0000
    467a:	0000                	.insn	2, 0x0000
    467c:	0000                	.insn	2, 0x0000
    467e:	0000                	.insn	2, 0x0000
    4680:	0000                	.insn	2, 0x0000
    4682:	0000                	.insn	2, 0x0000
    4684:	0000                	.insn	2, 0x0000
    4686:	0000                	.insn	2, 0x0000
    4688:	0000                	.insn	2, 0x0000
    468a:	0000                	.insn	2, 0x0000
    468c:	0000                	.insn	2, 0x0000
    468e:	0000                	.insn	2, 0x0000
    4690:	0000                	.insn	2, 0x0000
    4692:	0000                	.insn	2, 0x0000
    4694:	0000                	.insn	2, 0x0000
    4696:	0000                	.insn	2, 0x0000
    4698:	0000                	.insn	2, 0x0000
    469a:	0000                	.insn	2, 0x0000
    469c:	0000                	.insn	2, 0x0000
    469e:	0000                	.insn	2, 0x0000
    46a0:	0000                	.insn	2, 0x0000
    46a2:	0000                	.insn	2, 0x0000
    46a4:	0000                	.insn	2, 0x0000
    46a6:	0000                	.insn	2, 0x0000
    46a8:	0000                	.insn	2, 0x0000
    46aa:	0000                	.insn	2, 0x0000
    46ac:	0000                	.insn	2, 0x0000
    46ae:	0000                	.insn	2, 0x0000
    46b0:	0000                	.insn	2, 0x0000
    46b2:	0000                	.insn	2, 0x0000
    46b4:	0000                	.insn	2, 0x0000
    46b6:	0000                	.insn	2, 0x0000
    46b8:	0000                	.insn	2, 0x0000
    46ba:	0000                	.insn	2, 0x0000
    46bc:	0000                	.insn	2, 0x0000
    46be:	0000                	.insn	2, 0x0000
    46c0:	0000                	.insn	2, 0x0000
    46c2:	0000                	.insn	2, 0x0000
    46c4:	0000                	.insn	2, 0x0000
    46c6:	0000                	.insn	2, 0x0000
    46c8:	0000                	.insn	2, 0x0000
    46ca:	0000                	.insn	2, 0x0000
    46cc:	0000                	.insn	2, 0x0000
    46ce:	0000                	.insn	2, 0x0000
    46d0:	0000                	.insn	2, 0x0000
    46d2:	0000                	.insn	2, 0x0000
    46d4:	0000                	.insn	2, 0x0000
    46d6:	0000                	.insn	2, 0x0000
    46d8:	0000                	.insn	2, 0x0000
    46da:	0000                	.insn	2, 0x0000
    46dc:	0000                	.insn	2, 0x0000
    46de:	0000                	.insn	2, 0x0000
    46e0:	0000                	.insn	2, 0x0000
    46e2:	0000                	.insn	2, 0x0000
    46e4:	0000                	.insn	2, 0x0000
    46e6:	0000                	.insn	2, 0x0000
    46e8:	0000                	.insn	2, 0x0000
    46ea:	0000                	.insn	2, 0x0000
    46ec:	0000                	.insn	2, 0x0000
    46ee:	0000                	.insn	2, 0x0000
    46f0:	0000                	.insn	2, 0x0000
    46f2:	0000                	.insn	2, 0x0000
    46f4:	0000                	.insn	2, 0x0000
    46f6:	0000                	.insn	2, 0x0000
    46f8:	0000                	.insn	2, 0x0000
    46fa:	0000                	.insn	2, 0x0000
    46fc:	0000                	.insn	2, 0x0000
    46fe:	0000                	.insn	2, 0x0000
    4700:	0000                	.insn	2, 0x0000
    4702:	0000                	.insn	2, 0x0000
    4704:	0000                	.insn	2, 0x0000
    4706:	0000                	.insn	2, 0x0000
    4708:	0000                	.insn	2, 0x0000
    470a:	0000                	.insn	2, 0x0000
    470c:	0000                	.insn	2, 0x0000
    470e:	0000                	.insn	2, 0x0000
    4710:	0000                	.insn	2, 0x0000
    4712:	0000                	.insn	2, 0x0000
    4714:	0000                	.insn	2, 0x0000
    4716:	0000                	.insn	2, 0x0000
    4718:	0000                	.insn	2, 0x0000
    471a:	0000                	.insn	2, 0x0000
    471c:	0000                	.insn	2, 0x0000
    471e:	0000                	.insn	2, 0x0000
    4720:	0000                	.insn	2, 0x0000
    4722:	0000                	.insn	2, 0x0000
    4724:	0000                	.insn	2, 0x0000
    4726:	0000                	.insn	2, 0x0000
    4728:	0000                	.insn	2, 0x0000
    472a:	0000                	.insn	2, 0x0000
    472c:	0000                	.insn	2, 0x0000
    472e:	0000                	.insn	2, 0x0000
    4730:	0000                	.insn	2, 0x0000
    4732:	0000                	.insn	2, 0x0000
    4734:	0000                	.insn	2, 0x0000
    4736:	0000                	.insn	2, 0x0000
    4738:	0000                	.insn	2, 0x0000
    473a:	0000                	.insn	2, 0x0000
    473c:	0000                	.insn	2, 0x0000
    473e:	0000                	.insn	2, 0x0000
    4740:	0000                	.insn	2, 0x0000
    4742:	0000                	.insn	2, 0x0000
    4744:	0000                	.insn	2, 0x0000
    4746:	0000                	.insn	2, 0x0000
    4748:	0000                	.insn	2, 0x0000
    474a:	0000                	.insn	2, 0x0000
    474c:	0000                	.insn	2, 0x0000
    474e:	0000                	.insn	2, 0x0000
    4750:	0000                	.insn	2, 0x0000
    4752:	0000                	.insn	2, 0x0000
    4754:	0000                	.insn	2, 0x0000
    4756:	0000                	.insn	2, 0x0000
    4758:	0000                	.insn	2, 0x0000
    475a:	0000                	.insn	2, 0x0000
    475c:	0000                	.insn	2, 0x0000
    475e:	0000                	.insn	2, 0x0000
    4760:	0000                	.insn	2, 0x0000
    4762:	0000                	.insn	2, 0x0000
    4764:	0000                	.insn	2, 0x0000
    4766:	0000                	.insn	2, 0x0000
    4768:	0000                	.insn	2, 0x0000
    476a:	0000                	.insn	2, 0x0000
    476c:	0000                	.insn	2, 0x0000
    476e:	0000                	.insn	2, 0x0000
    4770:	0000                	.insn	2, 0x0000
    4772:	0000                	.insn	2, 0x0000
    4774:	0000                	.insn	2, 0x0000
    4776:	0000                	.insn	2, 0x0000
    4778:	0000                	.insn	2, 0x0000
    477a:	0000                	.insn	2, 0x0000
    477c:	0000                	.insn	2, 0x0000
    477e:	0000                	.insn	2, 0x0000
    4780:	0000                	.insn	2, 0x0000
    4782:	0000                	.insn	2, 0x0000
    4784:	0000                	.insn	2, 0x0000
    4786:	0000                	.insn	2, 0x0000
    4788:	0000                	.insn	2, 0x0000
    478a:	0000                	.insn	2, 0x0000
    478c:	0000                	.insn	2, 0x0000
    478e:	0000                	.insn	2, 0x0000
    4790:	0000                	.insn	2, 0x0000
    4792:	0000                	.insn	2, 0x0000
    4794:	0000                	.insn	2, 0x0000
    4796:	0000                	.insn	2, 0x0000
    4798:	0000                	.insn	2, 0x0000
    479a:	0000                	.insn	2, 0x0000
    479c:	0000                	.insn	2, 0x0000
    479e:	0000                	.insn	2, 0x0000
    47a0:	0000                	.insn	2, 0x0000
    47a2:	0000                	.insn	2, 0x0000
    47a4:	0000                	.insn	2, 0x0000
    47a6:	0000                	.insn	2, 0x0000
    47a8:	0000                	.insn	2, 0x0000
    47aa:	0000                	.insn	2, 0x0000
    47ac:	0000                	.insn	2, 0x0000
    47ae:	0000                	.insn	2, 0x0000
    47b0:	0000                	.insn	2, 0x0000
    47b2:	0000                	.insn	2, 0x0000
    47b4:	0000                	.insn	2, 0x0000
    47b6:	0000                	.insn	2, 0x0000
    47b8:	0000                	.insn	2, 0x0000
    47ba:	0000                	.insn	2, 0x0000
    47bc:	0000                	.insn	2, 0x0000
    47be:	0000                	.insn	2, 0x0000
    47c0:	0000                	.insn	2, 0x0000
    47c2:	0000                	.insn	2, 0x0000
    47c4:	0000                	.insn	2, 0x0000
    47c6:	0000                	.insn	2, 0x0000
    47c8:	0000                	.insn	2, 0x0000
    47ca:	0000                	.insn	2, 0x0000
    47cc:	0000                	.insn	2, 0x0000
    47ce:	0000                	.insn	2, 0x0000
    47d0:	0000                	.insn	2, 0x0000
    47d2:	0000                	.insn	2, 0x0000
    47d4:	0000                	.insn	2, 0x0000
    47d6:	0000                	.insn	2, 0x0000
    47d8:	0000                	.insn	2, 0x0000
    47da:	0000                	.insn	2, 0x0000
    47dc:	0000                	.insn	2, 0x0000
    47de:	0000                	.insn	2, 0x0000
    47e0:	0000                	.insn	2, 0x0000
    47e2:	0000                	.insn	2, 0x0000
    47e4:	0000                	.insn	2, 0x0000
    47e6:	0000                	.insn	2, 0x0000
    47e8:	0000                	.insn	2, 0x0000
    47ea:	0000                	.insn	2, 0x0000
    47ec:	0000                	.insn	2, 0x0000
    47ee:	0000                	.insn	2, 0x0000
    47f0:	0000                	.insn	2, 0x0000
    47f2:	0000                	.insn	2, 0x0000
    47f4:	0000                	.insn	2, 0x0000
    47f6:	0000                	.insn	2, 0x0000
    47f8:	0000                	.insn	2, 0x0000
    47fa:	0000                	.insn	2, 0x0000
    47fc:	0000                	.insn	2, 0x0000
    47fe:	0000                	.insn	2, 0x0000
    4800:	0000                	.insn	2, 0x0000
    4802:	0000                	.insn	2, 0x0000
    4804:	0000                	.insn	2, 0x0000
    4806:	0000                	.insn	2, 0x0000
    4808:	0000                	.insn	2, 0x0000
    480a:	0000                	.insn	2, 0x0000
    480c:	0000                	.insn	2, 0x0000
    480e:	0000                	.insn	2, 0x0000
    4810:	0000                	.insn	2, 0x0000
    4812:	0000                	.insn	2, 0x0000
    4814:	0000                	.insn	2, 0x0000
    4816:	0000                	.insn	2, 0x0000
    4818:	0000                	.insn	2, 0x0000
    481a:	0000                	.insn	2, 0x0000
    481c:	0000                	.insn	2, 0x0000
    481e:	0000                	.insn	2, 0x0000
    4820:	0000                	.insn	2, 0x0000
    4822:	0000                	.insn	2, 0x0000
    4824:	0000                	.insn	2, 0x0000
    4826:	0000                	.insn	2, 0x0000
    4828:	0000                	.insn	2, 0x0000
    482a:	0000                	.insn	2, 0x0000
    482c:	0000                	.insn	2, 0x0000
    482e:	0000                	.insn	2, 0x0000
    4830:	0000                	.insn	2, 0x0000
    4832:	0000                	.insn	2, 0x0000
    4834:	0000                	.insn	2, 0x0000
    4836:	0000                	.insn	2, 0x0000
    4838:	0000                	.insn	2, 0x0000
    483a:	0000                	.insn	2, 0x0000
    483c:	0000                	.insn	2, 0x0000
    483e:	0000                	.insn	2, 0x0000
    4840:	0000                	.insn	2, 0x0000
    4842:	0000                	.insn	2, 0x0000
    4844:	0000                	.insn	2, 0x0000
    4846:	0000                	.insn	2, 0x0000
    4848:	0000                	.insn	2, 0x0000
    484a:	0000                	.insn	2, 0x0000
    484c:	0000                	.insn	2, 0x0000
    484e:	0000                	.insn	2, 0x0000
    4850:	0000                	.insn	2, 0x0000
    4852:	0000                	.insn	2, 0x0000
    4854:	0000                	.insn	2, 0x0000
    4856:	0000                	.insn	2, 0x0000
    4858:	0000                	.insn	2, 0x0000
    485a:	0000                	.insn	2, 0x0000
    485c:	0000                	.insn	2, 0x0000
    485e:	0000                	.insn	2, 0x0000
    4860:	0000                	.insn	2, 0x0000
    4862:	0000                	.insn	2, 0x0000
    4864:	0000                	.insn	2, 0x0000
    4866:	0000                	.insn	2, 0x0000
    4868:	0000                	.insn	2, 0x0000
    486a:	0000                	.insn	2, 0x0000
    486c:	0000                	.insn	2, 0x0000
    486e:	0000                	.insn	2, 0x0000
    4870:	0000                	.insn	2, 0x0000
    4872:	0000                	.insn	2, 0x0000
    4874:	0000                	.insn	2, 0x0000
    4876:	0000                	.insn	2, 0x0000
    4878:	0000                	.insn	2, 0x0000
    487a:	0000                	.insn	2, 0x0000
    487c:	0000                	.insn	2, 0x0000
    487e:	0000                	.insn	2, 0x0000
    4880:	0000                	.insn	2, 0x0000
    4882:	0000                	.insn	2, 0x0000
    4884:	0000                	.insn	2, 0x0000
    4886:	0000                	.insn	2, 0x0000
    4888:	0000                	.insn	2, 0x0000
    488a:	0000                	.insn	2, 0x0000
    488c:	0000                	.insn	2, 0x0000
    488e:	0000                	.insn	2, 0x0000
    4890:	0000                	.insn	2, 0x0000
    4892:	0000                	.insn	2, 0x0000
    4894:	0000                	.insn	2, 0x0000
    4896:	0000                	.insn	2, 0x0000
    4898:	0000                	.insn	2, 0x0000
    489a:	0000                	.insn	2, 0x0000
    489c:	0000                	.insn	2, 0x0000
    489e:	0000                	.insn	2, 0x0000
    48a0:	0000                	.insn	2, 0x0000
    48a2:	0000                	.insn	2, 0x0000
    48a4:	0000                	.insn	2, 0x0000
    48a6:	0000                	.insn	2, 0x0000
    48a8:	0000                	.insn	2, 0x0000
    48aa:	0000                	.insn	2, 0x0000
    48ac:	0000                	.insn	2, 0x0000
    48ae:	0000                	.insn	2, 0x0000
    48b0:	0000                	.insn	2, 0x0000
    48b2:	0000                	.insn	2, 0x0000
    48b4:	0000                	.insn	2, 0x0000
    48b6:	0000                	.insn	2, 0x0000
    48b8:	0000                	.insn	2, 0x0000
    48ba:	0000                	.insn	2, 0x0000
    48bc:	0000                	.insn	2, 0x0000
    48be:	0000                	.insn	2, 0x0000
    48c0:	0000                	.insn	2, 0x0000
    48c2:	0000                	.insn	2, 0x0000
    48c4:	0000                	.insn	2, 0x0000
    48c6:	0000                	.insn	2, 0x0000
    48c8:	0000                	.insn	2, 0x0000
    48ca:	0000                	.insn	2, 0x0000
    48cc:	0000                	.insn	2, 0x0000
    48ce:	0000                	.insn	2, 0x0000
    48d0:	0000                	.insn	2, 0x0000
    48d2:	0000                	.insn	2, 0x0000
    48d4:	0000                	.insn	2, 0x0000
    48d6:	0000                	.insn	2, 0x0000
    48d8:	0000                	.insn	2, 0x0000
    48da:	0000                	.insn	2, 0x0000
    48dc:	0000                	.insn	2, 0x0000
    48de:	0000                	.insn	2, 0x0000
    48e0:	0000                	.insn	2, 0x0000
    48e2:	0000                	.insn	2, 0x0000
    48e4:	0000                	.insn	2, 0x0000
    48e6:	0000                	.insn	2, 0x0000
    48e8:	0000                	.insn	2, 0x0000
    48ea:	0000                	.insn	2, 0x0000
    48ec:	0000                	.insn	2, 0x0000
    48ee:	0000                	.insn	2, 0x0000
    48f0:	0000                	.insn	2, 0x0000
    48f2:	0000                	.insn	2, 0x0000
    48f4:	0000                	.insn	2, 0x0000
    48f6:	0000                	.insn	2, 0x0000
    48f8:	0000                	.insn	2, 0x0000
    48fa:	0000                	.insn	2, 0x0000
    48fc:	0000                	.insn	2, 0x0000
    48fe:	0000                	.insn	2, 0x0000
    4900:	0000                	.insn	2, 0x0000
    4902:	0000                	.insn	2, 0x0000
    4904:	0000                	.insn	2, 0x0000
    4906:	0000                	.insn	2, 0x0000
    4908:	0000                	.insn	2, 0x0000
    490a:	0000                	.insn	2, 0x0000
    490c:	0000                	.insn	2, 0x0000
    490e:	0000                	.insn	2, 0x0000
    4910:	0000                	.insn	2, 0x0000
    4912:	0000                	.insn	2, 0x0000
    4914:	0000                	.insn	2, 0x0000
    4916:	0000                	.insn	2, 0x0000
    4918:	0000                	.insn	2, 0x0000
    491a:	0000                	.insn	2, 0x0000
    491c:	0000                	.insn	2, 0x0000
    491e:	0000                	.insn	2, 0x0000
    4920:	0000                	.insn	2, 0x0000
    4922:	0000                	.insn	2, 0x0000
    4924:	0000                	.insn	2, 0x0000
    4926:	0000                	.insn	2, 0x0000
    4928:	0000                	.insn	2, 0x0000
    492a:	0000                	.insn	2, 0x0000
    492c:	0000                	.insn	2, 0x0000
    492e:	0000                	.insn	2, 0x0000
    4930:	0000                	.insn	2, 0x0000
    4932:	0000                	.insn	2, 0x0000
    4934:	0000                	.insn	2, 0x0000
    4936:	0000                	.insn	2, 0x0000
    4938:	0000                	.insn	2, 0x0000
    493a:	0000                	.insn	2, 0x0000
    493c:	0000                	.insn	2, 0x0000
    493e:	0000                	.insn	2, 0x0000
    4940:	0000                	.insn	2, 0x0000
    4942:	0000                	.insn	2, 0x0000
    4944:	0000                	.insn	2, 0x0000
    4946:	0000                	.insn	2, 0x0000
    4948:	0000                	.insn	2, 0x0000
    494a:	0000                	.insn	2, 0x0000
    494c:	0000                	.insn	2, 0x0000
    494e:	0000                	.insn	2, 0x0000
    4950:	0000                	.insn	2, 0x0000
    4952:	0000                	.insn	2, 0x0000
    4954:	0000                	.insn	2, 0x0000
    4956:	0000                	.insn	2, 0x0000
    4958:	0000                	.insn	2, 0x0000
    495a:	0000                	.insn	2, 0x0000
    495c:	0000                	.insn	2, 0x0000
    495e:	0000                	.insn	2, 0x0000
    4960:	0000                	.insn	2, 0x0000
    4962:	0000                	.insn	2, 0x0000
    4964:	0000                	.insn	2, 0x0000
    4966:	0000                	.insn	2, 0x0000
    4968:	0000                	.insn	2, 0x0000
    496a:	0000                	.insn	2, 0x0000
    496c:	0000                	.insn	2, 0x0000
    496e:	0000                	.insn	2, 0x0000
    4970:	0000                	.insn	2, 0x0000
    4972:	0000                	.insn	2, 0x0000
    4974:	0000                	.insn	2, 0x0000
    4976:	0000                	.insn	2, 0x0000
    4978:	0000                	.insn	2, 0x0000
    497a:	0000                	.insn	2, 0x0000
    497c:	0000                	.insn	2, 0x0000
    497e:	0000                	.insn	2, 0x0000
    4980:	0000                	.insn	2, 0x0000
    4982:	0000                	.insn	2, 0x0000
    4984:	0000                	.insn	2, 0x0000
    4986:	0000                	.insn	2, 0x0000
    4988:	0000                	.insn	2, 0x0000
    498a:	0000                	.insn	2, 0x0000
    498c:	0000                	.insn	2, 0x0000
    498e:	0000                	.insn	2, 0x0000
    4990:	0000                	.insn	2, 0x0000
    4992:	0000                	.insn	2, 0x0000
    4994:	0000                	.insn	2, 0x0000
    4996:	0000                	.insn	2, 0x0000
    4998:	0000                	.insn	2, 0x0000
    499a:	0000                	.insn	2, 0x0000
    499c:	0000                	.insn	2, 0x0000
    499e:	0000                	.insn	2, 0x0000
    49a0:	0000                	.insn	2, 0x0000
    49a2:	0000                	.insn	2, 0x0000
    49a4:	0000                	.insn	2, 0x0000
    49a6:	0000                	.insn	2, 0x0000
    49a8:	0000                	.insn	2, 0x0000
    49aa:	0000                	.insn	2, 0x0000
    49ac:	0000                	.insn	2, 0x0000
    49ae:	0000                	.insn	2, 0x0000
    49b0:	0000                	.insn	2, 0x0000
    49b2:	0000                	.insn	2, 0x0000
    49b4:	0000                	.insn	2, 0x0000
    49b6:	0000                	.insn	2, 0x0000
    49b8:	0000                	.insn	2, 0x0000
    49ba:	0000                	.insn	2, 0x0000
    49bc:	0000                	.insn	2, 0x0000
    49be:	0000                	.insn	2, 0x0000
    49c0:	0000                	.insn	2, 0x0000
    49c2:	0000                	.insn	2, 0x0000
    49c4:	0000                	.insn	2, 0x0000
    49c6:	0000                	.insn	2, 0x0000
    49c8:	0000                	.insn	2, 0x0000
    49ca:	0000                	.insn	2, 0x0000
    49cc:	0000                	.insn	2, 0x0000
    49ce:	0000                	.insn	2, 0x0000
    49d0:	0000                	.insn	2, 0x0000
    49d2:	0000                	.insn	2, 0x0000
    49d4:	0000                	.insn	2, 0x0000
    49d6:	0000                	.insn	2, 0x0000
    49d8:	0000                	.insn	2, 0x0000
    49da:	0000                	.insn	2, 0x0000
    49dc:	0000                	.insn	2, 0x0000
    49de:	0000                	.insn	2, 0x0000
    49e0:	0000                	.insn	2, 0x0000
    49e2:	0000                	.insn	2, 0x0000
    49e4:	0000                	.insn	2, 0x0000
    49e6:	0000                	.insn	2, 0x0000
    49e8:	0000                	.insn	2, 0x0000
    49ea:	0000                	.insn	2, 0x0000
    49ec:	0000                	.insn	2, 0x0000
    49ee:	0000                	.insn	2, 0x0000
    49f0:	0000                	.insn	2, 0x0000
    49f2:	0000                	.insn	2, 0x0000
    49f4:	0000                	.insn	2, 0x0000
    49f6:	0000                	.insn	2, 0x0000
    49f8:	0000                	.insn	2, 0x0000
    49fa:	0000                	.insn	2, 0x0000
    49fc:	0000                	.insn	2, 0x0000
    49fe:	0000                	.insn	2, 0x0000
    4a00:	0000                	.insn	2, 0x0000
    4a02:	0000                	.insn	2, 0x0000
    4a04:	0000                	.insn	2, 0x0000
    4a06:	0000                	.insn	2, 0x0000
    4a08:	0000                	.insn	2, 0x0000
    4a0a:	0000                	.insn	2, 0x0000
    4a0c:	0000                	.insn	2, 0x0000
    4a0e:	0000                	.insn	2, 0x0000
    4a10:	0000                	.insn	2, 0x0000
    4a12:	0000                	.insn	2, 0x0000
    4a14:	0000                	.insn	2, 0x0000
    4a16:	0000                	.insn	2, 0x0000
    4a18:	0000                	.insn	2, 0x0000
    4a1a:	0000                	.insn	2, 0x0000
    4a1c:	0000                	.insn	2, 0x0000
    4a1e:	0000                	.insn	2, 0x0000
    4a20:	0000                	.insn	2, 0x0000
    4a22:	0000                	.insn	2, 0x0000
    4a24:	0000                	.insn	2, 0x0000
    4a26:	0000                	.insn	2, 0x0000
    4a28:	0000                	.insn	2, 0x0000
    4a2a:	0000                	.insn	2, 0x0000
    4a2c:	0000                	.insn	2, 0x0000
    4a2e:	0000                	.insn	2, 0x0000
    4a30:	0000                	.insn	2, 0x0000
    4a32:	0000                	.insn	2, 0x0000
    4a34:	0000                	.insn	2, 0x0000
    4a36:	0000                	.insn	2, 0x0000
    4a38:	0000                	.insn	2, 0x0000
    4a3a:	0000                	.insn	2, 0x0000
    4a3c:	0000                	.insn	2, 0x0000
    4a3e:	0000                	.insn	2, 0x0000
    4a40:	0000                	.insn	2, 0x0000
    4a42:	0000                	.insn	2, 0x0000
    4a44:	0000                	.insn	2, 0x0000
    4a46:	0000                	.insn	2, 0x0000
    4a48:	0000                	.insn	2, 0x0000
    4a4a:	0000                	.insn	2, 0x0000
    4a4c:	0000                	.insn	2, 0x0000
    4a4e:	0000                	.insn	2, 0x0000
    4a50:	0000                	.insn	2, 0x0000
    4a52:	0000                	.insn	2, 0x0000
    4a54:	0000                	.insn	2, 0x0000
    4a56:	0000                	.insn	2, 0x0000
    4a58:	0000                	.insn	2, 0x0000
    4a5a:	0000                	.insn	2, 0x0000
    4a5c:	0000                	.insn	2, 0x0000
    4a5e:	0000                	.insn	2, 0x0000
    4a60:	0000                	.insn	2, 0x0000
    4a62:	0000                	.insn	2, 0x0000
    4a64:	0000                	.insn	2, 0x0000
    4a66:	0000                	.insn	2, 0x0000
    4a68:	0000                	.insn	2, 0x0000
    4a6a:	0000                	.insn	2, 0x0000
    4a6c:	0000                	.insn	2, 0x0000
    4a6e:	0000                	.insn	2, 0x0000
    4a70:	0000                	.insn	2, 0x0000
    4a72:	0000                	.insn	2, 0x0000
    4a74:	0000                	.insn	2, 0x0000
    4a76:	0000                	.insn	2, 0x0000
    4a78:	0000                	.insn	2, 0x0000
    4a7a:	0000                	.insn	2, 0x0000
    4a7c:	0000                	.insn	2, 0x0000
    4a7e:	0000                	.insn	2, 0x0000
    4a80:	0000                	.insn	2, 0x0000
    4a82:	0000                	.insn	2, 0x0000
    4a84:	0000                	.insn	2, 0x0000
    4a86:	0000                	.insn	2, 0x0000
    4a88:	0000                	.insn	2, 0x0000
    4a8a:	0000                	.insn	2, 0x0000
    4a8c:	0000                	.insn	2, 0x0000
    4a8e:	0000                	.insn	2, 0x0000
    4a90:	0000                	.insn	2, 0x0000
    4a92:	0000                	.insn	2, 0x0000
    4a94:	0000                	.insn	2, 0x0000
    4a96:	0000                	.insn	2, 0x0000
    4a98:	0000                	.insn	2, 0x0000
    4a9a:	0000                	.insn	2, 0x0000
    4a9c:	0000                	.insn	2, 0x0000
    4a9e:	0000                	.insn	2, 0x0000
    4aa0:	0000                	.insn	2, 0x0000
    4aa2:	0000                	.insn	2, 0x0000
    4aa4:	0000                	.insn	2, 0x0000
    4aa6:	0000                	.insn	2, 0x0000
    4aa8:	0000                	.insn	2, 0x0000
    4aaa:	0000                	.insn	2, 0x0000
    4aac:	0000                	.insn	2, 0x0000
    4aae:	0000                	.insn	2, 0x0000
    4ab0:	0000                	.insn	2, 0x0000
    4ab2:	0000                	.insn	2, 0x0000
    4ab4:	0000                	.insn	2, 0x0000
    4ab6:	0000                	.insn	2, 0x0000
    4ab8:	0000                	.insn	2, 0x0000
    4aba:	0000                	.insn	2, 0x0000
    4abc:	0000                	.insn	2, 0x0000
    4abe:	0000                	.insn	2, 0x0000
    4ac0:	0000                	.insn	2, 0x0000
    4ac2:	0000                	.insn	2, 0x0000
    4ac4:	0000                	.insn	2, 0x0000
    4ac6:	0000                	.insn	2, 0x0000
    4ac8:	0000                	.insn	2, 0x0000
    4aca:	0000                	.insn	2, 0x0000
    4acc:	0000                	.insn	2, 0x0000
    4ace:	0000                	.insn	2, 0x0000
    4ad0:	0000                	.insn	2, 0x0000
    4ad2:	0000                	.insn	2, 0x0000
    4ad4:	0000                	.insn	2, 0x0000
    4ad6:	0000                	.insn	2, 0x0000
    4ad8:	0000                	.insn	2, 0x0000
    4ada:	0000                	.insn	2, 0x0000
    4adc:	0000                	.insn	2, 0x0000
    4ade:	0000                	.insn	2, 0x0000
    4ae0:	0000                	.insn	2, 0x0000
    4ae2:	0000                	.insn	2, 0x0000
    4ae4:	0000                	.insn	2, 0x0000
    4ae6:	0000                	.insn	2, 0x0000
    4ae8:	0000                	.insn	2, 0x0000
    4aea:	0000                	.insn	2, 0x0000
    4aec:	0000                	.insn	2, 0x0000
    4aee:	0000                	.insn	2, 0x0000
    4af0:	0000                	.insn	2, 0x0000
    4af2:	0000                	.insn	2, 0x0000
    4af4:	0000                	.insn	2, 0x0000
    4af6:	0000                	.insn	2, 0x0000
    4af8:	0000                	.insn	2, 0x0000
    4afa:	0000                	.insn	2, 0x0000
    4afc:	0000                	.insn	2, 0x0000
    4afe:	0000                	.insn	2, 0x0000
    4b00:	0000                	.insn	2, 0x0000
    4b02:	0000                	.insn	2, 0x0000
    4b04:	0000                	.insn	2, 0x0000
    4b06:	0000                	.insn	2, 0x0000
    4b08:	0000                	.insn	2, 0x0000
    4b0a:	0000                	.insn	2, 0x0000
    4b0c:	0000                	.insn	2, 0x0000
    4b0e:	0000                	.insn	2, 0x0000
    4b10:	0000                	.insn	2, 0x0000
    4b12:	0000                	.insn	2, 0x0000
    4b14:	0000                	.insn	2, 0x0000
    4b16:	0000                	.insn	2, 0x0000
    4b18:	0000                	.insn	2, 0x0000
    4b1a:	0000                	.insn	2, 0x0000
    4b1c:	0000                	.insn	2, 0x0000
    4b1e:	0000                	.insn	2, 0x0000
    4b20:	0000                	.insn	2, 0x0000
    4b22:	0000                	.insn	2, 0x0000
    4b24:	0000                	.insn	2, 0x0000
    4b26:	0000                	.insn	2, 0x0000
    4b28:	0000                	.insn	2, 0x0000
    4b2a:	0000                	.insn	2, 0x0000
    4b2c:	0000                	.insn	2, 0x0000
    4b2e:	0000                	.insn	2, 0x0000
    4b30:	0000                	.insn	2, 0x0000
    4b32:	0000                	.insn	2, 0x0000
    4b34:	0000                	.insn	2, 0x0000
    4b36:	0000                	.insn	2, 0x0000
    4b38:	0000                	.insn	2, 0x0000
    4b3a:	0000                	.insn	2, 0x0000
    4b3c:	0000                	.insn	2, 0x0000
    4b3e:	0000                	.insn	2, 0x0000
    4b40:	0000                	.insn	2, 0x0000
    4b42:	0000                	.insn	2, 0x0000
    4b44:	0000                	.insn	2, 0x0000
    4b46:	0000                	.insn	2, 0x0000
    4b48:	0000                	.insn	2, 0x0000
    4b4a:	0000                	.insn	2, 0x0000
    4b4c:	0000                	.insn	2, 0x0000
    4b4e:	0000                	.insn	2, 0x0000
    4b50:	0000                	.insn	2, 0x0000
    4b52:	0000                	.insn	2, 0x0000
    4b54:	0000                	.insn	2, 0x0000
    4b56:	0000                	.insn	2, 0x0000
    4b58:	0000                	.insn	2, 0x0000
    4b5a:	0000                	.insn	2, 0x0000
    4b5c:	0000                	.insn	2, 0x0000
    4b5e:	0000                	.insn	2, 0x0000
    4b60:	0000                	.insn	2, 0x0000
    4b62:	0000                	.insn	2, 0x0000
    4b64:	0000                	.insn	2, 0x0000
    4b66:	0000                	.insn	2, 0x0000
    4b68:	0000                	.insn	2, 0x0000
    4b6a:	0000                	.insn	2, 0x0000
    4b6c:	0000                	.insn	2, 0x0000
    4b6e:	0000                	.insn	2, 0x0000
    4b70:	0000                	.insn	2, 0x0000
    4b72:	0000                	.insn	2, 0x0000
    4b74:	0000                	.insn	2, 0x0000
    4b76:	0000                	.insn	2, 0x0000
    4b78:	0000                	.insn	2, 0x0000
    4b7a:	0000                	.insn	2, 0x0000
    4b7c:	0000                	.insn	2, 0x0000
    4b7e:	0000                	.insn	2, 0x0000
    4b80:	0000                	.insn	2, 0x0000
    4b82:	0000                	.insn	2, 0x0000
    4b84:	0000                	.insn	2, 0x0000
    4b86:	0000                	.insn	2, 0x0000
    4b88:	0000                	.insn	2, 0x0000
    4b8a:	0000                	.insn	2, 0x0000
    4b8c:	0000                	.insn	2, 0x0000
    4b8e:	0000                	.insn	2, 0x0000
    4b90:	0000                	.insn	2, 0x0000
    4b92:	0000                	.insn	2, 0x0000
    4b94:	0000                	.insn	2, 0x0000
    4b96:	0000                	.insn	2, 0x0000
    4b98:	0000                	.insn	2, 0x0000
    4b9a:	0000                	.insn	2, 0x0000
    4b9c:	0000                	.insn	2, 0x0000
    4b9e:	0000                	.insn	2, 0x0000
    4ba0:	0000                	.insn	2, 0x0000
    4ba2:	0000                	.insn	2, 0x0000
    4ba4:	0000                	.insn	2, 0x0000
    4ba6:	0000                	.insn	2, 0x0000
    4ba8:	0000                	.insn	2, 0x0000
    4baa:	0000                	.insn	2, 0x0000
    4bac:	0000                	.insn	2, 0x0000
    4bae:	0000                	.insn	2, 0x0000
    4bb0:	0000                	.insn	2, 0x0000
    4bb2:	0000                	.insn	2, 0x0000
    4bb4:	0000                	.insn	2, 0x0000
    4bb6:	0000                	.insn	2, 0x0000
    4bb8:	0000                	.insn	2, 0x0000
    4bba:	0000                	.insn	2, 0x0000
    4bbc:	0000                	.insn	2, 0x0000
    4bbe:	0000                	.insn	2, 0x0000
    4bc0:	0000                	.insn	2, 0x0000
    4bc2:	0000                	.insn	2, 0x0000
    4bc4:	0000                	.insn	2, 0x0000
    4bc6:	0000                	.insn	2, 0x0000
    4bc8:	0000                	.insn	2, 0x0000
    4bca:	0000                	.insn	2, 0x0000
    4bcc:	0000                	.insn	2, 0x0000
    4bce:	0000                	.insn	2, 0x0000
    4bd0:	0000                	.insn	2, 0x0000
    4bd2:	0000                	.insn	2, 0x0000
    4bd4:	0000                	.insn	2, 0x0000
    4bd6:	0000                	.insn	2, 0x0000
    4bd8:	0000                	.insn	2, 0x0000
    4bda:	0000                	.insn	2, 0x0000
    4bdc:	0000                	.insn	2, 0x0000
    4bde:	0000                	.insn	2, 0x0000
    4be0:	0000                	.insn	2, 0x0000
    4be2:	0000                	.insn	2, 0x0000
    4be4:	0000                	.insn	2, 0x0000
    4be6:	0000                	.insn	2, 0x0000
    4be8:	0000                	.insn	2, 0x0000
    4bea:	0000                	.insn	2, 0x0000
    4bec:	0000                	.insn	2, 0x0000
    4bee:	0000                	.insn	2, 0x0000
    4bf0:	0000                	.insn	2, 0x0000
    4bf2:	0000                	.insn	2, 0x0000
    4bf4:	0000                	.insn	2, 0x0000
    4bf6:	0000                	.insn	2, 0x0000
    4bf8:	0000                	.insn	2, 0x0000
    4bfa:	0000                	.insn	2, 0x0000
    4bfc:	0000                	.insn	2, 0x0000
    4bfe:	0000                	.insn	2, 0x0000
    4c00:	0000                	.insn	2, 0x0000
    4c02:	0000                	.insn	2, 0x0000
    4c04:	0000                	.insn	2, 0x0000
    4c06:	0000                	.insn	2, 0x0000
    4c08:	0000                	.insn	2, 0x0000
    4c0a:	0000                	.insn	2, 0x0000
    4c0c:	0000                	.insn	2, 0x0000
    4c0e:	0000                	.insn	2, 0x0000
    4c10:	0000                	.insn	2, 0x0000
    4c12:	0000                	.insn	2, 0x0000
    4c14:	0000                	.insn	2, 0x0000
    4c16:	0000                	.insn	2, 0x0000
    4c18:	0000                	.insn	2, 0x0000
    4c1a:	0000                	.insn	2, 0x0000
    4c1c:	0000                	.insn	2, 0x0000
    4c1e:	0000                	.insn	2, 0x0000
    4c20:	0000                	.insn	2, 0x0000
    4c22:	0000                	.insn	2, 0x0000
    4c24:	0000                	.insn	2, 0x0000
    4c26:	0000                	.insn	2, 0x0000
    4c28:	0000                	.insn	2, 0x0000
    4c2a:	0000                	.insn	2, 0x0000
    4c2c:	0000                	.insn	2, 0x0000
    4c2e:	0000                	.insn	2, 0x0000
    4c30:	0000                	.insn	2, 0x0000
    4c32:	0000                	.insn	2, 0x0000
    4c34:	0000                	.insn	2, 0x0000
    4c36:	0000                	.insn	2, 0x0000
    4c38:	0000                	.insn	2, 0x0000
    4c3a:	0000                	.insn	2, 0x0000
    4c3c:	0000                	.insn	2, 0x0000
    4c3e:	0000                	.insn	2, 0x0000
    4c40:	0000                	.insn	2, 0x0000
    4c42:	0000                	.insn	2, 0x0000
    4c44:	0000                	.insn	2, 0x0000
    4c46:	0000                	.insn	2, 0x0000
    4c48:	0000                	.insn	2, 0x0000
    4c4a:	0000                	.insn	2, 0x0000
    4c4c:	0000                	.insn	2, 0x0000
    4c4e:	0000                	.insn	2, 0x0000
    4c50:	0000                	.insn	2, 0x0000
    4c52:	0000                	.insn	2, 0x0000
    4c54:	0000                	.insn	2, 0x0000
    4c56:	0000                	.insn	2, 0x0000
    4c58:	0000                	.insn	2, 0x0000
    4c5a:	0000                	.insn	2, 0x0000
    4c5c:	0000                	.insn	2, 0x0000
    4c5e:	0000                	.insn	2, 0x0000
    4c60:	0000                	.insn	2, 0x0000
    4c62:	0000                	.insn	2, 0x0000
    4c64:	0000                	.insn	2, 0x0000
    4c66:	0000                	.insn	2, 0x0000
    4c68:	0000                	.insn	2, 0x0000
    4c6a:	0000                	.insn	2, 0x0000
    4c6c:	0000                	.insn	2, 0x0000
    4c6e:	0000                	.insn	2, 0x0000
    4c70:	0000                	.insn	2, 0x0000
    4c72:	0000                	.insn	2, 0x0000
    4c74:	0000                	.insn	2, 0x0000
    4c76:	0000                	.insn	2, 0x0000
    4c78:	0000                	.insn	2, 0x0000
    4c7a:	0000                	.insn	2, 0x0000
    4c7c:	0000                	.insn	2, 0x0000
    4c7e:	0000                	.insn	2, 0x0000
    4c80:	0000                	.insn	2, 0x0000
    4c82:	0000                	.insn	2, 0x0000
    4c84:	0000                	.insn	2, 0x0000
    4c86:	0000                	.insn	2, 0x0000
    4c88:	0000                	.insn	2, 0x0000
    4c8a:	0000                	.insn	2, 0x0000
    4c8c:	0000                	.insn	2, 0x0000
    4c8e:	0000                	.insn	2, 0x0000
    4c90:	0000                	.insn	2, 0x0000
    4c92:	0000                	.insn	2, 0x0000
    4c94:	0000                	.insn	2, 0x0000
    4c96:	0000                	.insn	2, 0x0000
    4c98:	0000                	.insn	2, 0x0000
    4c9a:	0000                	.insn	2, 0x0000
    4c9c:	0000                	.insn	2, 0x0000
    4c9e:	0000                	.insn	2, 0x0000
    4ca0:	0000                	.insn	2, 0x0000
    4ca2:	0000                	.insn	2, 0x0000
    4ca4:	0000                	.insn	2, 0x0000
    4ca6:	0000                	.insn	2, 0x0000
    4ca8:	0000                	.insn	2, 0x0000
    4caa:	0000                	.insn	2, 0x0000
    4cac:	0000                	.insn	2, 0x0000
    4cae:	0000                	.insn	2, 0x0000
    4cb0:	0000                	.insn	2, 0x0000
    4cb2:	0000                	.insn	2, 0x0000
    4cb4:	0000                	.insn	2, 0x0000
    4cb6:	0000                	.insn	2, 0x0000
    4cb8:	0000                	.insn	2, 0x0000
    4cba:	0000                	.insn	2, 0x0000
    4cbc:	0000                	.insn	2, 0x0000
    4cbe:	0000                	.insn	2, 0x0000
    4cc0:	0000                	.insn	2, 0x0000
    4cc2:	0000                	.insn	2, 0x0000
    4cc4:	0000                	.insn	2, 0x0000
    4cc6:	0000                	.insn	2, 0x0000
    4cc8:	0000                	.insn	2, 0x0000
    4cca:	0000                	.insn	2, 0x0000
    4ccc:	0000                	.insn	2, 0x0000
    4cce:	0000                	.insn	2, 0x0000
    4cd0:	0000                	.insn	2, 0x0000
    4cd2:	0000                	.insn	2, 0x0000
    4cd4:	0000                	.insn	2, 0x0000
    4cd6:	0000                	.insn	2, 0x0000
    4cd8:	0000                	.insn	2, 0x0000
    4cda:	0000                	.insn	2, 0x0000
    4cdc:	0000                	.insn	2, 0x0000
    4cde:	0000                	.insn	2, 0x0000
    4ce0:	0000                	.insn	2, 0x0000
    4ce2:	0000                	.insn	2, 0x0000
    4ce4:	0000                	.insn	2, 0x0000
    4ce6:	0000                	.insn	2, 0x0000
    4ce8:	0000                	.insn	2, 0x0000
    4cea:	0000                	.insn	2, 0x0000
    4cec:	0000                	.insn	2, 0x0000
    4cee:	0000                	.insn	2, 0x0000
    4cf0:	0000                	.insn	2, 0x0000
    4cf2:	0000                	.insn	2, 0x0000
    4cf4:	0000                	.insn	2, 0x0000
    4cf6:	0000                	.insn	2, 0x0000
    4cf8:	0000                	.insn	2, 0x0000
    4cfa:	0000                	.insn	2, 0x0000
    4cfc:	0000                	.insn	2, 0x0000
    4cfe:	0000                	.insn	2, 0x0000
    4d00:	0000                	.insn	2, 0x0000
    4d02:	0000                	.insn	2, 0x0000
    4d04:	0000                	.insn	2, 0x0000
    4d06:	0000                	.insn	2, 0x0000
    4d08:	0000                	.insn	2, 0x0000
    4d0a:	0000                	.insn	2, 0x0000
    4d0c:	0000                	.insn	2, 0x0000
    4d0e:	0000                	.insn	2, 0x0000
    4d10:	0000                	.insn	2, 0x0000
    4d12:	0000                	.insn	2, 0x0000
    4d14:	0000                	.insn	2, 0x0000
    4d16:	0000                	.insn	2, 0x0000
    4d18:	0000                	.insn	2, 0x0000
    4d1a:	0000                	.insn	2, 0x0000
    4d1c:	0000                	.insn	2, 0x0000
    4d1e:	0000                	.insn	2, 0x0000
    4d20:	0000                	.insn	2, 0x0000
    4d22:	0000                	.insn	2, 0x0000
    4d24:	0000                	.insn	2, 0x0000
    4d26:	0000                	.insn	2, 0x0000
    4d28:	0000                	.insn	2, 0x0000
    4d2a:	0000                	.insn	2, 0x0000
    4d2c:	0000                	.insn	2, 0x0000
    4d2e:	0000                	.insn	2, 0x0000
    4d30:	0000                	.insn	2, 0x0000
    4d32:	0000                	.insn	2, 0x0000
    4d34:	0000                	.insn	2, 0x0000
    4d36:	0000                	.insn	2, 0x0000
    4d38:	0000                	.insn	2, 0x0000
    4d3a:	0000                	.insn	2, 0x0000
    4d3c:	0000                	.insn	2, 0x0000
    4d3e:	0000                	.insn	2, 0x0000
    4d40:	0000                	.insn	2, 0x0000
    4d42:	0000                	.insn	2, 0x0000
    4d44:	0000                	.insn	2, 0x0000
    4d46:	0000                	.insn	2, 0x0000
    4d48:	0000                	.insn	2, 0x0000
    4d4a:	0000                	.insn	2, 0x0000
    4d4c:	0000                	.insn	2, 0x0000
    4d4e:	0000                	.insn	2, 0x0000
    4d50:	0000                	.insn	2, 0x0000
    4d52:	0000                	.insn	2, 0x0000
    4d54:	0000                	.insn	2, 0x0000
    4d56:	0000                	.insn	2, 0x0000
    4d58:	0000                	.insn	2, 0x0000
    4d5a:	0000                	.insn	2, 0x0000
    4d5c:	0000                	.insn	2, 0x0000
    4d5e:	0000                	.insn	2, 0x0000
    4d60:	0000                	.insn	2, 0x0000
    4d62:	0000                	.insn	2, 0x0000
    4d64:	0000                	.insn	2, 0x0000
    4d66:	0000                	.insn	2, 0x0000
    4d68:	0000                	.insn	2, 0x0000
    4d6a:	0000                	.insn	2, 0x0000
    4d6c:	0000                	.insn	2, 0x0000
    4d6e:	0000                	.insn	2, 0x0000
    4d70:	0000                	.insn	2, 0x0000
    4d72:	0000                	.insn	2, 0x0000
    4d74:	0000                	.insn	2, 0x0000
    4d76:	0000                	.insn	2, 0x0000
    4d78:	0000                	.insn	2, 0x0000
    4d7a:	0000                	.insn	2, 0x0000
    4d7c:	0000                	.insn	2, 0x0000
    4d7e:	0000                	.insn	2, 0x0000
    4d80:	0000                	.insn	2, 0x0000
    4d82:	0000                	.insn	2, 0x0000
    4d84:	0000                	.insn	2, 0x0000
    4d86:	0000                	.insn	2, 0x0000
    4d88:	0000                	.insn	2, 0x0000
    4d8a:	0000                	.insn	2, 0x0000
    4d8c:	0000                	.insn	2, 0x0000
    4d8e:	0000                	.insn	2, 0x0000
    4d90:	0000                	.insn	2, 0x0000
    4d92:	0000                	.insn	2, 0x0000
    4d94:	0000                	.insn	2, 0x0000
    4d96:	0000                	.insn	2, 0x0000
    4d98:	0000                	.insn	2, 0x0000
    4d9a:	0000                	.insn	2, 0x0000
    4d9c:	0000                	.insn	2, 0x0000
    4d9e:	0000                	.insn	2, 0x0000
    4da0:	0000                	.insn	2, 0x0000
    4da2:	0000                	.insn	2, 0x0000
    4da4:	0000                	.insn	2, 0x0000
    4da6:	0000                	.insn	2, 0x0000
    4da8:	0000                	.insn	2, 0x0000
    4daa:	0000                	.insn	2, 0x0000
    4dac:	0000                	.insn	2, 0x0000
    4dae:	0000                	.insn	2, 0x0000
    4db0:	0000                	.insn	2, 0x0000
    4db2:	0000                	.insn	2, 0x0000
    4db4:	0000                	.insn	2, 0x0000
    4db6:	0000                	.insn	2, 0x0000
    4db8:	0000                	.insn	2, 0x0000
    4dba:	0000                	.insn	2, 0x0000
    4dbc:	0000                	.insn	2, 0x0000
    4dbe:	0000                	.insn	2, 0x0000
    4dc0:	0000                	.insn	2, 0x0000
    4dc2:	0000                	.insn	2, 0x0000
    4dc4:	0000                	.insn	2, 0x0000
    4dc6:	0000                	.insn	2, 0x0000
    4dc8:	0000                	.insn	2, 0x0000
    4dca:	0000                	.insn	2, 0x0000
    4dcc:	0000                	.insn	2, 0x0000
    4dce:	0000                	.insn	2, 0x0000
    4dd0:	0000                	.insn	2, 0x0000
    4dd2:	0000                	.insn	2, 0x0000
    4dd4:	0000                	.insn	2, 0x0000
    4dd6:	0000                	.insn	2, 0x0000
    4dd8:	0000                	.insn	2, 0x0000
    4dda:	0000                	.insn	2, 0x0000
    4ddc:	0000                	.insn	2, 0x0000
    4dde:	0000                	.insn	2, 0x0000
    4de0:	0000                	.insn	2, 0x0000
    4de2:	0000                	.insn	2, 0x0000
    4de4:	0000                	.insn	2, 0x0000
    4de6:	0000                	.insn	2, 0x0000
    4de8:	0000                	.insn	2, 0x0000
    4dea:	0000                	.insn	2, 0x0000
    4dec:	0000                	.insn	2, 0x0000
    4dee:	0000                	.insn	2, 0x0000
    4df0:	0000                	.insn	2, 0x0000
    4df2:	0000                	.insn	2, 0x0000
    4df4:	0000                	.insn	2, 0x0000
    4df6:	0000                	.insn	2, 0x0000
    4df8:	0000                	.insn	2, 0x0000
    4dfa:	0000                	.insn	2, 0x0000
    4dfc:	0000                	.insn	2, 0x0000
    4dfe:	0000                	.insn	2, 0x0000
    4e00:	0000                	.insn	2, 0x0000
    4e02:	0000                	.insn	2, 0x0000
    4e04:	0000                	.insn	2, 0x0000
    4e06:	0000                	.insn	2, 0x0000
    4e08:	0000                	.insn	2, 0x0000
    4e0a:	0000                	.insn	2, 0x0000
    4e0c:	0000                	.insn	2, 0x0000
    4e0e:	0000                	.insn	2, 0x0000
    4e10:	0000                	.insn	2, 0x0000
    4e12:	0000                	.insn	2, 0x0000
    4e14:	0000                	.insn	2, 0x0000
    4e16:	0000                	.insn	2, 0x0000
    4e18:	0000                	.insn	2, 0x0000
    4e1a:	0000                	.insn	2, 0x0000
    4e1c:	0000                	.insn	2, 0x0000
    4e1e:	0000                	.insn	2, 0x0000
    4e20:	0000                	.insn	2, 0x0000
    4e22:	0000                	.insn	2, 0x0000
    4e24:	0000                	.insn	2, 0x0000
    4e26:	0000                	.insn	2, 0x0000
    4e28:	0000                	.insn	2, 0x0000
    4e2a:	0000                	.insn	2, 0x0000
    4e2c:	0000                	.insn	2, 0x0000
    4e2e:	0000                	.insn	2, 0x0000
    4e30:	0000                	.insn	2, 0x0000
    4e32:	0000                	.insn	2, 0x0000
    4e34:	0000                	.insn	2, 0x0000
    4e36:	0000                	.insn	2, 0x0000
    4e38:	0000                	.insn	2, 0x0000
    4e3a:	0000                	.insn	2, 0x0000
    4e3c:	0000                	.insn	2, 0x0000
    4e3e:	0000                	.insn	2, 0x0000
    4e40:	0000                	.insn	2, 0x0000
    4e42:	0000                	.insn	2, 0x0000
    4e44:	0000                	.insn	2, 0x0000
    4e46:	0000                	.insn	2, 0x0000
    4e48:	0000                	.insn	2, 0x0000
    4e4a:	0000                	.insn	2, 0x0000
    4e4c:	0000                	.insn	2, 0x0000
    4e4e:	0000                	.insn	2, 0x0000
    4e50:	0000                	.insn	2, 0x0000
    4e52:	0000                	.insn	2, 0x0000
    4e54:	0000                	.insn	2, 0x0000
    4e56:	0000                	.insn	2, 0x0000
    4e58:	0000                	.insn	2, 0x0000
    4e5a:	0000                	.insn	2, 0x0000
    4e5c:	0000                	.insn	2, 0x0000
    4e5e:	0000                	.insn	2, 0x0000
    4e60:	0000                	.insn	2, 0x0000
    4e62:	0000                	.insn	2, 0x0000
    4e64:	0000                	.insn	2, 0x0000
    4e66:	0000                	.insn	2, 0x0000
    4e68:	0000                	.insn	2, 0x0000
    4e6a:	0000                	.insn	2, 0x0000
    4e6c:	0000                	.insn	2, 0x0000
    4e6e:	0000                	.insn	2, 0x0000
    4e70:	0000                	.insn	2, 0x0000
    4e72:	0000                	.insn	2, 0x0000
    4e74:	0000                	.insn	2, 0x0000
    4e76:	0000                	.insn	2, 0x0000
    4e78:	0000                	.insn	2, 0x0000
    4e7a:	0000                	.insn	2, 0x0000
    4e7c:	0000                	.insn	2, 0x0000
    4e7e:	0000                	.insn	2, 0x0000
    4e80:	0000                	.insn	2, 0x0000
    4e82:	0000                	.insn	2, 0x0000
    4e84:	0000                	.insn	2, 0x0000
    4e86:	0000                	.insn	2, 0x0000
    4e88:	0000                	.insn	2, 0x0000
    4e8a:	0000                	.insn	2, 0x0000
    4e8c:	0000                	.insn	2, 0x0000
    4e8e:	0000                	.insn	2, 0x0000
    4e90:	0000                	.insn	2, 0x0000
    4e92:	0000                	.insn	2, 0x0000
    4e94:	0000                	.insn	2, 0x0000
    4e96:	0000                	.insn	2, 0x0000
    4e98:	0000                	.insn	2, 0x0000
    4e9a:	0000                	.insn	2, 0x0000
    4e9c:	0000                	.insn	2, 0x0000
    4e9e:	0000                	.insn	2, 0x0000
    4ea0:	0000                	.insn	2, 0x0000
    4ea2:	0000                	.insn	2, 0x0000
    4ea4:	0000                	.insn	2, 0x0000
    4ea6:	0000                	.insn	2, 0x0000
    4ea8:	0000                	.insn	2, 0x0000
    4eaa:	0000                	.insn	2, 0x0000
    4eac:	0000                	.insn	2, 0x0000
    4eae:	0000                	.insn	2, 0x0000
    4eb0:	0000                	.insn	2, 0x0000
    4eb2:	0000                	.insn	2, 0x0000
    4eb4:	0000                	.insn	2, 0x0000
    4eb6:	0000                	.insn	2, 0x0000
    4eb8:	0000                	.insn	2, 0x0000
    4eba:	0000                	.insn	2, 0x0000
    4ebc:	0000                	.insn	2, 0x0000
    4ebe:	0000                	.insn	2, 0x0000
    4ec0:	0000                	.insn	2, 0x0000
    4ec2:	0000                	.insn	2, 0x0000
    4ec4:	0000                	.insn	2, 0x0000
    4ec6:	0000                	.insn	2, 0x0000
    4ec8:	0000                	.insn	2, 0x0000
    4eca:	0000                	.insn	2, 0x0000
    4ecc:	0000                	.insn	2, 0x0000
    4ece:	0000                	.insn	2, 0x0000
    4ed0:	0000                	.insn	2, 0x0000
    4ed2:	0000                	.insn	2, 0x0000
    4ed4:	0000                	.insn	2, 0x0000
    4ed6:	0000                	.insn	2, 0x0000
    4ed8:	0000                	.insn	2, 0x0000
    4eda:	0000                	.insn	2, 0x0000
    4edc:	0000                	.insn	2, 0x0000
    4ede:	0000                	.insn	2, 0x0000
    4ee0:	0000                	.insn	2, 0x0000
    4ee2:	0000                	.insn	2, 0x0000
    4ee4:	0000                	.insn	2, 0x0000
    4ee6:	0000                	.insn	2, 0x0000
    4ee8:	0000                	.insn	2, 0x0000
    4eea:	0000                	.insn	2, 0x0000
    4eec:	0000                	.insn	2, 0x0000
    4eee:	0000                	.insn	2, 0x0000
    4ef0:	0000                	.insn	2, 0x0000
    4ef2:	0000                	.insn	2, 0x0000
    4ef4:	0000                	.insn	2, 0x0000
    4ef6:	0000                	.insn	2, 0x0000
    4ef8:	0000                	.insn	2, 0x0000
    4efa:	0000                	.insn	2, 0x0000
    4efc:	0000                	.insn	2, 0x0000
    4efe:	0000                	.insn	2, 0x0000
    4f00:	0000                	.insn	2, 0x0000
    4f02:	0000                	.insn	2, 0x0000
    4f04:	0000                	.insn	2, 0x0000
    4f06:	0000                	.insn	2, 0x0000
    4f08:	0000                	.insn	2, 0x0000
    4f0a:	0000                	.insn	2, 0x0000
    4f0c:	0000                	.insn	2, 0x0000
    4f0e:	0000                	.insn	2, 0x0000
    4f10:	0000                	.insn	2, 0x0000
    4f12:	0000                	.insn	2, 0x0000
    4f14:	0000                	.insn	2, 0x0000
    4f16:	0000                	.insn	2, 0x0000
    4f18:	0000                	.insn	2, 0x0000
    4f1a:	0000                	.insn	2, 0x0000
    4f1c:	0000                	.insn	2, 0x0000
    4f1e:	0000                	.insn	2, 0x0000
    4f20:	0000                	.insn	2, 0x0000
    4f22:	0000                	.insn	2, 0x0000
    4f24:	0000                	.insn	2, 0x0000
    4f26:	0000                	.insn	2, 0x0000
    4f28:	0000                	.insn	2, 0x0000
    4f2a:	0000                	.insn	2, 0x0000
    4f2c:	0000                	.insn	2, 0x0000
    4f2e:	0000                	.insn	2, 0x0000
    4f30:	0000                	.insn	2, 0x0000
    4f32:	0000                	.insn	2, 0x0000
    4f34:	0000                	.insn	2, 0x0000
    4f36:	0000                	.insn	2, 0x0000
    4f38:	0000                	.insn	2, 0x0000
    4f3a:	0000                	.insn	2, 0x0000
    4f3c:	0000                	.insn	2, 0x0000
    4f3e:	0000                	.insn	2, 0x0000
    4f40:	0000                	.insn	2, 0x0000
    4f42:	0000                	.insn	2, 0x0000
    4f44:	0000                	.insn	2, 0x0000
    4f46:	0000                	.insn	2, 0x0000
    4f48:	0000                	.insn	2, 0x0000
    4f4a:	0000                	.insn	2, 0x0000
    4f4c:	0000                	.insn	2, 0x0000
    4f4e:	0000                	.insn	2, 0x0000
    4f50:	0000                	.insn	2, 0x0000
    4f52:	0000                	.insn	2, 0x0000
    4f54:	0000                	.insn	2, 0x0000
    4f56:	0000                	.insn	2, 0x0000
    4f58:	0000                	.insn	2, 0x0000
    4f5a:	0000                	.insn	2, 0x0000
    4f5c:	0000                	.insn	2, 0x0000
    4f5e:	0000                	.insn	2, 0x0000
    4f60:	0000                	.insn	2, 0x0000
    4f62:	0000                	.insn	2, 0x0000
    4f64:	0000                	.insn	2, 0x0000
    4f66:	0000                	.insn	2, 0x0000
    4f68:	0000                	.insn	2, 0x0000
    4f6a:	0000                	.insn	2, 0x0000
    4f6c:	0000                	.insn	2, 0x0000
    4f6e:	0000                	.insn	2, 0x0000
    4f70:	0000                	.insn	2, 0x0000
    4f72:	0000                	.insn	2, 0x0000
    4f74:	0000                	.insn	2, 0x0000
    4f76:	0000                	.insn	2, 0x0000
    4f78:	0000                	.insn	2, 0x0000
    4f7a:	0000                	.insn	2, 0x0000
    4f7c:	0000                	.insn	2, 0x0000
    4f7e:	0000                	.insn	2, 0x0000
    4f80:	0000                	.insn	2, 0x0000
    4f82:	0000                	.insn	2, 0x0000
    4f84:	0000                	.insn	2, 0x0000
    4f86:	0000                	.insn	2, 0x0000
    4f88:	0000                	.insn	2, 0x0000
    4f8a:	0000                	.insn	2, 0x0000
    4f8c:	0000                	.insn	2, 0x0000
    4f8e:	0000                	.insn	2, 0x0000
    4f90:	0000                	.insn	2, 0x0000
    4f92:	0000                	.insn	2, 0x0000
    4f94:	0000                	.insn	2, 0x0000
    4f96:	0000                	.insn	2, 0x0000
    4f98:	0000                	.insn	2, 0x0000
    4f9a:	0000                	.insn	2, 0x0000
    4f9c:	0000                	.insn	2, 0x0000
    4f9e:	0000                	.insn	2, 0x0000
    4fa0:	0000                	.insn	2, 0x0000
    4fa2:	0000                	.insn	2, 0x0000
    4fa4:	0000                	.insn	2, 0x0000
    4fa6:	0000                	.insn	2, 0x0000
    4fa8:	0000                	.insn	2, 0x0000
    4faa:	0000                	.insn	2, 0x0000
    4fac:	0000                	.insn	2, 0x0000
    4fae:	0000                	.insn	2, 0x0000
    4fb0:	0000                	.insn	2, 0x0000
    4fb2:	0000                	.insn	2, 0x0000
    4fb4:	0000                	.insn	2, 0x0000
    4fb6:	0000                	.insn	2, 0x0000
    4fb8:	0000                	.insn	2, 0x0000
    4fba:	0000                	.insn	2, 0x0000
    4fbc:	0000                	.insn	2, 0x0000
    4fbe:	0000                	.insn	2, 0x0000
    4fc0:	0000                	.insn	2, 0x0000
    4fc2:	0000                	.insn	2, 0x0000
    4fc4:	0000                	.insn	2, 0x0000
    4fc6:	0000                	.insn	2, 0x0000
    4fc8:	0000                	.insn	2, 0x0000
    4fca:	0000                	.insn	2, 0x0000
    4fcc:	0000                	.insn	2, 0x0000
    4fce:	0000                	.insn	2, 0x0000
    4fd0:	0000                	.insn	2, 0x0000
    4fd2:	0000                	.insn	2, 0x0000
    4fd4:	0000                	.insn	2, 0x0000
    4fd6:	0000                	.insn	2, 0x0000
    4fd8:	0000                	.insn	2, 0x0000
    4fda:	0000                	.insn	2, 0x0000
    4fdc:	0000                	.insn	2, 0x0000
    4fde:	0000                	.insn	2, 0x0000
    4fe0:	0000                	.insn	2, 0x0000
    4fe2:	0000                	.insn	2, 0x0000
    4fe4:	0000                	.insn	2, 0x0000
    4fe6:	0000                	.insn	2, 0x0000
    4fe8:	0000                	.insn	2, 0x0000
    4fea:	0000                	.insn	2, 0x0000
    4fec:	0000                	.insn	2, 0x0000
    4fee:	0000                	.insn	2, 0x0000
    4ff0:	0000                	.insn	2, 0x0000
    4ff2:	0000                	.insn	2, 0x0000
    4ff4:	0000                	.insn	2, 0x0000
    4ff6:	0000                	.insn	2, 0x0000
    4ff8:	0000                	.insn	2, 0x0000
    4ffa:	0000                	.insn	2, 0x0000
    4ffc:	0000                	.insn	2, 0x0000
    4ffe:	00158593          	addi	a1,a1,1
    5002:	29b00393          	li	t2,667
    5006:	2a759f63          	bne	a1,t2,52c4 <fail>
    500a:	00001137          	lui	sp,0x1
    500e:	2341011b          	addiw	sp,sp,564 # 1234 <fromhost+0x1f4>

0000000000005012 <test_3>:
    5012:	00300193          	li	gp,3
    5016:	1fe8                	addi	a0,sp,1020
    5018:	000013b7          	lui	t2,0x1
    501c:	6303839b          	addiw	t2,t2,1584 # 1630 <fromhost+0x5f0>
    5020:	2a751263          	bne	a0,t2,52c4 <fail>

0000000000005024 <test_4>:
    5024:	00400193          	li	gp,4
    5028:	617d                	addi	sp,sp,496
    502a:	0001                	nop
    502c:	000013b7          	lui	t2,0x1
    5030:	4243839b          	addiw	t2,t2,1060 # 1424 <fromhost+0x3e4>
    5034:	28711863          	bne	sp,t2,52c4 <fail>

0000000000005038 <test_5>:
    5038:	00500193          	li	gp,5
    503c:	7101                	addi	sp,sp,-512
    503e:	0001                	nop
    5040:	000013b7          	lui	t2,0x1
    5044:	2243839b          	addiw	t2,t2,548 # 1224 <fromhost+0x1e4>
    5048:	26711e63          	bne	sp,t2,52c4 <fail>
    504c:	ffffe597          	auipc	a1,0xffffe
    5050:	fdc58593          	addi	a1,a1,-36 # 3028 <data>

0000000000005054 <test_6>:
    5054:	00600193          	li	gp,6
    5058:	41c8                	lw	a0,4(a1)
    505a:	0505                	addi	a0,a0,1
    505c:	c1c8                	sw	a0,4(a1)
    505e:	41d0                	lw	a2,4(a1)
    5060:	fedcc3b7          	lui	t2,0xfedcc
    5064:	a993839b          	addiw	t2,t2,-1383 # fffffffffedcba99 <freelist_head+0xfffffffffedbfa91>
    5068:	24761e63          	bne	a2,t2,52c4 <fail>

000000000000506c <test_7>:
    506c:	00700193          	li	gp,7
    5070:	6188                	ld	a0,0(a1)
    5072:	0505                	addi	a0,a0,1
    5074:	e188                	sd	a0,0(a1)
    5076:	6190                	ld	a2,0(a1)
    5078:	fff6e3b7          	lui	t2,0xfff6e
    507c:	5d53839b          	addiw	t2,t2,1493 # fffffffffff6e5d5 <freelist_head+0xfffffffffff625cd>
    5080:	00c39393          	slli	t2,t2,0xc
    5084:	cbb38393          	addi	t2,t2,-837
    5088:	00d39393          	slli	t2,t2,0xd
    508c:	54338393          	addi	t2,t2,1347
    5090:	00c39393          	slli	t2,t2,0xc
    5094:	21138393          	addi	t2,t2,529
    5098:	22761663          	bne	a2,t2,52c4 <fail>

000000000000509c <test_8>:
    509c:	00800193          	li	gp,8
    50a0:	00106513          	ori	a0,zero,1
    50a4:	1541                	addi	a0,a0,-16
    50a6:	0001                	nop
    50a8:	ff100393          	li	t2,-15
    50ac:	20751c63          	bne	a0,t2,52c4 <fail>

00000000000050b0 <test_9>:
    50b0:	00900193          	li	gp,9
    50b4:	00106793          	ori	a5,zero,1
    50b8:	57c1                	li	a5,-16
    50ba:	0001                	nop
    50bc:	ff000393          	li	t2,-16
    50c0:	20779263          	bne	a5,t2,52c4 <fail>

00000000000050c4 <test_10>:
    50c4:	00a00193          	li	gp,10
    50c8:	6188                	ld	a0,0(a1)
    50ca:	357d                	addiw	a0,a0,-1
    50cc:	765433b7          	lui	t2,0x76543
    50d0:	2103839b          	addiw	t2,t2,528 # 76543210 <freelist_head+0x76537208>
    50d4:	1e751863          	bne	a0,t2,52c4 <fail>

00000000000050d8 <test_11>:
    50d8:	00b00193          	li	gp,11
    50dc:	7405                	lui	s0,0xfffe1
    50de:	8431                	srai	s0,s0,0xc
    50e0:	fe100393          	li	t2,-31
    50e4:	1e741063          	bne	s0,t2,52c4 <fail>

00000000000050e8 <test_12>:
    50e8:	00c00193          	li	gp,12
    50ec:	7405                	lui	s0,0xfffe1
    50ee:	8031                	srli	s0,s0,0xc
    50f0:	0010039b          	addiw	t2,zero,1
    50f4:	03439393          	slli	t2,t2,0x34
    50f8:	fe138393          	addi	t2,t2,-31
    50fc:	1c741463          	bne	s0,t2,52c4 <fail>

0000000000005100 <test_14>:
    5100:	00e00193          	li	gp,14
    5104:	5479                	li	s0,-2
    5106:	983d                	andi	s0,s0,-17
    5108:	fee00393          	li	t2,-18
    510c:	1a741c63          	bne	s0,t2,52c4 <fail>

0000000000005110 <test_15>:
    5110:	00f00193          	li	gp,15
    5114:	44d1                	li	s1,20
    5116:	4519                	li	a0,6
    5118:	8c89                	sub	s1,s1,a0
    511a:	0001                	nop
    511c:	00e00393          	li	t2,14
    5120:	1a749263          	bne	s1,t2,52c4 <fail>

0000000000005124 <test_16>:
    5124:	01000193          	li	gp,16
    5128:	44d1                	li	s1,20
    512a:	4519                	li	a0,6
    512c:	8ca9                	xor	s1,s1,a0
    512e:	0001                	nop
    5130:	01200393          	li	t2,18
    5134:	18749863          	bne	s1,t2,52c4 <fail>

0000000000005138 <test_17>:
    5138:	01100193          	li	gp,17
    513c:	44d1                	li	s1,20
    513e:	4519                	li	a0,6
    5140:	8cc9                	or	s1,s1,a0
    5142:	0001                	nop
    5144:	01600393          	li	t2,22
    5148:	16749e63          	bne	s1,t2,52c4 <fail>

000000000000514c <test_18>:
    514c:	01200193          	li	gp,18
    5150:	44d1                	li	s1,20
    5152:	4519                	li	a0,6
    5154:	8ce9                	and	s1,s1,a0
    5156:	0001                	nop
    5158:	00400393          	li	t2,4
    515c:	16749463          	bne	s1,t2,52c4 <fail>

0000000000005160 <test_19>:
    5160:	01300193          	li	gp,19
    5164:	800004b7          	lui	s1,0x80000
    5168:	34fd                	addiw	s1,s1,-1 # 7fffffff <freelist_head+0x7fff3ff7>
    516a:	557d                	li	a0,-1
    516c:	9c89                	subw	s1,s1,a0
    516e:	0001                	nop
    5170:	800003b7          	lui	t2,0x80000
    5174:	14749863          	bne	s1,t2,52c4 <fail>

0000000000005178 <test_20>:
    5178:	01400193          	li	gp,20
    517c:	800004b7          	lui	s1,0x80000
    5180:	34fd                	addiw	s1,s1,-1 # 7fffffff <freelist_head+0x7fff3ff7>
    5182:	4505                	li	a0,1
    5184:	9ca9                	addw	s1,s1,a0
    5186:	0001                	nop
    5188:	800003b7          	lui	t2,0x80000
    518c:	12749c63          	bne	s1,t2,52c4 <fail>

0000000000005190 <test_21>:
    5190:	01500193          	li	gp,21
    5194:	6405                	lui	s0,0x1
    5196:	2344041b          	addiw	s0,s0,564 # 1234 <fromhost+0x1f4>
    519a:	0412                	slli	s0,s0,0x4
    519c:	000123b7          	lui	t2,0x12
    51a0:	3403839b          	addiw	t2,t2,832 # 12340 <freelist_head+0x6338>
    51a4:	12741063          	bne	s0,t2,52c4 <fail>

00000000000051a8 <test_30>:
    51a8:	01e00193          	li	gp,30
    51ac:	4081                	li	ra,0
    51ae:	a011                	j	51b2 <test_30+0xa>
    51b0:	a011                	j	51b4 <test_30+0xc>
    51b2:	a011                	j	51b6 <test_30+0xe>
    51b4:	aa01                	j	52c4 <fail>
    51b6:	0001                	nop
    51b8:	00000393          	li	t2,0
    51bc:	10709463          	bne	ra,t2,52c4 <fail>

00000000000051c0 <test_31>:
    51c0:	01f00193          	li	gp,31
    51c4:	4501                	li	a0,0
    51c6:	c111                	beqz	a0,51ca <test_31+0xa>
    51c8:	a011                	j	51cc <test_31+0xc>
    51ca:	a011                	j	51ce <test_31+0xe>
    51cc:	a8e5                	j	52c4 <fail>
    51ce:	0001                	nop
    51d0:	00000393          	li	t2,0
    51d4:	0e701863          	bne	zero,t2,52c4 <fail>

00000000000051d8 <test_32>:
    51d8:	02000193          	li	gp,32
    51dc:	4505                	li	a0,1
    51de:	e111                	bnez	a0,51e2 <test_32+0xa>
    51e0:	a011                	j	51e4 <test_32+0xc>
    51e2:	a011                	j	51e6 <test_32+0xe>
    51e4:	a0c5                	j	52c4 <fail>
    51e6:	0001                	nop
    51e8:	00000393          	li	t2,0
    51ec:	0c701c63          	bne	zero,t2,52c4 <fail>

00000000000051f0 <test_33>:
    51f0:	02100193          	li	gp,33
    51f4:	4505                	li	a0,1
    51f6:	c111                	beqz	a0,51fa <test_33+0xa>
    51f8:	a011                	j	51fc <test_33+0xc>
    51fa:	a0e9                	j	52c4 <fail>
    51fc:	00000393          	li	t2,0
    5200:	0c701263          	bne	zero,t2,52c4 <fail>

0000000000005204 <test_34>:
    5204:	02200193          	li	gp,34
    5208:	4501                	li	a0,0
    520a:	e111                	bnez	a0,520e <test_34+0xa>
    520c:	a011                	j	5210 <test_34+0xc>
    520e:	a85d                	j	52c4 <fail>
    5210:	00000393          	li	t2,0
    5214:	0a701863          	bne	zero,t2,52c4 <fail>

0000000000005218 <test_35>:
    5218:	02300193          	li	gp,35
    521c:	00000297          	auipc	t0,0x0
    5220:	00e28293          	addi	t0,t0,14 # 522a <test_35+0x12>
    5224:	4081                	li	ra,0
    5226:	8282                	jr	t0
    5228:	a011                	j	522c <test_35+0x14>
    522a:	a011                	j	522e <test_35+0x16>
    522c:	a861                	j	52c4 <fail>
    522e:	0001                	nop
    5230:	00000393          	li	t2,0
    5234:	08709863          	bne	ra,t2,52c4 <fail>

0000000000005238 <test_36>:
    5238:	02400193          	li	gp,36
    523c:	00000297          	auipc	t0,0x0
    5240:	00e28293          	addi	t0,t0,14 # 524a <test_36+0x12>
    5244:	4081                	li	ra,0
    5246:	9282                	jalr	t0
    5248:	a011                	j	524c <test_36+0x14>
    524a:	a011                	j	524e <test_36+0x16>
    524c:	a8a5                	j	52c4 <fail>
    524e:	405080b3          	sub	ra,ra,t0
    5252:	0001                	nop
    5254:	ffe00393          	li	t2,-2
    5258:	06709663          	bne	ra,t2,52c4 <fail>
    525c:	ffffe117          	auipc	sp,0xffffe
    5260:	dcc10113          	addi	sp,sp,-564 # 3028 <data>

0000000000005264 <test_40>:
    5264:	02800193          	li	gp,40
    5268:	4532                	lw	a0,12(sp)
    526a:	0505                	addi	a0,a0,1
    526c:	c62a                	sw	a0,12(sp)
    526e:	4632                	lw	a2,12(sp)
    5270:	fedcc3b7          	lui	t2,0xfedcc
    5274:	a993839b          	addiw	t2,t2,-1383 # fffffffffedcba99 <freelist_head+0xfffffffffedbfa91>
    5278:	04761663          	bne	a2,t2,52c4 <fail>

000000000000527c <test_41>:
    527c:	02900193          	li	gp,41
    5280:	6522                	ld	a0,8(sp)
    5282:	0505                	addi	a0,a0,1
    5284:	e42a                	sd	a0,8(sp)
    5286:	6622                	ld	a2,8(sp)
    5288:	fff6e3b7          	lui	t2,0xfff6e
    528c:	5d53839b          	addiw	t2,t2,1493 # fffffffffff6e5d5 <freelist_head+0xfffffffffff625cd>
    5290:	00c39393          	slli	t2,t2,0xc
    5294:	cbb38393          	addi	t2,t2,-837
    5298:	00d39393          	slli	t2,t2,0xd
    529c:	54338393          	addi	t2,t2,1347
    52a0:	00c39393          	slli	t2,t2,0xc
    52a4:	21138393          	addi	t2,t2,529
    52a8:	00761e63          	bne	a2,t2,52c4 <fail>

00000000000052ac <test_42>:
    52ac:	02a00193          	li	gp,42
    52b0:	12300513          	li	a0,291
    52b4:	82aa                	mv	t0,a0
    52b6:	92aa                	add	t0,t0,a0
    52b8:	24600393          	li	t2,582
    52bc:	00729463          	bne	t0,t2,52c4 <fail>
    52c0:	00301a63          	bne	zero,gp,52d4 <pass>

00000000000052c4 <fail>:
    52c4:	00119513          	slli	a0,gp,0x1
    52c8:	00050063          	beqz	a0,52c8 <fail+0x4>
    52cc:	00156513          	ori	a0,a0,1
    52d0:	00000073          	ecall

00000000000052d4 <pass>:
    52d4:	00100513          	li	a0,1
    52d8:	00000073          	ecall
    52dc:	c0001073          	unimp
    52e0:	0001                	.insn	2, 0x0001
    52e2:	00000013          	nop
    52e6:	00000013          	nop
    52ea:	00000013          	nop
    52ee:	00000013          	nop
    52f2:	00000013          	nop
    52f6:	00000013          	nop
    52fa:	00000013          	nop
    52fe:	00000013          	nop
    5302:	00000013          	nop
    5306:	00000013          	nop
    530a:	00000013          	nop
    530e:	00000013          	nop
    5312:	00000013          	nop
    5316:	00000013          	nop
    531a:	00000013          	nop
    531e:	00000013          	nop
    5322:	00000013          	nop
    5326:	00000013          	nop
    532a:	00000013          	nop
    532e:	00000013          	nop
    5332:	00000013          	nop
    5336:	00000013          	nop
    533a:	00000013          	nop
    533e:	00000013          	nop
    5342:	00000013          	nop
    5346:	00000013          	nop
    534a:	00000013          	nop
    534e:	00000013          	nop
    5352:	00000013          	nop
    5356:	00000013          	nop
    535a:	00000013          	nop
    535e:	00000013          	nop
    5362:	00000013          	nop
    5366:	00000013          	nop
    536a:	00000013          	nop
    536e:	00000013          	nop
    5372:	00000013          	nop
    5376:	00000013          	nop
    537a:	00000013          	nop
    537e:	00000013          	nop
    5382:	00000013          	nop
    5386:	00000013          	nop
    538a:	00000013          	nop
    538e:	00000013          	nop
    5392:	00000013          	nop
    5396:	00000013          	nop
    539a:	00000013          	nop
    539e:	00000013          	nop
    53a2:	00000013          	nop
    53a6:	00000013          	nop
    53aa:	00000013          	nop
    53ae:	00000013          	nop
    53b2:	00000013          	nop
    53b6:	00000013          	nop
    53ba:	00000013          	nop
    53be:	00000013          	nop
    53c2:	00000013          	nop
    53c6:	00000013          	nop
    53ca:	00000013          	nop
    53ce:	00000013          	nop
    53d2:	00000013          	nop
    53d6:	00000013          	nop
    53da:	00000013          	nop
    53de:	00000013          	nop
    53e2:	00000013          	nop
    53e6:	00000013          	nop
    53ea:	00000013          	nop
    53ee:	00000013          	nop
    53f2:	00000013          	nop
    53f6:	00000013          	nop
    53fa:	00000013          	nop
    53fe:	00000013          	nop
    5402:	00000013          	nop
    5406:	00000013          	nop
    540a:	00000013          	nop
    540e:	00000013          	nop
    5412:	00000013          	nop
    5416:	00000013          	nop
    541a:	00000013          	nop
    541e:	00000013          	nop
    5422:	00000013          	nop
    5426:	00000013          	nop
    542a:	00000013          	nop
    542e:	00000013          	nop
    5432:	00000013          	nop
    5436:	00000013          	nop
    543a:	00000013          	nop
    543e:	00000013          	nop
    5442:	00000013          	nop
    5446:	00000013          	nop
    544a:	00000013          	nop
    544e:	00000013          	nop
    5452:	00000013          	nop
    5456:	00000013          	nop
    545a:	00000013          	nop
    545e:	00000013          	nop
    5462:	00000013          	nop
    5466:	00000013          	nop
    546a:	00000013          	nop
    546e:	00000013          	nop
    5472:	00000013          	nop
    5476:	00000013          	nop
    547a:	00000013          	nop
    547e:	00000013          	nop
    5482:	00000013          	nop
    5486:	00000013          	nop
    548a:	00000013          	nop
    548e:	00000013          	nop
    5492:	00000013          	nop
    5496:	00000013          	nop
    549a:	00000013          	nop
    549e:	00000013          	nop
    54a2:	00000013          	nop
    54a6:	00000013          	nop
    54aa:	00000013          	nop
    54ae:	00000013          	nop
    54b2:	00000013          	nop
    54b6:	00000013          	nop
    54ba:	00000013          	nop
    54be:	00000013          	nop
    54c2:	00000013          	nop
    54c6:	00000013          	nop
    54ca:	00000013          	nop
    54ce:	00000013          	nop
    54d2:	00000013          	nop
    54d6:	00000013          	nop
    54da:	00000013          	nop
    54de:	00000013          	nop
    54e2:	00000013          	nop
    54e6:	00000013          	nop
    54ea:	00000013          	nop
    54ee:	00000013          	nop
    54f2:	00000013          	nop
    54f6:	00000013          	nop
    54fa:	00000013          	nop
    54fe:	00000013          	nop
    5502:	00000013          	nop
    5506:	00000013          	nop
    550a:	00000013          	nop
    550e:	00000013          	nop
    5512:	00000013          	nop
    5516:	00000013          	nop
    551a:	00000013          	nop
    551e:	00000013          	nop
    5522:	00000013          	nop
    5526:	00000013          	nop
    552a:	00000013          	nop
    552e:	00000013          	nop
    5532:	00000013          	nop
    5536:	00000013          	nop
    553a:	00000013          	nop
    553e:	00000013          	nop
    5542:	00000013          	nop
    5546:	00000013          	nop
    554a:	00000013          	nop
    554e:	00000013          	nop
    5552:	00000013          	nop
    5556:	00000013          	nop
    555a:	00000013          	nop
    555e:	00000013          	nop
    5562:	00000013          	nop
    5566:	00000013          	nop
    556a:	00000013          	nop
    556e:	00000013          	nop
    5572:	00000013          	nop
    5576:	00000013          	nop
    557a:	00000013          	nop
    557e:	00000013          	nop
    5582:	00000013          	nop
    5586:	00000013          	nop
    558a:	00000013          	nop
    558e:	00000013          	nop
    5592:	00000013          	nop
    5596:	00000013          	nop
    559a:	00000013          	nop
    559e:	00000013          	nop
    55a2:	00000013          	nop
    55a6:	00000013          	nop
    55aa:	00000013          	nop
    55ae:	00000013          	nop
    55b2:	00000013          	nop
    55b6:	00000013          	nop
    55ba:	00000013          	nop
    55be:	00000013          	nop
    55c2:	00000013          	nop
    55c6:	00000013          	nop
    55ca:	00000013          	nop
    55ce:	00000013          	nop
    55d2:	00000013          	nop
    55d6:	00000013          	nop
    55da:	00000013          	nop
    55de:	00000013          	nop
    55e2:	00000013          	nop
    55e6:	00000013          	nop
    55ea:	00000013          	nop
    55ee:	00000013          	nop
    55f2:	00000013          	nop
    55f6:	00000013          	nop
    55fa:	00000013          	nop
    55fe:	00000013          	nop
    5602:	00000013          	nop
    5606:	00000013          	nop
    560a:	00000013          	nop
    560e:	00000013          	nop
    5612:	00000013          	nop
    5616:	00000013          	nop
    561a:	00000013          	nop
    561e:	00000013          	nop
    5622:	00000013          	nop
    5626:	00000013          	nop
    562a:	00000013          	nop
    562e:	00000013          	nop
    5632:	00000013          	nop
    5636:	00000013          	nop
    563a:	00000013          	nop
    563e:	00000013          	nop
    5642:	00000013          	nop
    5646:	00000013          	nop
    564a:	00000013          	nop
    564e:	00000013          	nop
    5652:	00000013          	nop
    5656:	00000013          	nop
    565a:	00000013          	nop
    565e:	00000013          	nop
    5662:	00000013          	nop
    5666:	00000013          	nop
    566a:	00000013          	nop
    566e:	00000013          	nop
    5672:	00000013          	nop
    5676:	00000013          	nop
    567a:	00000013          	nop
    567e:	00000013          	nop
    5682:	00000013          	nop
    5686:	00000013          	nop
    568a:	00000013          	nop
    568e:	00000013          	nop
    5692:	00000013          	nop
    5696:	00000013          	nop
    569a:	00000013          	nop
    569e:	00000013          	nop
    56a2:	00000013          	nop
    56a6:	00000013          	nop
    56aa:	00000013          	nop
    56ae:	00000013          	nop
    56b2:	00000013          	nop
    56b6:	00000013          	nop
    56ba:	00000013          	nop
    56be:	00000013          	nop
    56c2:	00000013          	nop
    56c6:	00000013          	nop
    56ca:	00000013          	nop
    56ce:	00000013          	nop
    56d2:	00000013          	nop
    56d6:	00000013          	nop
    56da:	00000013          	nop
    56de:	00000013          	nop
    56e2:	00000013          	nop
    56e6:	00000013          	nop
    56ea:	00000013          	nop
    56ee:	00000013          	nop
    56f2:	00000013          	nop
    56f6:	00000013          	nop
    56fa:	00000013          	nop
    56fe:	00000013          	nop
    5702:	00000013          	nop
    5706:	00000013          	nop
    570a:	00000013          	nop
    570e:	00000013          	nop
    5712:	00000013          	nop
    5716:	00000013          	nop
    571a:	00000013          	nop
    571e:	00000013          	nop
    5722:	00000013          	nop
    5726:	00000013          	nop
    572a:	00000013          	nop
    572e:	00000013          	nop
    5732:	00000013          	nop
    5736:	00000013          	nop
    573a:	00000013          	nop
    573e:	00000013          	nop
    5742:	00000013          	nop
    5746:	00000013          	nop
    574a:	00000013          	nop
    574e:	00000013          	nop
    5752:	00000013          	nop
    5756:	00000013          	nop
    575a:	00000013          	nop
    575e:	00000013          	nop
    5762:	00000013          	nop
    5766:	00000013          	nop
    576a:	00000013          	nop
    576e:	00000013          	nop
    5772:	00000013          	nop
    5776:	00000013          	nop
    577a:	00000013          	nop
    577e:	00000013          	nop
    5782:	00000013          	nop
    5786:	00000013          	nop
    578a:	00000013          	nop
    578e:	00000013          	nop
    5792:	00000013          	nop
    5796:	00000013          	nop
    579a:	00000013          	nop
    579e:	00000013          	nop
    57a2:	00000013          	nop
    57a6:	00000013          	nop
    57aa:	00000013          	nop
    57ae:	00000013          	nop
    57b2:	00000013          	nop
    57b6:	00000013          	nop
    57ba:	00000013          	nop
    57be:	00000013          	nop
    57c2:	00000013          	nop
    57c6:	00000013          	nop
    57ca:	00000013          	nop
    57ce:	00000013          	nop
    57d2:	00000013          	nop
    57d6:	00000013          	nop
    57da:	00000013          	nop
    57de:	00000013          	nop
    57e2:	00000013          	nop
    57e6:	00000013          	nop
    57ea:	00000013          	nop
    57ee:	00000013          	nop
    57f2:	00000013          	nop
    57f6:	00000013          	nop
    57fa:	00000013          	nop
    57fe:	00000013          	nop
    5802:	00000013          	nop
    5806:	00000013          	nop
    580a:	00000013          	nop
    580e:	00000013          	nop
    5812:	00000013          	nop
    5816:	00000013          	nop
    581a:	00000013          	nop
    581e:	00000013          	nop
    5822:	00000013          	nop
    5826:	00000013          	nop
    582a:	00000013          	nop
    582e:	00000013          	nop
    5832:	00000013          	nop
    5836:	00000013          	nop
    583a:	00000013          	nop
    583e:	00000013          	nop
    5842:	00000013          	nop
    5846:	00000013          	nop
    584a:	00000013          	nop
    584e:	00000013          	nop
    5852:	00000013          	nop
    5856:	00000013          	nop
    585a:	00000013          	nop
    585e:	00000013          	nop
    5862:	00000013          	nop
    5866:	00000013          	nop
    586a:	00000013          	nop
    586e:	00000013          	nop
    5872:	00000013          	nop
    5876:	00000013          	nop
    587a:	00000013          	nop
    587e:	00000013          	nop
    5882:	00000013          	nop
    5886:	00000013          	nop
    588a:	00000013          	nop
    588e:	00000013          	nop
    5892:	00000013          	nop
    5896:	00000013          	nop
    589a:	00000013          	nop
    589e:	00000013          	nop
    58a2:	00000013          	nop
    58a6:	00000013          	nop
    58aa:	00000013          	nop
    58ae:	00000013          	nop
    58b2:	00000013          	nop
    58b6:	00000013          	nop
    58ba:	00000013          	nop
    58be:	00000013          	nop
    58c2:	00000013          	nop
    58c6:	00000013          	nop
    58ca:	00000013          	nop
    58ce:	00000013          	nop
    58d2:	00000013          	nop
    58d6:	00000013          	nop
    58da:	00000013          	nop
    58de:	00000013          	nop
    58e2:	00000013          	nop
    58e6:	00000013          	nop
    58ea:	00000013          	nop
    58ee:	00000013          	nop
    58f2:	00000013          	nop
    58f6:	00000013          	nop
    58fa:	00000013          	nop
    58fe:	00000013          	nop
    5902:	00000013          	nop
    5906:	00000013          	nop
    590a:	00000013          	nop
    590e:	00000013          	nop
    5912:	00000013          	nop
    5916:	00000013          	nop
    591a:	00000013          	nop
    591e:	00000013          	nop
    5922:	00000013          	nop
    5926:	00000013          	nop
    592a:	00000013          	nop
    592e:	00000013          	nop
    5932:	00000013          	nop
    5936:	00000013          	nop
    593a:	00000013          	nop
    593e:	00000013          	nop
    5942:	00000013          	nop
    5946:	00000013          	nop
    594a:	00000013          	nop
    594e:	00000013          	nop
    5952:	00000013          	nop
    5956:	00000013          	nop
    595a:	00000013          	nop
    595e:	00000013          	nop
    5962:	00000013          	nop
    5966:	00000013          	nop
    596a:	00000013          	nop
    596e:	00000013          	nop
    5972:	00000013          	nop
    5976:	00000013          	nop
    597a:	00000013          	nop
    597e:	00000013          	nop
    5982:	00000013          	nop
    5986:	00000013          	nop
    598a:	00000013          	nop
    598e:	00000013          	nop
    5992:	00000013          	nop
    5996:	00000013          	nop
    599a:	00000013          	nop
    599e:	00000013          	nop
    59a2:	00000013          	nop
    59a6:	00000013          	nop
    59aa:	00000013          	nop
    59ae:	00000013          	nop
    59b2:	00000013          	nop
    59b6:	00000013          	nop
    59ba:	00000013          	nop
    59be:	00000013          	nop
    59c2:	00000013          	nop
    59c6:	00000013          	nop
    59ca:	00000013          	nop
    59ce:	00000013          	nop
    59d2:	00000013          	nop
    59d6:	00000013          	nop
    59da:	00000013          	nop
    59de:	00000013          	nop
    59e2:	00000013          	nop
    59e6:	00000013          	nop
    59ea:	00000013          	nop
    59ee:	00000013          	nop
    59f2:	00000013          	nop
    59f6:	00000013          	nop
    59fa:	00000013          	nop
    59fe:	00000013          	nop
    5a02:	00000013          	nop
    5a06:	00000013          	nop
    5a0a:	00000013          	nop
    5a0e:	00000013          	nop
    5a12:	00000013          	nop
    5a16:	00000013          	nop
    5a1a:	00000013          	nop
    5a1e:	00000013          	nop
    5a22:	00000013          	nop
    5a26:	00000013          	nop
    5a2a:	00000013          	nop
    5a2e:	00000013          	nop
    5a32:	00000013          	nop
    5a36:	00000013          	nop
    5a3a:	00000013          	nop
    5a3e:	00000013          	nop
    5a42:	00000013          	nop
    5a46:	00000013          	nop
    5a4a:	00000013          	nop
    5a4e:	00000013          	nop
    5a52:	00000013          	nop
    5a56:	00000013          	nop
    5a5a:	00000013          	nop
    5a5e:	00000013          	nop
    5a62:	00000013          	nop
    5a66:	00000013          	nop
    5a6a:	00000013          	nop
    5a6e:	00000013          	nop
    5a72:	00000013          	nop
    5a76:	00000013          	nop
    5a7a:	00000013          	nop
    5a7e:	00000013          	nop
    5a82:	00000013          	nop
    5a86:	00000013          	nop
    5a8a:	00000013          	nop
    5a8e:	00000013          	nop
    5a92:	00000013          	nop
    5a96:	00000013          	nop
    5a9a:	00000013          	nop
    5a9e:	00000013          	nop
    5aa2:	00000013          	nop
    5aa6:	00000013          	nop
    5aaa:	00000013          	nop
    5aae:	00000013          	nop
    5ab2:	00000013          	nop
    5ab6:	00000013          	nop
    5aba:	00000013          	nop
    5abe:	00000013          	nop
    5ac2:	00000013          	nop
    5ac6:	00000013          	nop
    5aca:	00000013          	nop
    5ace:	00000013          	nop
    5ad2:	00000013          	nop
    5ad6:	00000013          	nop
    5ada:	00000013          	nop
    5ade:	00000013          	nop
    5ae2:	00000013          	nop
    5ae6:	00000013          	nop
    5aea:	00000013          	nop
    5aee:	00000013          	nop
    5af2:	00000013          	nop
    5af6:	00000013          	nop
    5afa:	00000013          	nop
    5afe:	00000013          	nop
    5b02:	00000013          	nop
    5b06:	00000013          	nop
    5b0a:	00000013          	nop
    5b0e:	00000013          	nop
    5b12:	00000013          	nop
    5b16:	00000013          	nop
    5b1a:	00000013          	nop
    5b1e:	00000013          	nop
    5b22:	00000013          	nop
    5b26:	00000013          	nop
    5b2a:	00000013          	nop
    5b2e:	00000013          	nop
    5b32:	00000013          	nop
    5b36:	00000013          	nop
    5b3a:	00000013          	nop
    5b3e:	00000013          	nop
    5b42:	00000013          	nop
    5b46:	00000013          	nop
    5b4a:	00000013          	nop
    5b4e:	00000013          	nop
    5b52:	00000013          	nop
    5b56:	00000013          	nop
    5b5a:	00000013          	nop
    5b5e:	00000013          	nop
    5b62:	00000013          	nop
    5b66:	00000013          	nop
    5b6a:	00000013          	nop
    5b6e:	00000013          	nop
    5b72:	00000013          	nop
    5b76:	00000013          	nop
    5b7a:	00000013          	nop
    5b7e:	00000013          	nop
    5b82:	00000013          	nop
    5b86:	00000013          	nop
    5b8a:	00000013          	nop
    5b8e:	00000013          	nop
    5b92:	00000013          	nop
    5b96:	00000013          	nop
    5b9a:	00000013          	nop
    5b9e:	00000013          	nop
    5ba2:	00000013          	nop
    5ba6:	00000013          	nop
    5baa:	00000013          	nop
    5bae:	00000013          	nop
    5bb2:	00000013          	nop
    5bb6:	00000013          	nop
    5bba:	00000013          	nop
    5bbe:	00000013          	nop
    5bc2:	00000013          	nop
    5bc6:	00000013          	nop
    5bca:	00000013          	nop
    5bce:	00000013          	nop
    5bd2:	00000013          	nop
    5bd6:	00000013          	nop
    5bda:	00000013          	nop
    5bde:	00000013          	nop
    5be2:	00000013          	nop
    5be6:	00000013          	nop
    5bea:	00000013          	nop
    5bee:	00000013          	nop
    5bf2:	00000013          	nop
    5bf6:	00000013          	nop
    5bfa:	00000013          	nop
    5bfe:	00000013          	nop
    5c02:	00000013          	nop
    5c06:	00000013          	nop
    5c0a:	00000013          	nop
    5c0e:	00000013          	nop
    5c12:	00000013          	nop
    5c16:	00000013          	nop
    5c1a:	00000013          	nop
    5c1e:	00000013          	nop
    5c22:	00000013          	nop
    5c26:	00000013          	nop
    5c2a:	00000013          	nop
    5c2e:	00000013          	nop
    5c32:	00000013          	nop
    5c36:	00000013          	nop
    5c3a:	00000013          	nop
    5c3e:	00000013          	nop
    5c42:	00000013          	nop
    5c46:	00000013          	nop
    5c4a:	00000013          	nop
    5c4e:	00000013          	nop
    5c52:	00000013          	nop
    5c56:	00000013          	nop
    5c5a:	00000013          	nop
    5c5e:	00000013          	nop
    5c62:	00000013          	nop
    5c66:	00000013          	nop
    5c6a:	00000013          	nop
    5c6e:	00000013          	nop
    5c72:	00000013          	nop
    5c76:	00000013          	nop
    5c7a:	00000013          	nop
    5c7e:	00000013          	nop
    5c82:	00000013          	nop
    5c86:	00000013          	nop
    5c8a:	00000013          	nop
    5c8e:	00000013          	nop
    5c92:	00000013          	nop
    5c96:	00000013          	nop
    5c9a:	00000013          	nop
    5c9e:	00000013          	nop
    5ca2:	00000013          	nop
    5ca6:	00000013          	nop
    5caa:	00000013          	nop
    5cae:	00000013          	nop
    5cb2:	00000013          	nop
    5cb6:	00000013          	nop
    5cba:	00000013          	nop
    5cbe:	00000013          	nop
    5cc2:	00000013          	nop
    5cc6:	00000013          	nop
    5cca:	00000013          	nop
    5cce:	00000013          	nop
    5cd2:	00000013          	nop
    5cd6:	00000013          	nop
    5cda:	00000013          	nop
    5cde:	00000013          	nop
    5ce2:	00000013          	nop
    5ce6:	00000013          	nop
    5cea:	00000013          	nop
    5cee:	00000013          	nop
    5cf2:	00000013          	nop
    5cf6:	00000013          	nop
    5cfa:	00000013          	nop
    5cfe:	00000013          	nop
    5d02:	00000013          	nop
    5d06:	00000013          	nop
    5d0a:	00000013          	nop
    5d0e:	00000013          	nop
    5d12:	00000013          	nop
    5d16:	00000013          	nop
    5d1a:	00000013          	nop
    5d1e:	00000013          	nop
    5d22:	00000013          	nop
    5d26:	00000013          	nop
    5d2a:	00000013          	nop
    5d2e:	00000013          	nop
    5d32:	00000013          	nop
    5d36:	00000013          	nop
    5d3a:	00000013          	nop
    5d3e:	00000013          	nop
    5d42:	00000013          	nop
    5d46:	00000013          	nop
    5d4a:	00000013          	nop
    5d4e:	00000013          	nop
    5d52:	00000013          	nop
    5d56:	00000013          	nop
    5d5a:	00000013          	nop
    5d5e:	00000013          	nop
    5d62:	00000013          	nop
    5d66:	00000013          	nop
    5d6a:	00000013          	nop
    5d6e:	00000013          	nop
    5d72:	00000013          	nop
    5d76:	00000013          	nop
    5d7a:	00000013          	nop
    5d7e:	00000013          	nop
    5d82:	00000013          	nop
    5d86:	00000013          	nop
    5d8a:	00000013          	nop
    5d8e:	00000013          	nop
    5d92:	00000013          	nop
    5d96:	00000013          	nop
    5d9a:	00000013          	nop
    5d9e:	00000013          	nop
    5da2:	00000013          	nop
    5da6:	00000013          	nop
    5daa:	00000013          	nop
    5dae:	00000013          	nop
    5db2:	00000013          	nop
    5db6:	00000013          	nop
    5dba:	00000013          	nop
    5dbe:	00000013          	nop
    5dc2:	00000013          	nop
    5dc6:	00000013          	nop
    5dca:	00000013          	nop
    5dce:	00000013          	nop
    5dd2:	00000013          	nop
    5dd6:	00000013          	nop
    5dda:	00000013          	nop
    5dde:	00000013          	nop
    5de2:	00000013          	nop
    5de6:	00000013          	nop
    5dea:	00000013          	nop
    5dee:	00000013          	nop
    5df2:	00000013          	nop
    5df6:	00000013          	nop
    5dfa:	00000013          	nop
    5dfe:	00000013          	nop
    5e02:	00000013          	nop
    5e06:	00000013          	nop
    5e0a:	00000013          	nop
    5e0e:	00000013          	nop
    5e12:	00000013          	nop
    5e16:	00000013          	nop
    5e1a:	00000013          	nop
    5e1e:	00000013          	nop
    5e22:	00000013          	nop
    5e26:	00000013          	nop
    5e2a:	00000013          	nop
    5e2e:	00000013          	nop
    5e32:	00000013          	nop
    5e36:	00000013          	nop
    5e3a:	00000013          	nop
    5e3e:	00000013          	nop
    5e42:	00000013          	nop
    5e46:	00000013          	nop
    5e4a:	00000013          	nop
    5e4e:	00000013          	nop
    5e52:	00000013          	nop
    5e56:	00000013          	nop
    5e5a:	00000013          	nop
    5e5e:	00000013          	nop
    5e62:	00000013          	nop
    5e66:	00000013          	nop
    5e6a:	00000013          	nop
    5e6e:	00000013          	nop
    5e72:	00000013          	nop
    5e76:	00000013          	nop
    5e7a:	00000013          	nop
    5e7e:	00000013          	nop
    5e82:	00000013          	nop
    5e86:	00000013          	nop
    5e8a:	00000013          	nop
    5e8e:	00000013          	nop
    5e92:	00000013          	nop
    5e96:	00000013          	nop
    5e9a:	00000013          	nop
    5e9e:	00000013          	nop
    5ea2:	00000013          	nop
    5ea6:	00000013          	nop
    5eaa:	00000013          	nop
    5eae:	00000013          	nop
    5eb2:	00000013          	nop
    5eb6:	00000013          	nop
    5eba:	00000013          	nop
    5ebe:	00000013          	nop
    5ec2:	00000013          	nop
    5ec6:	00000013          	nop
    5eca:	00000013          	nop
    5ece:	00000013          	nop
    5ed2:	00000013          	nop
    5ed6:	00000013          	nop
    5eda:	00000013          	nop
    5ede:	00000013          	nop
    5ee2:	00000013          	nop
    5ee6:	00000013          	nop
    5eea:	00000013          	nop
    5eee:	00000013          	nop
    5ef2:	00000013          	nop
    5ef6:	00000013          	nop
    5efa:	00000013          	nop
    5efe:	00000013          	nop
    5f02:	00000013          	nop
    5f06:	00000013          	nop
    5f0a:	00000013          	nop
    5f0e:	00000013          	nop
    5f12:	00000013          	nop
    5f16:	00000013          	nop
    5f1a:	00000013          	nop
    5f1e:	00000013          	nop
    5f22:	00000013          	nop
    5f26:	00000013          	nop
    5f2a:	00000013          	nop
    5f2e:	00000013          	nop
    5f32:	00000013          	nop
    5f36:	00000013          	nop
    5f3a:	00000013          	nop
    5f3e:	00000013          	nop
    5f42:	00000013          	nop
    5f46:	00000013          	nop
    5f4a:	00000013          	nop
    5f4e:	00000013          	nop
    5f52:	00000013          	nop
    5f56:	00000013          	nop
    5f5a:	00000013          	nop
    5f5e:	00000013          	nop
    5f62:	00000013          	nop
    5f66:	00000013          	nop
    5f6a:	00000013          	nop
    5f6e:	00000013          	nop
    5f72:	00000013          	nop
    5f76:	00000013          	nop
    5f7a:	00000013          	nop
    5f7e:	00000013          	nop
    5f82:	00000013          	nop
    5f86:	00000013          	nop
    5f8a:	00000013          	nop
    5f8e:	00000013          	nop
    5f92:	00000013          	nop
    5f96:	00000013          	nop
    5f9a:	00000013          	nop
    5f9e:	00000013          	nop
    5fa2:	00000013          	nop
    5fa6:	00000013          	nop
    5faa:	00000013          	nop
    5fae:	00000013          	nop
