
rv64uzbs-p-binvi:     ファイル形式 elf64-littleriscv


セクション .text.init の逆アセンブル:

0000000000000000 <_start>:
   0:	0500006f          	j	50 <reset_vector>

0000000000000004 <trap_vector>:
   4:	34202f73          	csrr	t5,mcause
   8:	00800f93          	li	t6,8
   c:	03ff0863          	beq	t5,t6,3c <write_tohost>
  10:	00900f93          	li	t6,9
  14:	03ff0463          	beq	t5,t6,3c <write_tohost>
  18:	00b00f93          	li	t6,11
  1c:	03ff0063          	beq	t5,t6,3c <write_tohost>
  20:	00000f13          	li	t5,0
  24:	000f0463          	beqz	t5,2c <trap_vector+0x28>
  28:	000f0067          	jr	t5
  2c:	34202f73          	csrr	t5,mcause
  30:	000f5463          	bgez	t5,38 <handle_exception>
  34:	0040006f          	j	38 <handle_exception>

0000000000000038 <handle_exception>:
  38:	5391e193          	ori	gp,gp,1337

000000000000003c <write_tohost>:
  3c:	00001f17          	auipc	t5,0x1
  40:	fc3f2223          	sw	gp,-60(t5) # 1000 <tohost>
  44:	00001f17          	auipc	t5,0x1
  48:	fc0f2023          	sw	zero,-64(t5) # 1004 <tohost+0x4>
  4c:	ff1ff06f          	j	3c <write_tohost>

0000000000000050 <reset_vector>:
  50:	00000093          	li	ra,0
  54:	00000113          	li	sp,0
  58:	00000193          	li	gp,0
  5c:	00000213          	li	tp,0
  60:	00000293          	li	t0,0
  64:	00000313          	li	t1,0
  68:	00000393          	li	t2,0
  6c:	00000413          	li	s0,0
  70:	00000493          	li	s1,0
  74:	00000513          	li	a0,0
  78:	00000593          	li	a1,0
  7c:	00000613          	li	a2,0
  80:	00000693          	li	a3,0
  84:	00000713          	li	a4,0
  88:	00000793          	li	a5,0
  8c:	00000813          	li	a6,0
  90:	00000893          	li	a7,0
  94:	00000913          	li	s2,0
  98:	00000993          	li	s3,0
  9c:	00000a13          	li	s4,0
  a0:	00000a93          	li	s5,0
  a4:	00000b13          	li	s6,0
  a8:	00000b93          	li	s7,0
  ac:	00000c13          	li	s8,0
  b0:	00000c93          	li	s9,0
  b4:	00000d13          	li	s10,0
  b8:	00000d93          	li	s11,0
  bc:	00000e13          	li	t3,0
  c0:	00000e93          	li	t4,0
  c4:	00000f13          	li	t5,0
  c8:	00000f93          	li	t6,0
  cc:	f1402573          	csrr	a0,mhartid
  d0:	00051063          	bnez	a0,d0 <reset_vector+0x80>
  d4:	00000297          	auipc	t0,0x0
  d8:	01028293          	addi	t0,t0,16 # e4 <reset_vector+0x94>
  dc:	30529073          	csrw	mtvec,t0
  e0:	74445073          	csrwi	mnstatus,8
  e4:	00000297          	auipc	t0,0x0
  e8:	01028293          	addi	t0,t0,16 # f4 <reset_vector+0xa4>
  ec:	30529073          	csrw	mtvec,t0
  f0:	18005073          	csrwi	satp,0
  f4:	00000297          	auipc	t0,0x0
  f8:	02428293          	addi	t0,t0,36 # 118 <reset_vector+0xc8>
  fc:	30529073          	csrw	mtvec,t0
 100:	0010029b          	addiw	t0,zero,1
 104:	03529293          	slli	t0,t0,0x35
 108:	fff28293          	addi	t0,t0,-1
 10c:	3b029073          	csrw	pmpaddr0,t0
 110:	01f00293          	li	t0,31
 114:	3a029073          	csrw	pmpcfg0,t0
 118:	30405073          	csrwi	mie,0
 11c:	00000297          	auipc	t0,0x0
 120:	01428293          	addi	t0,t0,20 # 130 <reset_vector+0xe0>
 124:	30529073          	csrw	mtvec,t0
 128:	30205073          	csrwi	medeleg,0
 12c:	30305073          	csrwi	mideleg,0
 130:	00000193          	li	gp,0
 134:	00000297          	auipc	t0,0x0
 138:	ed028293          	addi	t0,t0,-304 # 4 <trap_vector>
 13c:	30529073          	csrw	mtvec,t0
 140:	00100513          	li	a0,1
 144:	01f51513          	slli	a0,a0,0x1f
 148:	00055c63          	bgez	a0,160 <reset_vector+0x110>
 14c:	0ff0000f          	fence
 150:	00100193          	li	gp,1
 154:	05d00893          	li	a7,93
 158:	00000513          	li	a0,0
 15c:	00000073          	ecall
 160:	00000293          	li	t0,0
 164:	00028a63          	beqz	t0,178 <reset_vector+0x128>
 168:	10529073          	csrw	stvec,t0
 16c:	0000b2b7          	lui	t0,0xb
 170:	1092829b          	addiw	t0,t0,265 # b109 <_end+0x9109>
 174:	30229073          	csrw	medeleg,t0
 178:	30005073          	csrwi	mstatus,0
 17c:	00000297          	auipc	t0,0x0
 180:	01428293          	addi	t0,t0,20 # 190 <test_2>
 184:	34129073          	csrw	mepc,t0
 188:	f1402573          	csrr	a0,mhartid
 18c:	30200073          	mret

0000000000000190 <test_2>:
 190:	00200193          	li	gp,2
 194:	00100693          	li	a3,1
 198:	68069713          	binvi	a4,a3,0x0
 19c:	00000393          	li	t2,0
 1a0:	30771863          	bne	a4,t2,4b0 <fail>

00000000000001a4 <test_3>:
 1a4:	00300193          	li	gp,3
 1a8:	00100693          	li	a3,1
 1ac:	68169713          	binvi	a4,a3,0x1
 1b0:	00300393          	li	t2,3
 1b4:	2e771e63          	bne	a4,t2,4b0 <fail>

00000000000001b8 <test_4>:
 1b8:	00400193          	li	gp,4
 1bc:	00100693          	li	a3,1
 1c0:	68769713          	binvi	a4,a3,0x7
 1c4:	08100393          	li	t2,129
 1c8:	2e771463          	bne	a4,t2,4b0 <fail>

00000000000001cc <test_5>:
 1cc:	00500193          	li	gp,5
 1d0:	00100693          	li	a3,1
 1d4:	68e69713          	binvi	a4,a3,0xe
 1d8:	000043b7          	lui	t2,0x4
 1dc:	0013839b          	addiw	t2,t2,1 # 4001 <_end+0x2001>
 1e0:	2c771863          	bne	a4,t2,4b0 <fail>

00000000000001e4 <test_6>:
 1e4:	00600193          	li	gp,6
 1e8:	00100693          	li	a3,1
 1ec:	69f69713          	binvi	a4,a3,0x1f
 1f0:	0010039b          	addiw	t2,zero,1
 1f4:	01f39393          	slli	t2,t2,0x1f
 1f8:	00138393          	addi	t2,t2,1
 1fc:	2a771a63          	bne	a4,t2,4b0 <fail>

0000000000000200 <test_7>:
 200:	00700193          	li	gp,7
 204:	fff00693          	li	a3,-1
 208:	68069713          	binvi	a4,a3,0x0
 20c:	ffe00393          	li	t2,-2
 210:	2a771063          	bne	a4,t2,4b0 <fail>

0000000000000214 <test_8>:
 214:	00800193          	li	gp,8
 218:	fff00693          	li	a3,-1
 21c:	68169713          	binvi	a4,a3,0x1
 220:	ffd00393          	li	t2,-3
 224:	28771663          	bne	a4,t2,4b0 <fail>

0000000000000228 <test_9>:
 228:	00900193          	li	gp,9
 22c:	fff00693          	li	a3,-1
 230:	68769713          	binvi	a4,a3,0x7
 234:	f7f00393          	li	t2,-129
 238:	26771c63          	bne	a4,t2,4b0 <fail>

000000000000023c <test_10>:
 23c:	00a00193          	li	gp,10
 240:	fff00693          	li	a3,-1
 244:	68e69713          	binvi	a4,a3,0xe
 248:	ffffc3b7          	lui	t2,0xffffc
 24c:	fff3839b          	addiw	t2,t2,-1 # ffffffffffffbfff <_end+0xffffffffffff9fff>
 250:	26771063          	bne	a4,t2,4b0 <fail>

0000000000000254 <test_11>:
 254:	00b00193          	li	gp,11
 258:	fff00693          	li	a3,-1
 25c:	69f69713          	binvi	a4,a3,0x1f
 260:	fff0039b          	addiw	t2,zero,-1
 264:	01f39393          	slli	t2,t2,0x1f
 268:	fff38393          	addi	t2,t2,-1
 26c:	24771263          	bne	a4,t2,4b0 <fail>

0000000000000270 <test_12>:
 270:	00c00193          	li	gp,12
 274:	212126b7          	lui	a3,0x21212
 278:	1216869b          	addiw	a3,a3,289 # 21212121 <_end+0x21210121>
 27c:	68069713          	binvi	a4,a3,0x0
 280:	212123b7          	lui	t2,0x21212
 284:	1203839b          	addiw	t2,t2,288 # 21212120 <_end+0x21210120>
 288:	22771463          	bne	a4,t2,4b0 <fail>

000000000000028c <test_13>:
 28c:	00d00193          	li	gp,13
 290:	212126b7          	lui	a3,0x21212
 294:	1216869b          	addiw	a3,a3,289 # 21212121 <_end+0x21210121>
 298:	68169713          	binvi	a4,a3,0x1
 29c:	212123b7          	lui	t2,0x21212
 2a0:	1233839b          	addiw	t2,t2,291 # 21212123 <_end+0x21210123>
 2a4:	20771663          	bne	a4,t2,4b0 <fail>

00000000000002a8 <test_14>:
 2a8:	00e00193          	li	gp,14
 2ac:	212126b7          	lui	a3,0x21212
 2b0:	1216869b          	addiw	a3,a3,289 # 21212121 <_end+0x21210121>
 2b4:	68769713          	binvi	a4,a3,0x7
 2b8:	212123b7          	lui	t2,0x21212
 2bc:	1a13839b          	addiw	t2,t2,417 # 212121a1 <_end+0x212101a1>
 2c0:	1e771863          	bne	a4,t2,4b0 <fail>

00000000000002c4 <test_15>:
 2c4:	00f00193          	li	gp,15
 2c8:	212126b7          	lui	a3,0x21212
 2cc:	1216869b          	addiw	a3,a3,289 # 21212121 <_end+0x21210121>
 2d0:	68e69713          	binvi	a4,a3,0xe
 2d4:	212163b7          	lui	t2,0x21216
 2d8:	1213839b          	addiw	t2,t2,289 # 21216121 <_end+0x21214121>
 2dc:	1c771a63          	bne	a4,t2,4b0 <fail>

00000000000002e0 <test_16>:
 2e0:	01000193          	li	gp,16
 2e4:	212126b7          	lui	a3,0x21212
 2e8:	1216869b          	addiw	a3,a3,289 # 21212121 <_end+0x21210121>
 2ec:	69f69713          	binvi	a4,a3,0x1f
 2f0:	000513b7          	lui	t2,0x51
 2f4:	9093839b          	addiw	t2,t2,-1783 # 50909 <_end+0x4e909>
 2f8:	00d39393          	slli	t2,t2,0xd
 2fc:	12138393          	addi	t2,t2,289
 300:	1a771863          	bne	a4,t2,4b0 <fail>

0000000000000304 <test_50>:
 304:	03200193          	li	gp,50
 308:	00100693          	li	a3,1
 30c:	6bf69713          	binvi	a4,a3,0x3f
 310:	fff0039b          	addiw	t2,zero,-1
 314:	03f39393          	slli	t2,t2,0x3f
 318:	00138393          	addi	t2,t2,1
 31c:	18771a63          	bne	a4,t2,4b0 <fail>

0000000000000320 <test_51>:
 320:	03300193          	li	gp,51
 324:	fff00693          	li	a3,-1
 328:	6a769713          	binvi	a4,a3,0x27
 32c:	fff0039b          	addiw	t2,zero,-1
 330:	02739393          	slli	t2,t2,0x27
 334:	fff38393          	addi	t2,t2,-1
 338:	16771c63          	bne	a4,t2,4b0 <fail>

000000000000033c <test_52>:
 33c:	03400193          	li	gp,52
 340:	212126b7          	lui	a3,0x21212
 344:	1216869b          	addiw	a3,a3,289 # 21212121 <_end+0x21210121>
 348:	6ab69713          	binvi	a4,a3,0x2b
 34c:	400113b7          	lui	t2,0x40011
 350:	9093839b          	addiw	t2,t2,-1783 # 40010909 <_end+0x4000e909>
 354:	00d39393          	slli	t2,t2,0xd
 358:	12138393          	addi	t2,t2,289
 35c:	14771a63          	bne	a4,t2,4b0 <fail>

0000000000000360 <test_17>:
 360:	01100193          	li	gp,17
 364:	00100593          	li	a1,1
 368:	68759593          	binvi	a1,a1,0x7
 36c:	08100393          	li	t2,129
 370:	14759063          	bne	a1,t2,4b0 <fail>

0000000000000374 <test_18>:
 374:	01200193          	li	gp,18
 378:	00000213          	li	tp,0
 37c:	00100093          	li	ra,1
 380:	68709713          	binvi	a4,ra,0x7
 384:	00070313          	mv	t1,a4
 388:	00120213          	addi	tp,tp,1 # 1 <_start+0x1>
 38c:	00200293          	li	t0,2
 390:	fe5216e3          	bne	tp,t0,37c <test_18+0x8>
 394:	08100393          	li	t2,129
 398:	10731c63          	bne	t1,t2,4b0 <fail>

000000000000039c <test_19>:
 39c:	01300193          	li	gp,19
 3a0:	00000213          	li	tp,0
 3a4:	00100093          	li	ra,1
 3a8:	68e09713          	binvi	a4,ra,0xe
 3ac:	00000013          	nop
 3b0:	00070313          	mv	t1,a4
 3b4:	00120213          	addi	tp,tp,1 # 1 <_start+0x1>
 3b8:	00200293          	li	t0,2
 3bc:	fe5214e3          	bne	tp,t0,3a4 <test_19+0x8>
 3c0:	000043b7          	lui	t2,0x4
 3c4:	0013839b          	addiw	t2,t2,1 # 4001 <_end+0x2001>
 3c8:	0e731463          	bne	t1,t2,4b0 <fail>

00000000000003cc <test_20>:
 3cc:	01400193          	li	gp,20
 3d0:	00000213          	li	tp,0
 3d4:	00100093          	li	ra,1
 3d8:	69f09713          	binvi	a4,ra,0x1f
 3dc:	00000013          	nop
 3e0:	00000013          	nop
 3e4:	00070313          	mv	t1,a4
 3e8:	00120213          	addi	tp,tp,1 # 1 <_start+0x1>
 3ec:	00200293          	li	t0,2
 3f0:	fe5212e3          	bne	tp,t0,3d4 <test_20+0x8>
 3f4:	0010039b          	addiw	t2,zero,1
 3f8:	01f39393          	slli	t2,t2,0x1f
 3fc:	00138393          	addi	t2,t2,1
 400:	0a731863          	bne	t1,t2,4b0 <fail>

0000000000000404 <test_21>:
 404:	01500193          	li	gp,21
 408:	00000213          	li	tp,0
 40c:	00100093          	li	ra,1
 410:	68709713          	binvi	a4,ra,0x7
 414:	00120213          	addi	tp,tp,1 # 1 <_start+0x1>
 418:	00200293          	li	t0,2
 41c:	fe5218e3          	bne	tp,t0,40c <test_21+0x8>
 420:	08100393          	li	t2,129
 424:	08771663          	bne	a4,t2,4b0 <fail>

0000000000000428 <test_22>:
 428:	01600193          	li	gp,22
 42c:	00000213          	li	tp,0
 430:	00100093          	li	ra,1
 434:	00000013          	nop
 438:	68e09713          	binvi	a4,ra,0xe
 43c:	00120213          	addi	tp,tp,1 # 1 <_start+0x1>
 440:	00200293          	li	t0,2
 444:	fe5216e3          	bne	tp,t0,430 <test_22+0x8>
 448:	000043b7          	lui	t2,0x4
 44c:	0013839b          	addiw	t2,t2,1 # 4001 <_end+0x2001>
 450:	06771063          	bne	a4,t2,4b0 <fail>

0000000000000454 <test_23>:
 454:	01700193          	li	gp,23
 458:	00000213          	li	tp,0
 45c:	00100093          	li	ra,1
 460:	00000013          	nop
 464:	00000013          	nop
 468:	69f09713          	binvi	a4,ra,0x1f
 46c:	00120213          	addi	tp,tp,1 # 1 <_start+0x1>
 470:	00200293          	li	t0,2
 474:	fe5214e3          	bne	tp,t0,45c <test_23+0x8>
 478:	0010039b          	addiw	t2,zero,1
 47c:	01f39393          	slli	t2,t2,0x1f
 480:	00138393          	addi	t2,t2,1
 484:	02771663          	bne	a4,t2,4b0 <fail>

0000000000000488 <test_24>:
 488:	01800193          	li	gp,24
 48c:	68f01093          	binvi	ra,zero,0xf
 490:	000083b7          	lui	t2,0x8
 494:	00709e63          	bne	ra,t2,4b0 <fail>

0000000000000498 <test_25>:
 498:	01900193          	li	gp,25
 49c:	40000093          	li	ra,1024
 4a0:	68a09013          	binvi	zero,ra,0xa
 4a4:	00000393          	li	t2,0
 4a8:	00701463          	bne	zero,t2,4b0 <fail>
 4ac:	02301063          	bne	zero,gp,4cc <pass>

00000000000004b0 <fail>:
 4b0:	0ff0000f          	fence
 4b4:	00018063          	beqz	gp,4b4 <fail+0x4>
 4b8:	00119193          	slli	gp,gp,0x1
 4bc:	0011e193          	ori	gp,gp,1
 4c0:	05d00893          	li	a7,93
 4c4:	00018513          	mv	a0,gp
 4c8:	00000073          	ecall

00000000000004cc <pass>:
 4cc:	0ff0000f          	fence
 4d0:	00100193          	li	gp,1
 4d4:	05d00893          	li	a7,93
 4d8:	00000513          	li	a0,0
 4dc:	00000073          	ecall
 4e0:	c0001073          	unimp
 4e4:	00000013          	nop
 4e8:	00000013          	nop
 4ec:	00000013          	nop
 4f0:	00000013          	nop
 4f4:	00000013          	nop
 4f8:	00000013          	nop
