
rv64uzfh-p-fdiv:     ファイル形式 elf64-littleriscv


セクション .text.init の逆アセンブル:

0000000000000000 <_start>:
   0:	0500006f          	j	50 <reset_vector>

0000000000000004 <trap_vector>:
   4:	34202f73          	csrr	t5,mcause
   8:	00800f93          	li	t6,8
   c:	03ff0863          	beq	t5,t6,3c <write_tohost>
  10:	00900f93          	li	t6,9
  14:	03ff0463          	beq	t5,t6,3c <write_tohost>
  18:	00b00f93          	li	t6,11
  1c:	03ff0063          	beq	t5,t6,3c <write_tohost>
  20:	00000f13          	li	t5,0
  24:	000f0463          	beqz	t5,2c <trap_vector+0x28>
  28:	000f0067          	jr	t5
  2c:	34202f73          	csrr	t5,mcause
  30:	000f5463          	bgez	t5,38 <handle_exception>
  34:	0040006f          	j	38 <handle_exception>

0000000000000038 <handle_exception>:
  38:	5391e193          	ori	gp,gp,1337

000000000000003c <write_tohost>:
  3c:	00001f17          	auipc	t5,0x1
  40:	fc3f2223          	sw	gp,-60(t5) # 1000 <tohost>
  44:	00001f17          	auipc	t5,0x1
  48:	fc0f2023          	sw	zero,-64(t5) # 1004 <tohost+0x4>
  4c:	ff1ff06f          	j	3c <write_tohost>

0000000000000050 <reset_vector>:
  50:	00000093          	li	ra,0
  54:	00000113          	li	sp,0
  58:	00000193          	li	gp,0
  5c:	00000213          	li	tp,0
  60:	00000293          	li	t0,0
  64:	00000313          	li	t1,0
  68:	00000393          	li	t2,0
  6c:	00000413          	li	s0,0
  70:	00000493          	li	s1,0
  74:	00000513          	li	a0,0
  78:	00000593          	li	a1,0
  7c:	00000613          	li	a2,0
  80:	00000693          	li	a3,0
  84:	00000713          	li	a4,0
  88:	00000793          	li	a5,0
  8c:	00000813          	li	a6,0
  90:	00000893          	li	a7,0
  94:	00000913          	li	s2,0
  98:	00000993          	li	s3,0
  9c:	00000a13          	li	s4,0
  a0:	00000a93          	li	s5,0
  a4:	00000b13          	li	s6,0
  a8:	00000b93          	li	s7,0
  ac:	00000c13          	li	s8,0
  b0:	00000c93          	li	s9,0
  b4:	00000d13          	li	s10,0
  b8:	00000d93          	li	s11,0
  bc:	00000e13          	li	t3,0
  c0:	00000e93          	li	t4,0
  c4:	00000f13          	li	t5,0
  c8:	00000f93          	li	t6,0
  cc:	f1402573          	csrr	a0,mhartid
  d0:	00051063          	bnez	a0,d0 <reset_vector+0x80>
  d4:	00000297          	auipc	t0,0x0
  d8:	01028293          	addi	t0,t0,16 # e4 <reset_vector+0x94>
  dc:	30529073          	csrw	mtvec,t0
  e0:	74445073          	csrwi	mnstatus,8
  e4:	00000297          	auipc	t0,0x0
  e8:	01028293          	addi	t0,t0,16 # f4 <reset_vector+0xa4>
  ec:	30529073          	csrw	mtvec,t0
  f0:	18005073          	csrwi	satp,0
  f4:	00000297          	auipc	t0,0x0
  f8:	02428293          	addi	t0,t0,36 # 118 <reset_vector+0xc8>
  fc:	30529073          	csrw	mtvec,t0
 100:	0010029b          	addiw	t0,zero,1
 104:	03529293          	slli	t0,t0,0x35
 108:	fff28293          	addi	t0,t0,-1
 10c:	3b029073          	csrw	pmpaddr0,t0
 110:	01f00293          	li	t0,31
 114:	3a029073          	csrw	pmpcfg0,t0
 118:	30405073          	csrwi	mie,0
 11c:	00000297          	auipc	t0,0x0
 120:	01428293          	addi	t0,t0,20 # 130 <reset_vector+0xe0>
 124:	30529073          	csrw	mtvec,t0
 128:	30205073          	csrwi	medeleg,0
 12c:	30305073          	csrwi	mideleg,0
 130:	00000193          	li	gp,0
 134:	00000297          	auipc	t0,0x0
 138:	ed028293          	addi	t0,t0,-304 # 4 <trap_vector>
 13c:	30529073          	csrw	mtvec,t0
 140:	00100513          	li	a0,1
 144:	01f51513          	slli	a0,a0,0x1f
 148:	00055c63          	bgez	a0,160 <reset_vector+0x110>
 14c:	0ff0000f          	fence
 150:	00100193          	li	gp,1
 154:	05d00893          	li	a7,93
 158:	00000513          	li	a0,0
 15c:	00000073          	ecall
 160:	00000293          	li	t0,0
 164:	00028a63          	beqz	t0,178 <reset_vector+0x128>
 168:	10529073          	csrw	stvec,t0
 16c:	0000b2b7          	lui	t0,0xb
 170:	1092829b          	addiw	t0,t0,265 # b109 <_end+0x90c9>
 174:	30229073          	csrw	medeleg,t0
 178:	30005073          	csrwi	mstatus,0
 17c:	00002537          	lui	a0,0x2
 180:	30052073          	csrs	mstatus,a0
 184:	00305073          	csrwi	fcsr,0
 188:	00000297          	auipc	t0,0x0
 18c:	01428293          	addi	t0,t0,20 # 19c <test_2>
 190:	34129073          	csrw	mepc,t0
 194:	f1402573          	csrr	a0,mhartid
 198:	30200073          	mret

000000000000019c <test_2>:
 19c:	00200193          	li	gp,2
 1a0:	00002517          	auipc	a0,0x2
 1a4:	e6050513          	addi	a0,a0,-416 # 2000 <test_2_data>
 1a8:	00051507          	flh	fa0,0(a0)
 1ac:	00251587          	flh	fa1,2(a0)
 1b0:	00451607          	flh	fa2,4(a0)
 1b4:	00651683          	lh	a3,6(a0)
 1b8:	1cb576d3          	fdiv.h	fa3,fa0,fa1
 1bc:	e4068553          	fmv.x.h	a0,fa3
 1c0:	001015f3          	fsflags	a1,zero
 1c4:	00100613          	li	a2,1
 1c8:	14d51263          	bne	a0,a3,30c <fail>
 1cc:	14c59063          	bne	a1,a2,30c <fail>

00000000000001d0 <test_3>:
 1d0:	00300193          	li	gp,3
 1d4:	00002517          	auipc	a0,0x2
 1d8:	e3450513          	addi	a0,a0,-460 # 2008 <test_3_data>
 1dc:	00051507          	flh	fa0,0(a0)
 1e0:	00251587          	flh	fa1,2(a0)
 1e4:	00451607          	flh	fa2,4(a0)
 1e8:	00651683          	lh	a3,6(a0)
 1ec:	1cb576d3          	fdiv.h	fa3,fa0,fa1
 1f0:	e4068553          	fmv.x.h	a0,fa3
 1f4:	001015f3          	fsflags	a1,zero
 1f8:	00100613          	li	a2,1
 1fc:	10d51863          	bne	a0,a3,30c <fail>
 200:	10c59663          	bne	a1,a2,30c <fail>

0000000000000204 <test_4>:
 204:	00400193          	li	gp,4
 208:	00002517          	auipc	a0,0x2
 20c:	e0850513          	addi	a0,a0,-504 # 2010 <test_4_data>
 210:	00051507          	flh	fa0,0(a0)
 214:	00251587          	flh	fa1,2(a0)
 218:	00451607          	flh	fa2,4(a0)
 21c:	00651683          	lh	a3,6(a0)
 220:	1cb576d3          	fdiv.h	fa3,fa0,fa1
 224:	e4068553          	fmv.x.h	a0,fa3
 228:	001015f3          	fsflags	a1,zero
 22c:	00000613          	li	a2,0
 230:	0cd51e63          	bne	a0,a3,30c <fail>
 234:	0cc59c63          	bne	a1,a2,30c <fail>

0000000000000238 <test_5>:
 238:	00500193          	li	gp,5
 23c:	00002517          	auipc	a0,0x2
 240:	ddc50513          	addi	a0,a0,-548 # 2018 <test_5_data>
 244:	00051507          	flh	fa0,0(a0)
 248:	00251587          	flh	fa1,2(a0)
 24c:	00451607          	flh	fa2,4(a0)
 250:	00651683          	lh	a3,6(a0)
 254:	5c0576d3          	fsqrt.h	fa3,fa0
 258:	e4068553          	fmv.x.h	a0,fa3
 25c:	001015f3          	fsflags	a1,zero
 260:	00100613          	li	a2,1
 264:	0ad51463          	bne	a0,a3,30c <fail>
 268:	0ac59263          	bne	a1,a2,30c <fail>

000000000000026c <test_6>:
 26c:	00600193          	li	gp,6
 270:	00002517          	auipc	a0,0x2
 274:	db050513          	addi	a0,a0,-592 # 2020 <test_6_data>
 278:	00051507          	flh	fa0,0(a0)
 27c:	00251587          	flh	fa1,2(a0)
 280:	00451607          	flh	fa2,4(a0)
 284:	00651683          	lh	a3,6(a0)
 288:	5c0576d3          	fsqrt.h	fa3,fa0
 28c:	e4068553          	fmv.x.h	a0,fa3
 290:	001015f3          	fsflags	a1,zero
 294:	00000613          	li	a2,0
 298:	06d51a63          	bne	a0,a3,30c <fail>
 29c:	06c59863          	bne	a1,a2,30c <fail>

00000000000002a0 <test_7>:
 2a0:	00700193          	li	gp,7
 2a4:	00002517          	auipc	a0,0x2
 2a8:	d8450513          	addi	a0,a0,-636 # 2028 <test_7_data>
 2ac:	00051507          	flh	fa0,0(a0)
 2b0:	00251587          	flh	fa1,2(a0)
 2b4:	00451607          	flh	fa2,4(a0)
 2b8:	00651683          	lh	a3,6(a0)
 2bc:	5c0576d3          	fsqrt.h	fa3,fa0
 2c0:	e4068553          	fmv.x.h	a0,fa3
 2c4:	001015f3          	fsflags	a1,zero
 2c8:	01000613          	li	a2,16
 2cc:	04d51063          	bne	a0,a3,30c <fail>
 2d0:	02c59e63          	bne	a1,a2,30c <fail>

00000000000002d4 <test_8>:
 2d4:	00800193          	li	gp,8
 2d8:	00002517          	auipc	a0,0x2
 2dc:	d5a50513          	addi	a0,a0,-678 # 2032 <test_8_data>
 2e0:	00051507          	flh	fa0,0(a0)
 2e4:	00251587          	flh	fa1,2(a0)
 2e8:	00451607          	flh	fa2,4(a0)
 2ec:	00651683          	lh	a3,6(a0)
 2f0:	5c0576d3          	fsqrt.h	fa3,fa0
 2f4:	e4068553          	fmv.x.h	a0,fa3
 2f8:	001015f3          	fsflags	a1,zero
 2fc:	00100613          	li	a2,1
 300:	00d51663          	bne	a0,a3,30c <fail>
 304:	00c59463          	bne	a1,a2,30c <fail>
 308:	02301063          	bne	zero,gp,328 <pass>

000000000000030c <fail>:
 30c:	0ff0000f          	fence
 310:	00018063          	beqz	gp,310 <fail+0x4>
 314:	00119193          	slli	gp,gp,0x1
 318:	0011e193          	ori	gp,gp,1
 31c:	05d00893          	li	a7,93
 320:	00018513          	mv	a0,gp
 324:	00000073          	ecall

0000000000000328 <pass>:
 328:	0ff0000f          	fence
 32c:	00100193          	li	gp,1
 330:	05d00893          	li	a7,93
 334:	00000513          	li	a0,0
 338:	00000073          	ecall
 33c:	c0001073          	unimp
 340:	00000013          	nop
 344:	00000013          	nop
 348:	00000013          	nop
 34c:	00000013          	nop
 350:	00000013          	nop
 354:	00000013          	nop
 358:	00000013          	nop
 35c:	00000013          	nop
 360:	00000013          	nop
 364:	00000013          	nop
 368:	00000013          	nop
 36c:	00000013          	nop
 370:	00000013          	nop
 374:	00000013          	nop
 378:	00000013          	nop

セクション .data の逆アセンブル:

0000000000002000 <test_2_data>:
    2000:	4248                	.insn	2, 0x4248
    2002:	4170                	.insn	2, 0x4170
    2004:	0000                	.insn	2, 0x0000
    2006:	3c9f        	.insn	6, 0x64d3e4d23c9f

0000000000002008 <test_3_data>:
    2008:	e4d2                	.insn	2, 0xe4d2
    200a:	000064d3          	fadd.s	fs1,ft0,ft0,unknown
    200e:	bbfe                	.insn	2, 0xbbfe

0000000000002010 <test_4_data>:
    2010:	4248                	.insn	2, 0x4248
    2012:	3c00                	.insn	2, 0x3c00
    2014:	0000                	.insn	2, 0x0000
    2016:	4248                	.insn	2, 0x4248

0000000000002018 <test_5_data>:
    2018:	4248                	.insn	2, 0x4248
    201a:	0000                	.insn	2, 0x0000
    201c:	0000                	.insn	2, 0x0000
    201e:	          	auipc	t5,0x70e23

0000000000002020 <test_6_data>:
    2020:	70e2                	.insn	2, 0x70e2
    2022:	0000                	.insn	2, 0x0000
    2024:	0000                	.insn	2, 0x0000
    2026:	5640                	.insn	2, 0x5640

0000000000002028 <test_7_data>:
    2028:	bc00                	.insn	2, 0xbc00
    202a:	0000                	.insn	2, 0x0000
    202c:	0000                	.insn	2, 0x0000
    202e:	7e00                	.insn	2, 0x7e00
    2030:	0000                	.insn	2, 0x0000

0000000000002032 <test_8_data>:
    2032:	5958                	.insn	2, 0x5958
    2034:	0000                	.insn	2, 0x0000
    2036:	0000                	.insn	2, 0x0000
    2038:	4a8a                	.insn	2, 0x4a8a
    203a:	0000                	.insn	2, 0x0000
    203c:	0000                	.insn	2, 0x0000
    203e:	0000                	.insn	2, 0x0000
