
mm.riscv:     ファイル形式 elf64-littleriscv


セクション .text.init の逆アセンブル:

0000000080000000 <_start>:
    80000000:	4081                	li	ra,0
    80000002:	4101                	li	sp,0
    80000004:	4181                	li	gp,0
    80000006:	4201                	li	tp,0
    80000008:	4281                	li	t0,0
    8000000a:	4301                	li	t1,0
    8000000c:	4381                	li	t2,0
    8000000e:	4401                	li	s0,0
    80000010:	4481                	li	s1,0
    80000012:	4501                	li	a0,0
    80000014:	4581                	li	a1,0
    80000016:	4601                	li	a2,0
    80000018:	4681                	li	a3,0
    8000001a:	4701                	li	a4,0
    8000001c:	4781                	li	a5,0
    8000001e:	4801                	li	a6,0
    80000020:	4881                	li	a7,0
    80000022:	4901                	li	s2,0
    80000024:	4981                	li	s3,0
    80000026:	4a01                	li	s4,0
    80000028:	4a81                	li	s5,0
    8000002a:	4b01                	li	s6,0
    8000002c:	4b81                	li	s7,0
    8000002e:	4c01                	li	s8,0
    80000030:	4c81                	li	s9,0
    80000032:	4d01                	li	s10,0
    80000034:	4d81                	li	s11,0
    80000036:	4e01                	li	t3,0
    80000038:	4e81                	li	t4,0
    8000003a:	4f01                	li	t5,0
    8000003c:	4f81                	li	t6,0
    8000003e:	62f9                	lui	t0,0x1e
    80000040:	6002829b          	addiw	t0,t0,1536 # 1e600 <_start-0x7ffe1a00>
    80000044:	3002a073          	csrs	mstatus,t0
    80000048:	4285                	li	t0,1
    8000004a:	02fe                	slli	t0,t0,0x1f
    8000004c:	0002d863          	bgez	t0,8000005c <_start+0x5c>
    80000050:	4505                	li	a0,1
    80000052:	00001297          	auipc	t0,0x1
    80000056:	faa2a723          	sw	a0,-82(t0) # 80001000 <tohost>
    8000005a:	bfdd                	j	80000050 <_start+0x50>
    8000005c:	00000297          	auipc	t0,0x0
    80000060:	09028293          	addi	t0,t0,144 # 800000ec <_start+0xec>
    80000064:	30529073          	csrw	mtvec,t0
    80000068:	00301073          	fscsr	zero
    8000006c:	f0000053          	fmv.w.x	ft0,zero
    80000070:	f00000d3          	fmv.w.x	ft1,zero
    80000074:	f0000153          	fmv.w.x	ft2,zero
    80000078:	f00001d3          	fmv.w.x	ft3,zero
    8000007c:	f0000253          	fmv.w.x	ft4,zero
    80000080:	f00002d3          	fmv.w.x	ft5,zero
    80000084:	f0000353          	fmv.w.x	ft6,zero
    80000088:	f00003d3          	fmv.w.x	ft7,zero
    8000008c:	f0000453          	fmv.w.x	fs0,zero
    80000090:	f00004d3          	fmv.w.x	fs1,zero
    80000094:	f0000553          	fmv.w.x	fa0,zero
    80000098:	f00005d3          	fmv.w.x	fa1,zero
    8000009c:	f0000653          	fmv.w.x	fa2,zero
    800000a0:	f00006d3          	fmv.w.x	fa3,zero
    800000a4:	f0000753          	fmv.w.x	fa4,zero
    800000a8:	f00007d3          	fmv.w.x	fa5,zero
    800000ac:	f0000853          	fmv.w.x	fa6,zero
    800000b0:	f00008d3          	fmv.w.x	fa7,zero
    800000b4:	f0000953          	fmv.w.x	fs2,zero
    800000b8:	f00009d3          	fmv.w.x	fs3,zero
    800000bc:	f0000a53          	fmv.w.x	fs4,zero
    800000c0:	f0000ad3          	fmv.w.x	fs5,zero
    800000c4:	f0000b53          	fmv.w.x	fs6,zero
    800000c8:	f0000bd3          	fmv.w.x	fs7,zero
    800000cc:	f0000c53          	fmv.w.x	fs8,zero
    800000d0:	f0000cd3          	fmv.w.x	fs9,zero
    800000d4:	f0000d53          	fmv.w.x	fs10,zero
    800000d8:	f0000dd3          	fmv.w.x	fs11,zero
    800000dc:	f0000e53          	fmv.w.x	ft8,zero
    800000e0:	f0000ed3          	fmv.w.x	ft9,zero
    800000e4:	f0000f53          	fmv.w.x	ft10,zero
    800000e8:	f0000fd3          	fmv.w.x	ft11,zero
    800000ec:	00000297          	auipc	t0,0x0
    800000f0:	04028293          	addi	t0,t0,64 # 8000012c <trap_entry>
    800000f4:	30529073          	csrw	mtvec,t0
    800000f8:	00006197          	auipc	gp,0x6
    800000fc:	b7818193          	addi	gp,gp,-1160 # 80005c70 <__global_pointer$>
    80000100:	00005217          	auipc	tp,0x5
    80000104:	5f020213          	addi	tp,tp,1520 # 800056f0 <_end>
    80000108:	03f20213          	addi	tp,tp,63 # 3f <_start-0x7fffffc1>
    8000010c:	fc027213          	andi	tp,tp,-64
    80000110:	f1402573          	csrr	a0,mhartid
    80000114:	4585                	li	a1,1
    80000116:	00b57063          	bgeu	a0,a1,80000116 <_start+0x116>
    8000011a:	00150113          	addi	sp,a0,1
    8000011e:	0146                	slli	sp,sp,0x11
    80000120:	9112                	add	sp,sp,tp
    80000122:	01151613          	slli	a2,a0,0x11
    80000126:	9232                	add	tp,tp,a2
    80000128:	11a0506f          	j	80005242 <_init>

000000008000012c <trap_entry>:
    8000012c:	716d                	addi	sp,sp,-272
    8000012e:	e406                	sd	ra,8(sp)
    80000130:	e80a                	sd	sp,16(sp)
    80000132:	ec0e                	sd	gp,24(sp)
    80000134:	f012                	sd	tp,32(sp)
    80000136:	f416                	sd	t0,40(sp)
    80000138:	f81a                	sd	t1,48(sp)
    8000013a:	fc1e                	sd	t2,56(sp)
    8000013c:	e0a2                	sd	s0,64(sp)
    8000013e:	e4a6                	sd	s1,72(sp)
    80000140:	e8aa                	sd	a0,80(sp)
    80000142:	ecae                	sd	a1,88(sp)
    80000144:	f0b2                	sd	a2,96(sp)
    80000146:	f4b6                	sd	a3,104(sp)
    80000148:	f8ba                	sd	a4,112(sp)
    8000014a:	fcbe                	sd	a5,120(sp)
    8000014c:	e142                	sd	a6,128(sp)
    8000014e:	e546                	sd	a7,136(sp)
    80000150:	e94a                	sd	s2,144(sp)
    80000152:	ed4e                	sd	s3,152(sp)
    80000154:	f152                	sd	s4,160(sp)
    80000156:	f556                	sd	s5,168(sp)
    80000158:	f95a                	sd	s6,176(sp)
    8000015a:	fd5e                	sd	s7,184(sp)
    8000015c:	e1e2                	sd	s8,192(sp)
    8000015e:	e5e6                	sd	s9,200(sp)
    80000160:	e9ea                	sd	s10,208(sp)
    80000162:	edee                	sd	s11,216(sp)
    80000164:	f1f2                	sd	t3,224(sp)
    80000166:	f5f6                	sd	t4,232(sp)
    80000168:	f9fa                	sd	t5,240(sp)
    8000016a:	fdfe                	sd	t6,248(sp)
    8000016c:	34202573          	csrr	a0,mcause
    80000170:	341025f3          	csrr	a1,mepc
    80000174:	860a                	mv	a2,sp
    80000176:	6bb040ef          	jal	80005030 <handle_trap>
    8000017a:	34151073          	csrw	mepc,a0
    8000017e:	6289                	lui	t0,0x2
    80000180:	8002829b          	addiw	t0,t0,-2048 # 1800 <_start-0x7fffe800>
    80000184:	3002a073          	csrs	mstatus,t0
    80000188:	60a2                	ld	ra,8(sp)
    8000018a:	6142                	ld	sp,16(sp)
    8000018c:	61e2                	ld	gp,24(sp)
    8000018e:	7202                	ld	tp,32(sp)
    80000190:	72a2                	ld	t0,40(sp)
    80000192:	7342                	ld	t1,48(sp)
    80000194:	73e2                	ld	t2,56(sp)
    80000196:	6406                	ld	s0,64(sp)
    80000198:	64a6                	ld	s1,72(sp)
    8000019a:	6546                	ld	a0,80(sp)
    8000019c:	65e6                	ld	a1,88(sp)
    8000019e:	7606                	ld	a2,96(sp)
    800001a0:	76a6                	ld	a3,104(sp)
    800001a2:	7746                	ld	a4,112(sp)
    800001a4:	77e6                	ld	a5,120(sp)
    800001a6:	680a                	ld	a6,128(sp)
    800001a8:	68aa                	ld	a7,136(sp)
    800001aa:	694a                	ld	s2,144(sp)
    800001ac:	69ea                	ld	s3,152(sp)
    800001ae:	7a0a                	ld	s4,160(sp)
    800001b0:	7aaa                	ld	s5,168(sp)
    800001b2:	7b4a                	ld	s6,176(sp)
    800001b4:	7bea                	ld	s7,184(sp)
    800001b6:	6c0e                	ld	s8,192(sp)
    800001b8:	6cae                	ld	s9,200(sp)
    800001ba:	6d4e                	ld	s10,208(sp)
    800001bc:	6dee                	ld	s11,216(sp)
    800001be:	7e0e                	ld	t3,224(sp)
    800001c0:	7eae                	ld	t4,232(sp)
    800001c2:	7f4e                	ld	t5,240(sp)
    800001c4:	7fee                	ld	t6,248(sp)
    800001c6:	6151                	addi	sp,sp,272
    800001c8:	30200073          	mret
    800001cc:	0001                	nop

セクション .text の逆アセンブル:

0000000080002000 <mm_naive>:
    80002000:	14050a63          	beqz	a0,80002154 <mm_naive+0x154>
    80002004:	7159                	addi	sp,sp,-112
    80002006:	f4a2                	sd	s0,104(sp)
    80002008:	e8ce                	sd	s3,80(sp)
    8000200a:	842e                	mv	s0,a1
    8000200c:	89aa                	mv	s3,a0
    8000200e:	12058863          	beqz	a1,8000213e <mm_naive+0x13e>
    80002012:	00381313          	slli	t1,a6,0x3
    80002016:	f0a6                	sd	s1,96(sp)
    80002018:	84b2                	mv	s1,a2
    8000201a:	9a71                	andi	a2,a2,-4
    8000201c:	ecca                	sd	s2,88(sp)
    8000201e:	02660933          	mul	s2,a2,t1
    80002022:	00181293          	slli	t0,a6,0x1
    80002026:	92c2                	add	t0,t0,a6
    80002028:	ec6a                	sd	s10,24(sp)
    8000202a:	00349f13          	slli	t5,s1,0x3
    8000202e:	00371d13          	slli	s10,a4,0x3
    80002032:	e4d2                	sd	s4,72(sp)
    80002034:	e0d6                	sd	s5,64(sp)
    80002036:	fc5a                	sd	s6,56(sp)
    80002038:	f85e                	sd	s7,48(sp)
    8000203a:	f066                	sd	s9,32(sp)
    8000203c:	e86e                	sd	s11,16(sp)
    8000203e:	8b3a                	mv	s6,a4
    80002040:	00581393          	slli	t2,a6,0x5
    80002044:	00481f93          	slli	t6,a6,0x4
    80002048:	f462                	sd	s8,40(sp)
    8000204a:	8ab6                	mv	s5,a3
    8000204c:	8bbe                	mv	s7,a5
    8000204e:	8cc6                	mv	s9,a7
    80002050:	028e                	slli	t0,t0,0x3
    80002052:	9f36                	add	t5,t5,a3
    80002054:	4a01                	li	s4,0
    80002056:	4801                	li	a6,0
    80002058:	4e01                	li	t3,0
    8000205a:	02068d93          	addi	s11,a3,32
    8000205e:	e46a                	sd	s10,8(sp)
    80002060:	ffc60713          	addi	a4,a2,-4
    80002064:	01060c33          	add	s8,a2,a6
    80002068:	010705b3          	add	a1,a4,a6
    8000206c:	0c0e                	slli	s8,s8,0x3
    8000206e:	058e                	slli	a1,a1,0x3
    80002070:	003a1513          	slli	a0,s4,0x3
    80002074:	00381d13          	slli	s10,a6,0x3
    80002078:	9c56                	add	s8,s8,s5
    8000207a:	95ee                	add	a1,a1,s11
    8000207c:	9566                	add	a0,a0,s9
    8000207e:	9d56                	add	s10,s10,s5
    80002080:	88de                	mv	a7,s7
    80002082:	4e81                	li	t4,0
    80002084:	e052                	sd	s4,0(sp)
    80002086:	211c                	fld	fa5,0(a0)
    80002088:	c279                	beqz	a2,8000214e <mm_naive+0x14e>
    8000208a:	f20006d3          	fmv.d.x	fa3,zero
    8000208e:	86c6                	mv	a3,a7
    80002090:	87ea                	mv	a5,s10
    80002092:	22d68653          	fmv.d	fa2,fa3
    80002096:	22d68753          	fmv.d	fa4,fa3
    8000209a:	00668a33          	add	s4,a3,t1
    8000209e:	000a3207          	fld	ft4,0(s4)
    800020a2:	01f68a33          	add	s4,a3,t6
    800020a6:	000a3107          	fld	ft2,0(s4)
    800020aa:	00568a33          	add	s4,a3,t0
    800020ae:	0087b287          	fld	ft5,8(a5)
    800020b2:	0107b187          	fld	ft3,16(a5)
    800020b6:	0187b087          	fld	ft1,24(a5)
    800020ba:	2388                	fld	fa0,0(a5)
    800020bc:	228c                	fld	fa1,0(a3)
    800020be:	000a3007          	fld	ft0,0(s4)
    800020c2:	02078793          	addi	a5,a5,32
    800020c6:	7242f743          	fmadd.d	fa4,ft5,ft4,fa4
    800020ca:	6221f643          	fmadd.d	fa2,ft3,ft2,fa2
    800020ce:	6a00f6c3          	fmadd.d	fa3,ft1,ft0,fa3
    800020d2:	7ab577c3          	fmadd.d	fa5,fa0,fa1,fa5
    800020d6:	969e                	add	a3,a3,t2
    800020d8:	fcf591e3          	bne	a1,a5,8000209a <mm_naive+0x9a>
    800020dc:	02c77753          	fadd.d	fa4,fa4,fa2
    800020e0:	02d77753          	fadd.d	fa4,fa4,fa3
    800020e4:	00967d63          	bgeu	a2,s1,800020fe <mm_naive+0xfe>
    800020e8:	011906b3          	add	a3,s2,a7
    800020ec:	87e2                	mv	a5,s8
    800020ee:	2390                	fld	fa2,0(a5)
    800020f0:	2294                	fld	fa3,0(a3)
    800020f2:	07a1                	addi	a5,a5,8
    800020f4:	969a                	add	a3,a3,t1
    800020f6:	7ad677c3          	fmadd.d	fa5,fa2,fa3,fa5
    800020fa:	feff1ae3          	bne	t5,a5,800020ee <mm_naive+0xee>
    800020fe:	02e7f7d3          	fadd.d	fa5,fa5,fa4
    80002102:	0e85                	addi	t4,t4,1
    80002104:	08a1                	addi	a7,a7,8
    80002106:	0521                	addi	a0,a0,8
    80002108:	fef53c27          	fsd	fa5,-8(a0)
    8000210c:	f7d41de3          	bne	s0,t4,80002086 <mm_naive+0x86>
    80002110:	77c6                	ld	a5,112(sp)
    80002112:	6a02                	ld	s4,0(sp)
    80002114:	0e05                	addi	t3,t3,1
    80002116:	985a                	add	a6,a6,s6
    80002118:	9a3e                	add	s4,s4,a5
    8000211a:	67a2                	ld	a5,8(sp)
    8000211c:	9f3e                	add	t5,t5,a5
    8000211e:	f5c993e3          	bne	s3,t3,80002064 <mm_naive+0x64>
    80002122:	7486                	ld	s1,96(sp)
    80002124:	6966                	ld	s2,88(sp)
    80002126:	6a26                	ld	s4,72(sp)
    80002128:	6a86                	ld	s5,64(sp)
    8000212a:	7b62                	ld	s6,56(sp)
    8000212c:	7bc2                	ld	s7,48(sp)
    8000212e:	7c22                	ld	s8,40(sp)
    80002130:	7c82                	ld	s9,32(sp)
    80002132:	6d62                	ld	s10,24(sp)
    80002134:	6dc2                	ld	s11,16(sp)
    80002136:	7426                	ld	s0,104(sp)
    80002138:	69c6                	ld	s3,80(sp)
    8000213a:	6165                	addi	sp,sp,112
    8000213c:	8082                	ret
    8000213e:	00140793          	addi	a5,s0,1
    80002142:	0409                	addi	s0,s0,2
    80002144:	fef989e3          	beq	s3,a5,80002136 <mm_naive+0x136>
    80002148:	fe899be3          	bne	s3,s0,8000213e <mm_naive+0x13e>
    8000214c:	b7ed                	j	80002136 <mm_naive+0x136>
    8000214e:	f2000753          	fmv.d.x	fa4,zero
    80002152:	bf49                	j	800020e4 <mm_naive+0xe4>
    80002154:	8082                	ret

0000000080002156 <mm_cb>:
    80002156:	000e1e37          	lui	t3,0xe1
    8000215a:	47be0e13          	addi	t3,t3,1147 # e147b <_start-0x7ff1eb85>
    8000215e:	23d71337          	lui	t1,0x23d71
    80002162:	0e32                	slli	t3,t3,0xc
    80002164:	a3d30313          	addi	t1,t1,-1475 # 23d70a3d <_start-0x5c28f5c3>
    80002168:	e15e0e13          	addi	t3,t3,-491
    8000216c:	1306                	slli	t1,t1,0x21
    8000216e:	d3010113          	addi	sp,sp,-720
    80002172:	9372                	add	t1,t1,t3
    80002174:	27a13823          	sd	s10,624(sp)
    80002178:	8d2e                	mv	s10,a1
    8000217a:	0265b5b3          	mulhu	a1,a1,t1
    8000217e:	aaaabe37          	lui	t3,0xaaaab
    80002182:	aabe0e13          	addi	t3,t3,-1365 # ffffffffaaaaaaab <__global_pointer$+0xffffffff2aaa4e3b>
    80002186:	020e1313          	slli	t1,t3,0x20
    8000218a:	9372                	add	t1,t1,t3
    8000218c:	8eb2                	mv	t4,a2
    8000218e:	2b213823          	sd	s2,688(sp)
    80002192:	02663e33          	mulhu	t3,a2,t1
    80002196:	892a                	mv	s2,a0
    80002198:	2c813023          	sd	s0,704(sp)
    8000219c:	40bd0633          	sub	a2,s10,a1
    800021a0:	8205                	srli	a2,a2,0x1
    800021a2:	95b2                	add	a1,a1,a2
    800021a4:	0045df93          	srli	t6,a1,0x4
    800021a8:	026935b3          	mulhu	a1,s2,t1
    800021ac:	001f9613          	slli	a2,t6,0x1
    800021b0:	0d80                	addi	s0,sp,720
    800021b2:	2a913c23          	sd	s1,696(sp)
    800021b6:	2b313423          	sd	s3,680(sp)
    800021ba:	2b413023          	sd	s4,672(sp)
    800021be:	2c113423          	sd	ra,712(sp)
    800021c2:	29513c23          	sd	s5,664(sp)
    800021c6:	29613823          	sd	s6,656(sp)
    800021ca:	29713423          	sd	s7,648(sp)
    800021ce:	29813023          	sd	s8,640(sp)
    800021d2:	27913c23          	sd	s9,632(sp)
    800021d6:	27b13423          	sd	s11,616(sp)
    800021da:	24813c27          	fsd	fs0,600(sp)
    800021de:	24913827          	fsd	fs1,592(sp)
    800021e2:	25213427          	fsd	fs2,584(sp)
    800021e6:	25313027          	fsd	fs3,576(sp)
    800021ea:	23413c27          	fsd	fs4,568(sp)
    800021ee:	23513827          	fsd	fs5,560(sp)
    800021f2:	23613427          	fsd	fs6,552(sp)
    800021f6:	23713027          	fsd	fs7,544(sp)
    800021fa:	21813c27          	fsd	fs8,536(sp)
    800021fe:	21913827          	fsd	fs9,528(sp)
    80002202:	21a13427          	fsd	fs10,520(sp)
    80002206:	21b13027          	fsd	fs11,512(sp)
    8000220a:	004e5493          	srli	s1,t3,0x4
    8000220e:	967e                	add	a2,a2,t6
    80002210:	0c800513          	li	a0,200
    80002214:	060e                	slli	a2,a2,0x3
    80002216:	00149f13          	slli	t5,s1,0x1
    8000221a:	8191                	srli	a1,a1,0x4
    8000221c:	9f26                	add	t5,t5,s1
    8000221e:	e8943c23          	sd	s1,-360(s0)
    80002222:	01f604b3          	add	s1,a2,t6
    80002226:	02af8633          	mul	a2,t6,a0
    8000222a:	00159513          	slli	a0,a1,0x1
    8000222e:	95aa                	add	a1,a1,a0
    80002230:	006f1e13          	slli	t3,t5,0x6
    80002234:	058e                	slli	a1,a1,0x3
    80002236:	8a3e                	mv	s4,a5
    80002238:	6989                	lui	s3,0x2
    8000223a:	03c587b3          	mul	a5,a1,t3
    8000223e:	fff98513          	addi	a0,s3,-1 # 1fff <_start-0x7fffe001>
    80002242:	ead43823          	sd	a3,-336(s0)
    80002246:	ec943823          	sd	s1,-304(s0)
    8000224a:	ece43c23          	sd	a4,-296(s0)
    8000224e:	82ba                	mv	t0,a4
    80002250:	7779                	lui	a4,0xffffe
    80002252:	03c483b3          	mul	t2,s1,t3
    80002256:	84c6                	mv	s1,a7
    80002258:	0f0e                	slli	t5,t5,0x3
    8000225a:	97ce                	add	a5,a5,s3
    8000225c:	40f10133          	sub	sp,sp,a5
    80002260:	01010893          	addi	a7,sp,16
    80002264:	02c587b3          	mul	a5,a1,a2
    80002268:	00a386b3          	add	a3,t2,a0
    8000226c:	06bd                	addi	a3,a3,15
    8000226e:	9ac1                	andi	a3,a3,-16
    80002270:	40d10133          	sub	sp,sp,a3
    80002274:	01010393          	addi	t2,sp,16
    80002278:	00a886b3          	add	a3,a7,a0
    8000227c:	00a388b3          	add	a7,t2,a0
    80002280:	97aa                	add	a5,a5,a0
    80002282:	07bd                	addi	a5,a5,15
    80002284:	9bc1                	andi	a5,a5,-16
    80002286:	40f10133          	sub	sp,sp,a5
    8000228a:	081c                	addi	a5,sp,16
    8000228c:	97aa                	add	a5,a5,a0
    8000228e:	00e8f8b3          	and	a7,a7,a4
    80002292:	8ef9                	and	a3,a3,a4
    80002294:	8ff9                	and	a5,a5,a4
    80002296:	e7143023          	sd	a7,-416(s0)
    8000229a:	e6d43423          	sd	a3,-408(s0)
    8000229e:	eaf43c23          	sd	a5,-328(s0)
    800022a2:	e199                	bnez	a1,800022a8 <mm_cb+0x152>
    800022a4:	78f0106f          	j	80004232 <mm_cb+0x20dc>
    800022a8:	000f1463          	bnez	t5,800022b0 <mm_cb+0x15a>
    800022ac:	7a90106f          	j	80004254 <mm_cb+0x20fe>
    800022b0:	00129793          	slli	a5,t0,0x1
    800022b4:	9796                	add	a5,a5,t0
    800022b6:	00379393          	slli	t2,a5,0x3
    800022ba:	00329a93          	slli	s5,t0,0x3
    800022be:	4681                	li	a3,0
    800022c0:	4701                	li	a4,0
    800022c2:	24000b13          	li	s6,576
    800022c6:	026737b3          	mulhu	a5,a4,t1
    800022ca:	eb043503          	ld	a0,-336(s0)
    800022ce:	00369993          	slli	s3,a3,0x3
    800022d2:	4b81                	li	s7,0
    800022d4:	99aa                	add	s3,s3,a0
    800022d6:	e9843503          	ld	a0,-360(s0)
    800022da:	8391                	srli	a5,a5,0x4
    800022dc:	02a787b3          	mul	a5,a5,a0
    800022e0:	0c098993          	addi	s3,s3,192
    800022e4:	82ce                	mv	t0,s3
    800022e6:	4c81                	li	s9,0
    800022e8:	026bb533          	mulhu	a0,s7,t1
    800022ec:	8111                	srli	a0,a0,0x4
    800022ee:	953e                	add	a0,a0,a5
    800022f0:	00351c13          	slli	s8,a0,0x3
    800022f4:	9c2a                	add	s8,s8,a0
    800022f6:	e6843503          	ld	a0,-408(s0)
    800022fa:	0c26                	slli	s8,s8,0x9
    800022fc:	9c2a                	add	s8,s8,a0
    800022fe:	f4028513          	addi	a0,t0,-192
    80002302:	88e2                	mv	a7,s8
    80002304:	00053087          	fld	ft1,0(a0)
    80002308:	00853007          	fld	ft0,8(a0)
    8000230c:	2908                	fld	fa0,16(a0)
    8000230e:	2d0c                	fld	fa1,24(a0)
    80002310:	3110                	fld	fa2,32(a0)
    80002312:	3514                	fld	fa3,40(a0)
    80002314:	3918                	fld	fa4,48(a0)
    80002316:	3d1c                	fld	fa5,56(a0)
    80002318:	0018b027          	fsd	ft1,0(a7)
    8000231c:	0008b427          	fsd	ft0,8(a7)
    80002320:	00a8b827          	fsd	fa0,16(a7)
    80002324:	00b8bc27          	fsd	fa1,24(a7)
    80002328:	02c8b027          	fsd	fa2,32(a7)
    8000232c:	02d8b427          	fsd	fa3,40(a7)
    80002330:	02e8b827          	fsd	fa4,48(a7)
    80002334:	02f8bc27          	fsd	fa5,56(a7)
    80002338:	04050513          	addi	a0,a0,64
    8000233c:	04088893          	addi	a7,a7,64
    80002340:	fca292e3          	bne	t0,a0,80002304 <mm_cb+0x1ae>
    80002344:	0ce1                	addi	s9,s9,24
    80002346:	0c0c0c13          	addi	s8,s8,192
    8000234a:	92d6                	add	t0,t0,s5
    8000234c:	fb6c99e3          	bne	s9,s6,800022fe <mm_cb+0x1a8>
    80002350:	0be1                	addi	s7,s7,24
    80002352:	f9ebe7e3          	bltu	s7,t5,800022e0 <mm_cb+0x18a>
    80002356:	0761                	addi	a4,a4,24 # ffffffffffffe018 <__global_pointer$+0xffffffff7fff83a8>
    80002358:	969e                	add	a3,a3,t2
    8000235a:	f6b766e3          	bltu	a4,a1,800022c6 <mm_cb+0x170>
    8000235e:	100f0b63          	beqz	t5,80002474 <mm_cb+0x31e>
    80002362:	47e1                	li	a5,24
    80002364:	11a7f563          	bgeu	a5,s10,8000246e <mm_cb+0x318>
    80002368:	000e17b7          	lui	a5,0xe1
    8000236c:	47b78793          	addi	a5,a5,1147 # e147b <_start-0x7ff1eb85>
    80002370:	23d71737          	lui	a4,0x23d71
    80002374:	aaaab537          	lui	a0,0xaaaab
    80002378:	07b2                	slli	a5,a5,0xc
    8000237a:	a3d70713          	addi	a4,a4,-1475 # 23d70a3d <_start-0x5c28f5c3>
    8000237e:	aab50513          	addi	a0,a0,-1365 # ffffffffaaaaaaab <__global_pointer$+0xffffffff2aaa4e3b>
    80002382:	e1578793          	addi	a5,a5,-491
    80002386:	1706                	slli	a4,a4,0x21
    80002388:	00f709b3          	add	s3,a4,a5
    8000238c:	02051793          	slli	a5,a0,0x20
    80002390:	00a78ab3          	add	s5,a5,a0
    80002394:	00181793          	slli	a5,a6,0x1
    80002398:	97c2                	add	a5,a5,a6
    8000239a:	6b05                	lui	s6,0x1
    8000239c:	00379393          	slli	t2,a5,0x3
    800023a0:	2c0b0b13          	addi	s6,s6,704 # 12c0 <_start-0x7fffed40>
    800023a4:	00381b93          	slli	s7,a6,0x3
    800023a8:	4681                	li	a3,0
    800023aa:	4701                	li	a4,0
    800023ac:	25800c13          	li	s8,600
    800023b0:	03573533          	mulhu	a0,a4,s5
    800023b4:	00369293          	slli	t0,a3,0x3
    800023b8:	92d2                	add	t0,t0,s4
    800023ba:	4781                	li	a5,0
    800023bc:	8111                	srli	a0,a0,0x4
    800023be:	03f50db3          	mul	s11,a0,t6
    800023c2:	857e                	mv	a0,t6
    800023c4:	0c028313          	addi	t1,t0,192
    800023c8:	4c81                	li	s9,0
    800023ca:	f3b43423          	sd	s11,-216(s0)
    800023ce:	0337b8b3          	mulhu	a7,a5,s3
    800023d2:	41178fb3          	sub	t6,a5,a7
    800023d6:	001fdf93          	srli	t6,t6,0x1
    800023da:	9fc6                	add	t6,t6,a7
    800023dc:	004fdf93          	srli	t6,t6,0x4
    800023e0:	9fee                	add	t6,t6,s11
    800023e2:	036f8fb3          	mul	t6,t6,s6
    800023e6:	e6043883          	ld	a7,-416(s0)
    800023ea:	9fc6                	add	t6,t6,a7
    800023ec:	f4030893          	addi	a7,t1,-192
    800023f0:	8dfe                	mv	s11,t6
    800023f2:	0008b087          	fld	ft1,0(a7)
    800023f6:	0088b007          	fld	ft0,8(a7)
    800023fa:	0108b507          	fld	fa0,16(a7)
    800023fe:	0188b587          	fld	fa1,24(a7)
    80002402:	0208b607          	fld	fa2,32(a7)
    80002406:	0288b687          	fld	fa3,40(a7)
    8000240a:	0308b707          	fld	fa4,48(a7)
    8000240e:	0388b787          	fld	fa5,56(a7)
    80002412:	001db027          	fsd	ft1,0(s11)
    80002416:	000db427          	fsd	ft0,8(s11)
    8000241a:	00adb827          	fsd	fa0,16(s11)
    8000241e:	00bdbc27          	fsd	fa1,24(s11)
    80002422:	02cdb027          	fsd	fa2,32(s11)
    80002426:	02ddb427          	fsd	fa3,40(s11)
    8000242a:	02edb827          	fsd	fa4,48(s11)
    8000242e:	02fdbc27          	fsd	fa5,56(s11)
    80002432:	04088893          	addi	a7,a7,64
    80002436:	040d8d93          	addi	s11,s11,64
    8000243a:	fb131ce3          	bne	t1,a7,800023f2 <mm_cb+0x29c>
    8000243e:	00033787          	fld	fa5,0(t1)
    80002442:	0ce5                	addi	s9,s9,25
    80002444:	935e                	add	t1,t1,s7
    80002446:	0cffb027          	fsd	fa5,192(t6)
    8000244a:	0c8f8f93          	addi	t6,t6,200
    8000244e:	f98c9fe3          	bne	s9,s8,800023ec <mm_cb+0x296>
    80002452:	ed043883          	ld	a7,-304(s0)
    80002456:	07e5                	addi	a5,a5,25
    80002458:	f2843d83          	ld	s11,-216(s0)
    8000245c:	0c828293          	addi	t0,t0,200
    80002460:	f717e2e3          	bltu	a5,a7,800023c4 <mm_cb+0x26e>
    80002464:	0761                	addi	a4,a4,24
    80002466:	8faa                	mv	t6,a0
    80002468:	969e                	add	a3,a3,t2
    8000246a:	f5e763e3          	bltu	a4,t5,800023b0 <mm_cb+0x25a>
    8000246e:	e199                	bnez	a1,80002474 <mm_cb+0x31e>
    80002470:	5cb0106f          	j	8000423a <mm_cb+0x20e4>
    80002474:	6018                	ld	a4,0(s0)
    80002476:	47e1                	li	a5,24
    80002478:	070e                	slli	a4,a4,0x3
    8000247a:	e4e43823          	sd	a4,-432(s0)
    8000247e:	01a7e463          	bltu	a5,s10,80002486 <mm_cb+0x330>
    80002482:	5c90106f          	j	8000424a <mm_cb+0x20f4>
    80002486:	6008                	ld	a0,0(s0)
    80002488:	000e17b7          	lui	a5,0xe1
    8000248c:	47b78793          	addi	a5,a5,1147 # e147b <_start-0x7ff1eb85>
    80002490:	23d71737          	lui	a4,0x23d71
    80002494:	aaaab6b7          	lui	a3,0xaaaab
    80002498:	07b2                	slli	a5,a5,0xc
    8000249a:	a3d70713          	addi	a4,a4,-1475 # 23d70a3d <_start-0x5c28f5c3>
    8000249e:	aab68693          	addi	a3,a3,-1365 # ffffffffaaaaaaab <__global_pointer$+0xffffffff2aaa4e3b>
    800024a2:	e1578793          	addi	a5,a5,-491
    800024a6:	1706                	slli	a4,a4,0x21
    800024a8:	00151893          	slli	a7,a0,0x1
    800024ac:	00f709b3          	add	s3,a4,a5
    800024b0:	6b05                	lui	s6,0x1
    800024b2:	02069793          	slli	a5,a3,0x20
    800024b6:	00a88733          	add	a4,a7,a0
    800024ba:	00d78ab3          	add	s5,a5,a3
    800024be:	00371393          	slli	t2,a4,0x3
    800024c2:	2c0b0b13          	addi	s6,s6,704 # 12c0 <_start-0x7fffed40>
    800024c6:	4681                	li	a3,0
    800024c8:	4701                	li	a4,0
    800024ca:	25800b93          	li	s7,600
    800024ce:	03573533          	mulhu	a0,a4,s5
    800024d2:	00369c13          	slli	s8,a3,0x3
    800024d6:	9c26                	add	s8,s8,s1
    800024d8:	4781                	li	a5,0
    800024da:	8111                	srli	a0,a0,0x4
    800024dc:	03f50db3          	mul	s11,a0,t6
    800024e0:	857e                	mv	a0,t6
    800024e2:	0c0c0f93          	addi	t6,s8,192
    800024e6:	4c81                	li	s9,0
    800024e8:	f3b43423          	sd	s11,-216(s0)
    800024ec:	0337b333          	mulhu	t1,a5,s3
    800024f0:	406782b3          	sub	t0,a5,t1
    800024f4:	0012d293          	srli	t0,t0,0x1
    800024f8:	929a                	add	t0,t0,t1
    800024fa:	0042d293          	srli	t0,t0,0x4
    800024fe:	92ee                	add	t0,t0,s11
    80002500:	036282b3          	mul	t0,t0,s6
    80002504:	eb843303          	ld	t1,-328(s0)
    80002508:	929a                	add	t0,t0,t1
    8000250a:	f40f8313          	addi	t1,t6,-192
    8000250e:	8d96                	mv	s11,t0
    80002510:	00033087          	fld	ft1,0(t1)
    80002514:	00833007          	fld	ft0,8(t1)
    80002518:	01033507          	fld	fa0,16(t1)
    8000251c:	01833587          	fld	fa1,24(t1)
    80002520:	02033607          	fld	fa2,32(t1)
    80002524:	02833687          	fld	fa3,40(t1)
    80002528:	03033707          	fld	fa4,48(t1)
    8000252c:	03833787          	fld	fa5,56(t1)
    80002530:	001db027          	fsd	ft1,0(s11)
    80002534:	000db427          	fsd	ft0,8(s11)
    80002538:	00adb827          	fsd	fa0,16(s11)
    8000253c:	00bdbc27          	fsd	fa1,24(s11)
    80002540:	02cdb027          	fsd	fa2,32(s11)
    80002544:	02ddb427          	fsd	fa3,40(s11)
    80002548:	02edb827          	fsd	fa4,48(s11)
    8000254c:	02fdbc27          	fsd	fa5,56(s11)
    80002550:	04030313          	addi	t1,t1,64
    80002554:	040d8d93          	addi	s11,s11,64
    80002558:	fa6f9ce3          	bne	t6,t1,80002510 <mm_cb+0x3ba>
    8000255c:	000fb787          	fld	fa5,0(t6)
    80002560:	e5043303          	ld	t1,-432(s0)
    80002564:	0ce5                	addi	s9,s9,25
    80002566:	0cf2b027          	fsd	fa5,192(t0)
    8000256a:	9f9a                	add	t6,t6,t1
    8000256c:	0c828293          	addi	t0,t0,200
    80002570:	f97c9de3          	bne	s9,s7,8000250a <mm_cb+0x3b4>
    80002574:	ed043303          	ld	t1,-304(s0)
    80002578:	07e5                	addi	a5,a5,25
    8000257a:	f2843d83          	ld	s11,-216(s0)
    8000257e:	0c8c0c13          	addi	s8,s8,200
    80002582:	f667e0e3          	bltu	a5,t1,800024e2 <mm_cb+0x38c>
    80002586:	0761                	addi	a4,a4,24
    80002588:	8faa                	mv	t6,a0
    8000258a:	969e                	add	a3,a3,t2
    8000258c:	f4b761e3          	bltu	a4,a1,800024ce <mm_cb+0x378>
    80002590:	aaaab737          	lui	a4,0xaaaab
    80002594:	aab70713          	addi	a4,a4,-1365 # ffffffffaaaaaaab <__global_pointer$+0xffffffff2aaa4e3b>
    80002598:	02071793          	slli	a5,a4,0x20
    8000259c:	97ba                	add	a5,a5,a4
    8000259e:	02feb733          	mulhu	a4,t4,a5
    800025a2:	000e1537          	lui	a0,0xe1
    800025a6:	47b50513          	addi	a0,a0,1147 # e147b <_start-0x7ff1eb85>
    800025aa:	23d716b7          	lui	a3,0x23d71
    800025ae:	0532                	slli	a0,a0,0xc
    800025b0:	a3d68693          	addi	a3,a3,-1475 # 23d70a3d <_start-0x5c28f5c3>
    800025b4:	e1550513          	addi	a0,a0,-491
    800025b8:	1686                	slli	a3,a3,0x21
    800025ba:	96aa                	add	a3,a3,a0
    800025bc:	02dd36b3          	mulhu	a3,s10,a3
    800025c0:	00475513          	srli	a0,a4,0x4
    800025c4:	00151713          	slli	a4,a0,0x1
    800025c8:	972a                	add	a4,a4,a0
    800025ca:	070e                	slli	a4,a4,0x3
    800025cc:	ccccd537          	lui	a0,0xccccd
    800025d0:	40ee8733          	sub	a4,t4,a4
    800025d4:	ccd50513          	addi	a0,a0,-819 # ffffffffcccccccd <__global_pointer$+0xffffffff4ccc705d>
    800025d8:	02f737b3          	mulhu	a5,a4,a5
    800025dc:	e6e43823          	sd	a4,-400(s0)
    800025e0:	02051713          	slli	a4,a0,0x20
    800025e4:	972a                	add	a4,a4,a0
    800025e6:	40dd0533          	sub	a0,s10,a3
    800025ea:	8105                	srli	a0,a0,0x1
    800025ec:	96aa                	add	a3,a3,a0
    800025ee:	0046d513          	srli	a0,a3,0x4
    800025f2:	00151693          	slli	a3,a0,0x1
    800025f6:	96aa                	add	a3,a3,a0
    800025f8:	068e                	slli	a3,a3,0x3
    800025fa:	96aa                	add	a3,a3,a0
    800025fc:	40dd0533          	sub	a0,s10,a3
    80002600:	02e53733          	mulhu	a4,a0,a4
    80002604:	ed843283          	ld	t0,-296(s0)
    80002608:	e9843683          	ld	a3,-360(s0)
    8000260c:	8389                	srli	a5,a5,0x2
    8000260e:	00179313          	slli	t1,a5,0x1
    80002612:	9696                	add	a3,a3,t0
    80002614:	00169393          	slli	t2,a3,0x1
    80002618:	93b6                	add	t2,t2,a3
    8000261a:	6014                	ld	a3,0(s0)
    8000261c:	933e                	add	t1,t1,a5
    8000261e:	02f807b3          	mul	a5,a6,a5
    80002622:	00469b13          	slli	s6,a3,0x4
    80002626:	00275693          	srli	a3,a4,0x2
    8000262a:	9b71                	andi	a4,a4,-4
    8000262c:	00d70bb3          	add	s7,a4,a3
    80002630:	6018                	ld	a4,0(s0)
    80002632:	eb043c03          	ld	s8,-336(s0)
    80002636:	030f06b3          	mul	a3,t5,a6
    8000263a:	00129993          	slli	s3,t0,0x1
    8000263e:	98ba                	add	a7,a7,a4
    80002640:	00179713          	slli	a4,a5,0x1
    80002644:	01cc0cb3          	add	s9,s8,t3
    80002648:	00181a93          	slli	s5,a6,0x1
    8000264c:	00431e13          	slli	t3,t1,0x4
    80002650:	00f70333          	add	t1,a4,a5
    80002654:	005987b3          	add	a5,s3,t0
    80002658:	010a8733          	add	a4,s5,a6
    8000265c:	068e                	slli	a3,a3,0x3
    8000265e:	96d2                	add	a3,a3,s4
    80002660:	e8d43423          	sd	a3,-376(s0)
    80002664:	00379693          	slli	a3,a5,0x3
    80002668:	079a                	slli	a5,a5,0x6
    8000266a:	016489b3          	add	s3,s1,s6
    8000266e:	daf43023          	sd	a5,-608(s0)
    80002672:	00671793          	slli	a5,a4,0x6
    80002676:	d8f43c23          	sd	a5,-616(s0)
    8000267a:	00c987b3          	add	a5,s3,a2
    8000267e:	eef43423          	sd	a5,-280(s0)
    80002682:	003e9793          	slli	a5,t4,0x3
    80002686:	97e2                	add	a5,a5,s8
    80002688:	089a                	slli	a7,a7,0x6
    8000268a:	dcf43c23          	sd	a5,-552(s0)
    8000268e:	00529793          	slli	a5,t0,0x5
    80002692:	e9143023          	sd	a7,-384(s0)
    80002696:	e4f43423          	sd	a5,-440(s0)
    8000269a:	417508b3          	sub	a7,a0,s7
    8000269e:	601c                	ld	a5,0(s0)
    800026a0:	df143023          	sd	a7,-544(s0)
    800026a4:	00471993          	slli	s3,a4,0x4
    800026a8:	003b9893          	slli	a7,s7,0x3
    800026ac:	00329713          	slli	a4,t0,0x3
    800026b0:	e3143c23          	sd	a7,-456(s0)
    800026b4:	e4e43c23          	sd	a4,-424(s0)
    800026b8:	00431893          	slli	a7,t1,0x4
    800026bc:	00c48733          	add	a4,s1,a2
    800026c0:	039a                	slli	t2,t2,0x6
    800026c2:	db143423          	sd	a7,-600(s0)
    800026c6:	007c0333          	add	t1,s8,t2
    800026ca:	019e08b3          	add	a7,t3,s9
    800026ce:	eee43023          	sd	a4,-288(s0)
    800026d2:	078a                	slli	a5,a5,0x2
    800026d4:	00ca0733          	add	a4,s4,a2
    800026d8:	e9743823          	sd	s7,-368(s0)
    800026dc:	dd943423          	sd	s9,-568(s0)
    800026e0:	e1443c23          	sd	s4,-488(s0)
    800026e4:	dd143823          	sd	a7,-560(s0)
    800026e8:	dc643023          	sd	t1,-576(s0)
    800026ec:	e4d43023          	sd	a3,-448(s0)
    800026f0:	dae43c23          	sd	a4,-584(s0)
    800026f4:	daf43823          	sd	a5,-592(s0)
    800026f8:	e2a43423          	sd	a0,-472(s0)
    800026fc:	ebf43423          	sd	t6,-344(s0)
    80002700:	edd43423          	sd	t4,-312(s0)
    80002704:	ebe43023          	sd	t5,-352(s0)
    80002708:	e3243023          	sd	s2,-480(s0)
    8000270c:	00429c93          	slli	s9,t0,0x4
    80002710:	ed043023          	sd	a6,-320(s0)
    80002714:	00481a93          	slli	s5,a6,0x4
    80002718:	e0943823          	sd	s1,-496(s0)
    8000271c:	00581293          	slli	t0,a6,0x5
    80002720:	00381d93          	slli	s11,a6,0x3
    80002724:	4b81                	li	s7,0
    80002726:	8c2e                	mv	s8,a1
    80002728:	8a6a                	mv	s4,s10
    8000272a:	4481                	li	s1,0
    8000272c:	47e1                	li	a5,24
    8000272e:	5b47fd63          	bgeu	a5,s4,80002ce8 <mm_cb+0xb92>
    80002732:	aaaab7b7          	lui	a5,0xaaaab
    80002736:	aab78793          	addi	a5,a5,-1365 # ffffffffaaaaaaab <__global_pointer$+0xffffffff2aaa4e3b>
    8000273a:	ed043683          	ld	a3,-304(s0)
    8000273e:	ee843603          	ld	a2,-280(s0)
    80002742:	ee043583          	ld	a1,-288(s0)
    80002746:	e8043503          	ld	a0,-384(s0)
    8000274a:	e1043903          	ld	s2,-496(s0)
    8000274e:	02079713          	slli	a4,a5,0x20
    80002752:	97ba                	add	a5,a5,a4
    80002754:	02f4bd33          	mulhu	s10,s1,a5
    80002758:	ea843703          	ld	a4,-344(s0)
    8000275c:	004d5d13          	srli	s10,s10,0x4
    80002760:	02ed0733          	mul	a4,s10,a4
    80002764:	e6e43c23          	sd	a4,-392(s0)
    80002768:	ea043703          	ld	a4,-352(s0)
    8000276c:	72070863          	beqz	a4,80002e9c <mm_cb+0xd46>
    80002770:	e8843703          	ld	a4,-376(s0)
    80002774:	eec43423          	sd	a2,-280(s0)
    80002778:	eeb43023          	sd	a1,-288(s0)
    8000277c:	4301                	li	t1,0
    8000277e:	e9843783          	ld	a5,-360(s0)
    80002782:	23d716b7          	lui	a3,0x23d71
    80002786:	a3d68693          	addi	a3,a3,-1475 # 23d70a3d <_start-0x5c28f5c3>
    8000278a:	02fd07b3          	mul	a5,s10,a5
    8000278e:	1686                	slli	a3,a3,0x21
    80002790:	aaaab637          	lui	a2,0xaaaab
    80002794:	aab60613          	addi	a2,a2,-1365 # ffffffffaaaaaaab <__global_pointer$+0xffffffff2aaa4e3b>
    80002798:	de943c23          	sd	s1,-520(s0)
    8000279c:	e1543423          	sd	s5,-504(s0)
    800027a0:	84ba                	mv	s1,a4
    800027a2:	e0543023          	sd	t0,-512(s0)
    800027a6:	875e                	mv	a4,s7
    800027a8:	8b1a                	mv	s6,t1
    800027aa:	def43823          	sd	a5,-528(s0)
    800027ae:	000e17b7          	lui	a5,0xe1
    800027b2:	47b78793          	addi	a5,a5,1147 # e147b <_start-0x7ff1eb85>
    800027b6:	07b2                	slli	a5,a5,0xc
    800027b8:	e1578793          	addi	a5,a5,-491
    800027bc:	97b6                	add	a5,a5,a3
    800027be:	d8f43823          	sd	a5,-624(s0)
    800027c2:	02061793          	slli	a5,a2,0x20
    800027c6:	97b2                	add	a5,a5,a2
    800027c8:	d8f43423          	sd	a5,-632(s0)
    800027cc:	6685                	lui	a3,0x1
    800027ce:	6785                	lui	a5,0x1
    800027d0:	2c068693          	addi	a3,a3,704 # 12c0 <_start-0x7fffed40>
    800027d4:	38878793          	addi	a5,a5,904 # 1388 <_start-0x7fffec78>
    800027d8:	e2d43823          	sd	a3,-464(s0)
    800027dc:	d8f43023          	sd	a5,-640(s0)
    800027e0:	8662                	mv	a2,s8
    800027e2:	85d2                	mv	a1,s4
    800027e4:	d9043783          	ld	a5,-624(s0)
    800027e8:	d7a43c23          	sd	s10,-648(s0)
    800027ec:	d7943823          	sd	s9,-656(s0)
    800027f0:	02fb36b3          	mulhu	a3,s6,a5
    800027f4:	e7843783          	ld	a5,-392(s0)
    800027f8:	d7b43423          	sd	s11,-664(s0)
    800027fc:	4901                	li	s2,0
    800027fe:	8cba                	mv	s9,a4
    80002800:	d7643023          	sd	s6,-672(s0)
    80002804:	8d32                	mv	s10,a2
    80002806:	d5343c23          	sd	s3,-680(s0)
    8000280a:	8dae                	mv	s11,a1
    8000280c:	40db0833          	sub	a6,s6,a3
    80002810:	00185813          	srli	a6,a6,0x1
    80002814:	96c2                	add	a3,a3,a6
    80002816:	0046dc13          	srli	s8,a3,0x4
    8000281a:	00fc0ab3          	add	s5,s8,a5
    8000281e:	e3043783          	ld	a5,-464(s0)
    80002822:	eb843683          	ld	a3,-328(s0)
    80002826:	02fa8ab3          	mul	s5,s5,a5
    8000282a:	9ab6                	add	s5,s5,a3
    8000282c:	97d6                	add	a5,a5,s5
    8000282e:	def43423          	sd	a5,-536(s0)
    80002832:	d8043783          	ld	a5,-640(s0)
    80002836:	00fa8a33          	add	s4,s5,a5
    8000283a:	d8843783          	ld	a5,-632(s0)
    8000283e:	ea843703          	ld	a4,-344(s0)
    80002842:	d5243423          	sd	s2,-696(s0)
    80002846:	02f937b3          	mulhu	a5,s2,a5
    8000284a:	8b26                	mv	s6,s1
    8000284c:	0c8a8493          	addi	s1,s5,200
    80002850:	8391                	srli	a5,a5,0x4
    80002852:	02e78e33          	mul	t3,a5,a4
    80002856:	df043703          	ld	a4,-528(s0)
    8000285a:	97ba                	add	a5,a5,a4
    8000285c:	00379713          	slli	a4,a5,0x3
    80002860:	973e                	add	a4,a4,a5
    80002862:	e6843783          	ld	a5,-408(s0)
    80002866:	0726                	slli	a4,a4,0x9
    80002868:	973e                	add	a4,a4,a5
    8000286a:	e3043783          	ld	a5,-464(s0)
    8000286e:	9e62                	add	t3,t3,s8
    80002870:	0c070593          	addi	a1,a4,192
    80002874:	02fe0e33          	mul	t3,t3,a5
    80002878:	e6043783          	ld	a5,-416(s0)
    8000287c:	d4e43823          	sd	a4,-688(s0)
    80002880:	01c789b3          	add	s3,a5,t3
    80002884:	0c898913          	addi	s2,s3,200
    80002888:	f4058693          	addi	a3,a1,-192
    8000288c:	f3848613          	addi	a2,s1,-200
    80002890:	854e                	mv	a0,s3
    80002892:	221c                	fld	fa5,0(a2)
    80002894:	02063a07          	fld	fs4,32(a2)
    80002898:	0c863107          	fld	ft2,200(a2)
    8000289c:	f2f43427          	fsd	fa5,-216(s0)
    800028a0:	261c                	fld	fa5,8(a2)
    800028a2:	0d063087          	fld	ft1,208(a2)
    800028a6:	0d863007          	fld	ft0,216(a2)
    800028aa:	f2f43027          	fsd	fa5,-224(s0)
    800028ae:	2a1c                	fld	fa5,16(a2)
    800028b0:	3268                	fld	fa0,224(a2)
    800028b2:	0e863f07          	fld	ft10,232(a2)
    800028b6:	f0f43c27          	fsd	fa5,-232(s0)
    800028ba:	2e1c                	fld	fa5,24(a2)
    800028bc:	19063587          	fld	fa1,400(a2)
    800028c0:	19863287          	fld	ft5,408(a2)
    800028c4:	f0f43827          	fsd	fa5,-240(s0)
    800028c8:	1a063207          	fld	ft4,416(a2)
    800028cc:	1a863187          	fld	ft3,424(a2)
    800028d0:	1b063e87          	fld	ft9,432(a2)
    800028d4:	25863607          	fld	fa2,600(a2)
    800028d8:	26063687          	fld	fa3,608(a2)
    800028dc:	26863707          	fld	fa4,616(a2)
    800028e0:	27063787          	fld	fa5,624(a2)
    800028e4:	27863e07          	fld	ft8,632(a2)
    800028e8:	234a0d53          	fmv.d	fs10,fs4
    800028ec:	87aa                	mv	a5,a0
    800028ee:	8bb6                	mv	s7,a3
    800028f0:	000bb907          	fld	fs2,0(s7)
    800028f4:	0007bc07          	fld	fs8,0(a5)
    800028f8:	f2843307          	fld	ft6,-216(s0)
    800028fc:	0087bb87          	fld	fs7,8(a5)
    80002900:	0107ba87          	fld	fs5,16(a5)
    80002904:	338978c3          	fmadd.d	fa7,fs2,fs8,ft6
    80002908:	f2043307          	fld	ft6,-224(s0)
    8000290c:	180bb487          	fld	fs1,384(s7)
    80002910:	240bb407          	fld	fs0,576(s7)
    80002914:	33797843          	fmadd.d	fa6,fs2,fs7,ft6
    80002918:	f1843307          	fld	ft6,-232(s0)
    8000291c:	0c0bbf87          	fld	ft11,192(s7)
    80002920:	0187ba07          	fld	fs4,24(a5)
    80002924:	335973c3          	fmadd.d	ft7,fs2,fs5,ft6
    80002928:	f1043307          	fld	ft6,-240(s0)
    8000292c:	0bfbf0c3          	fmadd.d	ft1,fs7,ft11,ft1
    80002930:	2a9bf2c3          	fmadd.d	ft5,fs7,fs1,ft5
    80002934:	6a8bfbc3          	fmadd.d	fs7,fs7,fs0,fa3
    80002938:	0207b987          	fld	fs3,32(a5)
    8000293c:	33497343          	fmadd.d	ft6,fs2,fs4,ft6
    80002940:	03faf043          	fmadd.d	ft0,fs5,ft11,ft0
    80002944:	53fa7543          	fmadd.d	fa0,fs4,ft11,fa0
    80002948:	229af243          	fmadd.d	ft4,fs5,fs1,ft4
    8000294c:	1a9a71c3          	fmadd.d	ft3,fs4,fs1,ft3
    80002950:	728afac3          	fmadd.d	fs5,fs5,fs0,fa4
    80002954:	7a8a7a43          	fmadd.d	fs4,fs4,fs0,fa5
    80002958:	248bbb07          	fld	fs6,584(s7)
    8000295c:	2bf4                	fld	fa3,208(a5)
    8000295e:	d3397943          	fmadd.d	fs2,fs2,fs3,fs10
    80002962:	13fc7143          	fmadd.d	ft2,fs8,ft11,ft2
    80002966:	5a9c75c3          	fmadd.d	fa1,fs8,fs1,fa1
    8000296a:	f3f9ffc3          	fmadd.d	ft11,fs3,ft11,ft10
    8000296e:	628c7c43          	fmadd.d	fs8,fs8,fs0,fa2
    80002972:	ea99ff43          	fmadd.d	ft10,fs3,fs1,ft9
    80002976:	008bb487          	fld	fs1,8(s7)
    8000297a:	188bbe87          	fld	ft9,392(s7)
    8000297e:	e289f9c3          	fmadd.d	fs3,fs3,fs0,ft8
    80002982:	0c8bb407          	fld	fs0,200(s7)
    80002986:	2ff8                	fld	fa4,216(a5)
    80002988:	33fc                	fld	fa5,224(a5)
    8000298a:	82d4f843          	fmadd.d	fa6,fs1,fa3,fa6
    8000298e:	0a86f0c3          	fmadd.d	ft1,fa3,fs0,ft1
    80002992:	2bd6f2c3          	fmadd.d	ft5,fa3,ft9,ft5
    80002996:	bb66f6c3          	fmadd.d	fa3,fa3,fs6,fs7
    8000299a:	27f0                	fld	fa2,200(a5)
    8000299c:	0e87be07          	fld	ft8,232(a5)
    800029a0:	02877043          	fmadd.d	ft0,fa4,fs0,ft0
    800029a4:	5287f543          	fmadd.d	fa0,fa5,fs0,fa0
    800029a8:	3ae4f3c3          	fmadd.d	ft7,fs1,fa4,ft7
    800029ac:	32f4f343          	fmadd.d	ft6,fs1,fa5,ft6
    800029b0:	23d77243          	fmadd.d	ft4,fa4,ft9,ft4
    800029b4:	1bd7f1c3          	fmadd.d	ft3,fa5,ft9,ft3
    800029b8:	ab677743          	fmadd.d	fa4,fa4,fs6,fs5
    800029bc:	a367f7c3          	fmadd.d	fa5,fa5,fs6,fs4
    800029c0:	1987bb87          	fld	fs7,408(a5)
    800029c4:	8ac4f8c3          	fmadd.d	fa7,fs1,fa2,fa7
    800029c8:	93c4f4c3          	fmadd.d	fs1,fs1,ft8,fs2
    800029cc:	250bb907          	fld	fs2,592(s7)
    800029d0:	1a87ba87          	fld	fs5,424(a5)
    800029d4:	12867143          	fmadd.d	ft2,fa2,fs0,ft2
    800029d8:	5bd675c3          	fmadd.d	fa1,fa2,ft9,fa1
    800029dc:	fa8e7443          	fmadd.d	fs0,ft8,fs0,ft11
    800029e0:	c3667643          	fmadd.d	fa2,fa2,fs6,fs8
    800029e4:	f3de7ec3          	fmadd.d	ft9,ft8,ft9,ft10
    800029e8:	9b6e7e43          	fmadd.d	ft8,ft8,fs6,fs3
    800029ec:	1a07bb07          	fld	fs6,416(a5)
    800029f0:	6b2bf6c3          	fmadd.d	fa3,fs7,fs2,fa3
    800029f4:	010bbf87          	fld	ft11,16(s7)
    800029f8:	732b7743          	fmadd.d	fa4,fs6,fs2,fa4
    800029fc:	7b2af7c3          	fmadd.d	fa5,fs5,fs2,fa5
    80002a00:	1907bc07          	fld	fs8,400(a5)
    80002a04:	335ff343          	fmadd.d	ft6,ft11,fs5,ft6
    80002a08:	1b07ba07          	fld	fs4,432(a5)
    80002a0c:	0d0bbf07          	fld	ft10,208(s7)
    80002a10:	8b8ff8c3          	fmadd.d	fa7,ft11,fs8,fa7
    80002a14:	3b6ff3c3          	fmadd.d	ft7,ft11,fs6,ft7
    80002a18:	f0d43427          	fsd	fa3,-248(s0)
    80002a1c:	190bb987          	fld	fs3,400(s7)
    80002a20:	53eafcc3          	fmadd.d	fs9,fs5,ft10,fa0
    80002a24:	f0e43027          	fsd	fa4,-256(s0)
    80002a28:	837ff843          	fmadd.d	fa6,ft11,fs7,fa6
    80002a2c:	2707b507          	fld	fa0,624(a5)
    80002a30:	4b4fffc3          	fmadd.d	ft11,ft11,fs4,fs1
    80002a34:	eef43c27          	fsd	fa5,-264(s0)
    80002a38:	018bb787          	fld	fa5,24(s7)
    80002a3c:	03eb74c3          	fmadd.d	fs1,fs6,ft10,ft0
    80002a40:	1b3af1c3          	fmadd.d	ft3,fs5,fs3,ft3
    80002a44:	2687b007          	fld	ft0,616(a5)
    80002a48:	2587ba87          	fld	fs5,600(a5)
    80002a4c:	32a7f343          	fmadd.d	ft6,fa5,fa0,ft6
    80002a50:	0bebf0c3          	fmadd.d	ft1,fs7,ft10,ft1
    80002a54:	2b3bf2c3          	fmadd.d	ft5,fs7,fs3,ft5
    80002a58:	233b7243          	fmadd.d	ft4,fs6,fs3,ft4
    80002a5c:	2787bb87          	fld	fs7,632(a5)
    80002a60:	eb3a7b43          	fmadd.d	fs6,fs4,fs3,ft9
    80002a64:	2607be87          	fld	ft9,608(a5)
    80002a68:	8b57f8c3          	fmadd.d	fa7,fa5,fs5,fa7
    80002a6c:	3a07f3c3          	fmadd.d	ft7,fa5,ft0,ft7
    80002a70:	632c7dc3          	fmadd.d	fs11,fs8,fs2,fa2
    80002a74:	13ec7143          	fmadd.d	ft2,fs8,ft10,ft2
    80002a78:	5b3c75c3          	fmadd.d	fa1,fs8,fs3,fa1
    80002a7c:	83d7f843          	fmadd.d	fa6,fa5,ft9,fa6
    80002a80:	020bbc07          	fld	fs8,32(s7)
    80002a84:	fb77f7c3          	fmadd.d	fa5,fa5,fs7,ft11
    80002a88:	3387bf87          	fld	ft11,824(a5)
    80002a8c:	e32a7643          	fmadd.d	fa2,fs4,fs2,ft8
    80002a90:	43ea7f43          	fmadd.d	ft10,fs4,ft10,fs0
    80002a94:	3307b907          	fld	fs2,816(a5)
    80002a98:	3207ba07          	fld	fs4,800(a5)
    80002a9c:	33fc7343          	fmadd.d	ft6,fs8,ft11,ft6
    80002aa0:	3287b987          	fld	fs3,808(a5)
    80002aa4:	3407b407          	fld	fs0,832(a5)
    80002aa8:	8b4c78c3          	fmadd.d	fa7,fs8,fs4,fa7
    80002aac:	3b2c73c3          	fmadd.d	ft7,fs8,fs2,ft7
    80002ab0:	028bbd07          	fld	fs10,40(s7)
    80002ab4:	833c7843          	fmadd.d	fa6,fs8,fs3,fa6
    80002ab8:	7a8c7c43          	fmadd.d	fs8,fs8,fs0,fa5
    80002abc:	4007b787          	fld	fa5,1024(a5)
    80002ac0:	3f87b707          	fld	fa4,1016(a5)
    80002ac4:	eec43827          	fsd	fa2,-272(s0)
    80002ac8:	32fd7343          	fmadd.d	ft6,fs10,fa5,ft6
    80002acc:	3e87b607          	fld	fa2,1000(a5)
    80002ad0:	3aed73c3          	fmadd.d	ft7,fs10,fa4,ft7
    80002ad4:	3f07b687          	fld	fa3,1008(a5)
    80002ad8:	8acd78c3          	fmadd.d	fa7,fs10,fa2,fa7
    80002adc:	4087be07          	fld	ft8,1032(a5)
    80002ae0:	030b8b93          	addi	s7,s7,48
    80002ae4:	f0643827          	fsd	ft6,-240(s0)
    80002ae8:	0a8bb307          	fld	ft6,168(s7)
    80002aec:	f0743c27          	fsd	ft7,-232(s0)
    80002af0:	168bb387          	fld	ft7,360(s7)
    80002af4:	4a6074c3          	fmadd.d	fs1,ft0,ft6,fs1
    80002af8:	126af143          	fmadd.d	ft2,fs5,ft6,ft2
    80002afc:	0a6ef0c3          	fmadd.d	ft1,ft9,ft6,ft1
    80002b00:	f3143427          	fsd	fa7,-216(s0)
    80002b04:	82dd78c3          	fmadd.d	fa7,fs10,fa3,fa6
    80002b08:	f0843807          	fld	fa6,-248(s0)
    80002b0c:	c3cd7d43          	fmadd.d	fs10,fs10,ft8,fs8
    80002b10:	ca657c43          	fmadd.d	fs8,fa0,ft6,fs9
    80002b14:	f26bfcc3          	fmadd.d	fs9,fs7,ft6,ft10
    80002b18:	228bb307          	fld	ft6,552(s7)
    80002b1c:	5a7af5c3          	fmadd.d	fa1,fs5,ft7,fa1
    80002b20:	2a7ef2c3          	fmadd.d	ft5,ft9,ft7,ft5
    80002b24:	22707243          	fmadd.d	ft4,ft0,ft7,ft4
    80002b28:	1a7571c3          	fmadd.d	ft3,fa0,ft7,ft3
    80002b2c:	b27bf3c3          	fmadd.d	ft7,fs7,ft7,fs6
    80002b30:	da6afb43          	fmadd.d	fs6,fs5,ft6,fs11
    80002b34:	826efac3          	fmadd.d	fs5,ft9,ft6,fa6
    80002b38:	f0043807          	fld	fa6,-256(s0)
    80002b3c:	f3143027          	fsd	fa7,-224(s0)
    80002b40:	0b0bb887          	fld	fa7,176(s7)
    80002b44:	82607f43          	fmadd.d	ft10,ft0,ft6,fa6
    80002b48:	ef843007          	fld	ft0,-264(s0)
    80002b4c:	131a7143          	fmadd.d	ft2,fs4,fa7,ft2
    80002b50:	0b19f0c3          	fmadd.d	ft1,fs3,fa7,ft1
    80002b54:	02657543          	fmadd.d	fa0,fa0,ft6,ft0
    80002b58:	ef043007          	fld	ft0,-272(s0)
    80002b5c:	170bbe87          	fld	ft9,368(s7)
    80002b60:	230bb807          	fld	fa6,560(s7)
    80002b64:	026bf343          	fmadd.d	ft6,fs7,ft6,ft0
    80002b68:	5bda75c3          	fmadd.d	fa1,fs4,ft9,fa1
    80002b6c:	4b197043          	fmadd.d	ft0,fs2,fa7,fs1
    80002b70:	2bd9f2c3          	fmadd.d	ft5,fs3,ft9,ft5
    80002b74:	c31ff4c3          	fmadd.d	fs1,ft11,fa7,fs8
    80002b78:	23d97243          	fmadd.d	ft4,fs2,ft9,ft4
    80002b7c:	1bdff1c3          	fmadd.d	ft3,ft11,ft9,ft3
    80002b80:	f3097943          	fmadd.d	fs2,fs2,fa6,ft10
    80002b84:	530fffc3          	fmadd.d	ft11,ft11,fa6,fa0
    80002b88:	3bd47ec3          	fmadd.d	ft9,fs0,ft9,ft7
    80002b8c:	b30a7a43          	fmadd.d	fs4,fs4,fa6,fs6
    80002b90:	ab09f9c3          	fmadd.d	fs3,fs3,fa6,fs5
    80002b94:	cb1478c3          	fmadd.d	fa7,fs0,fa7,fs9
    80002b98:	33047843          	fmadd.d	fa6,fs0,fa6,ft6
    80002b9c:	0b8bbf07          	fld	ft10,184(s7)
    80002ba0:	178bb387          	fld	ft7,376(s7)
    80002ba4:	238bb307          	fld	ft6,568(s7)
    80002ba8:	13e67143          	fmadd.d	ft2,fa2,ft10,ft2
    80002bac:	0be6f0c3          	fmadd.d	ft1,fa3,ft10,ft1
    80002bb0:	03e77043          	fmadd.d	ft0,fa4,ft10,ft0
    80002bb4:	4be7f543          	fmadd.d	fa0,fa5,ft10,fs1
    80002bb8:	5a7675c3          	fmadd.d	fa1,fa2,ft7,fa1
    80002bbc:	8bee7f43          	fmadd.d	ft10,ft8,ft10,fa7
    80002bc0:	2a76f2c3          	fmadd.d	ft5,fa3,ft7,ft5
    80002bc4:	22777243          	fmadd.d	ft4,fa4,ft7,ft4
    80002bc8:	1a77f1c3          	fmadd.d	ft3,fa5,ft7,ft3
    80002bcc:	ea7e7ec3          	fmadd.d	ft9,ft8,ft7,ft9
    80002bd0:	a2667643          	fmadd.d	fa2,fa2,ft6,fs4
    80002bd4:	9a66f6c3          	fmadd.d	fa3,fa3,ft6,fs3
    80002bd8:	92677743          	fmadd.d	fa4,fa4,ft6,fs2
    80002bdc:	fa67f7c3          	fmadd.d	fa5,fa5,ft6,ft11
    80002be0:	826e7e43          	fmadd.d	ft8,ft8,ft6,fa6
    80002be4:	4b078793          	addi	a5,a5,1200
    80002be8:	d0bb94e3          	bne	s7,a1,800028f0 <mm_cb+0x79a>
    80002bec:	f2843407          	fld	fs0,-216(s0)
    80002bf0:	03a63027          	fsd	fs10,32(a2)
    80002bf4:	0c263427          	fsd	ft2,200(a2)
    80002bf8:	a200                	fsd	fs0,0(a2)
    80002bfa:	f2043407          	fld	fs0,-224(s0)
    80002bfe:	0c163827          	fsd	ft1,208(a2)
    80002c02:	0c063c27          	fsd	ft0,216(a2)
    80002c06:	a600                	fsd	fs0,8(a2)
    80002c08:	f1843407          	fld	fs0,-232(s0)
    80002c0c:	b268                	fsd	fa0,224(a2)
    80002c0e:	0fe63427          	fsd	ft10,232(a2)
    80002c12:	aa00                	fsd	fs0,16(a2)
    80002c14:	f1043407          	fld	fs0,-240(s0)
    80002c18:	18b63827          	fsd	fa1,400(a2)
    80002c1c:	18563c27          	fsd	ft5,408(a2)
    80002c20:	ae00                	fsd	fs0,24(a2)
    80002c22:	1a463027          	fsd	ft4,416(a2)
    80002c26:	1a363427          	fsd	ft3,424(a2)
    80002c2a:	1bd63827          	fsd	ft9,432(a2)
    80002c2e:	24c63c27          	fsd	fa2,600(a2)
    80002c32:	26d63027          	fsd	fa3,608(a2)
    80002c36:	26e63427          	fsd	fa4,616(a2)
    80002c3a:	26f63827          	fsd	fa5,624(a2)
    80002c3e:	27c63c27          	fsd	ft8,632(a2)
    80002c42:	02850513          	addi	a0,a0,40
    80002c46:	02860613          	addi	a2,a2,40
    80002c4a:	c4a914e3          	bne	s2,a0,80002892 <mm_cb+0x73c>
    80002c4e:	47e5                	li	a5,25
    80002c50:	4761                	li	a4,24
    80002c52:	e03e                	sd	a5,0(sp)
    80002c54:	88a6                	mv	a7,s1
    80002c56:	883e                	mv	a6,a5
    80002c58:	4581                	li	a1,0
    80002c5a:	863a                	mv	a2,a4
    80002c5c:	87ca                	mv	a5,s2
    80002c5e:	4511                	li	a0,4
    80002c60:	ba0ff0ef          	jal	80002000 <mm_naive>
    80002c64:	32048493          	addi	s1,s1,800
    80002c68:	300b8593          	addi	a1,s7,768
    80002c6c:	c09a1ee3          	bne	s4,s1,80002888 <mm_cb+0x732>
    80002c70:	d5043703          	ld	a4,-688(s0)
    80002c74:	4865                	li	a6,25
    80002c76:	d4843903          	ld	s2,-696(s0)
    80002c7a:	6685                	lui	a3,0x1
    80002c7c:	e042                	sd	a6,0(sp)
    80002c7e:	de843883          	ld	a7,-536(s0)
    80002c82:	20068693          	addi	a3,a3,512 # 1200 <_start-0x7fffee00>
    80002c86:	96ba                	add	a3,a3,a4
    80002c88:	4761                	li	a4,24
    80002c8a:	87ce                	mv	a5,s3
    80002c8c:	85c2                	mv	a1,a6
    80002c8e:	863a                	mv	a2,a4
    80002c90:	4501                	li	a0,0
    80002c92:	b6eff0ef          	jal	80002000 <mm_naive>
    80002c96:	ea043783          	ld	a5,-352(s0)
    80002c9a:	0961                	addi	s2,s2,24
    80002c9c:	84da                	mv	s1,s6
    80002c9e:	b8f96ee3          	bltu	s2,a5,8000283a <mm_cb+0x6e4>
    80002ca2:	ec843783          	ld	a5,-312(s0)
    80002ca6:	ea043683          	ld	a3,-352(s0)
    80002caa:	8766                	mv	a4,s9
    80002cac:	866a                	mv	a2,s10
    80002cae:	85ee                	mv	a1,s11
    80002cb0:	d7043c83          	ld	s9,-656(s0)
    80002cb4:	d6043b03          	ld	s6,-672(s0)
    80002cb8:	d7843d03          	ld	s10,-648(s0)
    80002cbc:	d5843983          	ld	s3,-680(s0)
    80002cc0:	d6843d83          	ld	s11,-664(s0)
    80002cc4:	5cf6eee3          	bltu	a3,a5,80003aa0 <mm_cb+0x194a>
    80002cc8:	ed043783          	ld	a5,-304(s0)
    80002ccc:	0b65                	addi	s6,s6,25
    80002cce:	0c848493          	addi	s1,s1,200
    80002cd2:	b0fb69e3          	bltu	s6,a5,800027e4 <mm_cb+0x68e>
    80002cd6:	e0843a83          	ld	s5,-504(s0)
    80002cda:	e0043283          	ld	t0,-512(s0)
    80002cde:	df843483          	ld	s1,-520(s0)
    80002ce2:	8bba                	mv	s7,a4
    80002ce4:	8c32                	mv	s8,a2
    80002ce6:	8a2e                	mv	s4,a1
    80002ce8:	e8043783          	ld	a5,-384(s0)
    80002cec:	ee043703          	ld	a4,-288(s0)
    80002cf0:	97ba                	add	a5,a5,a4
    80002cf2:	f0f43023          	sd	a5,-256(s0)
    80002cf6:	ed043783          	ld	a5,-304(s0)
    80002cfa:	1d47ef63          	bltu	a5,s4,80002ed8 <mm_cb+0xd82>
    80002cfe:	f0043783          	ld	a5,-256(s0)
    80002d02:	e8043703          	ld	a4,-384(s0)
    80002d06:	04e1                	addi	s1,s1,24
    80002d08:	eef43023          	sd	a5,-288(s0)
    80002d0c:	ee843783          	ld	a5,-280(s0)
    80002d10:	97ba                	add	a5,a5,a4
    80002d12:	eef43423          	sd	a5,-280(s0)
    80002d16:	e4043783          	ld	a5,-448(s0)
    80002d1a:	9bbe                	add	s7,s7,a5
    80002d1c:	a184e8e3          	bltu	s1,s8,8000272c <mm_cb+0x5d6>
    80002d20:	e2043903          	ld	s2,-480(s0)
    80002d24:	85e2                	mv	a1,s8
    80002d26:	8d52                	mv	s10,s4
    80002d28:	ea843f83          	ld	t6,-344(s0)
    80002d2c:	ec843e83          	ld	t4,-312(s0)
    80002d30:	e1843a03          	ld	s4,-488(s0)
    80002d34:	ec043803          	ld	a6,-320(s0)
    80002d38:	e1043483          	ld	s1,-496(s0)
    80002d3c:	5925e7e3          	bltu	a1,s2,80003aca <mm_cb+0x1974>
    80002d40:	47e1                	li	a5,24
    80002d42:	0fa7f663          	bgeu	a5,s10,80002e2e <mm_cb+0xcd8>
    80002d46:	6014                	ld	a3,0(s0)
    80002d48:	000e17b7          	lui	a5,0xe1
    80002d4c:	aaaab737          	lui	a4,0xaaaab
    80002d50:	47b78793          	addi	a5,a5,1147 # e147b <_start-0x7ff1eb85>
    80002d54:	23d71537          	lui	a0,0x23d71
    80002d58:	aab70713          	addi	a4,a4,-1365 # ffffffffaaaaaaab <__global_pointer$+0xffffffff2aaa4e3b>
    80002d5c:	00169893          	slli	a7,a3,0x1
    80002d60:	07b2                	slli	a5,a5,0xc
    80002d62:	a3d50513          	addi	a0,a0,-1475 # 23d70a3d <_start-0x5c28f5c3>
    80002d66:	e1578793          	addi	a5,a5,-491
    80002d6a:	1506                	slli	a0,a0,0x21
    80002d6c:	02071913          	slli	s2,a4,0x20
    80002d70:	98b6                	add	a7,a7,a3
    80002d72:	6385                	lui	t2,0x1
    80002d74:	953e                	add	a0,a0,a5
    80002d76:	993a                	add	s2,s2,a4
    80002d78:	088e                	slli	a7,a7,0x3
    80002d7a:	00369a13          	slli	s4,a3,0x3
    80002d7e:	2c038393          	addi	t2,t2,704 # 12c0 <_start-0x7fffed40>
    80002d82:	4f01                	li	t5,0
    80002d84:	4e81                	li	t4,0
    80002d86:	25800993          	li	s3,600
    80002d8a:	032eb833          	mulhu	a6,t4,s2
    80002d8e:	003f1e13          	slli	t3,t5,0x3
    80002d92:	9e26                	add	t3,t3,s1
    80002d94:	4301                	li	t1,0
    80002d96:	00485813          	srli	a6,a6,0x4
    80002d9a:	03f80833          	mul	a6,a6,t6
    80002d9e:	0c0e0613          	addi	a2,t3,192
    80002da2:	4281                	li	t0,0
    80002da4:	02a337b3          	mulhu	a5,t1,a0
    80002da8:	40f30733          	sub	a4,t1,a5
    80002dac:	8305                	srli	a4,a4,0x1
    80002dae:	00e786b3          	add	a3,a5,a4
    80002db2:	8291                	srli	a3,a3,0x4
    80002db4:	96c2                	add	a3,a3,a6
    80002db6:	027686b3          	mul	a3,a3,t2
    80002dba:	eb843783          	ld	a5,-328(s0)
    80002dbe:	96be                	add	a3,a3,a5
    80002dc0:	f4060793          	addi	a5,a2,-192
    80002dc4:	8736                	mv	a4,a3
    80002dc6:	00073087          	fld	ft1,0(a4)
    80002dca:	00873007          	fld	ft0,8(a4)
    80002dce:	2b08                	fld	fa0,16(a4)
    80002dd0:	2f0c                	fld	fa1,24(a4)
    80002dd2:	3310                	fld	fa2,32(a4)
    80002dd4:	3714                	fld	fa3,40(a4)
    80002dd6:	3b18                	fld	fa4,48(a4)
    80002dd8:	3f1c                	fld	fa5,56(a4)
    80002dda:	04078793          	addi	a5,a5,64
    80002dde:	fc17b027          	fsd	ft1,-64(a5)
    80002de2:	fc07b427          	fsd	ft0,-56(a5)
    80002de6:	fca7b827          	fsd	fa0,-48(a5)
    80002dea:	fcb7bc27          	fsd	fa1,-40(a5)
    80002dee:	fec7b027          	fsd	fa2,-32(a5)
    80002df2:	fed7b427          	fsd	fa3,-24(a5)
    80002df6:	fee7b827          	fsd	fa4,-16(a5)
    80002dfa:	fef7bc27          	fsd	fa5,-8(a5)
    80002dfe:	04070713          	addi	a4,a4,64
    80002e02:	fcc792e3          	bne	a5,a2,80002dc6 <mm_cb+0xc70>
    80002e06:	22fc                	fld	fa5,192(a3)
    80002e08:	02e5                	addi	t0,t0,25
    80002e0a:	0c868693          	addi	a3,a3,200
    80002e0e:	a39c                	fsd	fa5,0(a5)
    80002e10:	01478633          	add	a2,a5,s4
    80002e14:	fb3296e3          	bne	t0,s3,80002dc0 <mm_cb+0xc6a>
    80002e18:	ed043783          	ld	a5,-304(s0)
    80002e1c:	0365                	addi	t1,t1,25
    80002e1e:	0c8e0e13          	addi	t3,t3,200
    80002e22:	f6f36ee3          	bltu	t1,a5,80002d9e <mm_cb+0xc48>
    80002e26:	0ee1                	addi	t4,t4,24
    80002e28:	9f46                	add	t5,t5,a7
    80002e2a:	f6bee0e3          	bltu	t4,a1,80002d8a <mm_cb+0xc34>
    80002e2e:	d3040113          	addi	sp,s0,-720
    80002e32:	2c813083          	ld	ra,712(sp)
    80002e36:	2c013403          	ld	s0,704(sp)
    80002e3a:	2b813483          	ld	s1,696(sp)
    80002e3e:	2b013903          	ld	s2,688(sp)
    80002e42:	2a813983          	ld	s3,680(sp)
    80002e46:	2a013a03          	ld	s4,672(sp)
    80002e4a:	29813a83          	ld	s5,664(sp)
    80002e4e:	29013b03          	ld	s6,656(sp)
    80002e52:	28813b83          	ld	s7,648(sp)
    80002e56:	28013c03          	ld	s8,640(sp)
    80002e5a:	27813c83          	ld	s9,632(sp)
    80002e5e:	27013d03          	ld	s10,624(sp)
    80002e62:	26813d83          	ld	s11,616(sp)
    80002e66:	25813407          	fld	fs0,600(sp)
    80002e6a:	25013487          	fld	fs1,592(sp)
    80002e6e:	24813907          	fld	fs2,584(sp)
    80002e72:	24013987          	fld	fs3,576(sp)
    80002e76:	23813a07          	fld	fs4,568(sp)
    80002e7a:	23013a87          	fld	fs5,560(sp)
    80002e7e:	22813b07          	fld	fs6,552(sp)
    80002e82:	22013b87          	fld	fs7,544(sp)
    80002e86:	21813c07          	fld	fs8,536(sp)
    80002e8a:	21013c87          	fld	fs9,528(sp)
    80002e8e:	20813d07          	fld	fs10,520(sp)
    80002e92:	20013d87          	fld	fs11,512(sp)
    80002e96:	2d010113          	addi	sp,sp,720
    80002e9a:	8082                	ret
    80002e9c:	ec843803          	ld	a6,-312(s0)
    80002ea0:	e8843703          	ld	a4,-376(s0)
    80002ea4:	4301                	li	t1,0
    80002ea6:	64081363          	bnez	a6,800034ec <mm_cb+0x1396>
    80002eaa:	01930713          	addi	a4,t1,25
    80002eae:	03230313          	addi	t1,t1,50
    80002eb2:	60d77563          	bgeu	a4,a3,800034bc <mm_cb+0x1366>
    80002eb6:	fed36ae3          	bltu	t1,a3,80002eaa <mm_cb+0xd54>
    80002eba:	eeb43023          	sd	a1,-288(s0)
    80002ebe:	e8043783          	ld	a5,-384(s0)
    80002ec2:	ee043703          	ld	a4,-288(s0)
    80002ec6:	eec43423          	sd	a2,-280(s0)
    80002eca:	97ba                	add	a5,a5,a4
    80002ecc:	f0f43023          	sd	a5,-256(s0)
    80002ed0:	ed043783          	ld	a5,-304(s0)
    80002ed4:	e347f5e3          	bgeu	a5,s4,80002cfe <mm_cb+0xba8>
    80002ed8:	ec843783          	ld	a5,-312(s0)
    80002edc:	e20781e3          	beqz	a5,80002cfe <mm_cb+0xba8>
    80002ee0:	aaaab7b7          	lui	a5,0xaaaab
    80002ee4:	aab78793          	addi	a5,a5,-1365 # ffffffffaaaaaaab <__global_pointer$+0xffffffff2aaa4e3b>
    80002ee8:	02079713          	slli	a4,a5,0x20
    80002eec:	97ba                	add	a5,a5,a4
    80002eee:	eb043703          	ld	a4,-336(s0)
    80002ef2:	e0f43423          	sd	a5,-504(s0)
    80002ef6:	003b9793          	slli	a5,s7,0x3
    80002efa:	00f70333          	add	t1,a4,a5
    80002efe:	e5043783          	ld	a5,-432(s0)
    80002f02:	ee043703          	ld	a4,-288(s0)
    80002f06:	db843383          	ld	t2,-584(s0)
    80002f0a:	df743823          	sd	s7,-528(s0)
    80002f0e:	00e786b3          	add	a3,a5,a4
    80002f12:	e6d43c23          	sd	a3,-392(s0)
    80002f16:	ee843683          	ld	a3,-280(s0)
    80002f1a:	df843423          	sd	s8,-536(s0)
    80002f1e:	d9443823          	sd	s4,-624(s0)
    80002f22:	97b6                	add	a5,a5,a3
    80002f24:	eef43823          	sd	a5,-272(s0)
    80002f28:	e3843783          	ld	a5,-456(s0)
    80002f2c:	4d01                	li	s10,0
    80002f2e:	de943c23          	sd	s1,-520(s0)
    80002f32:	97ba                	add	a5,a5,a4
    80002f34:	e2f43823          	sd	a5,-464(s0)
    80002f38:	8b9a                	mv	s7,t1
    80002f3a:	8c1e                	mv	s8,t2
    80002f3c:	8a16                	mv	s4,t0
    80002f3e:	ec843783          	ld	a5,-312(s0)
    80002f42:	41a783b3          	sub	t2,a5,s10
    80002f46:	47e1                	li	a5,24
    80002f48:	0077f363          	bgeu	a5,t2,80002f4e <mm_cb+0xdf8>
    80002f4c:	83be                	mv	t2,a5
    80002f4e:	e0843783          	ld	a5,-504(s0)
    80002f52:	e3843703          	ld	a4,-456(s0)
    80002f56:	00339913          	slli	s2,t2,0x3
    80002f5a:	02f3b7b3          	mulhu	a5,t2,a5
    80002f5e:	9762                	add	a4,a4,s8
    80002f60:	eee43c23          	sd	a4,-264(s0)
    80002f64:	4719                	li	a4,6
    80002f66:	f0e43423          	sd	a4,-248(s0)
    80002f6a:	ec043703          	ld	a4,-320(s0)
    80002f6e:	995e                	add	s2,s2,s7
    80002f70:	8b5e                	mv	s6,s7
    80002f72:	f0043823          	sd	zero,-240(s0)
    80002f76:	8389                	srli	a5,a5,0x2
    80002f78:	02f70733          	mul	a4,a4,a5
    80002f7c:	00179493          	slli	s1,a5,0x1
    80002f80:	94be                	add	s1,s1,a5
    80002f82:	0492                	slli	s1,s1,0x4
    80002f84:	94de                	add	s1,s1,s7
    80002f86:	00171793          	slli	a5,a4,0x1
    80002f8a:	97ba                	add	a5,a5,a4
    80002f8c:	0792                	slli	a5,a5,0x4
    80002f8e:	e0f43023          	sd	a5,-512(s0)
    80002f92:	e2843783          	ld	a5,-472(s0)
    80002f96:	4711                	li	a4,4
    80002f98:	50f77d63          	bgeu	a4,a5,800034b2 <mm_cb+0x135c>
    80002f9c:	f1043783          	ld	a5,-240(s0)
    80002fa0:	e0043503          	ld	a0,-512(s0)
    80002fa4:	8ee2                	mv	t4,s8
    80002fa6:	00379893          	slli	a7,a5,0x3
    80002faa:	ee043783          	ld	a5,-288(s0)
    80002fae:	4f01                	li	t5,0
    80002fb0:	01178e33          	add	t3,a5,a7
    80002fb4:	e7843783          	ld	a5,-392(s0)
    80002fb8:	011786b3          	add	a3,a5,a7
    80002fbc:	ee843783          	ld	a5,-280(s0)
    80002fc0:	01178333          	add	t1,a5,a7
    80002fc4:	ef043783          	ld	a5,-272(s0)
    80002fc8:	01178833          	add	a6,a5,a7
    80002fcc:	e5843783          	ld	a5,-424(s0)
    80002fd0:	016782b3          	add	t0,a5,s6
    80002fd4:	00978fb3          	add	t6,a5,s1
    80002fd8:	000e3f87          	fld	ft11,0(t3)
    80002fdc:	008e3f07          	fld	ft10,8(t3)
    80002fe0:	010e3e87          	fld	ft9,16(t3)
    80002fe4:	018e3e07          	fld	ft8,24(t3)
    80002fe8:	020e3587          	fld	fa1,32(t3)
    80002fec:	0006b187          	fld	ft3,0(a3)
    80002ff0:	0086b107          	fld	ft2,8(a3)
    80002ff4:	0106b087          	fld	ft1,16(a3)
    80002ff8:	0186b007          	fld	ft0,24(a3)
    80002ffc:	3288                	fld	fa0,32(a3)
    80002ffe:	00033887          	fld	fa7,0(t1)
    80003002:	00833807          	fld	fa6,8(t1)
    80003006:	01033387          	fld	ft7,16(t1)
    8000300a:	01833307          	fld	ft6,24(t1)
    8000300e:	02033607          	fld	fa2,32(t1)
    80003012:	00083287          	fld	ft5,0(a6)
    80003016:	00883207          	fld	ft4,8(a6)
    8000301a:	01083687          	fld	fa3,16(a6)
    8000301e:	01883707          	fld	fa4,24(a6)
    80003022:	02083787          	fld	fa5,32(a6)
    80003026:	2e9b7963          	bgeu	s6,s1,80003318 <mm_cb+0x11c2>
    8000302a:	85f6                	mv	a1,t4
    8000302c:	01dd87b3          	add	a5,s11,t4
    80003030:	8616                	mv	a2,t0
    80003032:	875a                	mv	a4,s6
    80003034:	f2743423          	sd	t2,-216(s0)
    80003038:	f3a43023          	sd	s10,-224(s0)
    8000303c:	f1b43c23          	sd	s11,-232(s0)
    80003040:	01970d33          	add	s10,a4,s9
    80003044:	000d3407          	fld	fs0,0(s10)
    80003048:	0005bb87          	fld	fs7,0(a1)
    8000304c:	0085bb07          	fld	fs6,8(a1)
    80003050:	0105ba87          	fld	fs5,16(a1)
    80003054:	0185ba07          	fld	fs4,24(a1)
    80003058:	0205b987          	fld	fs3,32(a1)
    8000305c:	019603b3          	add	t2,a2,s9
    80003060:	2304                	fld	fs1,0(a4)
    80003062:	0003b907          	fld	fs2,0(t2)
    80003066:	6289f643          	fmadd.d	fa2,fs3,fs0,fa2
    8000306a:	8a8bf8c3          	fmadd.d	fa7,fs7,fs0,fa7
    8000306e:	828b7843          	fmadd.d	fa6,fs6,fs0,fa6
    80003072:	3a8af3c3          	fmadd.d	ft7,fs5,fs0,ft7
    80003076:	328a7343          	fmadd.d	ft6,fs4,fs0,ft6
    8000307a:	2200                	fld	fs0,0(a2)
    8000307c:	7b29f7c3          	fmadd.d	fa5,fs3,fs2,fa5
    80003080:	5b34f5c3          	fmadd.d	fa1,fs1,fs3,fa1
    80003084:	1a8bf1c3          	fmadd.d	ft3,fs7,fs0,ft3
    80003088:	128b7143          	fmadd.d	ft2,fs6,fs0,ft2
    8000308c:	0a8af0c3          	fmadd.d	ft1,fs5,fs0,ft1
    80003090:	028a7043          	fmadd.d	ft0,fs4,fs0,ft0
    80003094:	2b2bf2c3          	fmadd.d	ft5,fs7,fs2,ft5
    80003098:	fb74ffc3          	fmadd.d	ft11,fs1,fs7,ft11
    8000309c:	232b7243          	fmadd.d	ft4,fs6,fs2,ft4
    800030a0:	f364ff43          	fmadd.d	ft10,fs1,fs6,ft10
    800030a4:	6b2af6c3          	fmadd.d	fa3,fs5,fs2,fa3
    800030a8:	eb54fec3          	fmadd.d	ft9,fs1,fs5,ft9
    800030ac:	732a7743          	fmadd.d	fa4,fs4,fs2,fa4
    800030b0:	e344fe43          	fmadd.d	ft8,fs1,fs4,ft8
    800030b4:	5289f543          	fmadd.d	fa0,fs3,fs0,fa0
    800030b8:	00863b87          	fld	fs7,8(a2)
    800030bc:	2700                	fld	fs0,8(a4)
    800030be:	0207bc07          	fld	fs8,32(a5)
    800030c2:	008d3907          	fld	fs2,8(s10)
    800030c6:	0007bb07          	fld	fs6,0(a5)
    800030ca:	0083b487          	fld	fs1,8(t2)
    800030ce:	0087ba87          	fld	fs5,8(a5)
    800030d2:	0107ba07          	fld	fs4,16(a5)
    800030d6:	0187b987          	fld	fs3,24(a5)
    800030da:	537c7543          	fmadd.d	fa0,fs8,fs7,fa0
    800030de:	8b2b78c3          	fmadd.d	fa7,fs6,fs2,fa7
    800030e2:	7299f743          	fmadd.d	fa4,fs3,fs1,fa4
    800030e6:	2a9b72c3          	fmadd.d	ft5,fs6,fs1,ft5
    800030ea:	fb647fc3          	fmadd.d	ft11,fs0,fs6,ft11
    800030ee:	832af843          	fmadd.d	fa6,fs5,fs2,fa6
    800030f2:	1b7b7b43          	fmadd.d	fs6,fs6,fs7,ft3
    800030f6:	229af243          	fmadd.d	ft4,fs5,fs1,ft4
    800030fa:	f3547f43          	fmadd.d	ft10,fs0,fs5,ft10
    800030fe:	3b2a73c3          	fmadd.d	ft7,fs4,fs2,ft7
    80003102:	137afac3          	fmadd.d	fs5,fs5,fs7,ft2
    80003106:	6a9a76c3          	fmadd.d	fa3,fs4,fs1,fa3
    8000310a:	eb447ec3          	fmadd.d	ft9,fs0,fs4,ft9
    8000310e:	7a9c74c3          	fmadd.d	fs1,fs8,fs1,fa5
    80003112:	0b7a7a43          	fmadd.d	fs4,fs4,fs7,ft1
    80003116:	3329f343          	fmadd.d	ft6,fs3,fs2,ft6
    8000311a:	e3347e43          	fmadd.d	ft8,fs0,fs3,ft8
    8000311e:	632c7943          	fmadd.d	fs2,fs8,fs2,fa2
    80003122:	5b847443          	fmadd.d	fs0,fs0,fs8,fa1
    80003126:	0379f9c3          	fmadd.d	fs3,fs3,fs7,ft0
    8000312a:	00ba8db3          	add	s11,s5,a1
    8000312e:	010d3787          	fld	fa5,16(s10)
    80003132:	01073007          	fld	ft0,16(a4)
    80003136:	2a10                	fld	fa2,16(a2)
    80003138:	000dbb87          	fld	fs7,0(s11)
    8000313c:	008db187          	fld	ft3,8(s11)
    80003140:	010db107          	fld	ft2,16(s11)
    80003144:	018db087          	fld	ft1,24(s11)
    80003148:	020dbc07          	fld	fs8,32(s11)
    8000314c:	0103b587          	fld	fa1,16(t2)
    80003150:	8afbf8c3          	fmadd.d	fa7,fs7,fa5,fa7
    80003154:	92fc7943          	fmadd.d	fs2,fs8,fa5,fs2
    80003158:	2abbf2c3          	fmadd.d	ft5,fs7,fa1,ft5
    8000315c:	82f1f843          	fmadd.d	fa6,ft3,fa5,fa6
    80003160:	22b1f243          	fmadd.d	ft4,ft3,fa1,ft4
    80003164:	3af173c3          	fmadd.d	ft7,ft2,fa5,ft7
    80003168:	6ab176c3          	fmadd.d	fa3,ft2,fa1,fa3
    8000316c:	32f0f343          	fmadd.d	ft6,ft1,fa5,ft6
    80003170:	fb707fc3          	fmadd.d	ft11,ft0,fs7,ft11
    80003174:	72b0f7c3          	fmadd.d	fa5,ft1,fa1,fa4
    80003178:	b2cbfbc3          	fmadd.d	fs7,fs7,fa2,fs6
    8000317c:	4abc75c3          	fmadd.d	fa1,fs8,fa1,fs1
    80003180:	f2307f43          	fmadd.d	ft10,ft0,ft3,ft10
    80003184:	ea207ec3          	fmadd.d	ft9,ft0,ft2,ft9
    80003188:	aac1f1c3          	fmadd.d	ft3,ft3,fa2,fs5
    8000318c:	a2c17143          	fmadd.d	ft2,ft2,fa2,fs4
    80003190:	e2107e43          	fmadd.d	ft8,ft0,ft1,ft8
    80003194:	43807043          	fmadd.d	ft0,ft0,fs8,fs0
    80003198:	9ac0f0c3          	fmadd.d	ft1,ft1,fa2,fs3
    8000319c:	52cc7643          	fmadd.d	fa2,fs8,fa2,fa0
    800031a0:	97d6                	add	a5,a5,s5
    800031a2:	2f08                	fld	fa0,24(a4)
    800031a4:	0007bb07          	fld	fs6,0(a5)
    800031a8:	0087ba87          	fld	fs5,8(a5)
    800031ac:	0107ba07          	fld	fs4,16(a5)
    800031b0:	0187b987          	fld	fs3,24(a5)
    800031b4:	0207bc07          	fld	fs8,32(a5)
    800031b8:	2e18                	fld	fa4,24(a2)
    800031ba:	018d3487          	fld	fs1,24(s10)
    800031be:	0183b407          	fld	fs0,24(t2)
    800031c2:	62ec7cc3          	fmadd.d	fs9,fs8,fa4,fa2
    800031c6:	fb657fc3          	fmadd.d	ft11,fa0,fs6,ft11
    800031ca:	7a89f7c3          	fmadd.d	fa5,fs3,fs0,fa5
    800031ce:	f3557f43          	fmadd.d	ft10,fa0,fs5,ft10
    800031d2:	eb457ec3          	fmadd.d	ft9,fa0,fs4,ft9
    800031d6:	e3357e43          	fmadd.d	ft8,fa0,fs3,ft8
    800031da:	8a9b78c3          	fmadd.d	fa7,fs6,fs1,fa7
    800031de:	03857543          	fmadd.d	fa0,fa0,fs8,ft0
    800031e2:	829af843          	fmadd.d	fa6,fs5,fs1,fa6
    800031e6:	3a9a73c3          	fmadd.d	ft7,fs4,fs1,ft7
    800031ea:	3299f343          	fmadd.d	ft6,fs3,fs1,ft6
    800031ee:	2a8b72c3          	fmadd.d	ft5,fs6,fs0,ft5
    800031f2:	929c74c3          	fmadd.d	fs1,fs8,fs1,fs2
    800031f6:	228af243          	fmadd.d	ft4,fs5,fs0,ft4
    800031fa:	6a8a76c3          	fmadd.d	fa3,fs4,fs0,fa3
    800031fe:	baeb7b43          	fmadd.d	fs6,fs6,fa4,fs7
    80003202:	5a8c7443          	fmadd.d	fs0,fs8,fs0,fa1
    80003206:	1aeafac3          	fmadd.d	fs5,fs5,fa4,ft3
    8000320a:	12ea7a43          	fmadd.d	fs4,fs4,fa4,ft2
    8000320e:	0ae9f9c3          	fmadd.d	fs3,fs3,fa4,ft1
    80003212:	00ba0db3          	add	s11,s4,a1
    80003216:	02073087          	fld	ft1,32(a4)
    8000321a:	02063007          	fld	ft0,32(a2)
    8000321e:	0203b607          	fld	fa2,32(t2)
    80003222:	020d3587          	fld	fa1,32(s10)
    80003226:	008dbb87          	fld	fs7,8(s11)
    8000322a:	010db907          	fld	fs2,16(s11)
    8000322e:	018db187          	fld	ft3,24(s11)
    80003232:	020db107          	fld	ft2,32(s11)
    80003236:	000dbc07          	fld	fs8,0(s11)
    8000323a:	7ac1f743          	fmadd.d	fa4,ft3,fa2,fa5
    8000323e:	5220fd43          	fmadd.d	fs10,ft1,ft2,fa0
    80003242:	82bbf843          	fmadd.d	fa6,fs7,fa1,fa6
    80003246:	3ab973c3          	fmadd.d	ft7,fs2,fa1,ft7
    8000324a:	32b1f343          	fmadd.d	ft6,ft3,fa1,ft6
    8000324e:	22cbf243          	fmadd.d	ft4,fs7,fa2,ft4
    80003252:	6ac976c3          	fmadd.d	fa3,fs2,fa2,fa3
    80003256:	42c17443          	fmadd.d	fs0,ft2,fa2,fs0
    8000325a:	f370ff43          	fmadd.d	ft10,ft1,fs7,ft10
    8000325e:	eb20fec3          	fmadd.d	ft9,ft1,fs2,ft9
    80003262:	e230fe43          	fmadd.d	ft8,ft1,ft3,ft8
    80003266:	aa0bfac3          	fmadd.d	fs5,fs7,ft0,fs5
    8000326a:	a2097a43          	fmadd.d	fs4,fs2,ft0,fs4
    8000326e:	9a01f9c3          	fmadd.d	fs3,ft3,ft0,fs3
    80003272:	ca017bc3          	fmadd.d	fs7,ft2,ft0,fs9
    80003276:	8abc78c3          	fmadd.d	fa7,fs8,fa1,fa7
    8000327a:	2acc72c3          	fmadd.d	ft5,fs8,fa2,ft5
    8000327e:	4ab175c3          	fmadd.d	fa1,ft2,fa1,fs1
    80003282:	fb80ffc3          	fmadd.d	ft11,ft1,fs8,ft11
    80003286:	b20c7b43          	fmadd.d	fs6,fs8,ft0,fs6
    8000328a:	97d6                	add	a5,a5,s5
    8000328c:	02873907          	fld	fs2,40(a4)
    80003290:	3604                	fld	fs1,40(a2)
    80003292:	0007b187          	fld	ft3,0(a5)
    80003296:	028d3607          	fld	fa2,40(s10)
    8000329a:	0087b107          	fld	ft2,8(a5)
    8000329e:	0107b087          	fld	ft1,16(a5)
    800032a2:	0187b007          	fld	ft0,24(a5)
    800032a6:	3388                	fld	fa0,32(a5)
    800032a8:	0283b787          	fld	fa5,40(t2)
    800032ac:	03070713          	addi	a4,a4,48
    800032b0:	8ac1f8c3          	fmadd.d	fa7,ft3,fa2,fa7
    800032b4:	82c17843          	fmadd.d	fa6,ft2,fa2,fa6
    800032b8:	3ac0f3c3          	fmadd.d	ft7,ft1,fa2,ft7
    800032bc:	32c07343          	fmadd.d	ft6,ft0,fa2,ft6
    800032c0:	2af1f2c3          	fmadd.d	ft5,ft3,fa5,ft5
    800032c4:	5ac57643          	fmadd.d	fa2,fa0,fa2,fa1
    800032c8:	22f17243          	fmadd.d	ft4,ft2,fa5,ft4
    800032cc:	6af0f6c3          	fmadd.d	fa3,ft1,fa5,fa3
    800032d0:	72f07743          	fmadd.d	fa4,ft0,fa5,fa4
    800032d4:	fa397fc3          	fmadd.d	ft11,fs2,ft3,ft11
    800032d8:	42f577c3          	fmadd.d	fa5,fa0,fa5,fs0
    800032dc:	f2297f43          	fmadd.d	ft10,fs2,ft2,ft10
    800032e0:	ea197ec3          	fmadd.d	ft9,fs2,ft1,ft9
    800032e4:	e2097e43          	fmadd.d	ft8,fs2,ft0,ft8
    800032e8:	d2a975c3          	fmadd.d	fa1,fs2,fa0,fs10
    800032ec:	b291f1c3          	fmadd.d	ft3,ft3,fs1,fs6
    800032f0:	aa917143          	fmadd.d	ft2,ft2,fs1,fs5
    800032f4:	a290f0c3          	fmadd.d	ft1,ft1,fs1,fs4
    800032f8:	9a907043          	fmadd.d	ft0,ft0,fs1,fs3
    800032fc:	ba957543          	fmadd.d	fa0,fa0,fs1,fs7
    80003300:	95ce                	add	a1,a1,s3
    80003302:	97d6                	add	a5,a5,s5
    80003304:	03060613          	addi	a2,a2,48
    80003308:	d2976ce3          	bltu	a4,s1,80003040 <mm_cb+0xeea>
    8000330c:	f2843383          	ld	t2,-216(s0)
    80003310:	f2043d03          	ld	s10,-224(s0)
    80003314:	f1843d83          	ld	s11,-232(s0)
    80003318:	0924f763          	bgeu	s1,s2,800033a6 <mm_cb+0x1250>
    8000331c:	01d507b3          	add	a5,a0,t4
    80003320:	867e                	mv	a2,t6
    80003322:	8726                	mv	a4,s1
    80003324:	019705b3          	add	a1,a4,s9
    80003328:	0005b987          	fld	fs3,0(a1)
    8000332c:	019605b3          	add	a1,a2,s9
    80003330:	2304                	fld	fs1,0(a4)
    80003332:	2200                	fld	fs0,0(a2)
    80003334:	0007bc07          	fld	fs8,0(a5)
    80003338:	0087bb87          	fld	fs7,8(a5)
    8000333c:	0107bb07          	fld	fs6,16(a5)
    80003340:	0187ba87          	fld	fs5,24(a5)
    80003344:	0207ba07          	fld	fs4,32(a5)
    80003348:	0005b907          	fld	fs2,0(a1)
    8000334c:	0721                	addi	a4,a4,8
    8000334e:	8b3c78c3          	fmadd.d	fa7,fs8,fs3,fa7
    80003352:	833bf843          	fmadd.d	fa6,fs7,fs3,fa6
    80003356:	3b3b73c3          	fmadd.d	ft7,fs6,fs3,ft7
    8000335a:	333af343          	fmadd.d	ft6,fs5,fs3,ft6
    8000335e:	633a7643          	fmadd.d	fa2,fs4,fs3,fa2
    80003362:	2b2c72c3          	fmadd.d	ft5,fs8,fs2,ft5
    80003366:	232bf243          	fmadd.d	ft4,fs7,fs2,ft4
    8000336a:	6b2b76c3          	fmadd.d	fa3,fs6,fs2,fa3
    8000336e:	732af743          	fmadd.d	fa4,fs5,fs2,fa4
    80003372:	7b2a77c3          	fmadd.d	fa5,fs4,fs2,fa5
    80003376:	fb84ffc3          	fmadd.d	ft11,fs1,fs8,ft11
    8000337a:	f374ff43          	fmadd.d	ft10,fs1,fs7,ft10
    8000337e:	eb64fec3          	fmadd.d	ft9,fs1,fs6,ft9
    80003382:	e354fe43          	fmadd.d	ft8,fs1,fs5,ft8
    80003386:	5b44f5c3          	fmadd.d	fa1,fs1,fs4,fa1
    8000338a:	1a8c71c3          	fmadd.d	ft3,fs8,fs0,ft3
    8000338e:	128bf143          	fmadd.d	ft2,fs7,fs0,ft2
    80003392:	0a8b70c3          	fmadd.d	ft1,fs6,fs0,ft1
    80003396:	028af043          	fmadd.d	ft0,fs5,fs0,ft0
    8000339a:	528a7543          	fmadd.d	fa0,fs4,fs0,fa0
    8000339e:	97ee                	add	a5,a5,s11
    800033a0:	0621                	addi	a2,a2,8
    800033a2:	f92761e3          	bltu	a4,s2,80003324 <mm_cb+0x11ce>
    800033a6:	01fe3027          	fsd	ft11,0(t3)
    800033aa:	01ee3427          	fsd	ft10,8(t3)
    800033ae:	01de3827          	fsd	ft9,16(t3)
    800033b2:	01ce3c27          	fsd	ft8,24(t3)
    800033b6:	02be3027          	fsd	fa1,32(t3)
    800033ba:	0036b027          	fsd	ft3,0(a3)
    800033be:	0026b427          	fsd	ft2,8(a3)
    800033c2:	0016b827          	fsd	ft1,16(a3)
    800033c6:	0006bc27          	fsd	ft0,24(a3)
    800033ca:	b288                	fsd	fa0,32(a3)
    800033cc:	e9043783          	ld	a5,-368(s0)
    800033d0:	01133027          	fsd	fa7,0(t1)
    800033d4:	01033427          	fsd	fa6,8(t1)
    800033d8:	00733827          	fsd	ft7,16(t1)
    800033dc:	00633c27          	fsd	ft6,24(t1)
    800033e0:	02c33027          	fsd	fa2,32(t1)
    800033e4:	00583027          	fsd	ft5,0(a6)
    800033e8:	00483427          	fsd	ft4,8(a6)
    800033ec:	00d83827          	fsd	fa3,16(a6)
    800033f0:	00e83c27          	fsd	fa4,24(a6)
    800033f4:	02f83027          	fsd	fa5,32(a6)
    800033f8:	0f15                	addi	t5,t5,5
    800033fa:	028e0e13          	addi	t3,t3,40
    800033fe:	02868693          	addi	a3,a3,40
    80003402:	02830313          	addi	t1,t1,40
    80003406:	02880813          	addi	a6,a6,40
    8000340a:	028e8e93          	addi	t4,t4,40
    8000340e:	bcff65e3          	bltu	t5,a5,80002fd8 <mm_cb+0xe82>
    80003412:	601c                	ld	a5,0(s0)
    80003414:	86da                	mv	a3,s6
    80003416:	861e                	mv	a2,t2
    80003418:	e03e                	sd	a5,0(sp)
    8000341a:	e3043783          	ld	a5,-464(s0)
    8000341e:	ed843703          	ld	a4,-296(s0)
    80003422:	ec043803          	ld	a6,-320(s0)
    80003426:	98be                	add	a7,a7,a5
    80003428:	de043583          	ld	a1,-544(s0)
    8000342c:	ef843783          	ld	a5,-264(s0)
    80003430:	f2743423          	sd	t2,-216(s0)
    80003434:	4511                	li	a0,4
    80003436:	bcbfe0ef          	jal	80002000 <mm_naive>
    8000343a:	f0843783          	ld	a5,-248(s0)
    8000343e:	db043683          	ld	a3,-592(s0)
    80003442:	f2843383          	ld	t2,-216(s0)
    80003446:	fff78713          	addi	a4,a5,-1
    8000344a:	e4843783          	ld	a5,-440(s0)
    8000344e:	f0e43423          	sd	a4,-248(s0)
    80003452:	9b3e                	add	s6,s6,a5
    80003454:	94be                	add	s1,s1,a5
    80003456:	993e                	add	s2,s2,a5
    80003458:	f1043783          	ld	a5,-240(s0)
    8000345c:	97b6                	add	a5,a5,a3
    8000345e:	f0f43823          	sd	a5,-240(s0)
    80003462:	b20718e3          	bnez	a4,80002f92 <mm_cb+0xe3c>
    80003466:	601c                	ld	a5,0(s0)
    80003468:	861e                	mv	a2,t2
    8000346a:	4501                	li	a0,0
    8000346c:	e03e                	sd	a5,0(sp)
    8000346e:	da043683          	ld	a3,-608(s0)
    80003472:	f0043883          	ld	a7,-256(s0)
    80003476:	ec043803          	ld	a6,-320(s0)
    8000347a:	ed843703          	ld	a4,-296(s0)
    8000347e:	e2843583          	ld	a1,-472(s0)
    80003482:	87e2                	mv	a5,s8
    80003484:	96de                	add	a3,a3,s7
    80003486:	b7bfe0ef          	jal	80002000 <mm_naive>
    8000348a:	d9843783          	ld	a5,-616(s0)
    8000348e:	0d61                	addi	s10,s10,24
    80003490:	0c0b8b93          	addi	s7,s7,192
    80003494:	9c3e                	add	s8,s8,a5
    80003496:	ec843783          	ld	a5,-312(s0)
    8000349a:	aafd62e3          	bltu	s10,a5,80002f3e <mm_cb+0xde8>
    8000349e:	82d2                	mv	t0,s4
    800034a0:	df843483          	ld	s1,-520(s0)
    800034a4:	df043b83          	ld	s7,-528(s0)
    800034a8:	de843c03          	ld	s8,-536(s0)
    800034ac:	d9043a03          	ld	s4,-624(s0)
    800034b0:	b0b9                	j	80002cfe <mm_cb+0xba8>
    800034b2:	f1043783          	ld	a5,-240(s0)
    800034b6:	00379893          	slli	a7,a5,0x3
    800034ba:	bfa1                	j	80003412 <mm_cb+0x12bc>
    800034bc:	e4043703          	ld	a4,-448(s0)
    800034c0:	04e1                	addi	s1,s1,24
    800034c2:	95aa                	add	a1,a1,a0
    800034c4:	962a                	add	a2,a2,a0
    800034c6:	9bba                	add	s7,s7,a4
    800034c8:	a984e663          	bltu	s1,s8,80002754 <mm_cb+0x5fe>
    800034cc:	84ca                	mv	s1,s2
    800034ce:	e2043903          	ld	s2,-480(s0)
    800034d2:	85e2                	mv	a1,s8
    800034d4:	8d52                	mv	s10,s4
    800034d6:	ea843f83          	ld	t6,-344(s0)
    800034da:	ec843e83          	ld	t4,-312(s0)
    800034de:	e1843a03          	ld	s4,-488(s0)
    800034e2:	ec043803          	ld	a6,-320(s0)
    800034e6:	8525fde3          	bgeu	a1,s2,80002d40 <mm_cb+0xbea>
    800034ea:	a3c5                	j	80003aca <mm_cb+0x1974>
    800034ec:	eec43423          	sd	a2,-280(s0)
    800034f0:	eeb43023          	sd	a1,-288(s0)
    800034f4:	000e17b7          	lui	a5,0xe1
    800034f8:	47b78793          	addi	a5,a5,1147 # e147b <_start-0x7ff1eb85>
    800034fc:	23d716b7          	lui	a3,0x23d71
    80003500:	07b2                	slli	a5,a5,0xc
    80003502:	a3d68693          	addi	a3,a3,-1475 # 23d70a3d <_start-0x5c28f5c3>
    80003506:	dc843603          	ld	a2,-568(s0)
    8000350a:	e1578793          	addi	a5,a5,-491
    8000350e:	1686                	slli	a3,a3,0x21
    80003510:	97b6                	add	a5,a5,a3
    80003512:	e0f43023          	sd	a5,-512(s0)
    80003516:	003b9793          	slli	a5,s7,0x3
    8000351a:	963e                	add	a2,a2,a5
    8000351c:	eec43823          	sd	a2,-272(s0)
    80003520:	dc043603          	ld	a2,-576(s0)
    80003524:	dfa43c23          	sd	s10,-520(s0)
    80003528:	f1743423          	sd	s7,-248(s0)
    8000352c:	963e                	add	a2,a2,a5
    8000352e:	eec43c23          	sd	a2,-264(s0)
    80003532:	dd043603          	ld	a2,-560(s0)
    80003536:	f0943823          	sd	s1,-240(s0)
    8000353a:	8b96                	mv	s7,t0
    8000353c:	963e                	add	a2,a2,a5
    8000353e:	e0c43423          	sd	a2,-504(s0)
    80003542:	dd843603          	ld	a2,-552(s0)
    80003546:	8d1a                	mv	s10,t1
    80003548:	f1843023          	sd	s8,-256(s0)
    8000354c:	97b2                	add	a5,a5,a2
    8000354e:	e2f43823          	sd	a5,-464(s0)
    80003552:	6785                	lui	a5,0x1
    80003554:	2c078793          	addi	a5,a5,704 # 12c0 <_start-0x7fffed40>
    80003558:	f0f43c23          	sd	a5,-232(s0)
    8000355c:	87ba                	mv	a5,a4
    8000355e:	e0043703          	ld	a4,-512(s0)
    80003562:	e8843603          	ld	a2,-376(s0)
    80003566:	003d1693          	slli	a3,s10,0x3
    8000356a:	02ed3733          	mulhu	a4,s10,a4
    8000356e:	00c682b3          	add	t0,a3,a2
    80003572:	e3043b03          	ld	s6,-464(s0)
    80003576:	e0843483          	ld	s1,-504(s0)
    8000357a:	ef043c03          	ld	s8,-272(s0)
    8000357e:	836a                	mv	t1,s10
    80003580:	8e52                	mv	t3,s4
    80003582:	4901                	li	s2,0
    80003584:	8a16                	mv	s4,t0
    80003586:	40ed06b3          	sub	a3,s10,a4
    8000358a:	8285                	srli	a3,a3,0x1
    8000358c:	9736                	add	a4,a4,a3
    8000358e:	e7843683          	ld	a3,-392(s0)
    80003592:	8311                	srli	a4,a4,0x4
    80003594:	8d3e                	mv	s10,a5
    80003596:	9736                	add	a4,a4,a3
    80003598:	f1843683          	ld	a3,-232(s0)
    8000359c:	0c878793          	addi	a5,a5,200
    800035a0:	02d70733          	mul	a4,a4,a3
    800035a4:	eb843683          	ld	a3,-328(s0)
    800035a8:	9736                	add	a4,a4,a3
    800035aa:	0c870893          	addi	a7,a4,200
    800035ae:	82ba                	mv	t0,a4
    800035b0:	e5843703          	ld	a4,-424(s0)
    800035b4:	da843503          	ld	a0,-600(s0)
    800035b8:	f3888813          	addi	a6,a7,-200
    800035bc:	01870fb3          	add	t6,a4,s8
    800035c0:	00970f33          	add	t5,a4,s1
    800035c4:	8ed2                	mv	t4,s4
    800035c6:	00083f87          	fld	ft11,0(a6)
    800035ca:	00883f07          	fld	ft10,8(a6)
    800035ce:	01083e87          	fld	ft9,16(a6)
    800035d2:	01883e07          	fld	ft8,24(a6)
    800035d6:	02083587          	fld	fa1,32(a6)
    800035da:	0c883187          	fld	ft3,200(a6)
    800035de:	0d083107          	fld	ft2,208(a6)
    800035e2:	0d883087          	fld	ft1,216(a6)
    800035e6:	0e083007          	fld	ft0,224(a6)
    800035ea:	0e883507          	fld	fa0,232(a6)
    800035ee:	19083887          	fld	fa7,400(a6)
    800035f2:	19883807          	fld	fa6,408(a6)
    800035f6:	1a083387          	fld	ft7,416(a6)
    800035fa:	1a883307          	fld	ft6,424(a6)
    800035fe:	1b083607          	fld	fa2,432(a6)
    80003602:	25883287          	fld	ft5,600(a6)
    80003606:	26083207          	fld	ft4,608(a6)
    8000360a:	26883687          	fld	fa3,616(a6)
    8000360e:	27083707          	fld	fa4,624(a6)
    80003612:	27883787          	fld	fa5,632(a6)
    80003616:	2e9c7563          	bgeu	s8,s1,80003900 <mm_cb+0x17aa>
    8000361a:	85f6                	mv	a1,t4
    8000361c:	01dd8733          	add	a4,s11,t4
    80003620:	867e                	mv	a2,t6
    80003622:	86e2                	mv	a3,s8
    80003624:	f2543423          	sd	t0,-216(s0)
    80003628:	f3b43023          	sd	s11,-224(s0)
    8000362c:	019683b3          	add	t2,a3,s9
    80003630:	0003b407          	fld	fs0,0(t2)
    80003634:	0005bb87          	fld	fs7,0(a1)
    80003638:	0085bb07          	fld	fs6,8(a1)
    8000363c:	0105ba87          	fld	fs5,16(a1)
    80003640:	0185ba07          	fld	fs4,24(a1)
    80003644:	0205b987          	fld	fs3,32(a1)
    80003648:	019602b3          	add	t0,a2,s9
    8000364c:	2284                	fld	fs1,0(a3)
    8000364e:	0002b907          	fld	fs2,0(t0)
    80003652:	6289f643          	fmadd.d	fa2,fs3,fs0,fa2
    80003656:	8a8bf8c3          	fmadd.d	fa7,fs7,fs0,fa7
    8000365a:	828b7843          	fmadd.d	fa6,fs6,fs0,fa6
    8000365e:	3a8af3c3          	fmadd.d	ft7,fs5,fs0,ft7
    80003662:	328a7343          	fmadd.d	ft6,fs4,fs0,ft6
    80003666:	2200                	fld	fs0,0(a2)
    80003668:	7b29f7c3          	fmadd.d	fa5,fs3,fs2,fa5
    8000366c:	5b34f5c3          	fmadd.d	fa1,fs1,fs3,fa1
    80003670:	1a8bf1c3          	fmadd.d	ft3,fs7,fs0,ft3
    80003674:	128b7143          	fmadd.d	ft2,fs6,fs0,ft2
    80003678:	0a8af0c3          	fmadd.d	ft1,fs5,fs0,ft1
    8000367c:	028a7043          	fmadd.d	ft0,fs4,fs0,ft0
    80003680:	2b2bf2c3          	fmadd.d	ft5,fs7,fs2,ft5
    80003684:	fb74ffc3          	fmadd.d	ft11,fs1,fs7,ft11
    80003688:	232b7243          	fmadd.d	ft4,fs6,fs2,ft4
    8000368c:	f364ff43          	fmadd.d	ft10,fs1,fs6,ft10
    80003690:	6b2af6c3          	fmadd.d	fa3,fs5,fs2,fa3
    80003694:	eb54fec3          	fmadd.d	ft9,fs1,fs5,ft9
    80003698:	732a7743          	fmadd.d	fa4,fs4,fs2,fa4
    8000369c:	e344fe43          	fmadd.d	ft8,fs1,fs4,ft8
    800036a0:	5289f543          	fmadd.d	fa0,fs3,fs0,fa0
    800036a4:	00863b87          	fld	fs7,8(a2)
    800036a8:	2680                	fld	fs0,8(a3)
    800036aa:	02073c07          	fld	fs8,32(a4)
    800036ae:	0083b907          	fld	fs2,8(t2)
    800036b2:	00073b07          	fld	fs6,0(a4)
    800036b6:	0082b487          	fld	fs1,8(t0)
    800036ba:	00873a87          	fld	fs5,8(a4)
    800036be:	01073a07          	fld	fs4,16(a4)
    800036c2:	01873987          	fld	fs3,24(a4)
    800036c6:	537c7543          	fmadd.d	fa0,fs8,fs7,fa0
    800036ca:	8b2b78c3          	fmadd.d	fa7,fs6,fs2,fa7
    800036ce:	7299f743          	fmadd.d	fa4,fs3,fs1,fa4
    800036d2:	2a9b72c3          	fmadd.d	ft5,fs6,fs1,ft5
    800036d6:	fb647fc3          	fmadd.d	ft11,fs0,fs6,ft11
    800036da:	832af843          	fmadd.d	fa6,fs5,fs2,fa6
    800036de:	1b7b7b43          	fmadd.d	fs6,fs6,fs7,ft3
    800036e2:	229af243          	fmadd.d	ft4,fs5,fs1,ft4
    800036e6:	f3547f43          	fmadd.d	ft10,fs0,fs5,ft10
    800036ea:	3b2a73c3          	fmadd.d	ft7,fs4,fs2,ft7
    800036ee:	137afac3          	fmadd.d	fs5,fs5,fs7,ft2
    800036f2:	6a9a76c3          	fmadd.d	fa3,fs4,fs1,fa3
    800036f6:	eb447ec3          	fmadd.d	ft9,fs0,fs4,ft9
    800036fa:	7a9c74c3          	fmadd.d	fs1,fs8,fs1,fa5
    800036fe:	0b7a7a43          	fmadd.d	fs4,fs4,fs7,ft1
    80003702:	3329f343          	fmadd.d	ft6,fs3,fs2,ft6
    80003706:	e3347e43          	fmadd.d	ft8,fs0,fs3,ft8
    8000370a:	632c7943          	fmadd.d	fs2,fs8,fs2,fa2
    8000370e:	5b847443          	fmadd.d	fs0,fs0,fs8,fa1
    80003712:	0379f9c3          	fmadd.d	fs3,fs3,fs7,ft0
    80003716:	00ba8db3          	add	s11,s5,a1
    8000371a:	0103b787          	fld	fa5,16(t2)
    8000371e:	0106b007          	fld	ft0,16(a3)
    80003722:	2a10                	fld	fa2,16(a2)
    80003724:	000dbb87          	fld	fs7,0(s11)
    80003728:	008db187          	fld	ft3,8(s11)
    8000372c:	010db107          	fld	ft2,16(s11)
    80003730:	018db087          	fld	ft1,24(s11)
    80003734:	020dbc07          	fld	fs8,32(s11)
    80003738:	0102b587          	fld	fa1,16(t0)
    8000373c:	8afbf8c3          	fmadd.d	fa7,fs7,fa5,fa7
    80003740:	92fc7943          	fmadd.d	fs2,fs8,fa5,fs2
    80003744:	2abbf2c3          	fmadd.d	ft5,fs7,fa1,ft5
    80003748:	82f1f843          	fmadd.d	fa6,ft3,fa5,fa6
    8000374c:	22b1f243          	fmadd.d	ft4,ft3,fa1,ft4
    80003750:	3af173c3          	fmadd.d	ft7,ft2,fa5,ft7
    80003754:	6ab176c3          	fmadd.d	fa3,ft2,fa1,fa3
    80003758:	32f0f343          	fmadd.d	ft6,ft1,fa5,ft6
    8000375c:	fb707fc3          	fmadd.d	ft11,ft0,fs7,ft11
    80003760:	72b0f7c3          	fmadd.d	fa5,ft1,fa1,fa4
    80003764:	b2cbfbc3          	fmadd.d	fs7,fs7,fa2,fs6
    80003768:	4abc75c3          	fmadd.d	fa1,fs8,fa1,fs1
    8000376c:	f2307f43          	fmadd.d	ft10,ft0,ft3,ft10
    80003770:	ea207ec3          	fmadd.d	ft9,ft0,ft2,ft9
    80003774:	aac1f1c3          	fmadd.d	ft3,ft3,fa2,fs5
    80003778:	a2c17143          	fmadd.d	ft2,ft2,fa2,fs4
    8000377c:	e2107e43          	fmadd.d	ft8,ft0,ft1,ft8
    80003780:	43807043          	fmadd.d	ft0,ft0,fs8,fs0
    80003784:	9ac0f0c3          	fmadd.d	ft1,ft1,fa2,fs3
    80003788:	52cc7643          	fmadd.d	fa2,fs8,fa2,fa0
    8000378c:	9756                	add	a4,a4,s5
    8000378e:	2e88                	fld	fa0,24(a3)
    80003790:	00073b07          	fld	fs6,0(a4)
    80003794:	00873a87          	fld	fs5,8(a4)
    80003798:	01073a07          	fld	fs4,16(a4)
    8000379c:	01873987          	fld	fs3,24(a4)
    800037a0:	02073c07          	fld	fs8,32(a4)
    800037a4:	2e18                	fld	fa4,24(a2)
    800037a6:	0183b487          	fld	fs1,24(t2)
    800037aa:	0182b407          	fld	fs0,24(t0)
    800037ae:	62ec7cc3          	fmadd.d	fs9,fs8,fa4,fa2
    800037b2:	fb657fc3          	fmadd.d	ft11,fa0,fs6,ft11
    800037b6:	7a89f7c3          	fmadd.d	fa5,fs3,fs0,fa5
    800037ba:	f3557f43          	fmadd.d	ft10,fa0,fs5,ft10
    800037be:	eb457ec3          	fmadd.d	ft9,fa0,fs4,ft9
    800037c2:	e3357e43          	fmadd.d	ft8,fa0,fs3,ft8
    800037c6:	8a9b78c3          	fmadd.d	fa7,fs6,fs1,fa7
    800037ca:	03857543          	fmadd.d	fa0,fa0,fs8,ft0
    800037ce:	829af843          	fmadd.d	fa6,fs5,fs1,fa6
    800037d2:	3a9a73c3          	fmadd.d	ft7,fs4,fs1,ft7
    800037d6:	3299f343          	fmadd.d	ft6,fs3,fs1,ft6
    800037da:	2a8b72c3          	fmadd.d	ft5,fs6,fs0,ft5
    800037de:	929c74c3          	fmadd.d	fs1,fs8,fs1,fs2
    800037e2:	228af243          	fmadd.d	ft4,fs5,fs0,ft4
    800037e6:	6a8a76c3          	fmadd.d	fa3,fs4,fs0,fa3
    800037ea:	baeb7b43          	fmadd.d	fs6,fs6,fa4,fs7
    800037ee:	5a8c7443          	fmadd.d	fs0,fs8,fs0,fa1
    800037f2:	1aeafac3          	fmadd.d	fs5,fs5,fa4,ft3
    800037f6:	12ea7a43          	fmadd.d	fs4,fs4,fa4,ft2
    800037fa:	0ae9f9c3          	fmadd.d	fs3,fs3,fa4,ft1
    800037fe:	00bb8db3          	add	s11,s7,a1
    80003802:	0206b087          	fld	ft1,32(a3)
    80003806:	02063007          	fld	ft0,32(a2)
    8000380a:	0202b607          	fld	fa2,32(t0)
    8000380e:	0203b587          	fld	fa1,32(t2)
    80003812:	008dbb87          	fld	fs7,8(s11)
    80003816:	010db907          	fld	fs2,16(s11)
    8000381a:	018db187          	fld	ft3,24(s11)
    8000381e:	020db107          	fld	ft2,32(s11)
    80003822:	000dbc07          	fld	fs8,0(s11)
    80003826:	7ac1f743          	fmadd.d	fa4,ft3,fa2,fa5
    8000382a:	5220fd43          	fmadd.d	fs10,ft1,ft2,fa0
    8000382e:	82bbf843          	fmadd.d	fa6,fs7,fa1,fa6
    80003832:	3ab973c3          	fmadd.d	ft7,fs2,fa1,ft7
    80003836:	32b1f343          	fmadd.d	ft6,ft3,fa1,ft6
    8000383a:	22cbf243          	fmadd.d	ft4,fs7,fa2,ft4
    8000383e:	6ac976c3          	fmadd.d	fa3,fs2,fa2,fa3
    80003842:	42c17443          	fmadd.d	fs0,ft2,fa2,fs0
    80003846:	f370ff43          	fmadd.d	ft10,ft1,fs7,ft10
    8000384a:	eb20fec3          	fmadd.d	ft9,ft1,fs2,ft9
    8000384e:	e230fe43          	fmadd.d	ft8,ft1,ft3,ft8
    80003852:	aa0bfac3          	fmadd.d	fs5,fs7,ft0,fs5
    80003856:	a2097a43          	fmadd.d	fs4,fs2,ft0,fs4
    8000385a:	9a01f9c3          	fmadd.d	fs3,ft3,ft0,fs3
    8000385e:	ca017bc3          	fmadd.d	fs7,ft2,ft0,fs9
    80003862:	8abc78c3          	fmadd.d	fa7,fs8,fa1,fa7
    80003866:	2acc72c3          	fmadd.d	ft5,fs8,fa2,ft5
    8000386a:	4ab175c3          	fmadd.d	fa1,ft2,fa1,fs1
    8000386e:	fb80ffc3          	fmadd.d	ft11,ft1,fs8,ft11
    80003872:	b20c7b43          	fmadd.d	fs6,fs8,ft0,fs6
    80003876:	9756                	add	a4,a4,s5
    80003878:	0286b907          	fld	fs2,40(a3)
    8000387c:	3604                	fld	fs1,40(a2)
    8000387e:	00073187          	fld	ft3,0(a4)
    80003882:	0283b607          	fld	fa2,40(t2)
    80003886:	00873107          	fld	ft2,8(a4)
    8000388a:	01073087          	fld	ft1,16(a4)
    8000388e:	01873007          	fld	ft0,24(a4)
    80003892:	3308                	fld	fa0,32(a4)
    80003894:	0282b787          	fld	fa5,40(t0)
    80003898:	03068693          	addi	a3,a3,48
    8000389c:	8ac1f8c3          	fmadd.d	fa7,ft3,fa2,fa7
    800038a0:	82c17843          	fmadd.d	fa6,ft2,fa2,fa6
    800038a4:	3ac0f3c3          	fmadd.d	ft7,ft1,fa2,ft7
    800038a8:	32c07343          	fmadd.d	ft6,ft0,fa2,ft6
    800038ac:	2af1f2c3          	fmadd.d	ft5,ft3,fa5,ft5
    800038b0:	5ac57643          	fmadd.d	fa2,fa0,fa2,fa1
    800038b4:	22f17243          	fmadd.d	ft4,ft2,fa5,ft4
    800038b8:	6af0f6c3          	fmadd.d	fa3,ft1,fa5,fa3
    800038bc:	72f07743          	fmadd.d	fa4,ft0,fa5,fa4
    800038c0:	fa397fc3          	fmadd.d	ft11,fs2,ft3,ft11
    800038c4:	42f577c3          	fmadd.d	fa5,fa0,fa5,fs0
    800038c8:	f2297f43          	fmadd.d	ft10,fs2,ft2,ft10
    800038cc:	ea197ec3          	fmadd.d	ft9,fs2,ft1,ft9
    800038d0:	e2097e43          	fmadd.d	ft8,fs2,ft0,ft8
    800038d4:	d2a975c3          	fmadd.d	fa1,fs2,fa0,fs10
    800038d8:	b291f1c3          	fmadd.d	ft3,ft3,fs1,fs6
    800038dc:	aa917143          	fmadd.d	ft2,ft2,fs1,fs5
    800038e0:	a290f0c3          	fmadd.d	ft1,ft1,fs1,fs4
    800038e4:	9a907043          	fmadd.d	ft0,ft0,fs1,fs3
    800038e8:	ba957543          	fmadd.d	fa0,fa0,fs1,fs7
    800038ec:	95ce                	add	a1,a1,s3
    800038ee:	9756                	add	a4,a4,s5
    800038f0:	03060613          	addi	a2,a2,48
    800038f4:	d296ece3          	bltu	a3,s1,8000362c <mm_cb+0x14d6>
    800038f8:	f2843283          	ld	t0,-216(s0)
    800038fc:	f2043d83          	ld	s11,-224(s0)
    80003900:	0964f763          	bgeu	s1,s6,8000398e <mm_cb+0x1838>
    80003904:	01d50733          	add	a4,a0,t4
    80003908:	867a                	mv	a2,t5
    8000390a:	86a6                	mv	a3,s1
    8000390c:	019685b3          	add	a1,a3,s9
    80003910:	0005b987          	fld	fs3,0(a1)
    80003914:	019605b3          	add	a1,a2,s9
    80003918:	2284                	fld	fs1,0(a3)
    8000391a:	2200                	fld	fs0,0(a2)
    8000391c:	00073c07          	fld	fs8,0(a4)
    80003920:	00873b87          	fld	fs7,8(a4)
    80003924:	01073b07          	fld	fs6,16(a4)
    80003928:	01873a87          	fld	fs5,24(a4)
    8000392c:	02073a07          	fld	fs4,32(a4)
    80003930:	0005b907          	fld	fs2,0(a1)
    80003934:	06a1                	addi	a3,a3,8
    80003936:	8b3c78c3          	fmadd.d	fa7,fs8,fs3,fa7
    8000393a:	833bf843          	fmadd.d	fa6,fs7,fs3,fa6
    8000393e:	3b3b73c3          	fmadd.d	ft7,fs6,fs3,ft7
    80003942:	333af343          	fmadd.d	ft6,fs5,fs3,ft6
    80003946:	633a7643          	fmadd.d	fa2,fs4,fs3,fa2
    8000394a:	2b2c72c3          	fmadd.d	ft5,fs8,fs2,ft5
    8000394e:	232bf243          	fmadd.d	ft4,fs7,fs2,ft4
    80003952:	6b2b76c3          	fmadd.d	fa3,fs6,fs2,fa3
    80003956:	732af743          	fmadd.d	fa4,fs5,fs2,fa4
    8000395a:	7b2a77c3          	fmadd.d	fa5,fs4,fs2,fa5
    8000395e:	fb84ffc3          	fmadd.d	ft11,fs1,fs8,ft11
    80003962:	f374ff43          	fmadd.d	ft10,fs1,fs7,ft10
    80003966:	eb64fec3          	fmadd.d	ft9,fs1,fs6,ft9
    8000396a:	e354fe43          	fmadd.d	ft8,fs1,fs5,ft8
    8000396e:	5b44f5c3          	fmadd.d	fa1,fs1,fs4,fa1
    80003972:	1a8c71c3          	fmadd.d	ft3,fs8,fs0,ft3
    80003976:	128bf143          	fmadd.d	ft2,fs7,fs0,ft2
    8000397a:	0a8b70c3          	fmadd.d	ft1,fs6,fs0,ft1
    8000397e:	028af043          	fmadd.d	ft0,fs5,fs0,ft0
    80003982:	528a7543          	fmadd.d	fa0,fs4,fs0,fa0
    80003986:	976e                	add	a4,a4,s11
    80003988:	0621                	addi	a2,a2,8
    8000398a:	f966e1e3          	bltu	a3,s6,8000390c <mm_cb+0x17b6>
    8000398e:	01f83027          	fsd	ft11,0(a6)
    80003992:	01e83427          	fsd	ft10,8(a6)
    80003996:	01d83827          	fsd	ft9,16(a6)
    8000399a:	01c83c27          	fsd	ft8,24(a6)
    8000399e:	02b83027          	fsd	fa1,32(a6)
    800039a2:	0c383427          	fsd	ft3,200(a6)
    800039a6:	0c283827          	fsd	ft2,208(a6)
    800039aa:	0c183c27          	fsd	ft1,216(a6)
    800039ae:	0e083027          	fsd	ft0,224(a6)
    800039b2:	0ea83427          	fsd	fa0,232(a6)
    800039b6:	19183827          	fsd	fa7,400(a6)
    800039ba:	19083c27          	fsd	fa6,408(a6)
    800039be:	1a783027          	fsd	ft7,416(a6)
    800039c2:	1a683427          	fsd	ft6,424(a6)
    800039c6:	1ac83827          	fsd	fa2,432(a6)
    800039ca:	24583c27          	fsd	ft5,600(a6)
    800039ce:	26483027          	fsd	ft4,608(a6)
    800039d2:	26d83427          	fsd	fa3,616(a6)
    800039d6:	26e83827          	fsd	fa4,624(a6)
    800039da:	26f83c27          	fsd	fa5,632(a6)
    800039de:	028e8e93          	addi	t4,t4,40
    800039e2:	02880813          	addi	a6,a6,40
    800039e6:	bfd790e3          	bne	a5,t4,800035c6 <mm_cb+0x1470>
    800039ea:	d8543823          	sd	t0,-624(s0)
    800039ee:	de643423          	sd	t1,-536(s0)
    800039f2:	dfc43823          	sd	t3,-528(s0)
    800039f6:	4765                	li	a4,25
    800039f8:	e03a                	sd	a4,0(sp)
    800039fa:	ed843703          	ld	a4,-296(s0)
    800039fe:	ec043803          	ld	a6,-320(s0)
    80003a02:	e7043603          	ld	a2,-400(s0)
    80003a06:	f3143023          	sd	a7,-224(s0)
    80003a0a:	f2f43423          	sd	a5,-216(s0)
    80003a0e:	86e2                	mv	a3,s8
    80003a10:	4581                	li	a1,0
    80003a12:	4511                	li	a0,4
    80003a14:	decfe0ef          	jal	80002000 <mm_naive>
    80003a18:	e4843783          	ld	a5,-440(s0)
    80003a1c:	f2043883          	ld	a7,-224(s0)
    80003a20:	06490913          	addi	s2,s2,100
    80003a24:	25800713          	li	a4,600
    80003a28:	9c3e                	add	s8,s8,a5
    80003a2a:	94be                	add	s1,s1,a5
    80003a2c:	9b3e                	add	s6,s6,a5
    80003a2e:	df043e03          	ld	t3,-528(s0)
    80003a32:	f2843783          	ld	a5,-216(s0)
    80003a36:	de843303          	ld	t1,-536(s0)
    80003a3a:	d9043283          	ld	t0,-624(s0)
    80003a3e:	32088893          	addi	a7,a7,800
    80003a42:	b6e917e3          	bne	s2,a4,800035b0 <mm_cb+0x145a>
    80003a46:	46e5                	li	a3,25
    80003a48:	e036                	sd	a3,0(sp)
    80003a4a:	f1843683          	ld	a3,-232(s0)
    80003a4e:	ec043803          	ld	a6,-320(s0)
    80003a52:	ed843703          	ld	a4,-296(s0)
    80003a56:	00d288b3          	add	a7,t0,a3
    80003a5a:	e7043603          	ld	a2,-400(s0)
    80003a5e:	ef843683          	ld	a3,-264(s0)
    80003a62:	893e                	mv	s2,a5
    80003a64:	45e5                	li	a1,25
    80003a66:	87ea                	mv	a5,s10
    80003a68:	4501                	li	a0,0
    80003a6a:	8a72                	mv	s4,t3
    80003a6c:	01930d13          	addi	s10,t1,25
    80003a70:	d90fe0ef          	jal	80002000 <mm_naive>
    80003a74:	ed043783          	ld	a5,-304(s0)
    80003a78:	04fd7063          	bgeu	s10,a5,80003ab8 <mm_cb+0x1962>
    80003a7c:	ea043703          	ld	a4,-352(s0)
    80003a80:	87ca                	mv	a5,s2
    80003a82:	ac070ee3          	beqz	a4,8000355e <mm_cb+0x1408>
    80003a86:	82de                	mv	t0,s7
    80003a88:	836a                	mv	t1,s10
    80003a8a:	f1043483          	ld	s1,-240(s0)
    80003a8e:	f0843b83          	ld	s7,-248(s0)
    80003a92:	df843d03          	ld	s10,-520(s0)
    80003a96:	f0043c03          	ld	s8,-256(s0)
    80003a9a:	873e                	mv	a4,a5
    80003a9c:	ce3fe06f          	j	8000277e <mm_cb+0x628>
    80003aa0:	8bba                	mv	s7,a4
    80003aa2:	e0843a83          	ld	s5,-504(s0)
    80003aa6:	8726                	mv	a4,s1
    80003aa8:	e0043283          	ld	t0,-512(s0)
    80003aac:	df843483          	ld	s1,-520(s0)
    80003ab0:	835a                	mv	t1,s6
    80003ab2:	8c32                	mv	s8,a2
    80003ab4:	8a2e                	mv	s4,a1
    80003ab6:	bc3d                	j	800034f4 <mm_cb+0x139e>
    80003ab8:	82de                	mv	t0,s7
    80003aba:	f1043483          	ld	s1,-240(s0)
    80003abe:	f0843b83          	ld	s7,-248(s0)
    80003ac2:	f0043c03          	ld	s8,-256(s0)
    80003ac6:	a22ff06f          	j	80002ce8 <mm_cb+0xb92>
    80003aca:	a60d0b63          	beqz	s10,80002d40 <mm_cb+0xbea>
    80003ace:	740e8563          	beqz	t4,80004218 <mm_cb+0x20c2>
    80003ad2:	aaaab7b7          	lui	a5,0xaaaab
    80003ad6:	aab78793          	addi	a5,a5,-1365 # ffffffffaaaaaaab <__global_pointer$+0xffffffff2aaa4e3b>
    80003ada:	02079713          	slli	a4,a5,0x20
    80003ade:	97ba                	add	a5,a5,a4
    80003ae0:	ccccd737          	lui	a4,0xccccd
    80003ae4:	ccd70713          	addi	a4,a4,-819 # ffffffffcccccccd <__global_pointer$+0xffffffff4ccc705d>
    80003ae8:	02071613          	slli	a2,a4,0x20
    80003aec:	9732                	add	a4,a4,a2
    80003aee:	e6f43823          	sd	a5,-400(s0)
    80003af2:	02f937b3          	mulhu	a5,s2,a5
    80003af6:	e6e43023          	sd	a4,-416(s0)
    80003afa:	6018                	ld	a4,0(s0)
    80003afc:	6008                	ld	a0,0(s0)
    80003afe:	ed843883          	ld	a7,-296(s0)
    80003b02:	e4943423          	sd	s1,-440(s0)
    80003b06:	00481b93          	slli	s7,a6,0x4
    80003b0a:	02e58633          	mul	a2,a1,a4
    80003b0e:	00181713          	slli	a4,a6,0x1
    80003b12:	9742                	add	a4,a4,a6
    80003b14:	8391                	srli	a5,a5,0x4
    80003b16:	00179693          	slli	a3,a5,0x1
    80003b1a:	97b6                	add	a5,a5,a3
    80003b1c:	078e                	slli	a5,a5,0x3
    80003b1e:	40f907b3          	sub	a5,s2,a5
    80003b22:	ffc7f313          	andi	t1,a5,-4
    80003b26:	8b8d                	andi	a5,a5,3
    80003b28:	9532                	add	a0,a0,a2
    80003b2a:	050e                	slli	a0,a0,0x3
    80003b2c:	060e                	slli	a2,a2,0x3
    80003b2e:	ecf43023          	sd	a5,-320(s0)
    80003b32:	00a487b3          	add	a5,s1,a0
    80003b36:	026886b3          	mul	a3,a7,t1
    80003b3a:	f0f43823          	sd	a5,-240(s0)
    80003b3e:	00c487b3          	add	a5,s1,a2
    80003b42:	f0f43423          	sd	a5,-248(s0)
    80003b46:	601c                	ld	a5,0(s0)
    80003b48:	00471a93          	slli	s5,a4,0x4
    80003b4c:	071a                	slli	a4,a4,0x6
    80003b4e:	026787b3          	mul	a5,a5,t1
    80003b52:	00389e13          	slli	t3,a7,0x3
    80003b56:	e6e43423          	sd	a4,-408(s0)
    80003b5a:	00369713          	slli	a4,a3,0x3
    80003b5e:	6014                	ld	a3,0(s0)
    80003b60:	eae43423          	sd	a4,-344(s0)
    80003b64:	8646                	mv	a2,a7
    80003b66:	03c58733          	mul	a4,a1,t3
    80003b6a:	00489c13          	slli	s8,a7,0x4
    80003b6e:	00469893          	slli	a7,a3,0x4
    80003b72:	00561693          	slli	a3,a2,0x5
    80003b76:	e8d43023          	sd	a3,-384(s0)
    80003b7a:	00379693          	slli	a3,a5,0x3
    80003b7e:	601c                	ld	a5,0(s0)
    80003b80:	8b56                	mv	s6,s5
    80003b82:	e7c43c23          	sd	t3,-392(s0)
    80003b86:	078a                	slli	a5,a5,0x2
    80003b88:	e8f43423          	sd	a5,-376(s0)
    80003b8c:	eb043783          	ld	a5,-336(s0)
    80003b90:	ee643823          	sd	t1,-272(s0)
    80003b94:	4901                	li	s2,0
    80003b96:	00e78cb3          	add	s9,a5,a4
    80003b9a:	87ea                	mv	a5,s10
    80003b9c:	8646                	mv	a2,a7
    80003b9e:	e4b43823          	sd	a1,-432(s0)
    80003ba2:	00581d13          	slli	s10,a6,0x5
    80003ba6:	00381d93          	slli	s11,a6,0x3
    80003baa:	84b6                	mv	s1,a3
    80003bac:	8abe                	mv	s5,a5
    80003bae:	412a8533          	sub	a0,s5,s2
    80003bb2:	4765                	li	a4,25
    80003bb4:	85aa                	mv	a1,a0
    80003bb6:	00a77363          	bgeu	a4,a0,80003bbc <mm_cb+0x1a66>
    80003bba:	85ba                	mv	a1,a4
    80003bbc:	e6043783          	ld	a5,-416(s0)
    80003bc0:	00391693          	slli	a3,s2,0x3
    80003bc4:	00da03b3          	add	t2,s4,a3
    80003bc8:	02f5b733          	mulhu	a4,a1,a5
    80003bcc:	f0843783          	ld	a5,-248(s0)
    80003bd0:	8e66                	mv	t3,s9
    80003bd2:	e1943c23          	sd	s9,-488(s0)
    80003bd6:	00f486b3          	add	a3,s1,a5
    80003bda:	ead43823          	sd	a3,-336(s0)
    80003bde:	00c786b3          	add	a3,a5,a2
    80003be2:	e8d43c23          	sd	a3,-360(s0)
    80003be6:	f1043683          	ld	a3,-240(s0)
    80003bea:	e1443023          	sd	s4,-512(s0)
    80003bee:	4f01                	li	t5,0
    80003bf0:	96b2                	add	a3,a3,a2
    80003bf2:	ead43023          	sd	a3,-352(s0)
    80003bf6:	00275693          	srli	a3,a4,0x2
    80003bfa:	9b71                	andi	a4,a4,-4
    80003bfc:	00d70333          	add	t1,a4,a3
    80003c00:	00331713          	slli	a4,t1,0x3
    80003c04:	97ba                	add	a5,a5,a4
    80003c06:	e8f43823          	sd	a5,-368(s0)
    80003c0a:	406587b3          	sub	a5,a1,t1
    80003c0e:	e4e43c23          	sd	a4,-424(s0)
    80003c12:	ecf43423          	sd	a5,-312(s0)
    80003c16:	e4a43023          	sd	a0,-448(s0)
    80003c1a:	e2b43c23          	sd	a1,-456(s0)
    80003c1e:	e3f43823          	sd	t6,-464(s0)
    80003c22:	e3243423          	sd	s2,-472(s0)
    80003c26:	899a                	mv	s3,t1
    80003c28:	e2943023          	sd	s1,-480(s0)
    80003c2c:	8c9e                	mv	s9,t2
    80003c2e:	e0c43823          	sd	a2,-496(s0)
    80003c32:	e1543423          	sd	s5,-504(s0)
    80003c36:	8a72                	mv	s4,t3
    80003c38:	ef043c23          	sd	a6,-264(s0)
    80003c3c:	41ee8633          	sub	a2,t4,t5
    80003c40:	47e1                	li	a5,24
    80003c42:	00c7f363          	bgeu	a5,a2,80003c48 <mm_cb+0x1af2>
    80003c46:	863e                	mv	a2,a5
    80003c48:	ef043783          	ld	a5,-272(s0)
    80003c4c:	52078663          	beqz	a5,80004178 <mm_cb+0x2022>
    80003c50:	e7043783          	ld	a5,-400(s0)
    80003c54:	ef843683          	ld	a3,-264(s0)
    80003c58:	00361913          	slli	s2,a2,0x3
    80003c5c:	02f63733          	mulhu	a4,a2,a5
    80003c60:	e5843783          	ld	a5,-424(s0)
    80003c64:	9952                	add	s2,s2,s4
    80003c66:	8ad2                	mv	s5,s4
    80003c68:	83d2                	mv	t2,s4
    80003c6a:	97e6                	add	a5,a5,s9
    80003c6c:	f0043023          	sd	zero,-256(s0)
    80003c70:	ee043423          	sd	zero,-280(s0)
    80003c74:	eec43023          	sd	a2,-288(s0)
    80003c78:	dfe43c23          	sd	t5,-520(s0)
    80003c7c:	8309                	srli	a4,a4,0x2
    80003c7e:	02e686b3          	mul	a3,a3,a4
    80003c82:	00171493          	slli	s1,a4,0x1
    80003c86:	94ba                	add	s1,s1,a4
    80003c88:	0492                	slli	s1,s1,0x4
    80003c8a:	94d2                	add	s1,s1,s4
    80003c8c:	dfd43823          	sd	t4,-528(s0)
    80003c90:	00169713          	slli	a4,a3,0x1
    80003c94:	9736                	add	a4,a4,a3
    80003c96:	00471a13          	slli	s4,a4,0x4
    80003c9a:	e4043703          	ld	a4,-448(s0)
    80003c9e:	4691                	li	a3,4
    80003ca0:	56e6f763          	bgeu	a3,a4,8000420e <mm_cb+0x20b8>
    80003ca4:	f0043703          	ld	a4,-256(s0)
    80003ca8:	8ee6                	mv	t4,s9
    80003caa:	4f01                	li	t5,0
    80003cac:	00371893          	slli	a7,a4,0x3
    80003cb0:	f0843703          	ld	a4,-248(s0)
    80003cb4:	853e                	mv	a0,a5
    80003cb6:	01170e33          	add	t3,a4,a7
    80003cba:	f1043703          	ld	a4,-240(s0)
    80003cbe:	011706b3          	add	a3,a4,a7
    80003cc2:	e9843703          	ld	a4,-360(s0)
    80003cc6:	01170333          	add	t1,a4,a7
    80003cca:	ea043703          	ld	a4,-352(s0)
    80003cce:	01170833          	add	a6,a4,a7
    80003cd2:	e7843703          	ld	a4,-392(s0)
    80003cd6:	00ea82b3          	add	t0,s5,a4
    80003cda:	00e48fb3          	add	t6,s1,a4
    80003cde:	000e3f87          	fld	ft11,0(t3)
    80003ce2:	008e3f07          	fld	ft10,8(t3)
    80003ce6:	010e3e87          	fld	ft9,16(t3)
    80003cea:	018e3e07          	fld	ft8,24(t3)
    80003cee:	020e3587          	fld	fa1,32(t3)
    80003cf2:	0006b187          	fld	ft3,0(a3)
    80003cf6:	0086b107          	fld	ft2,8(a3)
    80003cfa:	0106b087          	fld	ft1,16(a3)
    80003cfe:	0186b007          	fld	ft0,24(a3)
    80003d02:	3288                	fld	fa0,32(a3)
    80003d04:	00033887          	fld	fa7,0(t1)
    80003d08:	00833807          	fld	fa6,8(t1)
    80003d0c:	01033387          	fld	ft7,16(t1)
    80003d10:	01833307          	fld	ft6,24(t1)
    80003d14:	02033607          	fld	fa2,32(t1)
    80003d18:	00083287          	fld	ft5,0(a6)
    80003d1c:	00883207          	fld	ft4,8(a6)
    80003d20:	01083687          	fld	fa3,16(a6)
    80003d24:	01883707          	fld	fa4,24(a6)
    80003d28:	02083787          	fld	fa5,32(a6)
    80003d2c:	2e9af463          	bgeu	s5,s1,80004014 <mm_cb+0x1ebe>
    80003d30:	85f6                	mv	a1,t4
    80003d32:	01be87b3          	add	a5,t4,s11
    80003d36:	8616                	mv	a2,t0
    80003d38:	8756                	mv	a4,s5
    80003d3a:	f3343423          	sd	s3,-216(s0)
    80003d3e:	f3e43023          	sd	t5,-224(s0)
    80003d42:	f0a43c23          	sd	a0,-232(s0)
    80003d46:	01870f33          	add	t5,a4,s8
    80003d4a:	000f3407          	fld	fs0,0(t5)
    80003d4e:	0005bb87          	fld	fs7,0(a1)
    80003d52:	0085bb07          	fld	fs6,8(a1)
    80003d56:	0105ba87          	fld	fs5,16(a1)
    80003d5a:	0185ba07          	fld	fs4,24(a1)
    80003d5e:	0205b987          	fld	fs3,32(a1)
    80003d62:	01860533          	add	a0,a2,s8
    80003d66:	2304                	fld	fs1,0(a4)
    80003d68:	00053907          	fld	fs2,0(a0)
    80003d6c:	6289f643          	fmadd.d	fa2,fs3,fs0,fa2
    80003d70:	8a8bf8c3          	fmadd.d	fa7,fs7,fs0,fa7
    80003d74:	828b7843          	fmadd.d	fa6,fs6,fs0,fa6
    80003d78:	3a8af3c3          	fmadd.d	ft7,fs5,fs0,ft7
    80003d7c:	328a7343          	fmadd.d	ft6,fs4,fs0,ft6
    80003d80:	2200                	fld	fs0,0(a2)
    80003d82:	7b29f7c3          	fmadd.d	fa5,fs3,fs2,fa5
    80003d86:	5b34f5c3          	fmadd.d	fa1,fs1,fs3,fa1
    80003d8a:	1a8bf1c3          	fmadd.d	ft3,fs7,fs0,ft3
    80003d8e:	128b7143          	fmadd.d	ft2,fs6,fs0,ft2
    80003d92:	0a8af0c3          	fmadd.d	ft1,fs5,fs0,ft1
    80003d96:	028a7043          	fmadd.d	ft0,fs4,fs0,ft0
    80003d9a:	2b2bf2c3          	fmadd.d	ft5,fs7,fs2,ft5
    80003d9e:	fb74ffc3          	fmadd.d	ft11,fs1,fs7,ft11
    80003da2:	232b7243          	fmadd.d	ft4,fs6,fs2,ft4
    80003da6:	f364ff43          	fmadd.d	ft10,fs1,fs6,ft10
    80003daa:	6b2af6c3          	fmadd.d	fa3,fs5,fs2,fa3
    80003dae:	eb54fec3          	fmadd.d	ft9,fs1,fs5,ft9
    80003db2:	732a7743          	fmadd.d	fa4,fs4,fs2,fa4
    80003db6:	e344fe43          	fmadd.d	ft8,fs1,fs4,ft8
    80003dba:	5289f543          	fmadd.d	fa0,fs3,fs0,fa0
    80003dbe:	00863b87          	fld	fs7,8(a2)
    80003dc2:	2700                	fld	fs0,8(a4)
    80003dc4:	0207bc07          	fld	fs8,32(a5)
    80003dc8:	008f3907          	fld	fs2,8(t5)
    80003dcc:	0007bb07          	fld	fs6,0(a5)
    80003dd0:	2504                	fld	fs1,8(a0)
    80003dd2:	0087ba87          	fld	fs5,8(a5)
    80003dd6:	0107ba07          	fld	fs4,16(a5)
    80003dda:	0187b987          	fld	fs3,24(a5)
    80003dde:	537c7543          	fmadd.d	fa0,fs8,fs7,fa0
    80003de2:	8b2b78c3          	fmadd.d	fa7,fs6,fs2,fa7
    80003de6:	7299f743          	fmadd.d	fa4,fs3,fs1,fa4
    80003dea:	2a9b72c3          	fmadd.d	ft5,fs6,fs1,ft5
    80003dee:	fb647fc3          	fmadd.d	ft11,fs0,fs6,ft11
    80003df2:	832af843          	fmadd.d	fa6,fs5,fs2,fa6
    80003df6:	1b7b7b43          	fmadd.d	fs6,fs6,fs7,ft3
    80003dfa:	229af243          	fmadd.d	ft4,fs5,fs1,ft4
    80003dfe:	f3547f43          	fmadd.d	ft10,fs0,fs5,ft10
    80003e02:	3b2a73c3          	fmadd.d	ft7,fs4,fs2,ft7
    80003e06:	137afac3          	fmadd.d	fs5,fs5,fs7,ft2
    80003e0a:	6a9a76c3          	fmadd.d	fa3,fs4,fs1,fa3
    80003e0e:	eb447ec3          	fmadd.d	ft9,fs0,fs4,ft9
    80003e12:	7a9c74c3          	fmadd.d	fs1,fs8,fs1,fa5
    80003e16:	0b7a7a43          	fmadd.d	fs4,fs4,fs7,ft1
    80003e1a:	3329f343          	fmadd.d	ft6,fs3,fs2,ft6
    80003e1e:	e3347e43          	fmadd.d	ft8,fs0,fs3,ft8
    80003e22:	632c7943          	fmadd.d	fs2,fs8,fs2,fa2
    80003e26:	5b847443          	fmadd.d	fs0,fs0,fs8,fa1
    80003e2a:	0379f9c3          	fmadd.d	fs3,fs3,fs7,ft0
    80003e2e:	017589b3          	add	s3,a1,s7
    80003e32:	010f3787          	fld	fa5,16(t5)
    80003e36:	01073007          	fld	ft0,16(a4)
    80003e3a:	2a10                	fld	fa2,16(a2)
    80003e3c:	0009bb87          	fld	fs7,0(s3)
    80003e40:	0089b187          	fld	ft3,8(s3)
    80003e44:	0109b107          	fld	ft2,16(s3)
    80003e48:	0189b087          	fld	ft1,24(s3)
    80003e4c:	0209bc07          	fld	fs8,32(s3)
    80003e50:	290c                	fld	fa1,16(a0)
    80003e52:	8afbf8c3          	fmadd.d	fa7,fs7,fa5,fa7
    80003e56:	92fc7943          	fmadd.d	fs2,fs8,fa5,fs2
    80003e5a:	2abbf2c3          	fmadd.d	ft5,fs7,fa1,ft5
    80003e5e:	82f1f843          	fmadd.d	fa6,ft3,fa5,fa6
    80003e62:	22b1f243          	fmadd.d	ft4,ft3,fa1,ft4
    80003e66:	3af173c3          	fmadd.d	ft7,ft2,fa5,ft7
    80003e6a:	6ab176c3          	fmadd.d	fa3,ft2,fa1,fa3
    80003e6e:	32f0f343          	fmadd.d	ft6,ft1,fa5,ft6
    80003e72:	fb707fc3          	fmadd.d	ft11,ft0,fs7,ft11
    80003e76:	72b0f7c3          	fmadd.d	fa5,ft1,fa1,fa4
    80003e7a:	b2cbfbc3          	fmadd.d	fs7,fs7,fa2,fs6
    80003e7e:	4abc75c3          	fmadd.d	fa1,fs8,fa1,fs1
    80003e82:	f2307f43          	fmadd.d	ft10,ft0,ft3,ft10
    80003e86:	ea207ec3          	fmadd.d	ft9,ft0,ft2,ft9
    80003e8a:	aac1f1c3          	fmadd.d	ft3,ft3,fa2,fs5
    80003e8e:	a2c17143          	fmadd.d	ft2,ft2,fa2,fs4
    80003e92:	e2107e43          	fmadd.d	ft8,ft0,ft1,ft8
    80003e96:	43807043          	fmadd.d	ft0,ft0,fs8,fs0
    80003e9a:	9ac0f0c3          	fmadd.d	ft1,ft1,fa2,fs3
    80003e9e:	52cc7643          	fmadd.d	fa2,fs8,fa2,fa0
    80003ea2:	97de                	add	a5,a5,s7
    80003ea4:	2f08                	fld	fa0,24(a4)
    80003ea6:	0007bb07          	fld	fs6,0(a5)
    80003eaa:	0087ba87          	fld	fs5,8(a5)
    80003eae:	0107ba07          	fld	fs4,16(a5)
    80003eb2:	0187b987          	fld	fs3,24(a5)
    80003eb6:	0207bc07          	fld	fs8,32(a5)
    80003eba:	2e18                	fld	fa4,24(a2)
    80003ebc:	018f3487          	fld	fs1,24(t5)
    80003ec0:	2d00                	fld	fs0,24(a0)
    80003ec2:	62ec7cc3          	fmadd.d	fs9,fs8,fa4,fa2
    80003ec6:	fb657fc3          	fmadd.d	ft11,fa0,fs6,ft11
    80003eca:	7a89f7c3          	fmadd.d	fa5,fs3,fs0,fa5
    80003ece:	f3557f43          	fmadd.d	ft10,fa0,fs5,ft10
    80003ed2:	eb457ec3          	fmadd.d	ft9,fa0,fs4,ft9
    80003ed6:	e3357e43          	fmadd.d	ft8,fa0,fs3,ft8
    80003eda:	8a9b78c3          	fmadd.d	fa7,fs6,fs1,fa7
    80003ede:	03857543          	fmadd.d	fa0,fa0,fs8,ft0
    80003ee2:	829af843          	fmadd.d	fa6,fs5,fs1,fa6
    80003ee6:	3a9a73c3          	fmadd.d	ft7,fs4,fs1,ft7
    80003eea:	3299f343          	fmadd.d	ft6,fs3,fs1,ft6
    80003eee:	2a8b72c3          	fmadd.d	ft5,fs6,fs0,ft5
    80003ef2:	929c74c3          	fmadd.d	fs1,fs8,fs1,fs2
    80003ef6:	228af243          	fmadd.d	ft4,fs5,fs0,ft4
    80003efa:	6a8a76c3          	fmadd.d	fa3,fs4,fs0,fa3
    80003efe:	baeb7b43          	fmadd.d	fs6,fs6,fa4,fs7
    80003f02:	5a8c7443          	fmadd.d	fs0,fs8,fs0,fa1
    80003f06:	1aeafac3          	fmadd.d	fs5,fs5,fa4,ft3
    80003f0a:	12ea7a43          	fmadd.d	fs4,fs4,fa4,ft2
    80003f0e:	0ae9f9c3          	fmadd.d	fs3,fs3,fa4,ft1
    80003f12:	01a589b3          	add	s3,a1,s10
    80003f16:	02073087          	fld	ft1,32(a4)
    80003f1a:	02063007          	fld	ft0,32(a2)
    80003f1e:	3110                	fld	fa2,32(a0)
    80003f20:	020f3587          	fld	fa1,32(t5)
    80003f24:	0089bb87          	fld	fs7,8(s3)
    80003f28:	0109b907          	fld	fs2,16(s3)
    80003f2c:	0189b187          	fld	ft3,24(s3)
    80003f30:	0209b107          	fld	ft2,32(s3)
    80003f34:	0009bc07          	fld	fs8,0(s3)
    80003f38:	7ac1f743          	fmadd.d	fa4,ft3,fa2,fa5
    80003f3c:	5220fd43          	fmadd.d	fs10,ft1,ft2,fa0
    80003f40:	82bbf843          	fmadd.d	fa6,fs7,fa1,fa6
    80003f44:	3ab973c3          	fmadd.d	ft7,fs2,fa1,ft7
    80003f48:	32b1f343          	fmadd.d	ft6,ft3,fa1,ft6
    80003f4c:	22cbf243          	fmadd.d	ft4,fs7,fa2,ft4
    80003f50:	6ac976c3          	fmadd.d	fa3,fs2,fa2,fa3
    80003f54:	42c17443          	fmadd.d	fs0,ft2,fa2,fs0
    80003f58:	f370ff43          	fmadd.d	ft10,ft1,fs7,ft10
    80003f5c:	eb20fec3          	fmadd.d	ft9,ft1,fs2,ft9
    80003f60:	e230fe43          	fmadd.d	ft8,ft1,ft3,ft8
    80003f64:	aa0bfac3          	fmadd.d	fs5,fs7,ft0,fs5
    80003f68:	a2097a43          	fmadd.d	fs4,fs2,ft0,fs4
    80003f6c:	9a01f9c3          	fmadd.d	fs3,ft3,ft0,fs3
    80003f70:	ca017bc3          	fmadd.d	fs7,ft2,ft0,fs9
    80003f74:	8abc78c3          	fmadd.d	fa7,fs8,fa1,fa7
    80003f78:	2acc72c3          	fmadd.d	ft5,fs8,fa2,ft5
    80003f7c:	4ab175c3          	fmadd.d	fa1,ft2,fa1,fs1
    80003f80:	fb80ffc3          	fmadd.d	ft11,ft1,fs8,ft11
    80003f84:	b20c7b43          	fmadd.d	fs6,fs8,ft0,fs6
    80003f88:	97de                	add	a5,a5,s7
    80003f8a:	02873907          	fld	fs2,40(a4)
    80003f8e:	3604                	fld	fs1,40(a2)
    80003f90:	0007b187          	fld	ft3,0(a5)
    80003f94:	028f3607          	fld	fa2,40(t5)
    80003f98:	0087b107          	fld	ft2,8(a5)
    80003f9c:	0107b087          	fld	ft1,16(a5)
    80003fa0:	0187b007          	fld	ft0,24(a5)
    80003fa4:	3388                	fld	fa0,32(a5)
    80003fa6:	351c                	fld	fa5,40(a0)
    80003fa8:	03070713          	addi	a4,a4,48
    80003fac:	8ac1f8c3          	fmadd.d	fa7,ft3,fa2,fa7
    80003fb0:	82c17843          	fmadd.d	fa6,ft2,fa2,fa6
    80003fb4:	3ac0f3c3          	fmadd.d	ft7,ft1,fa2,ft7
    80003fb8:	32c07343          	fmadd.d	ft6,ft0,fa2,ft6
    80003fbc:	2af1f2c3          	fmadd.d	ft5,ft3,fa5,ft5
    80003fc0:	5ac57643          	fmadd.d	fa2,fa0,fa2,fa1
    80003fc4:	22f17243          	fmadd.d	ft4,ft2,fa5,ft4
    80003fc8:	6af0f6c3          	fmadd.d	fa3,ft1,fa5,fa3
    80003fcc:	72f07743          	fmadd.d	fa4,ft0,fa5,fa4
    80003fd0:	fa397fc3          	fmadd.d	ft11,fs2,ft3,ft11
    80003fd4:	42f577c3          	fmadd.d	fa5,fa0,fa5,fs0
    80003fd8:	f2297f43          	fmadd.d	ft10,fs2,ft2,ft10
    80003fdc:	ea197ec3          	fmadd.d	ft9,fs2,ft1,ft9
    80003fe0:	e2097e43          	fmadd.d	ft8,fs2,ft0,ft8
    80003fe4:	d2a975c3          	fmadd.d	fa1,fs2,fa0,fs10
    80003fe8:	b291f1c3          	fmadd.d	ft3,ft3,fs1,fs6
    80003fec:	aa917143          	fmadd.d	ft2,ft2,fs1,fs5
    80003ff0:	a290f0c3          	fmadd.d	ft1,ft1,fs1,fs4
    80003ff4:	9a907043          	fmadd.d	ft0,ft0,fs1,fs3
    80003ff8:	ba957543          	fmadd.d	fa0,fa0,fs1,fs7
    80003ffc:	95da                	add	a1,a1,s6
    80003ffe:	97de                	add	a5,a5,s7
    80004000:	03060613          	addi	a2,a2,48
    80004004:	d49761e3          	bltu	a4,s1,80003d46 <mm_cb+0x1bf0>
    80004008:	f2843983          	ld	s3,-216(s0)
    8000400c:	f2043f03          	ld	t5,-224(s0)
    80004010:	f1843503          	ld	a0,-232(s0)
    80004014:	0924f763          	bgeu	s1,s2,800040a2 <mm_cb+0x1f4c>
    80004018:	01da07b3          	add	a5,s4,t4
    8000401c:	867e                	mv	a2,t6
    8000401e:	8726                	mv	a4,s1
    80004020:	018705b3          	add	a1,a4,s8
    80004024:	0005b987          	fld	fs3,0(a1)
    80004028:	018605b3          	add	a1,a2,s8
    8000402c:	2304                	fld	fs1,0(a4)
    8000402e:	2200                	fld	fs0,0(a2)
    80004030:	0007bc07          	fld	fs8,0(a5)
    80004034:	0087bb87          	fld	fs7,8(a5)
    80004038:	0107bb07          	fld	fs6,16(a5)
    8000403c:	0187ba87          	fld	fs5,24(a5)
    80004040:	0207ba07          	fld	fs4,32(a5)
    80004044:	0005b907          	fld	fs2,0(a1)
    80004048:	0721                	addi	a4,a4,8
    8000404a:	8b3c78c3          	fmadd.d	fa7,fs8,fs3,fa7
    8000404e:	833bf843          	fmadd.d	fa6,fs7,fs3,fa6
    80004052:	3b3b73c3          	fmadd.d	ft7,fs6,fs3,ft7
    80004056:	333af343          	fmadd.d	ft6,fs5,fs3,ft6
    8000405a:	633a7643          	fmadd.d	fa2,fs4,fs3,fa2
    8000405e:	2b2c72c3          	fmadd.d	ft5,fs8,fs2,ft5
    80004062:	232bf243          	fmadd.d	ft4,fs7,fs2,ft4
    80004066:	6b2b76c3          	fmadd.d	fa3,fs6,fs2,fa3
    8000406a:	732af743          	fmadd.d	fa4,fs5,fs2,fa4
    8000406e:	7b2a77c3          	fmadd.d	fa5,fs4,fs2,fa5
    80004072:	fb84ffc3          	fmadd.d	ft11,fs1,fs8,ft11
    80004076:	f374ff43          	fmadd.d	ft10,fs1,fs7,ft10
    8000407a:	eb64fec3          	fmadd.d	ft9,fs1,fs6,ft9
    8000407e:	e354fe43          	fmadd.d	ft8,fs1,fs5,ft8
    80004082:	5b44f5c3          	fmadd.d	fa1,fs1,fs4,fa1
    80004086:	1a8c71c3          	fmadd.d	ft3,fs8,fs0,ft3
    8000408a:	128bf143          	fmadd.d	ft2,fs7,fs0,ft2
    8000408e:	0a8b70c3          	fmadd.d	ft1,fs6,fs0,ft1
    80004092:	028af043          	fmadd.d	ft0,fs5,fs0,ft0
    80004096:	528a7543          	fmadd.d	fa0,fs4,fs0,fa0
    8000409a:	97ee                	add	a5,a5,s11
    8000409c:	0621                	addi	a2,a2,8
    8000409e:	f92761e3          	bltu	a4,s2,80004020 <mm_cb+0x1eca>
    800040a2:	01fe3027          	fsd	ft11,0(t3)
    800040a6:	01ee3427          	fsd	ft10,8(t3)
    800040aa:	01de3827          	fsd	ft9,16(t3)
    800040ae:	01ce3c27          	fsd	ft8,24(t3)
    800040b2:	02be3027          	fsd	fa1,32(t3)
    800040b6:	0036b027          	fsd	ft3,0(a3)
    800040ba:	0026b427          	fsd	ft2,8(a3)
    800040be:	0016b827          	fsd	ft1,16(a3)
    800040c2:	0006bc27          	fsd	ft0,24(a3)
    800040c6:	b288                	fsd	fa0,32(a3)
    800040c8:	01133027          	fsd	fa7,0(t1)
    800040cc:	01033427          	fsd	fa6,8(t1)
    800040d0:	00733827          	fsd	ft7,16(t1)
    800040d4:	00633c27          	fsd	ft6,24(t1)
    800040d8:	02c33027          	fsd	fa2,32(t1)
    800040dc:	00583027          	fsd	ft5,0(a6)
    800040e0:	00483427          	fsd	ft4,8(a6)
    800040e4:	00d83827          	fsd	fa3,16(a6)
    800040e8:	00e83c27          	fsd	fa4,24(a6)
    800040ec:	02f83027          	fsd	fa5,32(a6)
    800040f0:	0f15                	addi	t5,t5,5
    800040f2:	028e0e13          	addi	t3,t3,40
    800040f6:	02868693          	addi	a3,a3,40
    800040fa:	02830313          	addi	t1,t1,40
    800040fe:	02880813          	addi	a6,a6,40
    80004102:	028e8e93          	addi	t4,t4,40
    80004106:	bd3f6ce3          	bltu	t5,s3,80003cde <mm_cb+0x1b88>
    8000410a:	87aa                	mv	a5,a0
    8000410c:	6018                	ld	a4,0(s0)
    8000410e:	f2743023          	sd	t2,-224(s0)
    80004112:	86d6                	mv	a3,s5
    80004114:	e03a                	sd	a4,0(sp)
    80004116:	e9043703          	ld	a4,-368(s0)
    8000411a:	ef843803          	ld	a6,-264(s0)
    8000411e:	ee043603          	ld	a2,-288(s0)
    80004122:	98ba                	add	a7,a7,a4
    80004124:	ec843583          	ld	a1,-312(s0)
    80004128:	ed843703          	ld	a4,-296(s0)
    8000412c:	f2f43423          	sd	a5,-216(s0)
    80004130:	4511                	li	a0,4
    80004132:	ecffd0ef          	jal	80002000 <mm_naive>
    80004136:	ee843783          	ld	a5,-280(s0)
    8000413a:	e8843683          	ld	a3,-376(s0)
    8000413e:	f2043383          	ld	t2,-224(s0)
    80004142:	00478713          	addi	a4,a5,4
    80004146:	e8043783          	ld	a5,-384(s0)
    8000414a:	eee43423          	sd	a4,-280(s0)
    8000414e:	9abe                	add	s5,s5,a5
    80004150:	94be                	add	s1,s1,a5
    80004152:	993e                	add	s2,s2,a5
    80004154:	f0043783          	ld	a5,-256(s0)
    80004158:	97b6                	add	a5,a5,a3
    8000415a:	ef043683          	ld	a3,-272(s0)
    8000415e:	f0f43023          	sd	a5,-256(s0)
    80004162:	f2843783          	ld	a5,-216(s0)
    80004166:	b2d76ae3          	bltu	a4,a3,80003c9a <mm_cb+0x1b44>
    8000416a:	ee043603          	ld	a2,-288(s0)
    8000416e:	df843f03          	ld	t5,-520(s0)
    80004172:	df043e83          	ld	t4,-528(s0)
    80004176:	8a1e                	mv	s4,t2
    80004178:	601c                	ld	a5,0(s0)
    8000417a:	f3d43023          	sd	t4,-224(s0)
    8000417e:	f3e43423          	sd	t5,-216(s0)
    80004182:	e03e                	sd	a5,0(sp)
    80004184:	ea843683          	ld	a3,-344(s0)
    80004188:	eb043883          	ld	a7,-336(s0)
    8000418c:	ef843803          	ld	a6,-264(s0)
    80004190:	ed843703          	ld	a4,-296(s0)
    80004194:	e3843583          	ld	a1,-456(s0)
    80004198:	ec043503          	ld	a0,-320(s0)
    8000419c:	87e6                	mv	a5,s9
    8000419e:	96d2                	add	a3,a3,s4
    800041a0:	e61fd0ef          	jal	80002000 <mm_naive>
    800041a4:	f2843f03          	ld	t5,-216(s0)
    800041a8:	e6843783          	ld	a5,-408(s0)
    800041ac:	f2043e83          	ld	t4,-224(s0)
    800041b0:	0f61                	addi	t5,t5,24
    800041b2:	9cbe                	add	s9,s9,a5
    800041b4:	0c0a0a13          	addi	s4,s4,192
    800041b8:	a9df62e3          	bltu	t5,t4,80003c3c <mm_cb+0x1ae6>
    800041bc:	f0843783          	ld	a5,-248(s0)
    800041c0:	e2843903          	ld	s2,-472(s0)
    800041c4:	e0843a83          	ld	s5,-504(s0)
    800041c8:	0c878793          	addi	a5,a5,200
    800041cc:	f0f43423          	sd	a5,-248(s0)
    800041d0:	f1043783          	ld	a5,-240(s0)
    800041d4:	0965                	addi	s2,s2,25
    800041d6:	e3043f83          	ld	t6,-464(s0)
    800041da:	0c878793          	addi	a5,a5,200
    800041de:	f0f43823          	sd	a5,-240(s0)
    800041e2:	e2043483          	ld	s1,-480(s0)
    800041e6:	e1843c83          	ld	s9,-488(s0)
    800041ea:	e1043603          	ld	a2,-496(s0)
    800041ee:	e0043a03          	ld	s4,-512(s0)
    800041f2:	ef843803          	ld	a6,-264(s0)
    800041f6:	9b596ce3          	bltu	s2,s5,80003bae <mm_cb+0x1a58>
    800041fa:	e5043583          	ld	a1,-432(s0)
    800041fe:	e4843483          	ld	s1,-440(s0)
    80004202:	8d56                	mv	s10,s5
    80004204:	c199                	beqz	a1,8000420a <mm_cb+0x20b4>
    80004206:	b3bfe06f          	j	80002d40 <mm_cb+0xbea>
    8000420a:	c25fe06f          	j	80002e2e <mm_cb+0xcd8>
    8000420e:	f0043703          	ld	a4,-256(s0)
    80004212:	00371893          	slli	a7,a4,0x3
    80004216:	bddd                	j	8000410c <mm_cb+0x1fb6>
    80004218:	019e8793          	addi	a5,t4,25
    8000421c:	032e8e93          	addi	t4,t4,50
    80004220:	ffa7f2e3          	bgeu	a5,s10,80004204 <mm_cb+0x20ae>
    80004224:	ffaeeae3          	bltu	t4,s10,80004218 <mm_cb+0x20c2>
    80004228:	c199                	beqz	a1,8000422e <mm_cb+0x20d8>
    8000422a:	b17fe06f          	j	80002d40 <mm_cb+0xbea>
    8000422e:	c01fe06f          	j	80002e2e <mm_cb+0xcd8>
    80004232:	000f0463          	beqz	t5,8000423a <mm_cb+0x20e4>
    80004236:	92cfe06f          	j	80002362 <mm_cb+0x20c>
    8000423a:	00091463          	bnez	s2,80004242 <mm_cb+0x20ec>
    8000423e:	bf1fe06f          	j	80002e2e <mm_cb+0xcd8>
    80004242:	880d16e3          	bnez	s10,80003ace <mm_cb+0x1978>
    80004246:	be9fe06f          	j	80002e2e <mm_cb+0xcd8>
    8000424a:	601c                	ld	a5,0(s0)
    8000424c:	00179893          	slli	a7,a5,0x1
    80004250:	b40fe06f          	j	80002590 <mm_cb+0x43a>
    80004254:	4781                	li	a5,0
    80004256:	01878713          	addi	a4,a5,24
    8000425a:	03078793          	addi	a5,a5,48
    8000425e:	00b76463          	bltu	a4,a1,80004266 <mm_cb+0x2110>
    80004262:	a12fe06f          	j	80002474 <mm_cb+0x31e>
    80004266:	feb7e8e3          	bltu	a5,a1,80004256 <mm_cb+0x2100>
    8000426a:	a0afe06f          	j	80002474 <mm_cb+0x31e>

000000008000426e <mm>:
    8000426e:	7149                	addi	sp,sp,-368
    80004270:	7f56                	ld	t5,368(sp)
    80004272:	03163313          	sltiu	t1,a2,49
    80004276:	0335be13          	sltiu	t3,a1,51
    8000427a:	006e7e33          	and	t3,t3,t1
    8000427e:	03153313          	sltiu	t1,a0,49
    80004282:	f686                	sd	ra,360(sp)
    80004284:	f2a2                	sd	s0,352(sp)
    80004286:	01c37333          	and	t1,t1,t3
    8000428a:	f07a                	sd	t5,32(sp)
    8000428c:	5c030f63          	beqz	t1,8000486a <mm+0x5fc>
    80004290:	832a                	mv	t1,a0
    80004292:	eea6                	sd	s1,344(sp)
    80004294:	853a                	mv	a0,a4
    80004296:	84be                	mv	s1,a5
    80004298:	ffc37713          	andi	a4,t1,-4
    8000429c:	fcc6                	sd	a7,120(sp)
    8000429e:	f8a6                	sd	s1,112(sp)
    800042a0:	f43a                	sd	a4,40(sp)
    800042a2:	8446                	mv	s0,a7
    800042a4:	87c2                	mv	a5,a6
    800042a6:	58070b63          	beqz	a4,8000483c <mm+0x5ce>
    800042aa:	aaaab837          	lui	a6,0xaaaab
    800042ae:	aab80813          	addi	a6,a6,-1365 # ffffffffaaaaaaab <__global_pointer$+0xffffffff2aaa4e3b>
    800042b2:	02081713          	slli	a4,a6,0x20
    800042b6:	9742                	add	a4,a4,a6
    800042b8:	02e63733          	mulhu	a4,a2,a4
    800042bc:	ccccd8b7          	lui	a7,0xccccd
    800042c0:	ccd88893          	addi	a7,a7,-819 # ffffffffcccccccd <__global_pointer$+0xffffffff4ccc705d>
    800042c4:	02089813          	slli	a6,a7,0x20
    800042c8:	9846                	add	a6,a6,a7
    800042ca:	eaca                	sd	s2,336(sp)
    800042cc:	f65e                	sd	s7,296(sp)
    800042ce:	0305b833          	mulhu	a6,a1,a6
    800042d2:	f262                	sd	s8,288(sp)
    800042d4:	001f1893          	slli	a7,t5,0x1
    800042d8:	8309                	srli	a4,a4,0x2
    800042da:	00171913          	slli	s2,a4,0x1
    800042de:	993a                	add	s2,s2,a4
    800042e0:	98fa                	add	a7,a7,t5
    800042e2:	02e78733          	mul	a4,a5,a4
    800042e6:	088e                	slli	a7,a7,0x3
    800042e8:	fe56                	sd	s5,312(sp)
    800042ea:	00285e13          	srli	t3,a6,0x2
    800042ee:	ffc87813          	andi	a6,a6,-4
    800042f2:	01c80bb3          	add	s7,a6,t3
    800042f6:	003b9e93          	slli	t4,s7,0x3
    800042fa:	00179a93          	slli	s5,a5,0x1
    800042fe:	e6ce                	sd	s3,328(sp)
    80004300:	e2d2                	sd	s4,320(sp)
    80004302:	00171c13          	slli	s8,a4,0x1
    80004306:	9c3a                	add	s8,s8,a4
    80004308:	01d48733          	add	a4,s1,t4
    8000430c:	ecba                	sd	a4,88(sp)
    8000430e:	01d40733          	add	a4,s0,t4
    80004312:	f0ba                	sd	a4,96(sp)
    80004314:	41758733          	sub	a4,a1,s7
    80004318:	e8ba                	sd	a4,80(sp)
    8000431a:	01140733          	add	a4,s0,a7
    8000431e:	e53a                	sd	a4,136(sp)
    80004320:	003f1713          	slli	a4,t5,0x3
    80004324:	9722                	add	a4,a4,s0
    80004326:	ed3a                	sd	a4,152(sp)
    80004328:	004f1713          	slli	a4,t5,0x4
    8000432c:	9722                	add	a4,a4,s0
    8000432e:	e93a                	sd	a4,144(sp)
    80004330:	00351713          	slli	a4,a0,0x3
    80004334:	e13a                	sd	a4,128(sp)
    80004336:	002f1713          	slli	a4,t5,0x2
    8000433a:	fa5a                	sd	s6,304(sp)
    8000433c:	ee66                	sd	s9,280(sp)
    8000433e:	ea6a                	sd	s10,272(sp)
    80004340:	e66e                	sd	s11,264(sp)
    80004342:	bda2                	fsd	fs0,248(sp)
    80004344:	b9a6                	fsd	fs1,240(sp)
    80004346:	b5ca                	fsd	fs2,232(sp)
    80004348:	b1ce                	fsd	fs3,224(sp)
    8000434a:	add2                	fsd	fs4,216(sp)
    8000434c:	a9d6                	fsd	fs5,208(sp)
    8000434e:	a5da                	fsd	fs6,200(sp)
    80004350:	a1de                	fsd	fs7,192(sp)
    80004352:	bd62                	fsd	fs8,184(sp)
    80004354:	b966                	fsd	fs9,176(sp)
    80004356:	0912                	slli	s2,s2,0x4
    80004358:	9abe                	add	s5,s5,a5
    8000435a:	00361993          	slli	s3,a2,0x3
    8000435e:	f4ba                	sd	a4,104(sp)
    80004360:	f82e                	sd	a1,48(sp)
    80004362:	fc32                	sd	a2,56(sp)
    80004364:	f11a                	sd	t1,160(sp)
    80004366:	f536                	sd	a3,168(sp)
    80004368:	e0aa                	sd	a0,64(sp)
    8000436a:	9936                	add	s2,s2,a3
    8000436c:	0c12                	slli	s8,s8,0x4
    8000436e:	0a92                	slli	s5,s5,0x4
    80004370:	99b6                	add	s3,s3,a3
    80004372:	00451493          	slli	s1,a0,0x4
    80004376:	00379a13          	slli	s4,a5,0x3
    8000437a:	00479413          	slli	s0,a5,0x4
    8000437e:	00579b13          	slli	s6,a5,0x5
    80004382:	00551c93          	slli	s9,a0,0x5
    80004386:	8d36                	mv	s10,a3
    80004388:	4d81                	li	s11,0
    8000438a:	4381                	li	t2,0
    8000438c:	e4be                	sd	a5,72(sp)
    8000438e:	77c2                	ld	a5,48(sp)
    80004390:	4711                	li	a4,4
    80004392:	003d9893          	slli	a7,s11,0x3
    80004396:	44f77163          	bgeu	a4,a5,800047d8 <mm+0x56a>
    8000439a:	77e6                	ld	a5,120(sp)
    8000439c:	7ec6                	ld	t4,112(sp)
    8000439e:	4f01                	li	t5,0
    800043a0:	01178e33          	add	t3,a5,a7
    800043a4:	67ea                	ld	a5,152(sp)
    800043a6:	011786b3          	add	a3,a5,a7
    800043aa:	67ca                	ld	a5,144(sp)
    800043ac:	01178333          	add	t1,a5,a7
    800043b0:	67aa                	ld	a5,136(sp)
    800043b2:	01178833          	add	a6,a5,a7
    800043b6:	678a                	ld	a5,128(sp)
    800043b8:	01a782b3          	add	t0,a5,s10
    800043bc:	01278fb3          	add	t6,a5,s2
    800043c0:	000e3f87          	fld	ft11,0(t3)
    800043c4:	008e3f07          	fld	ft10,8(t3)
    800043c8:	010e3e87          	fld	ft9,16(t3)
    800043cc:	018e3e07          	fld	ft8,24(t3)
    800043d0:	020e3587          	fld	fa1,32(t3)
    800043d4:	0006b187          	fld	ft3,0(a3)
    800043d8:	0086b107          	fld	ft2,8(a3)
    800043dc:	0106b087          	fld	ft1,16(a3)
    800043e0:	0186b007          	fld	ft0,24(a3)
    800043e4:	3288                	fld	fa0,32(a3)
    800043e6:	00033887          	fld	fa7,0(t1)
    800043ea:	00833807          	fld	fa6,8(t1)
    800043ee:	01033387          	fld	ft7,16(t1)
    800043f2:	01833307          	fld	ft6,24(t1)
    800043f6:	02033607          	fld	fa2,32(t1)
    800043fa:	00083287          	fld	ft5,0(a6)
    800043fe:	00883207          	fld	ft4,8(a6)
    80004402:	01083687          	fld	fa3,16(a6)
    80004406:	01883707          	fld	fa4,24(a6)
    8000440a:	02083787          	fld	fa5,32(a6)
    8000440e:	2d2d7a63          	bgeu	s10,s2,800046e2 <mm+0x474>
    80004412:	85f6                	mv	a1,t4
    80004414:	01da07b3          	add	a5,s4,t4
    80004418:	8616                	mv	a2,t0
    8000441a:	876a                	mv	a4,s10
    8000441c:	e85e                	sd	s7,16(sp)
    8000441e:	ec52                	sd	s4,24(sp)
    80004420:	00970a33          	add	s4,a4,s1
    80004424:	000a3407          	fld	fs0,0(s4)
    80004428:	0005bb87          	fld	fs7,0(a1)
    8000442c:	0085bb07          	fld	fs6,8(a1)
    80004430:	0105ba87          	fld	fs5,16(a1)
    80004434:	0185ba07          	fld	fs4,24(a1)
    80004438:	0205b987          	fld	fs3,32(a1)
    8000443c:	00960533          	add	a0,a2,s1
    80004440:	2304                	fld	fs1,0(a4)
    80004442:	00053907          	fld	fs2,0(a0)
    80004446:	6289f643          	fmadd.d	fa2,fs3,fs0,fa2
    8000444a:	8a8bf8c3          	fmadd.d	fa7,fs7,fs0,fa7
    8000444e:	828b7843          	fmadd.d	fa6,fs6,fs0,fa6
    80004452:	3a8af3c3          	fmadd.d	ft7,fs5,fs0,ft7
    80004456:	328a7343          	fmadd.d	ft6,fs4,fs0,ft6
    8000445a:	2200                	fld	fs0,0(a2)
    8000445c:	7b29f7c3          	fmadd.d	fa5,fs3,fs2,fa5
    80004460:	5b34f5c3          	fmadd.d	fa1,fs1,fs3,fa1
    80004464:	1a8bf1c3          	fmadd.d	ft3,fs7,fs0,ft3
    80004468:	128b7143          	fmadd.d	ft2,fs6,fs0,ft2
    8000446c:	0a8af0c3          	fmadd.d	ft1,fs5,fs0,ft1
    80004470:	028a7043          	fmadd.d	ft0,fs4,fs0,ft0
    80004474:	2b2bf2c3          	fmadd.d	ft5,fs7,fs2,ft5
    80004478:	fb74ffc3          	fmadd.d	ft11,fs1,fs7,ft11
    8000447c:	232b7243          	fmadd.d	ft4,fs6,fs2,ft4
    80004480:	f364ff43          	fmadd.d	ft10,fs1,fs6,ft10
    80004484:	6b2af6c3          	fmadd.d	fa3,fs5,fs2,fa3
    80004488:	eb54fec3          	fmadd.d	ft9,fs1,fs5,ft9
    8000448c:	732a7743          	fmadd.d	fa4,fs4,fs2,fa4
    80004490:	e344fe43          	fmadd.d	ft8,fs1,fs4,ft8
    80004494:	5289f543          	fmadd.d	fa0,fs3,fs0,fa0
    80004498:	00863b87          	fld	fs7,8(a2)
    8000449c:	2700                	fld	fs0,8(a4)
    8000449e:	0207bc07          	fld	fs8,32(a5)
    800044a2:	008a3907          	fld	fs2,8(s4)
    800044a6:	0007bb07          	fld	fs6,0(a5)
    800044aa:	2504                	fld	fs1,8(a0)
    800044ac:	0087ba87          	fld	fs5,8(a5)
    800044b0:	0107ba07          	fld	fs4,16(a5)
    800044b4:	0187b987          	fld	fs3,24(a5)
    800044b8:	537c7543          	fmadd.d	fa0,fs8,fs7,fa0
    800044bc:	8b2b78c3          	fmadd.d	fa7,fs6,fs2,fa7
    800044c0:	7299f743          	fmadd.d	fa4,fs3,fs1,fa4
    800044c4:	2a9b72c3          	fmadd.d	ft5,fs6,fs1,ft5
    800044c8:	fb647fc3          	fmadd.d	ft11,fs0,fs6,ft11
    800044cc:	832af843          	fmadd.d	fa6,fs5,fs2,fa6
    800044d0:	1b7b7b43          	fmadd.d	fs6,fs6,fs7,ft3
    800044d4:	229af243          	fmadd.d	ft4,fs5,fs1,ft4
    800044d8:	f3547f43          	fmadd.d	ft10,fs0,fs5,ft10
    800044dc:	3b2a73c3          	fmadd.d	ft7,fs4,fs2,ft7
    800044e0:	137afac3          	fmadd.d	fs5,fs5,fs7,ft2
    800044e4:	6a9a76c3          	fmadd.d	fa3,fs4,fs1,fa3
    800044e8:	eb447ec3          	fmadd.d	ft9,fs0,fs4,ft9
    800044ec:	7a9c74c3          	fmadd.d	fs1,fs8,fs1,fa5
    800044f0:	0b7a7a43          	fmadd.d	fs4,fs4,fs7,ft1
    800044f4:	3329f343          	fmadd.d	ft6,fs3,fs2,ft6
    800044f8:	e3347e43          	fmadd.d	ft8,fs0,fs3,ft8
    800044fc:	632c7943          	fmadd.d	fs2,fs8,fs2,fa2
    80004500:	5b847443          	fmadd.d	fs0,fs0,fs8,fa1
    80004504:	0379f9c3          	fmadd.d	fs3,fs3,fs7,ft0
    80004508:	00b40bb3          	add	s7,s0,a1
    8000450c:	010a3787          	fld	fa5,16(s4)
    80004510:	01073007          	fld	ft0,16(a4)
    80004514:	2a10                	fld	fa2,16(a2)
    80004516:	000bbb87          	fld	fs7,0(s7)
    8000451a:	008bb187          	fld	ft3,8(s7)
    8000451e:	010bb107          	fld	ft2,16(s7)
    80004522:	018bb087          	fld	ft1,24(s7)
    80004526:	020bbc07          	fld	fs8,32(s7)
    8000452a:	290c                	fld	fa1,16(a0)
    8000452c:	8afbf8c3          	fmadd.d	fa7,fs7,fa5,fa7
    80004530:	92fc7943          	fmadd.d	fs2,fs8,fa5,fs2
    80004534:	2abbf2c3          	fmadd.d	ft5,fs7,fa1,ft5
    80004538:	82f1f843          	fmadd.d	fa6,ft3,fa5,fa6
    8000453c:	22b1f243          	fmadd.d	ft4,ft3,fa1,ft4
    80004540:	3af173c3          	fmadd.d	ft7,ft2,fa5,ft7
    80004544:	6ab176c3          	fmadd.d	fa3,ft2,fa1,fa3
    80004548:	32f0f343          	fmadd.d	ft6,ft1,fa5,ft6
    8000454c:	fb707fc3          	fmadd.d	ft11,ft0,fs7,ft11
    80004550:	72b0f7c3          	fmadd.d	fa5,ft1,fa1,fa4
    80004554:	b2cbfbc3          	fmadd.d	fs7,fs7,fa2,fs6
    80004558:	4abc75c3          	fmadd.d	fa1,fs8,fa1,fs1
    8000455c:	f2307f43          	fmadd.d	ft10,ft0,ft3,ft10
    80004560:	ea207ec3          	fmadd.d	ft9,ft0,ft2,ft9
    80004564:	aac1f1c3          	fmadd.d	ft3,ft3,fa2,fs5
    80004568:	a2c17143          	fmadd.d	ft2,ft2,fa2,fs4
    8000456c:	e2107e43          	fmadd.d	ft8,ft0,ft1,ft8
    80004570:	9ac0f0c3          	fmadd.d	ft1,ft1,fa2,fs3
    80004574:	43807043          	fmadd.d	ft0,ft0,fs8,fs0
    80004578:	52cc7643          	fmadd.d	fa2,fs8,fa2,fa0
    8000457c:	97a2                	add	a5,a5,s0
    8000457e:	2f18                	fld	fa4,24(a4)
    80004580:	0007bb07          	fld	fs6,0(a5)
    80004584:	0087ba87          	fld	fs5,8(a5)
    80004588:	0107ba07          	fld	fs4,16(a5)
    8000458c:	0187b987          	fld	fs3,24(a5)
    80004590:	0207bc07          	fld	fs8,32(a5)
    80004594:	2d08                	fld	fa0,24(a0)
    80004596:	2e00                	fld	fs0,24(a2)
    80004598:	018a3487          	fld	fs1,24(s4)
    8000459c:	03877043          	fmadd.d	ft0,fa4,fs8,ft0
    800045a0:	5aac75c3          	fmadd.d	fa1,fs8,fa0,fa1
    800045a4:	fb677fc3          	fmadd.d	ft11,fa4,fs6,ft11
    800045a8:	f3577f43          	fmadd.d	ft10,fa4,fs5,ft10
    800045ac:	eb477ec3          	fmadd.d	ft9,fa4,fs4,ft9
    800045b0:	e3377e43          	fmadd.d	ft8,fa4,fs3,ft8
    800045b4:	8a9b78c3          	fmadd.d	fa7,fs6,fs1,fa7
    800045b8:	7aa9f743          	fmadd.d	fa4,fs3,fa0,fa5
    800045bc:	829af843          	fmadd.d	fa6,fs5,fs1,fa6
    800045c0:	3a9a73c3          	fmadd.d	ft7,fs4,fs1,ft7
    800045c4:	3299f343          	fmadd.d	ft6,fs3,fs1,ft6
    800045c8:	2aab72c3          	fmadd.d	ft5,fs6,fa0,ft5
    800045cc:	929c74c3          	fmadd.d	fs1,fs8,fs1,fs2
    800045d0:	22aaf243          	fmadd.d	ft4,fs5,fa0,ft4
    800045d4:	6aaa76c3          	fmadd.d	fa3,fs4,fa0,fa3
    800045d8:	ba8b7b43          	fmadd.d	fs6,fs6,fs0,fs7
    800045dc:	128a7a43          	fmadd.d	fs4,fs4,fs0,ft2
    800045e0:	1a8afac3          	fmadd.d	fs5,fs5,fs0,ft3
    800045e4:	0a89f9c3          	fmadd.d	fs3,fs3,fs0,ft1
    800045e8:	628c7443          	fmadd.d	fs0,fs8,fs0,fa2
    800045ec:	00bb0bb3          	add	s7,s6,a1
    800045f0:	02073087          	fld	ft1,32(a4)
    800045f4:	321c                	fld	fa5,32(a2)
    800045f6:	020a3607          	fld	fa2,32(s4)
    800045fa:	008bbb87          	fld	fs7,8(s7)
    800045fe:	018bb187          	fld	ft3,24(s7)
    80004602:	020bb107          	fld	ft2,32(s7)
    80004606:	3108                	fld	fa0,32(a0)
    80004608:	000bbc07          	fld	fs8,0(s7)
    8000460c:	010bb907          	fld	fs2,16(s7)
    80004610:	0220fcc3          	fmadd.d	fs9,ft1,ft2,ft0
    80004614:	82cbf843          	fmadd.d	fa6,fs7,fa2,fa6
    80004618:	3ac973c3          	fmadd.d	ft7,fs2,fa2,ft7
    8000461c:	32c1f343          	fmadd.d	ft6,ft3,fa2,ft6
    80004620:	22abf243          	fmadd.d	ft4,fs7,fa0,ft4
    80004624:	6aa976c3          	fmadd.d	fa3,fs2,fa0,fa3
    80004628:	72a1f743          	fmadd.d	fa4,ft3,fa0,fa4
    8000462c:	f370ff43          	fmadd.d	ft10,ft1,fs7,ft10
    80004630:	eb20fec3          	fmadd.d	ft9,ft1,fs2,ft9
    80004634:	e230fe43          	fmadd.d	ft8,ft1,ft3,ft8
    80004638:	aafbfac3          	fmadd.d	fs5,fs7,fa5,fs5
    8000463c:	a2f97943          	fmadd.d	fs2,fs2,fa5,fs4
    80004640:	42f17bc3          	fmadd.d	fs7,ft2,fa5,fs0
    80004644:	9af1f9c3          	fmadd.d	fs3,ft3,fa5,fs3
    80004648:	8acc78c3          	fmadd.d	fa7,fs8,fa2,fa7
    8000464c:	2aac72c3          	fmadd.d	ft5,fs8,fa0,ft5
    80004650:	4ac17643          	fmadd.d	fa2,ft2,fa2,fs1
    80004654:	5aa17543          	fmadd.d	fa0,ft2,fa0,fa1
    80004658:	fb80ffc3          	fmadd.d	ft11,ft1,fs8,ft11
    8000465c:	b2fc7b43          	fmadd.d	fs6,fs8,fa5,fs6
    80004660:	97a2                	add	a5,a5,s0
    80004662:	370c                	fld	fa1,40(a4)
    80004664:	3600                	fld	fs0,40(a2)
    80004666:	0007b187          	fld	ft3,0(a5)
    8000466a:	028a3a07          	fld	fs4,40(s4)
    8000466e:	0087b107          	fld	ft2,8(a5)
    80004672:	0107b087          	fld	ft1,16(a5)
    80004676:	0187b007          	fld	ft0,24(a5)
    8000467a:	3384                	fld	fs1,32(a5)
    8000467c:	351c                	fld	fa5,40(a0)
    8000467e:	03070713          	addi	a4,a4,48
    80004682:	fa35ffc3          	fmadd.d	ft11,fa1,ft3,ft11
    80004686:	2af1f2c3          	fmadd.d	ft5,ft3,fa5,ft5
    8000468a:	22f17243          	fmadd.d	ft4,ft2,fa5,ft4
    8000468e:	6af0f6c3          	fmadd.d	fa3,ft1,fa5,fa3
    80004692:	72f07743          	fmadd.d	fa4,ft0,fa5,fa4
    80004696:	f225ff43          	fmadd.d	ft10,fa1,ft2,ft10
    8000469a:	ea15fec3          	fmadd.d	ft9,fa1,ft1,ft9
    8000469e:	e205fe43          	fmadd.d	ft8,fa1,ft0,ft8
    800046a2:	8b41f8c3          	fmadd.d	fa7,ft3,fs4,fa7
    800046a6:	83417843          	fmadd.d	fa6,ft2,fs4,fa6
    800046aa:	3b40f3c3          	fmadd.d	ft7,ft1,fs4,ft7
    800046ae:	33407343          	fmadd.d	ft6,ft0,fs4,ft6
    800046b2:	52f4f7c3          	fmadd.d	fa5,fs1,fa5,fa0
    800046b6:	6344f643          	fmadd.d	fa2,fs1,fs4,fa2
    800046ba:	ca95f5c3          	fmadd.d	fa1,fa1,fs1,fs9
    800046be:	b281f1c3          	fmadd.d	ft3,ft3,fs0,fs6
    800046c2:	aa817143          	fmadd.d	ft2,ft2,fs0,fs5
    800046c6:	9280f0c3          	fmadd.d	ft1,ft1,fs0,fs2
    800046ca:	9a807043          	fmadd.d	ft0,ft0,fs0,fs3
    800046ce:	ba84f543          	fmadd.d	fa0,fs1,fs0,fs7
    800046d2:	95d6                	add	a1,a1,s5
    800046d4:	97a2                	add	a5,a5,s0
    800046d6:	03060613          	addi	a2,a2,48
    800046da:	d52763e3          	bltu	a4,s2,80004420 <mm+0x1b2>
    800046de:	6bc2                	ld	s7,16(sp)
    800046e0:	6a62                	ld	s4,24(sp)
    800046e2:	09397763          	bgeu	s2,s3,80004770 <mm+0x502>
    800046e6:	01dc07b3          	add	a5,s8,t4
    800046ea:	867e                	mv	a2,t6
    800046ec:	874a                	mv	a4,s2
    800046ee:	009705b3          	add	a1,a4,s1
    800046f2:	0005b987          	fld	fs3,0(a1)
    800046f6:	009605b3          	add	a1,a2,s1
    800046fa:	2304                	fld	fs1,0(a4)
    800046fc:	2200                	fld	fs0,0(a2)
    800046fe:	0007bc07          	fld	fs8,0(a5)
    80004702:	0087bb87          	fld	fs7,8(a5)
    80004706:	0107bb07          	fld	fs6,16(a5)
    8000470a:	0187ba87          	fld	fs5,24(a5)
    8000470e:	0207ba07          	fld	fs4,32(a5)
    80004712:	0005b907          	fld	fs2,0(a1)
    80004716:	0721                	addi	a4,a4,8
    80004718:	8b3c78c3          	fmadd.d	fa7,fs8,fs3,fa7
    8000471c:	833bf843          	fmadd.d	fa6,fs7,fs3,fa6
    80004720:	3b3b73c3          	fmadd.d	ft7,fs6,fs3,ft7
    80004724:	333af343          	fmadd.d	ft6,fs5,fs3,ft6
    80004728:	633a7643          	fmadd.d	fa2,fs4,fs3,fa2
    8000472c:	2b2c72c3          	fmadd.d	ft5,fs8,fs2,ft5
    80004730:	232bf243          	fmadd.d	ft4,fs7,fs2,ft4
    80004734:	6b2b76c3          	fmadd.d	fa3,fs6,fs2,fa3
    80004738:	732af743          	fmadd.d	fa4,fs5,fs2,fa4
    8000473c:	7b2a77c3          	fmadd.d	fa5,fs4,fs2,fa5
    80004740:	fb84ffc3          	fmadd.d	ft11,fs1,fs8,ft11
    80004744:	f374ff43          	fmadd.d	ft10,fs1,fs7,ft10
    80004748:	eb64fec3          	fmadd.d	ft9,fs1,fs6,ft9
    8000474c:	e354fe43          	fmadd.d	ft8,fs1,fs5,ft8
    80004750:	5b44f5c3          	fmadd.d	fa1,fs1,fs4,fa1
    80004754:	1a8c71c3          	fmadd.d	ft3,fs8,fs0,ft3
    80004758:	128bf143          	fmadd.d	ft2,fs7,fs0,ft2
    8000475c:	0a8b70c3          	fmadd.d	ft1,fs6,fs0,ft1
    80004760:	028af043          	fmadd.d	ft0,fs5,fs0,ft0
    80004764:	528a7543          	fmadd.d	fa0,fs4,fs0,fa0
    80004768:	97d2                	add	a5,a5,s4
    8000476a:	0621                	addi	a2,a2,8
    8000476c:	f93761e3          	bltu	a4,s3,800046ee <mm+0x480>
    80004770:	01fe3027          	fsd	ft11,0(t3)
    80004774:	01ee3427          	fsd	ft10,8(t3)
    80004778:	01de3827          	fsd	ft9,16(t3)
    8000477c:	01ce3c27          	fsd	ft8,24(t3)
    80004780:	02be3027          	fsd	fa1,32(t3)
    80004784:	0036b027          	fsd	ft3,0(a3)
    80004788:	0026b427          	fsd	ft2,8(a3)
    8000478c:	0016b827          	fsd	ft1,16(a3)
    80004790:	0006bc27          	fsd	ft0,24(a3)
    80004794:	b288                	fsd	fa0,32(a3)
    80004796:	01133027          	fsd	fa7,0(t1)
    8000479a:	01033427          	fsd	fa6,8(t1)
    8000479e:	00733827          	fsd	ft7,16(t1)
    800047a2:	00633c27          	fsd	ft6,24(t1)
    800047a6:	02c33027          	fsd	fa2,32(t1)
    800047aa:	00583027          	fsd	ft5,0(a6)
    800047ae:	00483427          	fsd	ft4,8(a6)
    800047b2:	00d83827          	fsd	fa3,16(a6)
    800047b6:	00e83c27          	fsd	fa4,24(a6)
    800047ba:	02f83027          	fsd	fa5,32(a6)
    800047be:	0f15                	addi	t5,t5,5
    800047c0:	028e0e13          	addi	t3,t3,40
    800047c4:	02868693          	addi	a3,a3,40
    800047c8:	02830313          	addi	t1,t1,40
    800047cc:	02880813          	addi	a6,a6,40
    800047d0:	028e8e93          	addi	t4,t4,40
    800047d4:	bf7f66e3          	bltu	t5,s7,800043c0 <mm+0x152>
    800047d8:	7782                	ld	a5,32(sp)
    800047da:	6826                	ld	a6,72(sp)
    800047dc:	6706                	ld	a4,64(sp)
    800047de:	e03e                	sd	a5,0(sp)
    800047e0:	7786                	ld	a5,96(sp)
    800047e2:	7662                	ld	a2,56(sp)
    800047e4:	65c6                	ld	a1,80(sp)
    800047e6:	98be                	add	a7,a7,a5
    800047e8:	67e6                	ld	a5,88(sp)
    800047ea:	86ea                	mv	a3,s10
    800047ec:	4511                	li	a0,4
    800047ee:	e81e                	sd	t2,16(sp)
    800047f0:	811fd0ef          	jal	80002000 <mm_naive>
    800047f4:	77a6                	ld	a5,104(sp)
    800047f6:	63c2                	ld	t2,16(sp)
    800047f8:	9d66                	add	s10,s10,s9
    800047fa:	9dbe                	add	s11,s11,a5
    800047fc:	77a2                	ld	a5,40(sp)
    800047fe:	0391                	addi	t2,t2,4
    80004800:	99e6                	add	s3,s3,s9
    80004802:	9966                	add	s2,s2,s9
    80004804:	b8f3e5e3          	bltu	t2,a5,8000438e <mm+0x120>
    80004808:	75c2                	ld	a1,48(sp)
    8000480a:	7662                	ld	a2,56(sp)
    8000480c:	730a                	ld	t1,160(sp)
    8000480e:	76aa                	ld	a3,168(sp)
    80004810:	6506                	ld	a0,64(sp)
    80004812:	67a6                	ld	a5,72(sp)
    80004814:	6956                	ld	s2,336(sp)
    80004816:	69b6                	ld	s3,328(sp)
    80004818:	6a16                	ld	s4,320(sp)
    8000481a:	7af2                	ld	s5,312(sp)
    8000481c:	7b52                	ld	s6,304(sp)
    8000481e:	7bb2                	ld	s7,296(sp)
    80004820:	7c12                	ld	s8,288(sp)
    80004822:	6cf2                	ld	s9,280(sp)
    80004824:	6d52                	ld	s10,272(sp)
    80004826:	6db2                	ld	s11,264(sp)
    80004828:	346e                	fld	fs0,248(sp)
    8000482a:	34ce                	fld	fs1,240(sp)
    8000482c:	392e                	fld	fs2,232(sp)
    8000482e:	398e                	fld	fs3,224(sp)
    80004830:	2a6e                	fld	fs4,216(sp)
    80004832:	2ace                	fld	fs5,208(sp)
    80004834:	2b2e                	fld	fs6,200(sp)
    80004836:	2b8e                	fld	fs7,192(sp)
    80004838:	3c6a                	fld	fs8,184(sp)
    8000483a:	3cca                	fld	fs9,176(sp)
    8000483c:	7702                	ld	a4,32(sp)
    8000483e:	7422                	ld	s0,40(sp)
    80004840:	64f6                	ld	s1,344(sp)
    80004842:	70b6                	ld	ra,360(sp)
    80004844:	028708b3          	mul	a7,a4,s0
    80004848:	883e                	mv	a6,a5
    8000484a:	77c6                	ld	a5,112(sp)
    8000484c:	faba                	sd	a4,368(sp)
    8000484e:	872a                	mv	a4,a0
    80004850:	02850e33          	mul	t3,a0,s0
    80004854:	7466                	ld	s0,120(sp)
    80004856:	00337513          	andi	a0,t1,3
    8000485a:	088e                	slli	a7,a7,0x3
    8000485c:	98a2                	add	a7,a7,s0
    8000485e:	7416                	ld	s0,352(sp)
    80004860:	6175                	addi	sp,sp,368
    80004862:	0e0e                	slli	t3,t3,0x3
    80004864:	96f2                	add	a3,a3,t3
    80004866:	f9afd06f          	j	80002000 <mm_naive>
    8000486a:	7402                	ld	s0,32(sp)
    8000486c:	70b6                	ld	ra,360(sp)
    8000486e:	faa2                	sd	s0,368(sp)
    80004870:	7416                	ld	s0,352(sp)
    80004872:	6175                	addi	sp,sp,368
    80004874:	8e3fd06f          	j	80002156 <mm_cb>

0000000080004878 <barrier.constprop.0>:
    80004878:	4158                	lw	a4,4(a0)
    8000487a:	a5c18793          	addi	a5,gp,-1444 # 800056cc <bar+0x4>
    8000487e:	4605                	li	a2,1
    80004880:	00173713          	seqz	a4,a4
    80004884:	c158                	sw	a4,4(a0)
    80004886:	06c7a6af          	amoadd.w.aqrl	a3,a2,(a5)
    8000488a:	410c                	lw	a1,0(a0)
    8000488c:	0006861b          	sext.w	a2,a3
    80004890:	2701                	sext.w	a4,a4
    80004892:	35fd                	addiw	a1,a1,-1
    80004894:	a5818693          	addi	a3,gp,-1448 # 800056c8 <bar>
    80004898:	00c58963          	beq	a1,a2,800048aa <barrier.constprop.0+0x32>
    8000489c:	429c                	lw	a5,0(a3)
    8000489e:	0230000f          	fence	r,rw
    800048a2:	2781                	sext.w	a5,a5
    800048a4:	fef71ce3          	bne	a4,a5,8000489c <barrier.constprop.0+0x24>
    800048a8:	8082                	ret
    800048aa:	0007a023          	sw	zero,0(a5)
    800048ae:	0310000f          	fence	rw,w
    800048b2:	c298                	sw	a4,0(a3)
    800048b4:	8082                	ret

00000000800048b6 <thread_entry>:
    800048b6:	7159                	addi	sp,sp,-112
    800048b8:	77fd                	lui	a5,0xfffff
    800048ba:	f0a2                	sd	s0,96(sp)
    800048bc:	eca6                	sd	s1,88(sp)
    800048be:	1880                	addi	s0,sp,112
    800048c0:	e8ca                	sd	s2,80(sp)
    800048c2:	e4ce                	sd	s3,72(sp)
    800048c4:	e0d2                	sd	s4,64(sp)
    800048c6:	fc56                	sd	s5,56(sp)
    800048c8:	f45e                	sd	s7,40(sp)
    800048ca:	f486                	sd	ra,104(sp)
    800048cc:	f85a                	sd	s6,48(sp)
    800048ce:	f062                	sd	s8,32(sp)
    800048d0:	e0078293          	addi	t0,a5,-512 # ffffffffffffee00 <__global_pointer$+0xffffffff7fff9190>
    800048d4:	737d                	lui	t1,0xfffff
    800048d6:	d4030393          	addi	t2,t1,-704 # ffffffffffffed40 <__global_pointer$+0xffffffff7fff90d0>
    800048da:	9116                	add	sp,sp,t0
    800048dc:	01010913          	addi	s2,sp,16
    800048e0:	6685                	lui	a3,0x1
    800048e2:	911e                	add	sp,sp,t2
    800048e4:	8a2a                	mv	s4,a0
    800048e6:	37ab7537          	lui	a0,0x37ab7
    800048ea:	fab42423          	sw	a1,-88(s0)
    800048ee:	01010993          	addi	s3,sp,16
    800048f2:	2c068593          	addi	a1,a3,704 # 12c0 <_start-0x7fffed40>
    800048f6:	911e                	add	sp,sp,t2
    800048f8:	4e05                	li	t3,1
    800048fa:	00251613          	slli	a2,a0,0x2
    800048fe:	fa042623          	sw	zero,-84(s0)
    80004902:	0804                	addi	s1,sp,16
    80004904:	0c090e93          	addi	t4,s2,192
    80004908:	00b90f33          	add	t5,s2,a1
    8000490c:	eef60b93          	addi	s7,a2,-273
    80004910:	03ee1a93          	slli	s5,t3,0x3e
    80004914:	f40e8713          	addi	a4,t4,-192
    80004918:	001bd813          	srli	a6,s7,0x1
    8000491c:	017848b3          	xor	a7,a6,s7
    80004920:	03e89b13          	slli	s6,a7,0x3e
    80004924:	015b7bb3          	and	s7,s6,s5
    80004928:	010bec33          	or	s8,s7,a6
    8000492c:	001c5f93          	srli	t6,s8,0x1
    80004930:	018fc7b3          	xor	a5,t6,s8
    80004934:	03e79293          	slli	t0,a5,0x3e
    80004938:	0152f333          	and	t1,t0,s5
    8000493c:	01f363b3          	or	t2,t1,t6
    80004940:	0013d693          	srli	a3,t2,0x1
    80004944:	0076c5b3          	xor	a1,a3,t2
    80004948:	03e59e13          	slli	t3,a1,0x3e
    8000494c:	015e7533          	and	a0,t3,s5
    80004950:	00d56833          	or	a6,a0,a3
    80004954:	00185613          	srli	a2,a6,0x1
    80004958:	010648b3          	xor	a7,a2,a6
    8000495c:	03e89b13          	slli	s6,a7,0x3e
    80004960:	015b7bb3          	and	s7,s6,s5
    80004964:	00cbe2b3          	or	t0,s7,a2
    80004968:	0012df93          	srli	t6,t0,0x1
    8000496c:	005fc7b3          	xor	a5,t6,t0
    80004970:	03e79313          	slli	t1,a5,0x3e
    80004974:	015376b3          	and	a3,t1,s5
    80004978:	01f6ee33          	or	t3,a3,t6
    8000497c:	001e5593          	srli	a1,t3,0x1
    80004980:	01c5c533          	xor	a0,a1,t3
    80004984:	03e51613          	slli	a2,a0,0x3e
    80004988:	015678b3          	and	a7,a2,s5
    8000498c:	00b8eb33          	or	s6,a7,a1
    80004990:	001b5b93          	srli	s7,s6,0x1
    80004994:	016bcfb3          	xor	t6,s7,s6
    80004998:	03ef9793          	slli	a5,t6,0x3e
    8000499c:	0157f333          	and	t1,a5,s5
    800049a0:	017366b3          	or	a3,t1,s7
    800049a4:	0016d593          	srli	a1,a3,0x1
    800049a8:	00d5c533          	xor	a0,a1,a3
    800049ac:	03e51613          	slli	a2,a0,0x3e
    800049b0:	015678b3          	and	a7,a2,s5
    800049b4:	00b8ebb3          	or	s7,a7,a1
    800049b8:	d22bf0d3          	fcvt.d.l	ft1,s7
    800049bc:	d226f053          	fcvt.d.l	ft0,a3
    800049c0:	d22b7553          	fcvt.d.l	fa0,s6
    800049c4:	d22e75d3          	fcvt.d.l	fa1,t3
    800049c8:	d222f653          	fcvt.d.l	fa2,t0
    800049cc:	d22876d3          	fcvt.d.l	fa3,a6
    800049d0:	d223f753          	fcvt.d.l	fa4,t2
    800049d4:	d22c77d3          	fcvt.d.l	fa5,s8
    800049d8:	02173c27          	fsd	ft1,56(a4)
    800049dc:	02073827          	fsd	ft0,48(a4)
    800049e0:	b708                	fsd	fa0,40(a4)
    800049e2:	b30c                	fsd	fa1,32(a4)
    800049e4:	af10                	fsd	fa2,24(a4)
    800049e6:	ab14                	fsd	fa3,16(a4)
    800049e8:	a718                	fsd	fa4,8(a4)
    800049ea:	a31c                	fsd	fa5,0(a4)
    800049ec:	04070713          	addi	a4,a4,64
    800049f0:	f3d714e3          	bne	a4,t4,80004918 <thread_entry+0x62>
    800049f4:	0c070e93          	addi	t4,a4,192
    800049f8:	f1ee9ee3          	bne	t4,t5,80004914 <thread_entry+0x5e>
    800049fc:	6705                	lui	a4,0x1
    800049fe:	38870a93          	addi	s5,a4,904 # 1388 <_start-0x7fffec78>
    80004a02:	4c05                	li	s8,1
    80004a04:	01598f33          	add	t5,s3,s5
    80004a08:	03ec1313          	slli	t1,s8,0x3e
    80004a0c:	0c898e93          	addi	t4,s3,200
    80004a10:	001bd393          	srli	t2,s7,0x1
    80004a14:	0173c833          	xor	a6,t2,s7
    80004a18:	03e81293          	slli	t0,a6,0x3e
    80004a1c:	0062fe33          	and	t3,t0,t1
    80004a20:	007e6bb3          	or	s7,t3,t2
    80004a24:	d22bf153          	fcvt.d.l	ft2,s7
    80004a28:	f40e8b13          	addi	s6,t4,-192
    80004a2c:	f22ebc27          	fsd	ft2,-200(t4)
    80004a30:	001bdf93          	srli	t6,s7,0x1
    80004a34:	017fc7b3          	xor	a5,t6,s7
    80004a38:	03e79693          	slli	a3,a5,0x3e
    80004a3c:	0066f5b3          	and	a1,a3,t1
    80004a40:	01f5eab3          	or	s5,a1,t6
    80004a44:	001ad613          	srli	a2,s5,0x1
    80004a48:	01564533          	xor	a0,a2,s5
    80004a4c:	03e51893          	slli	a7,a0,0x3e
    80004a50:	0068f733          	and	a4,a7,t1
    80004a54:	00c76c33          	or	s8,a4,a2
    80004a58:	001c5393          	srli	t2,s8,0x1
    80004a5c:	0183c833          	xor	a6,t2,s8
    80004a60:	03e81293          	slli	t0,a6,0x3e
    80004a64:	0062fe33          	and	t3,t0,t1
    80004a68:	007e65b3          	or	a1,t3,t2
    80004a6c:	0015db93          	srli	s7,a1,0x1
    80004a70:	00bbcfb3          	xor	t6,s7,a1
    80004a74:	03ef9793          	slli	a5,t6,0x3e
    80004a78:	0067f6b3          	and	a3,a5,t1
    80004a7c:	0176e533          	or	a0,a3,s7
    80004a80:	00155613          	srli	a2,a0,0x1
    80004a84:	00a648b3          	xor	a7,a2,a0
    80004a88:	03e89713          	slli	a4,a7,0x3e
    80004a8c:	006773b3          	and	t2,a4,t1
    80004a90:	00c3e833          	or	a6,t2,a2
    80004a94:	00185293          	srli	t0,a6,0x1
    80004a98:	0102ce33          	xor	t3,t0,a6
    80004a9c:	03ee1b93          	slli	s7,t3,0x3e
    80004aa0:	006bffb3          	and	t6,s7,t1
    80004aa4:	005fe6b3          	or	a3,t6,t0
    80004aa8:	0016d793          	srli	a5,a3,0x1
    80004aac:	00d7c633          	xor	a2,a5,a3
    80004ab0:	03e61893          	slli	a7,a2,0x3e
    80004ab4:	0068f733          	and	a4,a7,t1
    80004ab8:	00f763b3          	or	t2,a4,a5
    80004abc:	0013d293          	srli	t0,t2,0x1
    80004ac0:	0072ce33          	xor	t3,t0,t2
    80004ac4:	03ee1b93          	slli	s7,t3,0x3e
    80004ac8:	006bffb3          	and	t6,s7,t1
    80004acc:	005febb3          	or	s7,t6,t0
    80004ad0:	d22bf1d3          	fcvt.d.l	ft3,s7
    80004ad4:	d223f253          	fcvt.d.l	ft4,t2
    80004ad8:	d226f2d3          	fcvt.d.l	ft5,a3
    80004adc:	d2287353          	fcvt.d.l	ft6,a6
    80004ae0:	d22573d3          	fcvt.d.l	ft7,a0
    80004ae4:	d225f853          	fcvt.d.l	fa6,a1
    80004ae8:	d22c78d3          	fcvt.d.l	fa7,s8
    80004aec:	d22afe53          	fcvt.d.l	ft8,s5
    80004af0:	023b3c27          	fsd	ft3,56(s6)
    80004af4:	024b3827          	fsd	ft4,48(s6)
    80004af8:	025b3427          	fsd	ft5,40(s6)
    80004afc:	026b3027          	fsd	ft6,32(s6)
    80004b00:	007b3c27          	fsd	ft7,24(s6)
    80004b04:	010b3827          	fsd	fa6,16(s6)
    80004b08:	011b3427          	fsd	fa7,8(s6)
    80004b0c:	01cb3027          	fsd	ft8,0(s6)
    80004b10:	040b0b13          	addi	s6,s6,64
    80004b14:	f1db1ee3          	bne	s6,t4,80004a30 <thread_entry+0x17a>
    80004b18:	0c8b0e93          	addi	t4,s6,200
    80004b1c:	efee9ae3          	bne	t4,t5,80004a10 <thread_entry+0x15a>
    80004b20:	6b05                	lui	s6,0x1
    80004b22:	2c0b0613          	addi	a2,s6,704 # 12c0 <_start-0x7fffed40>
    80004b26:	4581                	li	a1,0
    80004b28:	8526                	mv	a0,s1
    80004b2a:	7d6000ef          	jal	80005300 <memset>
    80004b2e:	4aa1                	li	s5,8
    80004b30:	4c65                	li	s8,25
    80004b32:	b0202b73          	csrr	s6,minstret
    80004b36:	b0002bf3          	csrr	s7,mcycle
    80004b3a:	4761                	li	a4,24
    80004b3c:	4865                	li	a6,25
    80004b3e:	e062                	sd	s8,0(sp)
    80004b40:	88a6                	mv	a7,s1
    80004b42:	87ce                	mv	a5,s3
    80004b44:	86ca                	mv	a3,s2
    80004b46:	85c2                	mv	a1,a6
    80004b48:	863a                	mv	a2,a4
    80004b4a:	853a                	mv	a0,a4
    80004b4c:	f22ff0ef          	jal	8000426e <mm>
    80004b50:	b0202373          	csrr	t1,minstret
    80004b54:	b0002f73          	csrr	t5,mcycle
    80004b58:	3afd                	addiw	s5,s5,-1
    80004b5a:	fc0a9ce3          	bnez	s5,80004b32 <thread_entry+0x27c>
    80004b5e:	41630c33          	sub	s8,t1,s6
    80004b62:	417f0b33          	sub	s6,t5,s7
    80004b66:	0ff0000f          	fence
    80004b6a:	48e1                	li	a7,24
    80004b6c:	87c6                	mv	a5,a7
    80004b6e:	4695                	li	a3,5
    80004b70:	4865                	li	a6,25
    80004b72:	4719                	li	a4,6
    80004b74:	85d2                	mv	a1,s4
    80004b76:	4611                	li	a2,4
    80004b78:	00001517          	auipc	a0,0x1
    80004b7c:	90850513          	addi	a0,a0,-1784 # 80005480 <main+0x68>
    80004b80:	5a2000ef          	jal	80005122 <printf>
    80004b84:	000c061b          	sext.w	a2,s8
    80004b88:	85d2                	mv	a1,s4
    80004b8a:	00001517          	auipc	a0,0x1
    80004b8e:	92e50513          	addi	a0,a0,-1746 # 800054b8 <main+0xa0>
    80004b92:	590000ef          	jal	80005122 <printf>
    80004b96:	000b061b          	sext.w	a2,s6
    80004b9a:	85d2                	mv	a1,s4
    80004b9c:	00001517          	auipc	a0,0x1
    80004ba0:	93450513          	addi	a0,a0,-1740 # 800054d0 <main+0xb8>
    80004ba4:	57e000ef          	jal	80005122 <printf>
    80004ba8:	651d                	lui	a0,0x7
    80004baa:	08050613          	addi	a2,a0,128 # 7080 <_start-0x7fff8f80>
    80004bae:	85d2                	mv	a1,s4
    80004bb0:	00001517          	auipc	a0,0x1
    80004bb4:	93050513          	addi	a0,a0,-1744 # 800054e0 <main+0xc8>
    80004bb8:	56a000ef          	jal	80005122 <printf>
    80004bbc:	01b775b7          	lui	a1,0x1b77
    80004bc0:	40058813          	addi	a6,a1,1024 # 1b77400 <_start-0x7e488c00>
    80004bc4:	03685633          	divu	a2,a6,s6
    80004bc8:	85d2                	mv	a1,s4
    80004bca:	00001517          	auipc	a0,0x1
    80004bce:	92650513          	addi	a0,a0,-1754 # 800054f0 <main+0xd8>
    80004bd2:	550000ef          	jal	80005122 <printf>
    80004bd6:	77fd                	lui	a5,0xfffff
    80004bd8:	d4078893          	addi	a7,a5,-704 # ffffffffffffed40 <__global_pointer$+0xffffffff7fff90d0>
    80004bdc:	00001797          	auipc	a5,0x1
    80004be0:	8947bf87          	fld	ft11,-1900(a5) # 80005470 <main+0x58>
    80004be4:	00001797          	auipc	a5,0x1
    80004be8:	8947bf07          	fld	ft10,-1900(a5) # 80005478 <main+0x60>
    80004bec:	6685                	lui	a3,0x1
    80004bee:	2c068e13          	addi	t3,a3,704 # 12c0 <_start-0x7fffed40>
    80004bf2:	4601                	li	a2,0
    80004bf4:	4365                	li	t1,25
    80004bf6:	00161713          	slli	a4,a2,0x1
    80004bfa:	00c703b3          	add	t2,a4,a2
    80004bfe:	00639293          	slli	t0,t2,0x6
    80004c02:	00590fb3          	add	t6,s2,t0
    80004c06:	01c98eb3          	add	t4,s3,t3
    80004c0a:	8ba6                	mv	s7,s1
    80004c0c:	4681                	li	a3,0
    80004c0e:	f2000ed3          	fmv.d.x	ft9,zero
    80004c12:	011e8f33          	add	t5,t4,a7
    80004c16:	8afe                	mv	s5,t6
    80004c18:	000ab087          	fld	ft1,0(s5)
    80004c1c:	000f3507          	fld	fa0,0(t5)
    80004c20:	008ab007          	fld	ft0,8(s5)
    80004c24:	0c8f3687          	fld	fa3,200(t5)
    80004c28:	eaa0f743          	fmadd.d	fa4,ft1,fa0,ft9
    80004c2c:	010ab387          	fld	ft7,16(s5)
    80004c30:	190f3307          	fld	ft6,400(t5)
    80004c34:	018ab587          	fld	fa1,24(s5)
    80004c38:	258f3287          	fld	ft5,600(t5)
    80004c3c:	020ab607          	fld	fa2,32(s5)
    80004c40:	320f3207          	fld	ft4,800(t5)
    80004c44:	72d07843          	fmadd.d	fa6,ft0,fa3,fa4
    80004c48:	028ab887          	fld	fa7,40(s5)
    80004c4c:	3e8f3187          	fld	ft3,1000(t5)
    80004c50:	030abe07          	fld	ft8,48(s5)
    80004c54:	4b0f3107          	fld	ft2,1200(t5)
    80004c58:	038ab787          	fld	fa5,56(s5)
    80004c5c:	578f3e87          	fld	ft9,1400(t5)
    80004c60:	8263f0c3          	fmadd.d	ft1,ft7,ft6,fa6
    80004c64:	640f0f13          	addi	t5,t5,1600
    80004c68:	040a8a93          	addi	s5,s5,64
    80004c6c:	0a55f543          	fmadd.d	fa0,fa1,ft5,ft1
    80004c70:	52467043          	fmadd.d	ft0,fa2,ft4,fa0
    80004c74:	0238f6c3          	fmadd.d	fa3,fa7,ft3,ft0
    80004c78:	6a2e7743          	fmadd.d	fa4,ft8,ft2,fa3
    80004c7c:	73d7fec3          	fmadd.d	ft9,fa5,ft9,fa4
    80004c80:	f9ee9ce3          	bne	t4,t5,80004c18 <thread_entry+0x362>
    80004c84:	13fef3d3          	fmul.d	ft7,ft9,ft11
    80004c88:	000bb307          	fld	ft6,0(s7)
    80004c8c:	13e3f5d3          	fmul.d	fa1,ft7,ft10
    80004c90:	0a7372d3          	fsub.d	ft5,ft6,ft7
    80004c94:	22b5a653          	fabs.d	fa2,fa1
    80004c98:	2252a253          	fabs.d	ft4,ft5
    80004c9c:	a2c20c53          	fle.d	s8,ft4,fa2
    80004ca0:	020c0463          	beqz	s8,80004cc8 <thread_entry+0x412>
    80004ca4:	0685                	addi	a3,a3,1
    80004ca6:	0ba1                	addi	s7,s7,8
    80004ca8:	0ea1                	addi	t4,t4,8
    80004caa:	f66692e3          	bne	a3,t1,80004c0e <thread_entry+0x358>
    80004cae:	0605                	addi	a2,a2,1
    80004cb0:	4b61                	li	s6,24
    80004cb2:	0c848493          	addi	s1,s1,200
    80004cb6:	f56610e3          	bne	a2,s6,80004bf6 <thread_entry+0x340>
    80004cba:	fa840513          	addi	a0,s0,-88
    80004cbe:	bbbff0ef          	jal	80004878 <barrier.constprop.0>
    80004cc2:	4501                	li	a0,0
    80004cc4:	37c000ef          	jal	80005040 <exit>
    80004cc8:	e20387d3          	fmv.x.d	a5,ft7
    80004ccc:	e2030753          	fmv.x.d	a4,ft6
    80004cd0:	85d2                	mv	a1,s4
    80004cd2:	00001517          	auipc	a0,0x1
    80004cd6:	83650513          	addi	a0,a0,-1994 # 80005508 <main+0xf0>
    80004cda:	448000ef          	jal	80005122 <printf>
    80004cde:	4505                	li	a0,1
    80004ce0:	360000ef          	jal	80005040 <exit>

0000000080004ce4 <vprintfmt>:
    80004ce4:	7149                	addi	sp,sp,-368
    80004ce6:	f2a2                	sd	s0,352(sp)
    80004ce8:	eea6                	sd	s1,344(sp)
    80004cea:	eaca                	sd	s2,336(sp)
    80004cec:	e2d2                	sd	s4,320(sp)
    80004cee:	fe56                	sd	s5,312(sp)
    80004cf0:	fa5a                	sd	s6,304(sp)
    80004cf2:	f65e                	sd	s7,296(sp)
    80004cf4:	f686                	sd	ra,360(sp)
    80004cf6:	e6ce                	sd	s3,328(sp)
    80004cf8:	f262                	sd	s8,288(sp)
    80004cfa:	ee66                	sd	s9,280(sp)
    80004cfc:	ea6a                	sd	s10,272(sp)
    80004cfe:	84aa                	mv	s1,a0
    80004d00:	8432                	mv	s0,a2
    80004d02:	8ab6                	mv	s5,a3
    80004d04:	892e                	mv	s2,a1
    80004d06:	02500a13          	li	s4,37
    80004d0a:	05500b93          	li	s7,85
    80004d0e:	8fc18b13          	addi	s6,gp,-1796 # 8000556c <main+0x154>
    80004d12:	a029                	j	80004d1c <vprintfmt+0x38>
    80004d14:	cd1d                	beqz	a0,80004d52 <vprintfmt+0x6e>
    80004d16:	85ca                	mv	a1,s2
    80004d18:	0405                	addi	s0,s0,1
    80004d1a:	9482                	jalr	s1
    80004d1c:	00044503          	lbu	a0,0(s0)
    80004d20:	ff451ae3          	bne	a0,s4,80004d14 <vprintfmt+0x30>
    80004d24:	00144683          	lbu	a3,1(s0)
    80004d28:	00140c13          	addi	s8,s0,1
    80004d2c:	59fd                	li	s3,-1
    80004d2e:	8762                	mv	a4,s8
    80004d30:	8cce                	mv	s9,s3
    80004d32:	02000d13          	li	s10,32
    80004d36:	4601                	li	a2,0
    80004d38:	fdd6879b          	addiw	a5,a3,-35
    80004d3c:	0ff7f793          	zext.b	a5,a5
    80004d40:	00170413          	addi	s0,a4,1
    80004d44:	04fbe163          	bltu	s7,a5,80004d86 <vprintfmt+0xa2>
    80004d48:	078a                	slli	a5,a5,0x2
    80004d4a:	97da                	add	a5,a5,s6
    80004d4c:	439c                	lw	a5,0(a5)
    80004d4e:	97da                	add	a5,a5,s6
    80004d50:	8782                	jr	a5
    80004d52:	70b6                	ld	ra,360(sp)
    80004d54:	7416                	ld	s0,352(sp)
    80004d56:	64f6                	ld	s1,344(sp)
    80004d58:	6956                	ld	s2,336(sp)
    80004d5a:	69b6                	ld	s3,328(sp)
    80004d5c:	6a16                	ld	s4,320(sp)
    80004d5e:	7af2                	ld	s5,312(sp)
    80004d60:	7b52                	ld	s6,304(sp)
    80004d62:	7bb2                	ld	s7,296(sp)
    80004d64:	7c12                	ld	s8,288(sp)
    80004d66:	6cf2                	ld	s9,280(sp)
    80004d68:	6d52                	ld	s10,272(sp)
    80004d6a:	6175                	addi	sp,sp,368
    80004d6c:	8082                	ret
    80004d6e:	8d36                	mv	s10,a3
    80004d70:	00174683          	lbu	a3,1(a4)
    80004d74:	8722                	mv	a4,s0
    80004d76:	00170413          	addi	s0,a4,1
    80004d7a:	fdd6879b          	addiw	a5,a3,-35
    80004d7e:	0ff7f793          	zext.b	a5,a5
    80004d82:	fcfbf3e3          	bgeu	s7,a5,80004d48 <vprintfmt+0x64>
    80004d86:	85ca                	mv	a1,s2
    80004d88:	02500513          	li	a0,37
    80004d8c:	9482                	jalr	s1
    80004d8e:	8462                	mv	s0,s8
    80004d90:	b771                	j	80004d1c <vprintfmt+0x38>
    80004d92:	fd06899b          	addiw	s3,a3,-48
    80004d96:	00174683          	lbu	a3,1(a4)
    80004d9a:	4825                	li	a6,9
    80004d9c:	fd06879b          	addiw	a5,a3,-48
    80004da0:	1ef86663          	bltu	a6,a5,80004f8c <vprintfmt+0x2a8>
    80004da4:	85b6                	mv	a1,a3
    80004da6:	8722                	mv	a4,s0
    80004da8:	0029979b          	slliw	a5,s3,0x2
    80004dac:	00174683          	lbu	a3,1(a4)
    80004db0:	013787bb          	addw	a5,a5,s3
    80004db4:	0017979b          	slliw	a5,a5,0x1
    80004db8:	9fad                	addw	a5,a5,a1
    80004dba:	fd06851b          	addiw	a0,a3,-48
    80004dbe:	0705                	addi	a4,a4,1
    80004dc0:	fd07899b          	addiw	s3,a5,-48
    80004dc4:	85b6                	mv	a1,a3
    80004dc6:	fea871e3          	bgeu	a6,a0,80004da8 <vprintfmt+0xc4>
    80004dca:	f60cd7e3          	bgez	s9,80004d38 <vprintfmt+0x54>
    80004dce:	8cce                	mv	s9,s3
    80004dd0:	59fd                	li	s3,-1
    80004dd2:	b79d                	j	80004d38 <vprintfmt+0x54>
    80004dd4:	00174683          	lbu	a3,1(a4)
    80004dd8:	8722                	mv	a4,s0
    80004dda:	bfb9                	j	80004d38 <vprintfmt+0x54>
    80004ddc:	85ca                	mv	a1,s2
    80004dde:	02500513          	li	a0,37
    80004de2:	9482                	jalr	s1
    80004de4:	bf25                	j	80004d1c <vprintfmt+0x38>
    80004de6:	00174683          	lbu	a3,1(a4)
    80004dea:	000aa983          	lw	s3,0(s5)
    80004dee:	8722                	mv	a4,s0
    80004df0:	0aa1                	addi	s5,s5,8
    80004df2:	bfe1                	j	80004dca <vprintfmt+0xe6>
    80004df4:	85ca                	mv	a1,s2
    80004df6:	03000513          	li	a0,48
    80004dfa:	9482                	jalr	s1
    80004dfc:	85ca                	mv	a1,s2
    80004dfe:	07800513          	li	a0,120
    80004e02:	9482                	jalr	s1
    80004e04:	008a8793          	addi	a5,s5,8
    80004e08:	4741                	li	a4,16
    80004e0a:	000abc03          	ld	s8,0(s5)
    80004e0e:	8abe                	mv	s5,a5
    80004e10:	02ec7633          	remu	a2,s8,a4
    80004e14:	0854                	addi	a3,sp,20
    80004e16:	4785                	li	a5,1
    80004e18:	c832                	sw	a2,16(sp)
    80004e1a:	10ec6b63          	bltu	s8,a4,80004f30 <vprintfmt+0x24c>
    80004e1e:	02ec5c33          	divu	s8,s8,a4
    80004e22:	89be                	mv	s3,a5
    80004e24:	0691                	addi	a3,a3,4
    80004e26:	2785                	addiw	a5,a5,1
    80004e28:	02ec7633          	remu	a2,s8,a4
    80004e2c:	fec6ae23          	sw	a2,-4(a3)
    80004e30:	feec77e3          	bgeu	s8,a4,80004e1e <vprintfmt+0x13a>
    80004e34:	0197dc63          	bge	a5,s9,80004e4c <vprintfmt+0x168>
    80004e38:	2d01                	sext.w	s10,s10
    80004e3a:	3cfd                	addiw	s9,s9,-1
    80004e3c:	fff78c1b          	addiw	s8,a5,-1
    80004e40:	85ca                	mv	a1,s2
    80004e42:	856a                	mv	a0,s10
    80004e44:	3cfd                	addiw	s9,s9,-1
    80004e46:	9482                	jalr	s1
    80004e48:	ff8c9ce3          	bne	s9,s8,80004e40 <vprintfmt+0x15c>
    80004e4c:	098a                	slli	s3,s3,0x2
    80004e4e:	081c                	addi	a5,sp,16
    80004e50:	99be                	add	s3,s3,a5
    80004e52:	00c10c93          	addi	s9,sp,12
    80004e56:	4c25                	li	s8,9
    80004e58:	0009a783          	lw	a5,0(s3)
    80004e5c:	03000513          	li	a0,48
    80004e60:	00fc7463          	bgeu	s8,a5,80004e68 <vprintfmt+0x184>
    80004e64:	05700513          	li	a0,87
    80004e68:	9d3d                	addw	a0,a0,a5
    80004e6a:	85ca                	mv	a1,s2
    80004e6c:	19f1                	addi	s3,s3,-4
    80004e6e:	9482                	jalr	s1
    80004e70:	ff9994e3          	bne	s3,s9,80004e58 <vprintfmt+0x174>
    80004e74:	b565                	j	80004d1c <vprintfmt+0x38>
    80004e76:	4705                	li	a4,1
    80004e78:	008a8793          	addi	a5,s5,8
    80004e7c:	00c74363          	blt	a4,a2,80004e82 <vprintfmt+0x19e>
    80004e80:	ca55                	beqz	a2,80004f34 <vprintfmt+0x250>
    80004e82:	000abc03          	ld	s8,0(s5)
    80004e86:	8abe                	mv	s5,a5
    80004e88:	4729                	li	a4,10
    80004e8a:	f80c53e3          	bgez	s8,80004e10 <vprintfmt+0x12c>
    80004e8e:	85ca                	mv	a1,s2
    80004e90:	02d00513          	li	a0,45
    80004e94:	e43a                	sd	a4,8(sp)
    80004e96:	9482                	jalr	s1
    80004e98:	6722                	ld	a4,8(sp)
    80004e9a:	41800c33          	neg	s8,s8
    80004e9e:	bf8d                	j	80004e10 <vprintfmt+0x12c>
    80004ea0:	00174683          	lbu	a3,1(a4)
    80004ea4:	2605                	addiw	a2,a2,1
    80004ea6:	8722                	mv	a4,s0
    80004ea8:	bd41                	j	80004d38 <vprintfmt+0x54>
    80004eaa:	4741                	li	a4,16
    80004eac:	4685                	li	a3,1
    80004eae:	008a8793          	addi	a5,s5,8
    80004eb2:	f4c6cce3          	blt	a3,a2,80004e0a <vprintfmt+0x126>
    80004eb6:	fa31                	bnez	a2,80004e0a <vprintfmt+0x126>
    80004eb8:	000aec03          	lwu	s8,0(s5)
    80004ebc:	8abe                	mv	s5,a5
    80004ebe:	bf89                	j	80004e10 <vprintfmt+0x12c>
    80004ec0:	000abc03          	ld	s8,0(s5)
    80004ec4:	2d01                	sext.w	s10,s10
    80004ec6:	fd3d0793          	addi	a5,s10,-45
    80004eca:	00f037b3          	snez	a5,a5
    80004ece:	01902733          	sgtz	a4,s9
    80004ed2:	8f7d                	and	a4,a4,a5
    80004ed4:	0aa1                	addi	s5,s5,8
    80004ed6:	060c0663          	beqz	s8,80004f42 <vprintfmt+0x25e>
    80004eda:	eb3d                	bnez	a4,80004f50 <vprintfmt+0x26c>
    80004edc:	000c4503          	lbu	a0,0(s8)
    80004ee0:	cd11                	beqz	a0,80004efc <vprintfmt+0x218>
    80004ee2:	5d7d                	li	s10,-1
    80004ee4:	0009c563          	bltz	s3,80004eee <vprintfmt+0x20a>
    80004ee8:	39fd                	addiw	s3,s3,-1
    80004eea:	01a98963          	beq	s3,s10,80004efc <vprintfmt+0x218>
    80004eee:	85ca                	mv	a1,s2
    80004ef0:	9482                	jalr	s1
    80004ef2:	001c4503          	lbu	a0,1(s8)
    80004ef6:	0c05                	addi	s8,s8,1
    80004ef8:	3cfd                	addiw	s9,s9,-1
    80004efa:	f56d                	bnez	a0,80004ee4 <vprintfmt+0x200>
    80004efc:	e39050e3          	blez	s9,80004d1c <vprintfmt+0x38>
    80004f00:	85ca                	mv	a1,s2
    80004f02:	02000513          	li	a0,32
    80004f06:	3cfd                	addiw	s9,s9,-1
    80004f08:	9482                	jalr	s1
    80004f0a:	fe0c9be3          	bnez	s9,80004f00 <vprintfmt+0x21c>
    80004f0e:	b539                	j	80004d1c <vprintfmt+0x38>
    80004f10:	87e6                	mv	a5,s9
    80004f12:	000cd363          	bgez	s9,80004f18 <vprintfmt+0x234>
    80004f16:	4781                	li	a5,0
    80004f18:	00174683          	lbu	a3,1(a4)
    80004f1c:	00078c9b          	sext.w	s9,a5
    80004f20:	8722                	mv	a4,s0
    80004f22:	bd19                	j	80004d38 <vprintfmt+0x54>
    80004f24:	000aa503          	lw	a0,0(s5)
    80004f28:	85ca                	mv	a1,s2
    80004f2a:	0aa1                	addi	s5,s5,8
    80004f2c:	9482                	jalr	s1
    80004f2e:	b3fd                	j	80004d1c <vprintfmt+0x38>
    80004f30:	4981                	li	s3,0
    80004f32:	b709                	j	80004e34 <vprintfmt+0x150>
    80004f34:	000aac03          	lw	s8,0(s5)
    80004f38:	b7b9                	j	80004e86 <vprintfmt+0x1a2>
    80004f3a:	4729                	li	a4,10
    80004f3c:	bf85                	j	80004eac <vprintfmt+0x1c8>
    80004f3e:	4721                	li	a4,8
    80004f40:	b7b5                	j	80004eac <vprintfmt+0x1c8>
    80004f42:	00000c17          	auipc	s8,0x0
    80004f46:	5e6c0c13          	addi	s8,s8,1510 # 80005528 <main+0x110>
    80004f4a:	02800513          	li	a0,40
    80004f4e:	db51                	beqz	a4,80004ee2 <vprintfmt+0x1fe>
    80004f50:	87e2                	mv	a5,s8
    80004f52:	013c06b3          	add	a3,s8,s3
    80004f56:	00099663          	bnez	s3,80004f62 <vprintfmt+0x27e>
    80004f5a:	a829                	j	80004f74 <vprintfmt+0x290>
    80004f5c:	0785                	addi	a5,a5,1
    80004f5e:	00d78563          	beq	a5,a3,80004f68 <vprintfmt+0x284>
    80004f62:	0007c703          	lbu	a4,0(a5)
    80004f66:	fb7d                	bnez	a4,80004f5c <vprintfmt+0x278>
    80004f68:	418787b3          	sub	a5,a5,s8
    80004f6c:	40fc8cbb          	subw	s9,s9,a5
    80004f70:	01905863          	blez	s9,80004f80 <vprintfmt+0x29c>
    80004f74:	85ca                	mv	a1,s2
    80004f76:	856a                	mv	a0,s10
    80004f78:	3cfd                	addiw	s9,s9,-1
    80004f7a:	9482                	jalr	s1
    80004f7c:	fe0c9ce3          	bnez	s9,80004f74 <vprintfmt+0x290>
    80004f80:	000c4503          	lbu	a0,0(s8)
    80004f84:	d8050ce3          	beqz	a0,80004d1c <vprintfmt+0x38>
    80004f88:	5d7d                	li	s10,-1
    80004f8a:	bfa9                	j	80004ee4 <vprintfmt+0x200>
    80004f8c:	8722                	mv	a4,s0
    80004f8e:	bd35                	j	80004dca <vprintfmt+0xe6>

0000000080004f90 <sprintf_putch.0>:
    80004f90:	619c                	ld	a5,0(a1)
    80004f92:	00a78023          	sb	a0,0(a5)
    80004f96:	619c                	ld	a5,0(a1)
    80004f98:	0785                	addi	a5,a5,1
    80004f9a:	e19c                	sd	a5,0(a1)
    80004f9c:	8082                	ret

0000000080004f9e <putchar>:
    80004f9e:	7119                	addi	sp,sp,-128
    80004fa0:	04f10693          	addi	a3,sp,79
    80004fa4:	fc06f693          	andi	a3,a3,-64
    80004fa8:	04000793          	li	a5,64
    80004fac:	e29c                	sd	a5,0(a3)
    80004fae:	4785                	li	a5,1
    80004fb0:	e69c                	sd	a5,8(a3)
    80004fb2:	00f10713          	addi	a4,sp,15
    80004fb6:	ea98                	sd	a4,16(a3)
    80004fb8:	00a107a3          	sb	a0,15(sp)
    80004fbc:	ee9c                	sd	a5,24(a3)
    80004fbe:	0330000f          	fence	rw,rw
    80004fc2:	ffffc717          	auipc	a4,0xffffc
    80004fc6:	03e70713          	addi	a4,a4,62 # 80001000 <tohost>
    80004fca:	e314                	sd	a3,0(a4)
    80004fcc:	671c                	ld	a5,8(a4)
    80004fce:	dffd                	beqz	a5,80004fcc <putchar+0x2e>
    80004fd0:	ffffc797          	auipc	a5,0xffffc
    80004fd4:	0207bc23          	sd	zero,56(a5) # 80001008 <fromhost>
    80004fd8:	0330000f          	fence	rw,rw
    80004fdc:	4501                	li	a0,0
    80004fde:	629c                	ld	a5,0(a3)
    80004fe0:	6109                	addi	sp,sp,128
    80004fe2:	8082                	ret

0000000080004fe4 <setStats>:
    80004fe4:	b0002773          	csrr	a4,mcycle
    80004fe8:	a6018793          	addi	a5,gp,-1440 # 800056d0 <counters>
    80004fec:	c511                	beqz	a0,80004ff8 <setStats+0x14>
    80004fee:	e398                	sd	a4,0(a5)
    80004ff0:	b0202773          	csrr	a4,minstret
    80004ff4:	e798                	sd	a4,8(a5)
    80004ff6:	8082                	ret
    80004ff8:	6394                	ld	a3,0(a5)
    80004ffa:	00000617          	auipc	a2,0x0
    80004ffe:	53660613          	addi	a2,a2,1334 # 80005530 <main+0x118>
    80005002:	eb90                	sd	a2,16(a5)
    80005004:	8f15                	sub	a4,a4,a3
    80005006:	e398                	sd	a4,0(a5)
    80005008:	b0202773          	csrr	a4,minstret
    8000500c:	6794                	ld	a3,8(a5)
    8000500e:	00000617          	auipc	a2,0x0
    80005012:	52a60613          	addi	a2,a2,1322 # 80005538 <main+0x120>
    80005016:	ef90                	sd	a2,24(a5)
    80005018:	8f15                	sub	a4,a4,a3
    8000501a:	e798                	sd	a4,8(a5)
    8000501c:	8082                	ret

000000008000501e <tohost_exit>:
    8000501e:	00151793          	slli	a5,a0,0x1
    80005022:	0017e793          	ori	a5,a5,1
    80005026:	ffffc717          	auipc	a4,0xffffc
    8000502a:	fcf73d23          	sd	a5,-38(a4) # 80001000 <tohost>
    8000502e:	a001                	j	8000502e <tohost_exit+0x10>

0000000080005030 <handle_trap>:
    80005030:	6785                	lui	a5,0x1
    80005032:	a7378793          	addi	a5,a5,-1421 # a73 <_start-0x7ffff58d>
    80005036:	ffffc717          	auipc	a4,0xffffc
    8000503a:	fcf73523          	sd	a5,-54(a4) # 80001000 <tohost>
    8000503e:	a001                	j	8000503e <handle_trap+0xe>

0000000080005040 <exit>:
    80005040:	1141                	addi	sp,sp,-16
    80005042:	e406                	sd	ra,8(sp)
    80005044:	fdbff0ef          	jal	8000501e <tohost_exit>

0000000080005048 <abort>:
    80005048:	10d00793          	li	a5,269
    8000504c:	ffffc717          	auipc	a4,0xffffc
    80005050:	faf73a23          	sd	a5,-76(a4) # 80001000 <tohost>
    80005054:	a001                	j	80005054 <abort+0xc>

0000000080005056 <printstr>:
    80005056:	00054783          	lbu	a5,0(a0)
    8000505a:	c7a1                	beqz	a5,800050a2 <printstr+0x4c>
    8000505c:	7159                	addi	sp,sp,-112
    8000505e:	03f10693          	addi	a3,sp,63
    80005062:	fc06f693          	andi	a3,a3,-64
    80005066:	ffffc717          	auipc	a4,0xffffc
    8000506a:	f9a70713          	addi	a4,a4,-102 # 80001000 <tohost>
    8000506e:	04000593          	li	a1,64
    80005072:	4605                	li	a2,1
    80005074:	e28c                	sd	a1,0(a3)
    80005076:	e690                	sd	a2,8(a3)
    80005078:	ea88                	sd	a0,16(a3)
    8000507a:	ee90                	sd	a2,24(a3)
    8000507c:	0330000f          	fence	rw,rw
    80005080:	e314                	sd	a3,0(a4)
    80005082:	671c                	ld	a5,8(a4)
    80005084:	dffd                	beqz	a5,80005082 <printstr+0x2c>
    80005086:	ffffc797          	auipc	a5,0xffffc
    8000508a:	f807b123          	sd	zero,-126(a5) # 80001008 <fromhost>
    8000508e:	0330000f          	fence	rw,rw
    80005092:	00154783          	lbu	a5,1(a0)
    80005096:	0006b803          	ld	a6,0(a3)
    8000509a:	0505                	addi	a0,a0,1
    8000509c:	ffe1                	bnez	a5,80005074 <printstr+0x1e>
    8000509e:	6165                	addi	sp,sp,112
    800050a0:	8082                	ret
    800050a2:	8082                	ret
    800050a4:	e111                	bnez	a0,800050a8 <printstr+0x52>
    800050a6:	8082                	ret
    800050a8:	a001                	j	800050a8 <printstr+0x52>

00000000800050aa <printhex>:
    800050aa:	7175                	addi	sp,sp,-144
    800050ac:	05f10693          	addi	a3,sp,95
    800050b0:	fc06f693          	andi	a3,a3,-64
    800050b4:	0030                	addi	a2,sp,8
    800050b6:	01710713          	addi	a4,sp,23
    800050ba:	4825                	li	a6,9
    800050bc:	a011                	j	800050c0 <printhex+0x16>
    800050be:	177d                	addi	a4,a4,-1
    800050c0:	00f57793          	andi	a5,a0,15
    800050c4:	03000593          	li	a1,48
    800050c8:	00f87463          	bgeu	a6,a5,800050d0 <printhex+0x26>
    800050cc:	05700593          	li	a1,87
    800050d0:	9fad                	addw	a5,a5,a1
    800050d2:	00f70023          	sb	a5,0(a4)
    800050d6:	8111                	srli	a0,a0,0x4
    800050d8:	fee613e3          	bne	a2,a4,800050be <printhex+0x14>
    800050dc:	00814783          	lbu	a5,8(sp)
    800050e0:	00010c23          	sb	zero,24(sp)
    800050e4:	cf8d                	beqz	a5,8000511e <printhex+0x74>
    800050e6:	ffffc717          	auipc	a4,0xffffc
    800050ea:	f1a70713          	addi	a4,a4,-230 # 80001000 <tohost>
    800050ee:	04000513          	li	a0,64
    800050f2:	4585                	li	a1,1
    800050f4:	e288                	sd	a0,0(a3)
    800050f6:	e68c                	sd	a1,8(a3)
    800050f8:	ea90                	sd	a2,16(a3)
    800050fa:	ee8c                	sd	a1,24(a3)
    800050fc:	0330000f          	fence	rw,rw
    80005100:	e314                	sd	a3,0(a4)
    80005102:	671c                	ld	a5,8(a4)
    80005104:	dffd                	beqz	a5,80005102 <printhex+0x58>
    80005106:	ffffc797          	auipc	a5,0xffffc
    8000510a:	f007b123          	sd	zero,-254(a5) # 80001008 <fromhost>
    8000510e:	0330000f          	fence	rw,rw
    80005112:	00164783          	lbu	a5,1(a2)
    80005116:	0006b803          	ld	a6,0(a3)
    8000511a:	0605                	addi	a2,a2,1
    8000511c:	ffe1                	bnez	a5,800050f4 <printhex+0x4a>
    8000511e:	6149                	addi	sp,sp,144
    80005120:	8082                	ret

0000000080005122 <printf>:
    80005122:	711d                	addi	sp,sp,-96
    80005124:	02810313          	addi	t1,sp,40
    80005128:	f42e                	sd	a1,40(sp)
    8000512a:	f832                	sd	a2,48(sp)
    8000512c:	fc36                	sd	a3,56(sp)
    8000512e:	862a                	mv	a2,a0
    80005130:	869a                	mv	a3,t1
    80005132:	00000517          	auipc	a0,0x0
    80005136:	e6c50513          	addi	a0,a0,-404 # 80004f9e <putchar>
    8000513a:	4581                	li	a1,0
    8000513c:	ec06                	sd	ra,24(sp)
    8000513e:	e0ba                	sd	a4,64(sp)
    80005140:	e4be                	sd	a5,72(sp)
    80005142:	e8c2                	sd	a6,80(sp)
    80005144:	ecc6                	sd	a7,88(sp)
    80005146:	e41a                	sd	t1,8(sp)
    80005148:	b9dff0ef          	jal	80004ce4 <vprintfmt>
    8000514c:	60e2                	ld	ra,24(sp)
    8000514e:	4501                	li	a0,0
    80005150:	6125                	addi	sp,sp,96
    80005152:	8082                	ret

0000000080005154 <sprintf>:
    80005154:	711d                	addi	sp,sp,-96
    80005156:	03010313          	addi	t1,sp,48
    8000515a:	f022                	sd	s0,32(sp)
    8000515c:	e42a                	sd	a0,8(sp)
    8000515e:	f832                	sd	a2,48(sp)
    80005160:	fc36                	sd	a3,56(sp)
    80005162:	842a                	mv	s0,a0
    80005164:	862e                	mv	a2,a1
    80005166:	00000517          	auipc	a0,0x0
    8000516a:	e2a50513          	addi	a0,a0,-470 # 80004f90 <sprintf_putch.0>
    8000516e:	002c                	addi	a1,sp,8
    80005170:	869a                	mv	a3,t1
    80005172:	f406                	sd	ra,40(sp)
    80005174:	e4be                	sd	a5,72(sp)
    80005176:	e0ba                	sd	a4,64(sp)
    80005178:	e8c2                	sd	a6,80(sp)
    8000517a:	ecc6                	sd	a7,88(sp)
    8000517c:	ec1a                	sd	t1,24(sp)
    8000517e:	b67ff0ef          	jal	80004ce4 <vprintfmt>
    80005182:	67a2                	ld	a5,8(sp)
    80005184:	00078023          	sb	zero,0(a5)
    80005188:	6522                	ld	a0,8(sp)
    8000518a:	70a2                	ld	ra,40(sp)
    8000518c:	9d01                	subw	a0,a0,s0
    8000518e:	7402                	ld	s0,32(sp)
    80005190:	6125                	addi	sp,sp,96
    80005192:	8082                	ret

0000000080005194 <memcpy>:
    80005194:	00c5e7b3          	or	a5,a1,a2
    80005198:	8fc9                	or	a5,a5,a0
    8000519a:	8b9d                	andi	a5,a5,7
    8000519c:	83ae                	mv	t2,a1
    8000519e:	00c506b3          	add	a3,a0,a2
    800051a2:	cf91                	beqz	a5,800051be <memcpy+0x2a>
    800051a4:	962e                	add	a2,a2,a1
    800051a6:	87aa                	mv	a5,a0
    800051a8:	08d57a63          	bgeu	a0,a3,8000523c <memcpy+0xa8>
    800051ac:	0005c703          	lbu	a4,0(a1)
    800051b0:	0585                	addi	a1,a1,1
    800051b2:	0785                	addi	a5,a5,1
    800051b4:	fee78fa3          	sb	a4,-1(a5)
    800051b8:	fec59ae3          	bne	a1,a2,800051ac <memcpy+0x18>
    800051bc:	8082                	ret
    800051be:	04050713          	addi	a4,a0,64
    800051c2:	06d77e63          	bgeu	a4,a3,8000523e <memcpy+0xaa>
    800051c6:	87ba                	mv	a5,a4
    800051c8:	0005b283          	ld	t0,0(a1)
    800051cc:	0085bf83          	ld	t6,8(a1)
    800051d0:	0105bf03          	ld	t5,16(a1)
    800051d4:	0185be83          	ld	t4,24(a1)
    800051d8:	0205be03          	ld	t3,32(a1)
    800051dc:	0285b303          	ld	t1,40(a1)
    800051e0:	0305b883          	ld	a7,48(a1)
    800051e4:	0385b803          	ld	a6,56(a1)
    800051e8:	04078793          	addi	a5,a5,64
    800051ec:	f857b023          	sd	t0,-128(a5)
    800051f0:	f9f7b423          	sd	t6,-120(a5)
    800051f4:	f9e7b823          	sd	t5,-112(a5)
    800051f8:	f9d7bc23          	sd	t4,-104(a5)
    800051fc:	fbc7b023          	sd	t3,-96(a5)
    80005200:	fa67b423          	sd	t1,-88(a5)
    80005204:	fb17b823          	sd	a7,-80(a5)
    80005208:	fb07bc23          	sd	a6,-72(a5)
    8000520c:	04058593          	addi	a1,a1,64
    80005210:	fad7ece3          	bltu	a5,a3,800051c8 <memcpy+0x34>
    80005214:	fbf60613          	addi	a2,a2,-65
    80005218:	fc067613          	andi	a2,a2,-64
    8000521c:	04038393          	addi	t2,t2,64
    80005220:	00c707b3          	add	a5,a4,a2
    80005224:	00c385b3          	add	a1,t2,a2
    80005228:	f8d7fae3          	bgeu	a5,a3,800051bc <memcpy+0x28>
    8000522c:	6198                	ld	a4,0(a1)
    8000522e:	07a1                	addi	a5,a5,8
    80005230:	05a1                	addi	a1,a1,8
    80005232:	fee7bc23          	sd	a4,-8(a5)
    80005236:	fed7ebe3          	bltu	a5,a3,8000522c <memcpy+0x98>
    8000523a:	8082                	ret
    8000523c:	8082                	ret
    8000523e:	87aa                	mv	a5,a0
    80005240:	b7e5                	j	80005228 <memcpy+0x94>

0000000080005242 <_init>:
    80005242:	7171                	addi	sp,sp,-176
    80005244:	a8018793          	addi	a5,gp,-1408 # 800056f0 <_end>
    80005248:	ed26                	sd	s1,152(sp)
    8000524a:	a8018493          	addi	s1,gp,-1408 # 800056f0 <_end>
    8000524e:	e54e                	sd	s3,136(sp)
    80005250:	40f489b3          	sub	s3,s1,a5
    80005254:	e152                	sd	s4,128(sp)
    80005256:	fcd6                	sd	s5,120(sp)
    80005258:	864e                	mv	a2,s3
    8000525a:	8a2a                	mv	s4,a0
    8000525c:	8aae                	mv	s5,a1
    8000525e:	8512                	mv	a0,tp
    80005260:	85be                	mv	a1,a5
    80005262:	f122                	sd	s0,160(sp)
    80005264:	e94a                	sd	s2,144(sp)
    80005266:	8412                	mv	s0,tp
    80005268:	f506                	sd	ra,168(sp)
    8000526a:	f2bff0ef          	jal	80005194 <memcpy>
    8000526e:	a8018793          	addi	a5,gp,-1408 # 800056f0 <_end>
    80005272:	01340633          	add	a2,s0,s3
    80005276:	8f85                	sub	a5,a5,s1
    80005278:	00f66733          	or	a4,a2,a5
    8000527c:	03f10913          	addi	s2,sp,63
    80005280:	8b1d                	andi	a4,a4,7
    80005282:	fc097913          	andi	s2,s2,-64
    80005286:	97b2                	add	a5,a5,a2
    80005288:	cf39                	beqz	a4,800052e6 <_init+0xa4>
    8000528a:	00f67763          	bgeu	a2,a5,80005298 <_init+0x56>
    8000528e:	0605                	addi	a2,a2,1
    80005290:	fe060fa3          	sb	zero,-1(a2)
    80005294:	fef61de3          	bne	a2,a5,8000528e <_init+0x4c>
    80005298:	85d6                	mv	a1,s5
    8000529a:	8552                	mv	a0,s4
    8000529c:	e1aff0ef          	jal	800048b6 <thread_entry>
    800052a0:	4581                	li	a1,0
    800052a2:	4501                	li	a0,0
    800052a4:	174000ef          	jal	80005418 <main>
    800052a8:	a7018493          	addi	s1,gp,-1424 # 800056e0 <counter_names>
    800052ac:	8aaa                	mv	s5,a0
    800052ae:	89ca                	mv	s3,s2
    800052b0:	8a26                	mv	s4,s1
    800052b2:	a6018413          	addi	s0,gp,-1440 # 800056d0 <counters>
    800052b6:	6014                	ld	a3,0(s0)
    800052b8:	ee89                	bnez	a3,800052d2 <_init+0x90>
    800052ba:	0421                	addi	s0,s0,8
    800052bc:	04a1                	addi	s1,s1,8
    800052be:	ff441ce3          	bne	s0,s4,800052b6 <_init+0x74>
    800052c2:	01298563          	beq	s3,s2,800052cc <_init+0x8a>
    800052c6:	854a                	mv	a0,s2
    800052c8:	d8fff0ef          	jal	80005056 <printstr>
    800052cc:	8556                	mv	a0,s5
    800052ce:	d51ff0ef          	jal	8000501e <tohost_exit>
    800052d2:	6090                	ld	a2,0(s1)
    800052d4:	854e                	mv	a0,s3
    800052d6:	00000597          	auipc	a1,0x0
    800052da:	28a58593          	addi	a1,a1,650 # 80005560 <main+0x148>
    800052de:	e77ff0ef          	jal	80005154 <sprintf>
    800052e2:	99aa                	add	s3,s3,a0
    800052e4:	bfd9                	j	800052ba <_init+0x78>
    800052e6:	faf679e3          	bgeu	a2,a5,80005298 <_init+0x56>
    800052ea:	0621                	addi	a2,a2,8
    800052ec:	fe063c23          	sd	zero,-8(a2)
    800052f0:	faf674e3          	bgeu	a2,a5,80005298 <_init+0x56>
    800052f4:	0621                	addi	a2,a2,8
    800052f6:	fe063c23          	sd	zero,-8(a2)
    800052fa:	fef668e3          	bltu	a2,a5,800052ea <_init+0xa8>
    800052fe:	bf69                	j	80005298 <_init+0x56>

0000000080005300 <memset>:
    80005300:	00c567b3          	or	a5,a0,a2
    80005304:	8b9d                	andi	a5,a5,7
    80005306:	962a                	add	a2,a2,a0
    80005308:	cb91                	beqz	a5,8000531c <memset+0x1c>
    8000530a:	87aa                	mv	a5,a0
    8000530c:	02c57c63          	bgeu	a0,a2,80005344 <memset+0x44>
    80005310:	0785                	addi	a5,a5,1
    80005312:	feb78fa3          	sb	a1,-1(a5)
    80005316:	fec79de3          	bne	a5,a2,80005310 <memset+0x10>
    8000531a:	8082                	ret
    8000531c:	fec57fe3          	bgeu	a0,a2,8000531a <memset+0x1a>
    80005320:	010107b7          	lui	a5,0x1010
    80005324:	10178793          	addi	a5,a5,257 # 1010101 <_start-0x7efefeff>
    80005328:	02079713          	slli	a4,a5,0x20
    8000532c:	973e                	add	a4,a4,a5
    8000532e:	0ff5f593          	zext.b	a1,a1
    80005332:	02e585b3          	mul	a1,a1,a4
    80005336:	87aa                	mv	a5,a0
    80005338:	07a1                	addi	a5,a5,8
    8000533a:	feb7bc23          	sd	a1,-8(a5)
    8000533e:	fec7ede3          	bltu	a5,a2,80005338 <memset+0x38>
    80005342:	8082                	ret
    80005344:	8082                	ret

0000000080005346 <strlen>:
    80005346:	00054783          	lbu	a5,0(a0)
    8000534a:	cb89                	beqz	a5,8000535c <strlen+0x16>
    8000534c:	87aa                	mv	a5,a0
    8000534e:	0017c703          	lbu	a4,1(a5)
    80005352:	0785                	addi	a5,a5,1
    80005354:	ff6d                	bnez	a4,8000534e <strlen+0x8>
    80005356:	40a78533          	sub	a0,a5,a0
    8000535a:	8082                	ret
    8000535c:	4501                	li	a0,0
    8000535e:	8082                	ret

0000000080005360 <strnlen>:
    80005360:	00b506b3          	add	a3,a0,a1
    80005364:	87aa                	mv	a5,a0
    80005366:	e589                	bnez	a1,80005370 <strnlen+0x10>
    80005368:	a811                	j	8000537c <strnlen+0x1c>
    8000536a:	0785                	addi	a5,a5,1
    8000536c:	00d78563          	beq	a5,a3,80005376 <strnlen+0x16>
    80005370:	0007c703          	lbu	a4,0(a5)
    80005374:	fb7d                	bnez	a4,8000536a <strnlen+0xa>
    80005376:	40a78533          	sub	a0,a5,a0
    8000537a:	8082                	ret
    8000537c:	4501                	li	a0,0
    8000537e:	8082                	ret

0000000080005380 <strcmp>:
    80005380:	00054683          	lbu	a3,0(a0)
    80005384:	0005c603          	lbu	a2,0(a1)
    80005388:	0505                	addi	a0,a0,1
    8000538a:	00d037b3          	snez	a5,a3
    8000538e:	40c68733          	sub	a4,a3,a2
    80005392:	00173713          	seqz	a4,a4
    80005396:	8ff9                	and	a5,a5,a4
    80005398:	0585                	addi	a1,a1,1
    8000539a:	f3fd                	bnez	a5,80005380 <strcmp>
    8000539c:	40c6853b          	subw	a0,a3,a2
    800053a0:	8082                	ret

00000000800053a2 <strcpy>:
    800053a2:	87aa                	mv	a5,a0
    800053a4:	0005c703          	lbu	a4,0(a1)
    800053a8:	0585                	addi	a1,a1,1
    800053aa:	0785                	addi	a5,a5,1
    800053ac:	fee78fa3          	sb	a4,-1(a5)
    800053b0:	fb75                	bnez	a4,800053a4 <strcpy+0x2>
    800053b2:	8082                	ret

00000000800053b4 <atol>:
    800053b4:	00054703          	lbu	a4,0(a0)
    800053b8:	02000693          	li	a3,32
    800053bc:	87aa                	mv	a5,a0
    800053be:	00d71763          	bne	a4,a3,800053cc <atol+0x18>
    800053c2:	0017c703          	lbu	a4,1(a5)
    800053c6:	0785                	addi	a5,a5,1
    800053c8:	fed70de3          	beq	a4,a3,800053c2 <atol+0xe>
    800053cc:	fd57069b          	addiw	a3,a4,-43
    800053d0:	0fd6f693          	andi	a3,a3,253
    800053d4:	ea95                	bnez	a3,80005408 <atol+0x54>
    800053d6:	0017c683          	lbu	a3,1(a5)
    800053da:	fd370713          	addi	a4,a4,-45
    800053de:	00173613          	seqz	a2,a4
    800053e2:	ca8d                	beqz	a3,80005414 <atol+0x60>
    800053e4:	0785                	addi	a5,a5,1
    800053e6:	4501                	li	a0,0
    800053e8:	0785                	addi	a5,a5,1
    800053ea:	fd06859b          	addiw	a1,a3,-48
    800053ee:	00251713          	slli	a4,a0,0x2
    800053f2:	0007c683          	lbu	a3,0(a5)
    800053f6:	972a                	add	a4,a4,a0
    800053f8:	0706                	slli	a4,a4,0x1
    800053fa:	00e58533          	add	a0,a1,a4
    800053fe:	f6ed                	bnez	a3,800053e8 <atol+0x34>
    80005400:	c219                	beqz	a2,80005406 <atol+0x52>
    80005402:	40a00533          	neg	a0,a0
    80005406:	8082                	ret
    80005408:	0007c683          	lbu	a3,0(a5)
    8000540c:	4601                	li	a2,0
    8000540e:	fee1                	bnez	a3,800053e6 <atol+0x32>
    80005410:	4501                	li	a0,0
    80005412:	8082                	ret
    80005414:	4501                	li	a0,0
    80005416:	b7ed                	j	80005400 <atol+0x4c>

セクション .text.startup の逆アセンブル:

0000000080005418 <main>:
    80005418:	7159                	addi	sp,sp,-112
    8000541a:	03f10693          	addi	a3,sp,63
    8000541e:	fc06f693          	andi	a3,a3,-64
    80005422:	00000617          	auipc	a2,0x0
    80005426:	12660613          	addi	a2,a2,294 # 80005548 <main+0x130>
    8000542a:	00000817          	auipc	a6,0x0
    8000542e:	13580813          	addi	a6,a6,309 # 8000555f <main+0x147>
    80005432:	ffffc717          	auipc	a4,0xffffc
    80005436:	bce70713          	addi	a4,a4,-1074 # 80001000 <tohost>
    8000543a:	04000513          	li	a0,64
    8000543e:	4585                	li	a1,1
    80005440:	e288                	sd	a0,0(a3)
    80005442:	e68c                	sd	a1,8(a3)
    80005444:	ea90                	sd	a2,16(a3)
    80005446:	ee8c                	sd	a1,24(a3)
    80005448:	0330000f          	fence	rw,rw
    8000544c:	e314                	sd	a3,0(a4)
    8000544e:	671c                	ld	a5,8(a4)
    80005450:	dffd                	beqz	a5,8000544e <main+0x36>
    80005452:	ffffc797          	auipc	a5,0xffffc
    80005456:	ba07bb23          	sd	zero,-1098(a5) # 80001008 <fromhost>
    8000545a:	0330000f          	fence	rw,rw
    8000545e:	629c                	ld	a5,0(a3)
    80005460:	0605                	addi	a2,a2,1
    80005462:	fd061fe3          	bne	a2,a6,80005440 <main+0x28>
    80005466:	557d                	li	a0,-1
    80005468:	6165                	addi	sp,sp,112
    8000546a:	8082                	ret
