
mm.riscv:     ファイル形式 elf32-littleriscv


セクション .text.init の逆アセンブル:

80000000 <_start>:
80000000:	4081                	li	ra,0
80000002:	4101                	li	sp,0
80000004:	4181                	li	gp,0
80000006:	4201                	li	tp,0
80000008:	4281                	li	t0,0
8000000a:	4301                	li	t1,0
8000000c:	4381                	li	t2,0
8000000e:	4401                	li	s0,0
80000010:	4481                	li	s1,0
80000012:	4501                	li	a0,0
80000014:	4581                	li	a1,0
80000016:	4601                	li	a2,0
80000018:	4681                	li	a3,0
8000001a:	4701                	li	a4,0
8000001c:	4781                	li	a5,0
8000001e:	4801                	li	a6,0
80000020:	4881                	li	a7,0
80000022:	4901                	li	s2,0
80000024:	4981                	li	s3,0
80000026:	4a01                	li	s4,0
80000028:	4a81                	li	s5,0
8000002a:	4b01                	li	s6,0
8000002c:	4b81                	li	s7,0
8000002e:	4c01                	li	s8,0
80000030:	4c81                	li	s9,0
80000032:	4d01                	li	s10,0
80000034:	4d81                	li	s11,0
80000036:	4e01                	li	t3,0
80000038:	4e81                	li	t4,0
8000003a:	4f01                	li	t5,0
8000003c:	4f81                	li	t6,0
8000003e:	62f9                	lui	t0,0x1e
80000040:	60028293          	addi	t0,t0,1536 # 1e600 <_start-0x7ffe1a00>
80000044:	3002a073          	csrs	mstatus,t0
80000048:	4285                	li	t0,1
8000004a:	02fe                	slli	t0,t0,0x1f
8000004c:	0002c863          	bltz	t0,8000005c <_start+0x5c>
80000050:	4505                	li	a0,1
80000052:	00001297          	auipc	t0,0x1
80000056:	faa2a723          	sw	a0,-82(t0) # 80001000 <tohost>
8000005a:	bfdd                	j	80000050 <_start+0x50>
8000005c:	00000297          	auipc	t0,0x0
80000060:	09028293          	addi	t0,t0,144 # 800000ec <_start+0xec>
80000064:	30529073          	csrw	mtvec,t0
80000068:	00301073          	fscsr	zero
8000006c:	f0000053          	fmv.w.x	ft0,zero
80000070:	f00000d3          	fmv.w.x	ft1,zero
80000074:	f0000153          	fmv.w.x	ft2,zero
80000078:	f00001d3          	fmv.w.x	ft3,zero
8000007c:	f0000253          	fmv.w.x	ft4,zero
80000080:	f00002d3          	fmv.w.x	ft5,zero
80000084:	f0000353          	fmv.w.x	ft6,zero
80000088:	f00003d3          	fmv.w.x	ft7,zero
8000008c:	f0000453          	fmv.w.x	fs0,zero
80000090:	f00004d3          	fmv.w.x	fs1,zero
80000094:	f0000553          	fmv.w.x	fa0,zero
80000098:	f00005d3          	fmv.w.x	fa1,zero
8000009c:	f0000653          	fmv.w.x	fa2,zero
800000a0:	f00006d3          	fmv.w.x	fa3,zero
800000a4:	f0000753          	fmv.w.x	fa4,zero
800000a8:	f00007d3          	fmv.w.x	fa5,zero
800000ac:	f0000853          	fmv.w.x	fa6,zero
800000b0:	f00008d3          	fmv.w.x	fa7,zero
800000b4:	f0000953          	fmv.w.x	fs2,zero
800000b8:	f00009d3          	fmv.w.x	fs3,zero
800000bc:	f0000a53          	fmv.w.x	fs4,zero
800000c0:	f0000ad3          	fmv.w.x	fs5,zero
800000c4:	f0000b53          	fmv.w.x	fs6,zero
800000c8:	f0000bd3          	fmv.w.x	fs7,zero
800000cc:	f0000c53          	fmv.w.x	fs8,zero
800000d0:	f0000cd3          	fmv.w.x	fs9,zero
800000d4:	f0000d53          	fmv.w.x	fs10,zero
800000d8:	f0000dd3          	fmv.w.x	fs11,zero
800000dc:	f0000e53          	fmv.w.x	ft8,zero
800000e0:	f0000ed3          	fmv.w.x	ft9,zero
800000e4:	f0000f53          	fmv.w.x	ft10,zero
800000e8:	f0000fd3          	fmv.w.x	ft11,zero
800000ec:	00000297          	auipc	t0,0x0
800000f0:	04028293          	addi	t0,t0,64 # 8000012c <trap_entry>
800000f4:	30529073          	csrw	mtvec,t0
800000f8:	00006197          	auipc	gp,0x6
800000fc:	12018193          	addi	gp,gp,288 # 80006218 <__global_pointer$>
80000100:	00006217          	auipc	tp,0x6
80000104:	cbc20213          	addi	tp,tp,-836 # 80005dbc <_end>
80000108:	03f20213          	addi	tp,tp,63 # 3f <_start-0x7fffffc1>
8000010c:	fc027213          	andi	tp,tp,-64
80000110:	f1402573          	csrr	a0,mhartid
80000114:	4585                	li	a1,1
80000116:	00b57063          	bgeu	a0,a1,80000116 <_start+0x116>
8000011a:	00150113          	addi	sp,a0,1
8000011e:	0146                	slli	sp,sp,0x11
80000120:	9112                	add	sp,sp,tp
80000122:	01151613          	slli	a2,a0,0x11
80000126:	9232                	add	tp,tp,a2
80000128:	0ae0506f          	j	800051d6 <_init>

8000012c <trap_entry>:
8000012c:	716d                	addi	sp,sp,-272
8000012e:	c206                	sw	ra,4(sp)
80000130:	c40a                	sw	sp,8(sp)
80000132:	c60e                	sw	gp,12(sp)
80000134:	c812                	sw	tp,16(sp)
80000136:	ca16                	sw	t0,20(sp)
80000138:	cc1a                	sw	t1,24(sp)
8000013a:	ce1e                	sw	t2,28(sp)
8000013c:	d022                	sw	s0,32(sp)
8000013e:	d226                	sw	s1,36(sp)
80000140:	d42a                	sw	a0,40(sp)
80000142:	d62e                	sw	a1,44(sp)
80000144:	d832                	sw	a2,48(sp)
80000146:	da36                	sw	a3,52(sp)
80000148:	dc3a                	sw	a4,56(sp)
8000014a:	de3e                	sw	a5,60(sp)
8000014c:	c0c2                	sw	a6,64(sp)
8000014e:	c2c6                	sw	a7,68(sp)
80000150:	c4ca                	sw	s2,72(sp)
80000152:	c6ce                	sw	s3,76(sp)
80000154:	c8d2                	sw	s4,80(sp)
80000156:	cad6                	sw	s5,84(sp)
80000158:	ccda                	sw	s6,88(sp)
8000015a:	cede                	sw	s7,92(sp)
8000015c:	d0e2                	sw	s8,96(sp)
8000015e:	d2e6                	sw	s9,100(sp)
80000160:	d4ea                	sw	s10,104(sp)
80000162:	d6ee                	sw	s11,108(sp)
80000164:	d8f2                	sw	t3,112(sp)
80000166:	daf6                	sw	t4,116(sp)
80000168:	dcfa                	sw	t5,120(sp)
8000016a:	defe                	sw	t6,124(sp)
8000016c:	34202573          	csrr	a0,mcause
80000170:	341025f3          	csrr	a1,mepc
80000174:	860a                	mv	a2,sp
80000176:	64b040ef          	jal	80004fc0 <handle_trap>
8000017a:	34151073          	csrw	mepc,a0
8000017e:	6289                	lui	t0,0x2
80000180:	80028293          	addi	t0,t0,-2048 # 1800 <_start-0x7fffe800>
80000184:	3002a073          	csrs	mstatus,t0
80000188:	4092                	lw	ra,4(sp)
8000018a:	4122                	lw	sp,8(sp)
8000018c:	41b2                	lw	gp,12(sp)
8000018e:	4242                	lw	tp,16(sp)
80000190:	42d2                	lw	t0,20(sp)
80000192:	4362                	lw	t1,24(sp)
80000194:	43f2                	lw	t2,28(sp)
80000196:	5402                	lw	s0,32(sp)
80000198:	5492                	lw	s1,36(sp)
8000019a:	5522                	lw	a0,40(sp)
8000019c:	55b2                	lw	a1,44(sp)
8000019e:	5642                	lw	a2,48(sp)
800001a0:	56d2                	lw	a3,52(sp)
800001a2:	5762                	lw	a4,56(sp)
800001a4:	57f2                	lw	a5,60(sp)
800001a6:	4806                	lw	a6,64(sp)
800001a8:	4896                	lw	a7,68(sp)
800001aa:	4926                	lw	s2,72(sp)
800001ac:	49b6                	lw	s3,76(sp)
800001ae:	4a46                	lw	s4,80(sp)
800001b0:	4ad6                	lw	s5,84(sp)
800001b2:	4b66                	lw	s6,88(sp)
800001b4:	4bf6                	lw	s7,92(sp)
800001b6:	5c06                	lw	s8,96(sp)
800001b8:	5c96                	lw	s9,100(sp)
800001ba:	5d26                	lw	s10,104(sp)
800001bc:	5db6                	lw	s11,108(sp)
800001be:	5e46                	lw	t3,112(sp)
800001c0:	5ed6                	lw	t4,116(sp)
800001c2:	5f66                	lw	t5,120(sp)
800001c4:	5ff6                	lw	t6,124(sp)
800001c6:	6151                	addi	sp,sp,272
800001c8:	30200073          	mret
800001cc:	0001                	nop

セクション .text の逆アセンブル:

80002000 <mm_naive>:
80002000:	14050a63          	beqz	a0,80002154 <mm_naive+0x154>
80002004:	7139                	addi	sp,sp,-64
80002006:	de22                	sw	s0,60(sp)
80002008:	d84e                	sw	s3,48(sp)
8000200a:	842e                	mv	s0,a1
8000200c:	89aa                	mv	s3,a0
8000200e:	12058863          	beqz	a1,8000213e <mm_naive+0x13e>
80002012:	00381313          	slli	t1,a6,0x3
80002016:	dc26                	sw	s1,56(sp)
80002018:	84b2                	mv	s1,a2
8000201a:	9a71                	andi	a2,a2,-4
8000201c:	da4a                	sw	s2,52(sp)
8000201e:	02660933          	mul	s2,a2,t1
80002022:	00181293          	slli	t0,a6,0x1
80002026:	92c2                	add	t0,t0,a6
80002028:	ca6a                	sw	s10,20(sp)
8000202a:	00349f13          	slli	t5,s1,0x3
8000202e:	00371d13          	slli	s10,a4,0x3
80002032:	d652                	sw	s4,44(sp)
80002034:	d456                	sw	s5,40(sp)
80002036:	d25a                	sw	s6,36(sp)
80002038:	d05e                	sw	s7,32(sp)
8000203a:	cc66                	sw	s9,24(sp)
8000203c:	c86e                	sw	s11,16(sp)
8000203e:	8b3a                	mv	s6,a4
80002040:	00581393          	slli	t2,a6,0x5
80002044:	00481f93          	slli	t6,a6,0x4
80002048:	ce62                	sw	s8,28(sp)
8000204a:	8ab6                	mv	s5,a3
8000204c:	8bbe                	mv	s7,a5
8000204e:	8cc6                	mv	s9,a7
80002050:	028e                	slli	t0,t0,0x3
80002052:	9f36                	add	t5,t5,a3
80002054:	4a01                	li	s4,0
80002056:	4801                	li	a6,0
80002058:	4e01                	li	t3,0
8000205a:	02068d93          	addi	s11,a3,32
8000205e:	c66a                	sw	s10,12(sp)
80002060:	ffc60713          	addi	a4,a2,-4
80002064:	01060c33          	add	s8,a2,a6
80002068:	010705b3          	add	a1,a4,a6
8000206c:	0c0e                	slli	s8,s8,0x3
8000206e:	058e                	slli	a1,a1,0x3
80002070:	003a1513          	slli	a0,s4,0x3
80002074:	00381d13          	slli	s10,a6,0x3
80002078:	9c56                	add	s8,s8,s5
8000207a:	95ee                	add	a1,a1,s11
8000207c:	9566                	add	a0,a0,s9
8000207e:	9d56                	add	s10,s10,s5
80002080:	88de                	mv	a7,s7
80002082:	4e81                	li	t4,0
80002084:	c452                	sw	s4,8(sp)
80002086:	211c                	fld	fa5,0(a0)
80002088:	c279                	beqz	a2,8000214e <mm_naive+0x14e>
8000208a:	d20006d3          	fcvt.d.w	fa3,zero
8000208e:	86c6                	mv	a3,a7
80002090:	87ea                	mv	a5,s10
80002092:	22d68653          	fmv.d	fa2,fa3
80002096:	22d68753          	fmv.d	fa4,fa3
8000209a:	00668a33          	add	s4,a3,t1
8000209e:	000a3207          	fld	ft4,0(s4)
800020a2:	01f68a33          	add	s4,a3,t6
800020a6:	000a3107          	fld	ft2,0(s4)
800020aa:	00568a33          	add	s4,a3,t0
800020ae:	0087b287          	fld	ft5,8(a5)
800020b2:	0107b187          	fld	ft3,16(a5)
800020b6:	0187b087          	fld	ft1,24(a5)
800020ba:	2388                	fld	fa0,0(a5)
800020bc:	228c                	fld	fa1,0(a3)
800020be:	000a3007          	fld	ft0,0(s4)
800020c2:	02078793          	addi	a5,a5,32
800020c6:	7242f743          	fmadd.d	fa4,ft5,ft4,fa4
800020ca:	6221f643          	fmadd.d	fa2,ft3,ft2,fa2
800020ce:	6a00f6c3          	fmadd.d	fa3,ft1,ft0,fa3
800020d2:	7ab577c3          	fmadd.d	fa5,fa0,fa1,fa5
800020d6:	969e                	add	a3,a3,t2
800020d8:	fcf591e3          	bne	a1,a5,8000209a <mm_naive+0x9a>
800020dc:	02c77753          	fadd.d	fa4,fa4,fa2
800020e0:	02d77753          	fadd.d	fa4,fa4,fa3
800020e4:	00967d63          	bgeu	a2,s1,800020fe <mm_naive+0xfe>
800020e8:	011906b3          	add	a3,s2,a7
800020ec:	87e2                	mv	a5,s8
800020ee:	2390                	fld	fa2,0(a5)
800020f0:	2294                	fld	fa3,0(a3)
800020f2:	07a1                	addi	a5,a5,8
800020f4:	969a                	add	a3,a3,t1
800020f6:	7ad677c3          	fmadd.d	fa5,fa2,fa3,fa5
800020fa:	feff1ae3          	bne	t5,a5,800020ee <mm_naive+0xee>
800020fe:	02e7f7d3          	fadd.d	fa5,fa5,fa4
80002102:	0e85                	addi	t4,t4,1
80002104:	08a1                	addi	a7,a7,8
80002106:	0521                	addi	a0,a0,8
80002108:	fef53c27          	fsd	fa5,-8(a0)
8000210c:	f7d41de3          	bne	s0,t4,80002086 <mm_naive+0x86>
80002110:	4786                	lw	a5,64(sp)
80002112:	4a22                	lw	s4,8(sp)
80002114:	0e05                	addi	t3,t3,1
80002116:	985a                	add	a6,a6,s6
80002118:	9a3e                	add	s4,s4,a5
8000211a:	47b2                	lw	a5,12(sp)
8000211c:	9f3e                	add	t5,t5,a5
8000211e:	f5c993e3          	bne	s3,t3,80002064 <mm_naive+0x64>
80002122:	54e2                	lw	s1,56(sp)
80002124:	5952                	lw	s2,52(sp)
80002126:	5a32                	lw	s4,44(sp)
80002128:	5aa2                	lw	s5,40(sp)
8000212a:	5b12                	lw	s6,36(sp)
8000212c:	5b82                	lw	s7,32(sp)
8000212e:	4c72                	lw	s8,28(sp)
80002130:	4ce2                	lw	s9,24(sp)
80002132:	4d52                	lw	s10,20(sp)
80002134:	4dc2                	lw	s11,16(sp)
80002136:	5472                	lw	s0,60(sp)
80002138:	59c2                	lw	s3,48(sp)
8000213a:	6121                	addi	sp,sp,64
8000213c:	8082                	ret
8000213e:	00140793          	addi	a5,s0,1
80002142:	0409                	addi	s0,s0,2
80002144:	fef989e3          	beq	s3,a5,80002136 <mm_naive+0x136>
80002148:	fe899be3          	bne	s3,s0,8000213e <mm_naive+0x13e>
8000214c:	b7ed                	j	80002136 <mm_naive+0x136>
8000214e:	d2000753          	fcvt.d.w	fa4,zero
80002152:	bf49                	j	800020e4 <mm_naive+0xe4>
80002154:	8082                	ret

80002156 <mm_cb>:
80002156:	51eb8337          	lui	t1,0x51eb8
8000215a:	51f30313          	addi	t1,t1,1311 # 51eb851f <_start-0x2e147ae1>
8000215e:	0265b333          	mulhu	t1,a1,t1
80002162:	7121                	addi	sp,sp,-448
80002164:	1b312623          	sw	s3,428(sp)
80002168:	89aa                	mv	s3,a0
8000216a:	aaaab537          	lui	a0,0xaaaab
8000216e:	aab50513          	addi	a0,a0,-1365 # aaaaaaab <__global_pointer$+0x2aaa4893>
80002172:	1a912a23          	sw	s1,436(sp)
80002176:	02a63fb3          	mulhu	t6,a2,a0
8000217a:	1a812c23          	sw	s0,440(sp)
8000217e:	1b212823          	sw	s2,432(sp)
80002182:	00335493          	srli	s1,t1,0x3
80002186:	00149313          	slli	t1,s1,0x1
8000218a:	9326                	add	t1,t1,s1
8000218c:	0380                	addi	s0,sp,448
8000218e:	02a9be33          	mulhu	t3,s3,a0
80002192:	19a12823          	sw	s10,400(sp)
80002196:	1a112e23          	sw	ra,444(sp)
8000219a:	1b412423          	sw	s4,424(sp)
8000219e:	1b512223          	sw	s5,420(sp)
800021a2:	1b612023          	sw	s6,416(sp)
800021a6:	19712e23          	sw	s7,412(sp)
800021aa:	19812c23          	sw	s8,408(sp)
800021ae:	19912a23          	sw	s9,404(sp)
800021b2:	19b12623          	sw	s11,396(sp)
800021b6:	bea2                	fsd	fs0,376(sp)
800021b8:	baa6                	fsd	fs1,368(sp)
800021ba:	b6ca                	fsd	fs2,360(sp)
800021bc:	b2ce                	fsd	fs3,352(sp)
800021be:	aed2                	fsd	fs4,344(sp)
800021c0:	aad6                	fsd	fs5,336(sp)
800021c2:	a6da                	fsd	fs6,328(sp)
800021c4:	a2de                	fsd	fs7,320(sp)
800021c6:	be62                	fsd	fs8,312(sp)
800021c8:	ba66                	fsd	fs9,304(sp)
800021ca:	b66a                	fsd	fs10,296(sp)
800021cc:	b26e                	fsd	fs11,288(sp)
800021ce:	030e                	slli	t1,t1,0x3
800021d0:	009302b3          	add	t0,t1,s1
800021d4:	004fd313          	srli	t1,t6,0x4
800021d8:	eed42e23          	sw	a3,-260(s0)
800021dc:	00131693          	slli	a3,t1,0x1
800021e0:	969a                	add	a3,a3,t1
800021e2:	ee642823          	sw	t1,-272(s0)
800021e6:	00669313          	slli	t1,a3,0x6
800021ea:	f0942a23          	sw	s1,-236(s0)
800021ee:	e8642a23          	sw	t1,-364(s0)
800021f2:	f0542c23          	sw	t0,-232(s0)
800021f6:	893e                	mv	s2,a5
800021f8:	004e5793          	srli	a5,t3,0x4
800021fc:	f0e42e23          	sw	a4,-228(s0)
80002200:	8fba                	mv	t6,a4
80002202:	00179713          	slli	a4,a5,0x1
80002206:	97ba                	add	a5,a5,a4
80002208:	00379d13          	slli	s10,a5,0x3
8000220c:	026d07b3          	mul	a5,s10,t1
80002210:	0c800f13          	li	t5,200
80002214:	8eb2                	mv	t4,a2
80002216:	6609                	lui	a2,0x2
80002218:	167d                	addi	a2,a2,-1 # 1fff <_start-0x7fffe001>
8000221a:	ef142c23          	sw	a7,-264(s0)
8000221e:	03e484b3          	mul	s1,s1,t5
80002222:	00369f13          	slli	t5,a3,0x3
80002226:	76f9                	lui	a3,0xffffe
80002228:	97b2                	add	a5,a5,a2
8000222a:	07dd                	addi	a5,a5,23
8000222c:	9bc1                	andi	a5,a5,-16
8000222e:	40f10133          	sub	sp,sp,a5
80002232:	02628733          	mul	a4,t0,t1
80002236:	01710313          	addi	t1,sp,23
8000223a:	ff037313          	andi	t1,t1,-16
8000223e:	029d07b3          	mul	a5,s10,s1
80002242:	9732                	add	a4,a4,a2
80002244:	075d                	addi	a4,a4,23
80002246:	9b41                	andi	a4,a4,-16
80002248:	40e10133          	sub	sp,sp,a4
8000224c:	01710893          	addi	a7,sp,23
80002250:	ff08f893          	andi	a7,a7,-16
80002254:	98b2                	add	a7,a7,a2
80002256:	97b2                	add	a5,a5,a2
80002258:	07dd                	addi	a5,a5,23
8000225a:	9bc1                	andi	a5,a5,-16
8000225c:	40f10133          	sub	sp,sp,a5
80002260:	01710793          	addi	a5,sp,23
80002264:	9bc1                	andi	a5,a5,-16
80002266:	97b2                	add	a5,a5,a2
80002268:	8ff5                	and	a5,a5,a3
8000226a:	00c30733          	add	a4,t1,a2
8000226e:	f0f42423          	sw	a5,-248(s0)
80002272:	00d8f7b3          	and	a5,a7,a3
80002276:	ecf42c23          	sw	a5,-296(s0)
8000227a:	00d777b3          	and	a5,a4,a3
8000227e:	ecf42e23          	sw	a5,-292(s0)
80002282:	000d1463          	bnez	s10,8000228a <mm_cb+0x134>
80002286:	6630106f          	j	800040e8 <mm_cb+0x1f92>
8000228a:	000f1463          	bnez	t5,80002292 <mm_cb+0x13c>
8000228e:	6790106f          	j	80004106 <mm_cb+0x1fb0>
80002292:	001f9793          	slli	a5,t6,0x1
80002296:	97fe                	add	a5,a5,t6
80002298:	00379e13          	slli	t3,a5,0x3
8000229c:	003f9293          	slli	t0,t6,0x3
800022a0:	4681                	li	a3,0
800022a2:	4701                	li	a4,0
800022a4:	24000b93          	li	s7,576
800022a8:	02a737b3          	mulhu	a5,a4,a0
800022ac:	efc42603          	lw	a2,-260(s0)
800022b0:	00369f93          	slli	t6,a3,0x3
800022b4:	4381                	li	t2,0
800022b6:	9fb2                	add	t6,t6,a2
800022b8:	ef042603          	lw	a2,-272(s0)
800022bc:	8391                	srli	a5,a5,0x4
800022be:	02c787b3          	mul	a5,a5,a2
800022c2:	0c0f8f93          	addi	t6,t6,192
800022c6:	837e                	mv	t1,t6
800022c8:	4a81                	li	s5,0
800022ca:	02a3b633          	mulhu	a2,t2,a0
800022ce:	8211                	srli	a2,a2,0x4
800022d0:	963e                	add	a2,a2,a5
800022d2:	00361a13          	slli	s4,a2,0x3
800022d6:	9a32                	add	s4,s4,a2
800022d8:	edc42603          	lw	a2,-292(s0)
800022dc:	0a26                	slli	s4,s4,0x9
800022de:	9a32                	add	s4,s4,a2
800022e0:	f4030613          	addi	a2,t1,-192
800022e4:	88d2                	mv	a7,s4
800022e6:	00063087          	fld	ft1,0(a2)
800022ea:	00863007          	fld	ft0,8(a2)
800022ee:	2a08                	fld	fa0,16(a2)
800022f0:	2e0c                	fld	fa1,24(a2)
800022f2:	3210                	fld	fa2,32(a2)
800022f4:	3614                	fld	fa3,40(a2)
800022f6:	3a18                	fld	fa4,48(a2)
800022f8:	3e1c                	fld	fa5,56(a2)
800022fa:	0018b027          	fsd	ft1,0(a7)
800022fe:	0008b427          	fsd	ft0,8(a7)
80002302:	00a8b827          	fsd	fa0,16(a7)
80002306:	00b8bc27          	fsd	fa1,24(a7)
8000230a:	02c8b027          	fsd	fa2,32(a7)
8000230e:	02d8b427          	fsd	fa3,40(a7)
80002312:	02e8b827          	fsd	fa4,48(a7)
80002316:	02f8bc27          	fsd	fa5,56(a7)
8000231a:	04060613          	addi	a2,a2,64
8000231e:	04088893          	addi	a7,a7,64
80002322:	fcc312e3          	bne	t1,a2,800022e6 <mm_cb+0x190>
80002326:	0ae1                	addi	s5,s5,24
80002328:	0c0a0a13          	addi	s4,s4,192
8000232c:	9316                	add	t1,t1,t0
8000232e:	fb7a99e3          	bne	s5,s7,800022e0 <mm_cb+0x18a>
80002332:	03e1                	addi	t2,t2,24
80002334:	f9e3e7e3          	bltu	t2,t5,800022c2 <mm_cb+0x16c>
80002338:	0761                	addi	a4,a4,24
8000233a:	96f2                	add	a3,a3,t3
8000233c:	f7a766e3          	bltu	a4,s10,800022a8 <mm_cb+0x152>
80002340:	0c0f0963          	beqz	t5,80002412 <mm_cb+0x2bc>
80002344:	47e1                	li	a5,24
80002346:	0cb7f263          	bgeu	a5,a1,8000240a <mm_cb+0x2b4>
8000234a:	00181793          	slli	a5,a6,0x1
8000234e:	97c2                	add	a5,a5,a6
80002350:	aaaabe37          	lui	t3,0xaaaab
80002354:	51eb8fb7          	lui	t6,0x51eb8
80002358:	6285                	lui	t0,0x1
8000235a:	00379313          	slli	t1,a5,0x3
8000235e:	aabe0e13          	addi	t3,t3,-1365 # aaaaaaab <__global_pointer$+0x2aaa4893>
80002362:	51ff8f93          	addi	t6,t6,1311 # 51eb851f <_start-0x2e147ae1>
80002366:	2c028293          	addi	t0,t0,704 # 12c0 <_start-0x7fffed40>
8000236a:	00381b93          	slli	s7,a6,0x3
8000236e:	4681                	li	a3,0
80002370:	4701                	li	a4,0
80002372:	25800c13          	li	s8,600
80002376:	03c737b3          	mulhu	a5,a4,t3
8000237a:	f1442603          	lw	a2,-236(s0)
8000237e:	00369393          	slli	t2,a3,0x3
80002382:	93ca                	add	t2,t2,s2
80002384:	4a01                	li	s4,0
80002386:	8391                	srli	a5,a5,0x4
80002388:	02c787b3          	mul	a5,a5,a2
8000238c:	ed842603          	lw	a2,-296(s0)
80002390:	0c038893          	addi	a7,t2,192
80002394:	4b01                	li	s6,0
80002396:	03fa3ab3          	mulhu	s5,s4,t6
8000239a:	003ada93          	srli	s5,s5,0x3
8000239e:	9abe                	add	s5,s5,a5
800023a0:	025a8ab3          	mul	s5,s5,t0
800023a4:	9ab2                	add	s5,s5,a2
800023a6:	f4088613          	addi	a2,a7,-192
800023aa:	8556                	mv	a0,s5
800023ac:	00063087          	fld	ft1,0(a2)
800023b0:	00863007          	fld	ft0,8(a2)
800023b4:	2a08                	fld	fa0,16(a2)
800023b6:	2e0c                	fld	fa1,24(a2)
800023b8:	3210                	fld	fa2,32(a2)
800023ba:	3614                	fld	fa3,40(a2)
800023bc:	3a18                	fld	fa4,48(a2)
800023be:	3e1c                	fld	fa5,56(a2)
800023c0:	00153027          	fsd	ft1,0(a0)
800023c4:	00053427          	fsd	ft0,8(a0)
800023c8:	a908                	fsd	fa0,16(a0)
800023ca:	ad0c                	fsd	fa1,24(a0)
800023cc:	b110                	fsd	fa2,32(a0)
800023ce:	b514                	fsd	fa3,40(a0)
800023d0:	b918                	fsd	fa4,48(a0)
800023d2:	bd1c                	fsd	fa5,56(a0)
800023d4:	04060613          	addi	a2,a2,64
800023d8:	04050513          	addi	a0,a0,64
800023dc:	fcc898e3          	bne	a7,a2,800023ac <mm_cb+0x256>
800023e0:	0008b787          	fld	fa5,0(a7)
800023e4:	0b65                	addi	s6,s6,25
800023e6:	98de                	add	a7,a7,s7
800023e8:	0cfab027          	fsd	fa5,192(s5)
800023ec:	0c8a8a93          	addi	s5,s5,200
800023f0:	fb8b1be3          	bne	s6,s8,800023a6 <mm_cb+0x250>
800023f4:	f1842603          	lw	a2,-232(s0)
800023f8:	0a65                	addi	s4,s4,25
800023fa:	0c838393          	addi	t2,t2,200
800023fe:	f8ca67e3          	bltu	s4,a2,8000238c <mm_cb+0x236>
80002402:	0761                	addi	a4,a4,24
80002404:	969a                	add	a3,a3,t1
80002406:	f7e768e3          	bltu	a4,t5,80002376 <mm_cb+0x220>
8000240a:	000d1463          	bnez	s10,80002412 <mm_cb+0x2bc>
8000240e:	4e30106f          	j	800040f0 <mm_cb+0x1f9a>
80002412:	4018                	lw	a4,0(s0)
80002414:	47e1                	li	a5,24
80002416:	070e                	slli	a4,a4,0x3
80002418:	ece42823          	sw	a4,-304(s0)
8000241c:	00b7e463          	bltu	a5,a1,80002424 <mm_cb+0x2ce>
80002420:	4dd0106f          	j	800040fc <mm_cb+0x1fa6>
80002424:	401c                	lw	a5,0(s0)
80002426:	aaaabfb7          	lui	t6,0xaaaab
8000242a:	51eb82b7          	lui	t0,0x51eb8
8000242e:	00179713          	slli	a4,a5,0x1
80002432:	00f70533          	add	a0,a4,a5
80002436:	6b85                	lui	s7,0x1
80002438:	00351e13          	slli	t3,a0,0x3
8000243c:	aabf8f93          	addi	t6,t6,-1365 # aaaaaaab <__global_pointer$+0x2aaa4893>
80002440:	51f28293          	addi	t0,t0,1311 # 51eb851f <_start-0x2e147ae1>
80002444:	2c0b8b93          	addi	s7,s7,704 # 12c0 <_start-0x7fffed40>
80002448:	4301                	li	t1,0
8000244a:	4681                	li	a3,0
8000244c:	25800c13          	li	s8,600
80002450:	03f6b7b3          	mulhu	a5,a3,t6
80002454:	ef842603          	lw	a2,-264(s0)
80002458:	00331393          	slli	t2,t1,0x3
8000245c:	4a01                	li	s4,0
8000245e:	93b2                	add	t2,t2,a2
80002460:	f1442603          	lw	a2,-236(s0)
80002464:	8391                	srli	a5,a5,0x4
80002466:	02c787b3          	mul	a5,a5,a2
8000246a:	f0842603          	lw	a2,-248(s0)
8000246e:	0c038893          	addi	a7,t2,192
80002472:	4b01                	li	s6,0
80002474:	025a3ab3          	mulhu	s5,s4,t0
80002478:	003ada93          	srli	s5,s5,0x3
8000247c:	9abe                	add	s5,s5,a5
8000247e:	037a8ab3          	mul	s5,s5,s7
80002482:	9ab2                	add	s5,s5,a2
80002484:	f4088613          	addi	a2,a7,-192
80002488:	8556                	mv	a0,s5
8000248a:	00063087          	fld	ft1,0(a2)
8000248e:	00863007          	fld	ft0,8(a2)
80002492:	2a08                	fld	fa0,16(a2)
80002494:	2e0c                	fld	fa1,24(a2)
80002496:	3210                	fld	fa2,32(a2)
80002498:	3614                	fld	fa3,40(a2)
8000249a:	3a18                	fld	fa4,48(a2)
8000249c:	3e1c                	fld	fa5,56(a2)
8000249e:	00153027          	fsd	ft1,0(a0)
800024a2:	00053427          	fsd	ft0,8(a0)
800024a6:	a908                	fsd	fa0,16(a0)
800024a8:	ad0c                	fsd	fa1,24(a0)
800024aa:	b110                	fsd	fa2,32(a0)
800024ac:	b514                	fsd	fa3,40(a0)
800024ae:	b918                	fsd	fa4,48(a0)
800024b0:	bd1c                	fsd	fa5,56(a0)
800024b2:	04060613          	addi	a2,a2,64
800024b6:	04050513          	addi	a0,a0,64
800024ba:	fcc898e3          	bne	a7,a2,8000248a <mm_cb+0x334>
800024be:	0008b787          	fld	fa5,0(a7)
800024c2:	ed042603          	lw	a2,-304(s0)
800024c6:	0b65                	addi	s6,s6,25
800024c8:	0cfab027          	fsd	fa5,192(s5)
800024cc:	98b2                	add	a7,a7,a2
800024ce:	0c8a8a93          	addi	s5,s5,200
800024d2:	fb8b19e3          	bne	s6,s8,80002484 <mm_cb+0x32e>
800024d6:	f1842603          	lw	a2,-232(s0)
800024da:	0a65                	addi	s4,s4,25
800024dc:	0c838393          	addi	t2,t2,200
800024e0:	f8ca65e3          	bltu	s4,a2,8000246a <mm_cb+0x314>
800024e4:	06e1                	addi	a3,a3,24 # ffffe018 <__global_pointer$+0x7fff7e00>
800024e6:	9372                	add	t1,t1,t3
800024e8:	f7a6e4e3          	bltu	a3,s10,80002450 <mm_cb+0x2fa>
800024ec:	401c                	lw	a5,0(s0)
800024ee:	f1c42503          	lw	a0,-228(s0)
800024f2:	00181b93          	slli	s7,a6,0x1
800024f6:	973e                	add	a4,a4,a5
800024f8:	010b87b3          	add	a5,s7,a6
800024fc:	00479393          	slli	t2,a5,0x4
80002500:	00351793          	slli	a5,a0,0x3
80002504:	00151c13          	slli	s8,a0,0x1
80002508:	ecf42a23          	sw	a5,-300(s0)
8000250c:	ef842783          	lw	a5,-264(s0)
80002510:	071a                	slli	a4,a4,0x6
80002512:	00ac0633          	add	a2,s8,a0
80002516:	f0e42023          	sw	a4,-256(s0)
8000251a:	00361713          	slli	a4,a2,0x3
8000251e:	f0e42223          	sw	a4,-252(s0)
80002522:	00978733          	add	a4,a5,s1
80002526:	00551793          	slli	a5,a0,0x5
8000252a:	ecf42423          	sw	a5,-312(s0)
8000252e:	46e1                	li	a3,24
80002530:	00451293          	slli	t0,a0,0x4
80002534:	00381a93          	slli	s5,a6,0x3
80002538:	00481f93          	slli	t6,a6,0x4
8000253c:	00581a13          	slli	s4,a6,0x5
80002540:	4781                	li	a5,0
80002542:	4d81                	li	s11,0
80002544:	54b6f4e3          	bgeu	a3,a1,8000328c <mm_cb+0x1136>
80002548:	aaaab537          	lui	a0,0xaaaab
8000254c:	aab50513          	addi	a0,a0,-1365 # aaaaaaab <__global_pointer$+0x2aaa4893>
80002550:	02aeb333          	mulhu	t1,t4,a0
80002554:	ef042683          	lw	a3,-272(s0)
80002558:	f1c42603          	lw	a2,-228(s0)
8000255c:	efc42b03          	lw	s6,-260(s0)
80002560:	e6942e23          	sw	s1,-388(s0)
80002564:	9636                	add	a2,a2,a3
80002566:	00161693          	slli	a3,a2,0x1
8000256a:	96b2                	add	a3,a3,a2
8000256c:	e9442603          	lw	a2,-364(s0)
80002570:	069a                	slli	a3,a3,0x6
80002572:	96da                	add	a3,a3,s6
80002574:	00cb08b3          	add	a7,s6,a2
80002578:	003e9613          	slli	a2,t4,0x3
8000257c:	e8d42c23          	sw	a3,-360(s0)
80002580:	00cb06b3          	add	a3,s6,a2
80002584:	00435613          	srli	a2,t1,0x4
80002588:	ead42023          	sw	a3,-352(s0)
8000258c:	00161693          	slli	a3,a2,0x1
80002590:	96b2                	add	a3,a3,a2
80002592:	068e                	slli	a3,a3,0x3
80002594:	40de86b3          	sub	a3,t4,a3
80002598:	02a6b633          	mulhu	a2,a3,a0
8000259c:	eed42023          	sw	a3,-288(s0)
800025a0:	e7842c23          	sw	s8,-392(s0)
800025a4:	e7742a23          	sw	s7,-396(s0)
800025a8:	ef342623          	sw	s3,-276(s0)
800025ac:	ef242423          	sw	s2,-280(s0)
800025b0:	89ea                	mv	s3,s10
800025b2:	030f06b3          	mul	a3,t5,a6
800025b6:	4ce5                	li	s9,25
800025b8:	e9142023          	sw	a7,-384(s0)
800025bc:	8209                	srli	a2,a2,0x2
800025be:	8b3a                	mv	s6,a4
800025c0:	8496                	mv	s1,t0
800025c2:	f1e42823          	sw	t5,-240(s0)
800025c6:	02c80533          	mul	a0,a6,a2
800025ca:	8c3e                	mv	s8,a5
800025cc:	8b9e                	mv	s7,t2
800025ce:	068e                	slli	a3,a3,0x3
800025d0:	96ca                	add	a3,a3,s2
800025d2:	ecd42623          	sw	a3,-308(s0)
800025d6:	00161693          	slli	a3,a2,0x1
800025da:	96b2                	add	a3,a3,a2
800025dc:	0692                	slli	a3,a3,0x4
800025de:	96c6                	add	a3,a3,a7
800025e0:	e8d42e23          	sw	a3,-356(s0)
800025e4:	00151693          	slli	a3,a0,0x1
800025e8:	96aa                	add	a3,a3,a0
800025ea:	0692                	slli	a3,a3,0x4
800025ec:	e8d42223          	sw	a3,-380(s0)
800025f0:	8d76                	mv	s10,t4
800025f2:	eeb42a23          	sw	a1,-268(s0)
800025f6:	897e                	mv	s2,t6
800025f8:	f1042623          	sw	a6,-244(s0)
800025fc:	aaaab737          	lui	a4,0xaaaab
80002600:	aab70713          	addi	a4,a4,-1365 # aaaaaaab <__global_pointer$+0x2aaa4893>
80002604:	02edb733          	mulhu	a4,s11,a4
80002608:	f1442683          	lw	a3,-236(s0)
8000260c:	ecc42783          	lw	a5,-308(s0)
80002610:	4e01                	li	t3,0
80002612:	8311                	srli	a4,a4,0x4
80002614:	eae42623          	sw	a4,-340(s0)
80002618:	02d70733          	mul	a4,a4,a3
8000261c:	eee42223          	sw	a4,-284(s0)
80002620:	f1042703          	lw	a4,-240(s0)
80002624:	56070563          	beqz	a4,80002b8e <mm_cb+0xa38>
80002628:	ef042683          	lw	a3,-272(s0)
8000262c:	eac42703          	lw	a4,-340(s0)
80002630:	51eb85b7          	lui	a1,0x51eb8
80002634:	6605                	lui	a2,0x1
80002636:	02d70733          	mul	a4,a4,a3
8000263a:	aaaab6b7          	lui	a3,0xaaaab
8000263e:	51f58593          	addi	a1,a1,1311 # 51eb851f <_start-0x2e147ae1>
80002642:	2c060613          	addi	a2,a2,704 # 12c0 <_start-0x7fffed40>
80002646:	aab68693          	addi	a3,a3,-1365 # aaaaaaab <__global_pointer$+0x2aaa4893>
8000264a:	e8b42823          	sw	a1,-368(s0)
8000264e:	eb242e23          	sw	s2,-324(s0)
80002652:	85ce                	mv	a1,s3
80002654:	ecc42223          	sw	a2,-316(s0)
80002658:	89be                	mv	s3,a5
8000265a:	eae42423          	sw	a4,-344(s0)
8000265e:	6705                	lui	a4,0x1
80002660:	38870713          	addi	a4,a4,904 # 1388 <_start-0x7fffec78>
80002664:	e8d42623          	sw	a3,-372(s0)
80002668:	e8e42423          	sw	a4,-376(s0)
8000266c:	ed542023          	sw	s5,-320(s0)
80002670:	8972                	mv	s2,t3
80002672:	eb842c23          	sw	s8,-328(s0)
80002676:	eb642a23          	sw	s6,-332(s0)
8000267a:	87ee                	mv	a5,s11
8000267c:	eb742823          	sw	s7,-336(s0)
80002680:	e9042703          	lw	a4,-368(s0)
80002684:	e6942823          	sw	s1,-400(s0)
80002688:	e7242223          	sw	s2,-412(s0)
8000268c:	02e936b3          	mulhu	a3,s2,a4
80002690:	ee442703          	lw	a4,-284(s0)
80002694:	e7442623          	sw	s4,-404(s0)
80002698:	e7342423          	sw	s3,-408(s0)
8000269c:	4901                	li	s2,0
8000269e:	84be                	mv	s1,a5
800026a0:	8dae                	mv	s11,a1
800026a2:	0036dc13          	srli	s8,a3,0x3
800026a6:	00ec0b33          	add	s6,s8,a4
800026aa:	ec442703          	lw	a4,-316(s0)
800026ae:	f0842683          	lw	a3,-248(s0)
800026b2:	02eb0b33          	mul	s6,s6,a4
800026b6:	9b36                	add	s6,s6,a3
800026b8:	975a                	add	a4,a4,s6
800026ba:	eae42223          	sw	a4,-348(s0)
800026be:	e8842703          	lw	a4,-376(s0)
800026c2:	00eb0ab3          	add	s5,s6,a4
800026c6:	e8c42783          	lw	a5,-372(s0)
800026ca:	f1442703          	lw	a4,-236(s0)
800026ce:	e5242e23          	sw	s2,-420(s0)
800026d2:	02f937b3          	mulhu	a5,s2,a5
800026d6:	8a26                	mv	s4,s1
800026d8:	0c8b0493          	addi	s1,s6,200
800026dc:	8391                	srli	a5,a5,0x4
800026de:	02e78e33          	mul	t3,a5,a4
800026e2:	ea842703          	lw	a4,-344(s0)
800026e6:	97ba                	add	a5,a5,a4
800026e8:	00379713          	slli	a4,a5,0x3
800026ec:	973e                	add	a4,a4,a5
800026ee:	edc42783          	lw	a5,-292(s0)
800026f2:	0726                	slli	a4,a4,0x9
800026f4:	973e                	add	a4,a4,a5
800026f6:	ec442783          	lw	a5,-316(s0)
800026fa:	9e62                	add	t3,t3,s8
800026fc:	0c070593          	addi	a1,a4,192
80002700:	02fe0e33          	mul	t3,t3,a5
80002704:	ed842783          	lw	a5,-296(s0)
80002708:	e6e42023          	sw	a4,-416(s0)
8000270c:	01c789b3          	add	s3,a5,t3
80002710:	0c898913          	addi	s2,s3,200
80002714:	f4058693          	addi	a3,a1,-192
80002718:	f3848613          	addi	a2,s1,-200
8000271c:	854e                	mv	a0,s3
8000271e:	221c                	fld	fa5,0(a2)
80002720:	02063a07          	fld	fs4,32(a2)
80002724:	0c863107          	fld	ft2,200(a2)
80002728:	f4f43c27          	fsd	fa5,-168(s0)
8000272c:	261c                	fld	fa5,8(a2)
8000272e:	0d063087          	fld	ft1,208(a2)
80002732:	0d863007          	fld	ft0,216(a2)
80002736:	f4f43827          	fsd	fa5,-176(s0)
8000273a:	2a1c                	fld	fa5,16(a2)
8000273c:	3268                	fld	fa0,224(a2)
8000273e:	0e863f07          	fld	ft10,232(a2)
80002742:	f4f43427          	fsd	fa5,-184(s0)
80002746:	2e1c                	fld	fa5,24(a2)
80002748:	19063587          	fld	fa1,400(a2)
8000274c:	19863287          	fld	ft5,408(a2)
80002750:	f4f43027          	fsd	fa5,-192(s0)
80002754:	1a063207          	fld	ft4,416(a2)
80002758:	1a863187          	fld	ft3,424(a2)
8000275c:	1b063e87          	fld	ft9,432(a2)
80002760:	25863607          	fld	fa2,600(a2)
80002764:	26063687          	fld	fa3,608(a2)
80002768:	26863707          	fld	fa4,616(a2)
8000276c:	27063787          	fld	fa5,624(a2)
80002770:	27863e07          	fld	ft8,632(a2)
80002774:	234a0d53          	fmv.d	fs10,fs4
80002778:	87aa                	mv	a5,a0
8000277a:	8bb6                	mv	s7,a3
8000277c:	000bb907          	fld	fs2,0(s7)
80002780:	0007bc07          	fld	fs8,0(a5)
80002784:	f5843307          	fld	ft6,-168(s0)
80002788:	0087bb87          	fld	fs7,8(a5)
8000278c:	0107ba87          	fld	fs5,16(a5)
80002790:	338978c3          	fmadd.d	fa7,fs2,fs8,ft6
80002794:	f5043307          	fld	ft6,-176(s0)
80002798:	180bb487          	fld	fs1,384(s7)
8000279c:	240bb407          	fld	fs0,576(s7)
800027a0:	33797843          	fmadd.d	fa6,fs2,fs7,ft6
800027a4:	f4843307          	fld	ft6,-184(s0)
800027a8:	0c0bbf87          	fld	ft11,192(s7)
800027ac:	0187ba07          	fld	fs4,24(a5)
800027b0:	335973c3          	fmadd.d	ft7,fs2,fs5,ft6
800027b4:	f4043307          	fld	ft6,-192(s0)
800027b8:	0bfbf0c3          	fmadd.d	ft1,fs7,ft11,ft1
800027bc:	2a9bf2c3          	fmadd.d	ft5,fs7,fs1,ft5
800027c0:	6a8bfbc3          	fmadd.d	fs7,fs7,fs0,fa3
800027c4:	0207b987          	fld	fs3,32(a5)
800027c8:	33497343          	fmadd.d	ft6,fs2,fs4,ft6
800027cc:	03faf043          	fmadd.d	ft0,fs5,ft11,ft0
800027d0:	53fa7543          	fmadd.d	fa0,fs4,ft11,fa0
800027d4:	229af243          	fmadd.d	ft4,fs5,fs1,ft4
800027d8:	1a9a71c3          	fmadd.d	ft3,fs4,fs1,ft3
800027dc:	728afac3          	fmadd.d	fs5,fs5,fs0,fa4
800027e0:	7a8a7a43          	fmadd.d	fs4,fs4,fs0,fa5
800027e4:	248bbb07          	fld	fs6,584(s7)
800027e8:	2bf4                	fld	fa3,208(a5)
800027ea:	d3397943          	fmadd.d	fs2,fs2,fs3,fs10
800027ee:	13fc7143          	fmadd.d	ft2,fs8,ft11,ft2
800027f2:	5a9c75c3          	fmadd.d	fa1,fs8,fs1,fa1
800027f6:	f3f9ffc3          	fmadd.d	ft11,fs3,ft11,ft10
800027fa:	628c7c43          	fmadd.d	fs8,fs8,fs0,fa2
800027fe:	ea99ff43          	fmadd.d	ft10,fs3,fs1,ft9
80002802:	008bb487          	fld	fs1,8(s7)
80002806:	188bbe87          	fld	ft9,392(s7)
8000280a:	e289f9c3          	fmadd.d	fs3,fs3,fs0,ft8
8000280e:	0c8bb407          	fld	fs0,200(s7)
80002812:	2ff8                	fld	fa4,216(a5)
80002814:	33fc                	fld	fa5,224(a5)
80002816:	82d4f843          	fmadd.d	fa6,fs1,fa3,fa6
8000281a:	0a86f0c3          	fmadd.d	ft1,fa3,fs0,ft1
8000281e:	2bd6f2c3          	fmadd.d	ft5,fa3,ft9,ft5
80002822:	bb66f6c3          	fmadd.d	fa3,fa3,fs6,fs7
80002826:	27f0                	fld	fa2,200(a5)
80002828:	0e87be07          	fld	ft8,232(a5)
8000282c:	02877043          	fmadd.d	ft0,fa4,fs0,ft0
80002830:	5287f543          	fmadd.d	fa0,fa5,fs0,fa0
80002834:	3ae4f3c3          	fmadd.d	ft7,fs1,fa4,ft7
80002838:	32f4f343          	fmadd.d	ft6,fs1,fa5,ft6
8000283c:	23d77243          	fmadd.d	ft4,fa4,ft9,ft4
80002840:	1bd7f1c3          	fmadd.d	ft3,fa5,ft9,ft3
80002844:	ab677743          	fmadd.d	fa4,fa4,fs6,fs5
80002848:	a367f7c3          	fmadd.d	fa5,fa5,fs6,fs4
8000284c:	1987bb87          	fld	fs7,408(a5)
80002850:	8ac4f8c3          	fmadd.d	fa7,fs1,fa2,fa7
80002854:	93c4f4c3          	fmadd.d	fs1,fs1,ft8,fs2
80002858:	250bb907          	fld	fs2,592(s7)
8000285c:	1a87ba87          	fld	fs5,424(a5)
80002860:	12867143          	fmadd.d	ft2,fa2,fs0,ft2
80002864:	5bd675c3          	fmadd.d	fa1,fa2,ft9,fa1
80002868:	fa8e7443          	fmadd.d	fs0,ft8,fs0,ft11
8000286c:	c3667643          	fmadd.d	fa2,fa2,fs6,fs8
80002870:	f3de7ec3          	fmadd.d	ft9,ft8,ft9,ft10
80002874:	9b6e7e43          	fmadd.d	ft8,ft8,fs6,fs3
80002878:	1a07bb07          	fld	fs6,416(a5)
8000287c:	6b2bf6c3          	fmadd.d	fa3,fs7,fs2,fa3
80002880:	010bbf87          	fld	ft11,16(s7)
80002884:	732b7743          	fmadd.d	fa4,fs6,fs2,fa4
80002888:	7b2af7c3          	fmadd.d	fa5,fs5,fs2,fa5
8000288c:	1907bc07          	fld	fs8,400(a5)
80002890:	335ff343          	fmadd.d	ft6,ft11,fs5,ft6
80002894:	1b07ba07          	fld	fs4,432(a5)
80002898:	0d0bbf07          	fld	ft10,208(s7)
8000289c:	8b8ff8c3          	fmadd.d	fa7,ft11,fs8,fa7
800028a0:	3b6ff3c3          	fmadd.d	ft7,ft11,fs6,ft7
800028a4:	f2d43c27          	fsd	fa3,-200(s0)
800028a8:	190bb987          	fld	fs3,400(s7)
800028ac:	53eafcc3          	fmadd.d	fs9,fs5,ft10,fa0
800028b0:	f2e43827          	fsd	fa4,-208(s0)
800028b4:	837ff843          	fmadd.d	fa6,ft11,fs7,fa6
800028b8:	2707b507          	fld	fa0,624(a5)
800028bc:	4b4fffc3          	fmadd.d	ft11,ft11,fs4,fs1
800028c0:	f2f43427          	fsd	fa5,-216(s0)
800028c4:	018bb787          	fld	fa5,24(s7)
800028c8:	03eb74c3          	fmadd.d	fs1,fs6,ft10,ft0
800028cc:	1b3af1c3          	fmadd.d	ft3,fs5,fs3,ft3
800028d0:	2687b007          	fld	ft0,616(a5)
800028d4:	2587ba87          	fld	fs5,600(a5)
800028d8:	32a7f343          	fmadd.d	ft6,fa5,fa0,ft6
800028dc:	0bebf0c3          	fmadd.d	ft1,fs7,ft10,ft1
800028e0:	2b3bf2c3          	fmadd.d	ft5,fs7,fs3,ft5
800028e4:	233b7243          	fmadd.d	ft4,fs6,fs3,ft4
800028e8:	2787bb87          	fld	fs7,632(a5)
800028ec:	eb3a7b43          	fmadd.d	fs6,fs4,fs3,ft9
800028f0:	2607be87          	fld	ft9,608(a5)
800028f4:	8b57f8c3          	fmadd.d	fa7,fa5,fs5,fa7
800028f8:	3a07f3c3          	fmadd.d	ft7,fa5,ft0,ft7
800028fc:	632c7dc3          	fmadd.d	fs11,fs8,fs2,fa2
80002900:	13ec7143          	fmadd.d	ft2,fs8,ft10,ft2
80002904:	5b3c75c3          	fmadd.d	fa1,fs8,fs3,fa1
80002908:	83d7f843          	fmadd.d	fa6,fa5,ft9,fa6
8000290c:	020bbc07          	fld	fs8,32(s7)
80002910:	fb77f7c3          	fmadd.d	fa5,fa5,fs7,ft11
80002914:	3387bf87          	fld	ft11,824(a5)
80002918:	e32a7643          	fmadd.d	fa2,fs4,fs2,ft8
8000291c:	43ea7f43          	fmadd.d	ft10,fs4,ft10,fs0
80002920:	3307b907          	fld	fs2,816(a5)
80002924:	3207ba07          	fld	fs4,800(a5)
80002928:	33fc7343          	fmadd.d	ft6,fs8,ft11,ft6
8000292c:	3287b987          	fld	fs3,808(a5)
80002930:	3407b407          	fld	fs0,832(a5)
80002934:	8b4c78c3          	fmadd.d	fa7,fs8,fs4,fa7
80002938:	3b2c73c3          	fmadd.d	ft7,fs8,fs2,ft7
8000293c:	028bbd07          	fld	fs10,40(s7)
80002940:	833c7843          	fmadd.d	fa6,fs8,fs3,fa6
80002944:	7a8c7c43          	fmadd.d	fs8,fs8,fs0,fa5
80002948:	4007b787          	fld	fa5,1024(a5)
8000294c:	3f87b707          	fld	fa4,1016(a5)
80002950:	f2c43027          	fsd	fa2,-224(s0)
80002954:	32fd7343          	fmadd.d	ft6,fs10,fa5,ft6
80002958:	3e87b607          	fld	fa2,1000(a5)
8000295c:	3aed73c3          	fmadd.d	ft7,fs10,fa4,ft7
80002960:	3f07b687          	fld	fa3,1008(a5)
80002964:	8acd78c3          	fmadd.d	fa7,fs10,fa2,fa7
80002968:	4087be07          	fld	ft8,1032(a5)
8000296c:	030b8b93          	addi	s7,s7,48
80002970:	f4643027          	fsd	ft6,-192(s0)
80002974:	0a8bb307          	fld	ft6,168(s7)
80002978:	f4743427          	fsd	ft7,-184(s0)
8000297c:	168bb387          	fld	ft7,360(s7)
80002980:	4a6074c3          	fmadd.d	fs1,ft0,ft6,fs1
80002984:	126af143          	fmadd.d	ft2,fs5,ft6,ft2
80002988:	0a6ef0c3          	fmadd.d	ft1,ft9,ft6,ft1
8000298c:	f5143c27          	fsd	fa7,-168(s0)
80002990:	82dd78c3          	fmadd.d	fa7,fs10,fa3,fa6
80002994:	f3843807          	fld	fa6,-200(s0)
80002998:	c3cd7d43          	fmadd.d	fs10,fs10,ft8,fs8
8000299c:	ca657c43          	fmadd.d	fs8,fa0,ft6,fs9
800029a0:	f26bfcc3          	fmadd.d	fs9,fs7,ft6,ft10
800029a4:	228bb307          	fld	ft6,552(s7)
800029a8:	5a7af5c3          	fmadd.d	fa1,fs5,ft7,fa1
800029ac:	2a7ef2c3          	fmadd.d	ft5,ft9,ft7,ft5
800029b0:	22707243          	fmadd.d	ft4,ft0,ft7,ft4
800029b4:	1a7571c3          	fmadd.d	ft3,fa0,ft7,ft3
800029b8:	b27bf3c3          	fmadd.d	ft7,fs7,ft7,fs6
800029bc:	da6afb43          	fmadd.d	fs6,fs5,ft6,fs11
800029c0:	826efac3          	fmadd.d	fs5,ft9,ft6,fa6
800029c4:	f3043807          	fld	fa6,-208(s0)
800029c8:	f5143827          	fsd	fa7,-176(s0)
800029cc:	0b0bb887          	fld	fa7,176(s7)
800029d0:	82607f43          	fmadd.d	ft10,ft0,ft6,fa6
800029d4:	f2843007          	fld	ft0,-216(s0)
800029d8:	131a7143          	fmadd.d	ft2,fs4,fa7,ft2
800029dc:	0b19f0c3          	fmadd.d	ft1,fs3,fa7,ft1
800029e0:	02657543          	fmadd.d	fa0,fa0,ft6,ft0
800029e4:	f2043007          	fld	ft0,-224(s0)
800029e8:	170bbe87          	fld	ft9,368(s7)
800029ec:	230bb807          	fld	fa6,560(s7)
800029f0:	026bf343          	fmadd.d	ft6,fs7,ft6,ft0
800029f4:	5bda75c3          	fmadd.d	fa1,fs4,ft9,fa1
800029f8:	4b197043          	fmadd.d	ft0,fs2,fa7,fs1
800029fc:	2bd9f2c3          	fmadd.d	ft5,fs3,ft9,ft5
80002a00:	c31ff4c3          	fmadd.d	fs1,ft11,fa7,fs8
80002a04:	23d97243          	fmadd.d	ft4,fs2,ft9,ft4
80002a08:	1bdff1c3          	fmadd.d	ft3,ft11,ft9,ft3
80002a0c:	f3097943          	fmadd.d	fs2,fs2,fa6,ft10
80002a10:	530fffc3          	fmadd.d	ft11,ft11,fa6,fa0
80002a14:	3bd47ec3          	fmadd.d	ft9,fs0,ft9,ft7
80002a18:	b30a7a43          	fmadd.d	fs4,fs4,fa6,fs6
80002a1c:	ab09f9c3          	fmadd.d	fs3,fs3,fa6,fs5
80002a20:	cb1478c3          	fmadd.d	fa7,fs0,fa7,fs9
80002a24:	33047843          	fmadd.d	fa6,fs0,fa6,ft6
80002a28:	0b8bbf07          	fld	ft10,184(s7)
80002a2c:	178bb387          	fld	ft7,376(s7)
80002a30:	238bb307          	fld	ft6,568(s7)
80002a34:	13e67143          	fmadd.d	ft2,fa2,ft10,ft2
80002a38:	0be6f0c3          	fmadd.d	ft1,fa3,ft10,ft1
80002a3c:	03e77043          	fmadd.d	ft0,fa4,ft10,ft0
80002a40:	4be7f543          	fmadd.d	fa0,fa5,ft10,fs1
80002a44:	5a7675c3          	fmadd.d	fa1,fa2,ft7,fa1
80002a48:	8bee7f43          	fmadd.d	ft10,ft8,ft10,fa7
80002a4c:	2a76f2c3          	fmadd.d	ft5,fa3,ft7,ft5
80002a50:	22777243          	fmadd.d	ft4,fa4,ft7,ft4
80002a54:	1a77f1c3          	fmadd.d	ft3,fa5,ft7,ft3
80002a58:	ea7e7ec3          	fmadd.d	ft9,ft8,ft7,ft9
80002a5c:	a2667643          	fmadd.d	fa2,fa2,ft6,fs4
80002a60:	9a66f6c3          	fmadd.d	fa3,fa3,ft6,fs3
80002a64:	92677743          	fmadd.d	fa4,fa4,ft6,fs2
80002a68:	fa67f7c3          	fmadd.d	fa5,fa5,ft6,ft11
80002a6c:	826e7e43          	fmadd.d	ft8,ft8,ft6,fa6
80002a70:	4b078793          	addi	a5,a5,1200
80002a74:	d0bb94e3          	bne	s7,a1,8000277c <mm_cb+0x626>
80002a78:	f5843407          	fld	fs0,-168(s0)
80002a7c:	03a63027          	fsd	fs10,32(a2)
80002a80:	0c263427          	fsd	ft2,200(a2)
80002a84:	a200                	fsd	fs0,0(a2)
80002a86:	f5043407          	fld	fs0,-176(s0)
80002a8a:	0c163827          	fsd	ft1,208(a2)
80002a8e:	0c063c27          	fsd	ft0,216(a2)
80002a92:	a600                	fsd	fs0,8(a2)
80002a94:	f4843407          	fld	fs0,-184(s0)
80002a98:	b268                	fsd	fa0,224(a2)
80002a9a:	0fe63427          	fsd	ft10,232(a2)
80002a9e:	aa00                	fsd	fs0,16(a2)
80002aa0:	f4043407          	fld	fs0,-192(s0)
80002aa4:	18b63827          	fsd	fa1,400(a2)
80002aa8:	18563c27          	fsd	ft5,408(a2)
80002aac:	ae00                	fsd	fs0,24(a2)
80002aae:	1a463027          	fsd	ft4,416(a2)
80002ab2:	1a363427          	fsd	ft3,424(a2)
80002ab6:	1bd63827          	fsd	ft9,432(a2)
80002aba:	24c63c27          	fsd	fa2,600(a2)
80002abe:	26d63027          	fsd	fa3,608(a2)
80002ac2:	26e63427          	fsd	fa4,616(a2)
80002ac6:	26f63827          	fsd	fa5,624(a2)
80002aca:	27c63c27          	fsd	ft8,632(a2)
80002ace:	02850513          	addi	a0,a0,40
80002ad2:	02860613          	addi	a2,a2,40
80002ad6:	c4a914e3          	bne	s2,a0,8000271e <mm_cb+0x5c8>
80002ada:	4761                	li	a4,24
80002adc:	88a6                	mv	a7,s1
80002ade:	4581                	li	a1,0
80002ae0:	c066                	sw	s9,0(sp)
80002ae2:	863a                	mv	a2,a4
80002ae4:	4865                	li	a6,25
80002ae6:	87ca                	mv	a5,s2
80002ae8:	4511                	li	a0,4
80002aea:	d16ff0ef          	jal	80002000 <mm_naive>
80002aee:	32048493          	addi	s1,s1,800
80002af2:	300b8593          	addi	a1,s7,768
80002af6:	c09a9fe3          	bne	s5,s1,80002714 <mm_cb+0x5be>
80002afa:	e6042703          	lw	a4,-416(s0)
80002afe:	e5c42903          	lw	s2,-420(s0)
80002b02:	6685                	lui	a3,0x1
80002b04:	c066                	sw	s9,0(sp)
80002b06:	ea442883          	lw	a7,-348(s0)
80002b0a:	20068693          	addi	a3,a3,512 # 1200 <_start-0x7fffee00>
80002b0e:	96ba                	add	a3,a3,a4
80002b10:	4865                	li	a6,25
80002b12:	4761                	li	a4,24
80002b14:	87ce                	mv	a5,s3
80002b16:	85c2                	mv	a1,a6
80002b18:	863a                	mv	a2,a4
80002b1a:	4501                	li	a0,0
80002b1c:	ce4ff0ef          	jal	80002000 <mm_naive>
80002b20:	f1042783          	lw	a5,-240(s0)
80002b24:	0961                	addi	s2,s2,24
80002b26:	84d2                	mv	s1,s4
80002b28:	b8f96fe3          	bltu	s2,a5,800026c6 <mm_cb+0x570>
80002b2c:	f1042703          	lw	a4,-240(s0)
80002b30:	87a6                	mv	a5,s1
80002b32:	e6c42a03          	lw	s4,-404(s0)
80002b36:	e6842983          	lw	s3,-408(s0)
80002b3a:	e6442903          	lw	s2,-412(s0)
80002b3e:	e7042483          	lw	s1,-400(s0)
80002b42:	85ee                	mv	a1,s11
80002b44:	09a761e3          	bltu	a4,s10,800033c6 <mm_cb+0x1270>
80002b48:	f1842703          	lw	a4,-232(s0)
80002b4c:	0965                	addi	s2,s2,25
80002b4e:	0c898993          	addi	s3,s3,200
80002b52:	b2e967e3          	bltu	s2,a4,80002680 <mm_cb+0x52a>
80002b56:	ec042a83          	lw	s5,-320(s0)
80002b5a:	ebc42903          	lw	s2,-324(s0)
80002b5e:	eb842c03          	lw	s8,-328(s0)
80002b62:	eb442b03          	lw	s6,-332(s0)
80002b66:	eb042b83          	lw	s7,-336(s0)
80002b6a:	8dbe                	mv	s11,a5
80002b6c:	89ae                	mv	s3,a1
80002b6e:	ef442783          	lw	a5,-268(s0)
80002b72:	f1842703          	lw	a4,-232(s0)
80002b76:	02f76e63          	bltu	a4,a5,80002bb2 <mm_cb+0xa5c>
80002b7a:	0de1                	addi	s11,s11,24
80002b7c:	613df4e3          	bgeu	s11,s3,80003984 <mm_cb+0x182e>
80002b80:	f0042783          	lw	a5,-256(s0)
80002b84:	9b3e                	add	s6,s6,a5
80002b86:	f0442783          	lw	a5,-252(s0)
80002b8a:	9c3e                	add	s8,s8,a5
80002b8c:	bc85                	j	800025fc <mm_cb+0x4a6>
80002b8e:	040d1ae3          	bnez	s10,800033e2 <mm_cb+0x128c>
80002b92:	f1842783          	lw	a5,-232(s0)
80002b96:	019e0713          	addi	a4,t3,25
80002b9a:	032e0e13          	addi	t3,t3,50
80002b9e:	fcf778e3          	bgeu	a4,a5,80002b6e <mm_cb+0xa18>
80002ba2:	fefe6ae3          	bltu	t3,a5,80002b96 <mm_cb+0xa40>
80002ba6:	ef442783          	lw	a5,-268(s0)
80002baa:	f1842703          	lw	a4,-232(s0)
80002bae:	fcf776e3          	bgeu	a4,a5,80002b7a <mm_cb+0xa24>
80002bb2:	000d1463          	bnez	s10,80002bba <mm_cb+0xa64>
80002bb6:	4ee0106f          	j	800040a4 <mm_cb+0x1f4e>
80002bba:	82a6                	mv	t0,s1
80002bbc:	8fca                	mv	t6,s2
80002bbe:	87e2                	mv	a5,s8
80002bc0:	8eea                	mv	t4,s10
80002bc2:	83de                	mv	t2,s7
80002bc4:	8d4e                	mv	s10,s3
80002bc6:	e7c42483          	lw	s1,-388(s0)
80002bca:	f1042f03          	lw	t5,-240(s0)
80002bce:	e7842c03          	lw	s8,-392(s0)
80002bd2:	e7442b83          	lw	s7,-396(s0)
80002bd6:	eec42983          	lw	s3,-276(s0)
80002bda:	ef442583          	lw	a1,-268(s0)
80002bde:	ee842903          	lw	s2,-280(s0)
80002be2:	f0c42803          	lw	a6,-244(s0)
80002be6:	875a                	mv	a4,s6
80002be8:	51eb86b7          	lui	a3,0x51eb8
80002bec:	51f68693          	addi	a3,a3,1311 # 51eb851f <_start-0x2e147ae1>
80002bf0:	02d5b8b3          	mulhu	a7,a1,a3
80002bf4:	f1c42683          	lw	a3,-228(s0)
80002bf8:	efc42603          	lw	a2,-260(s0)
80002bfc:	ccccde37          	lui	t3,0xccccd
80002c00:	96e2                	add	a3,a3,s8
80002c02:	069a                	slli	a3,a3,0x6
80002c04:	eed42023          	sw	a3,-288(s0)
80002c08:	010b86b3          	add	a3,s7,a6
80002c0c:	069a                	slli	a3,a3,0x6
80002c0e:	ecd42223          	sw	a3,-316(s0)
80002c12:	00379693          	slli	a3,a5,0x3
80002c16:	00d60cb3          	add	s9,a2,a3
80002c1a:	aaaab637          	lui	a2,0xaaaab
80002c1e:	aab60613          	addi	a2,a2,-1365 # aaaaaaab <__global_pointer$+0x2aaa4893>
80002c22:	0038d313          	srli	t1,a7,0x3
80002c26:	ecc42023          	sw	a2,-320(s0)
80002c2a:	4010                	lw	a2,0(s0)
80002c2c:	00131693          	slli	a3,t1,0x1
80002c30:	969a                	add	a3,a3,t1
80002c32:	068e                	slli	a3,a3,0x3
80002c34:	00461b13          	slli	s6,a2,0x4
80002c38:	00990633          	add	a2,s2,s1
80002c3c:	969a                	add	a3,a3,t1
80002c3e:	f4c42023          	sw	a2,-192(s0)
80002c42:	4010                	lw	a2,0(s0)
80002c44:	40d58333          	sub	t1,a1,a3
80002c48:	ccde0e13          	addi	t3,t3,-819 # cccccccd <__global_pointer$+0x4ccc6ab5>
80002c4c:	03c336b3          	mulhu	a3,t1,t3
80002c50:	060a                	slli	a2,a2,0x2
80002c52:	eec42223          	sw	a2,-284(s0)
80002c56:	f0042603          	lw	a2,-256(s0)
80002c5a:	ebb42e23          	sw	s11,-324(s0)
80002c5e:	ea942823          	sw	s1,-336(s0)
80002c62:	963a                	add	a2,a2,a4
80002c64:	f2c42023          	sw	a2,-224(s0)
80002c68:	ed042603          	lw	a2,-304(s0)
80002c6c:	eb842223          	sw	s8,-348(s0)
80002c70:	e9242823          	sw	s2,-368(s0)
80002c74:	963a                	add	a2,a2,a4
80002c76:	eec42623          	sw	a2,-276(s0)
80002c7a:	0026d613          	srli	a2,a3,0x2
80002c7e:	9af1                	andi	a3,a3,-4
80002c80:	96b2                	add	a3,a3,a2
80002c82:	00369613          	slli	a2,a3,0x3
80002c86:	f2d42c23          	sw	a3,-200(s0)
80002c8a:	ecc42623          	sw	a2,-308(s0)
80002c8e:	40d306b3          	sub	a3,t1,a3
80002c92:	963a                	add	a2,a2,a4
80002c94:	eec42423          	sw	a2,-280(s0)
80002c98:	eed42a23          	sw	a3,-268(s0)
80002c9c:	f0642823          	sw	t1,-240(s0)
80002ca0:	4d81                	li	s11,0
80002ca2:	eaf42c23          	sw	a5,-328(s0)
80002ca6:	eae42a23          	sw	a4,-332(s0)
80002caa:	8496                	mv	s1,t0
80002cac:	eba42623          	sw	s10,-340(s0)
80002cb0:	ebe42423          	sw	t5,-344(s0)
80002cb4:	8c1e                	mv	s8,t2
80002cb6:	eb742023          	sw	s7,-352(s0)
80002cba:	e9342e23          	sw	s3,-356(s0)
80002cbe:	e8b42c23          	sw	a1,-360(s0)
80002cc2:	897e                	mv	s2,t6
80002cc4:	8e42                	mv	t3,a6
80002cc6:	41be8633          	sub	a2,t4,s11
80002cca:	47e1                	li	a5,24
80002ccc:	00c7f363          	bgeu	a5,a2,80002cd2 <mm_cb+0xb7c>
80002cd0:	863e                	mv	a2,a5
80002cd2:	ec042783          	lw	a5,-320(s0)
80002cd6:	f4042683          	lw	a3,-192(s0)
80002cda:	00361b93          	slli	s7,a2,0x3
80002cde:	02f63733          	mulhu	a4,a2,a5
80002ce2:	ecc42783          	lw	a5,-308(s0)
80002ce6:	9be6                	add	s7,s7,s9
80002ce8:	8d66                	mv	s10,s9
80002cea:	97b6                	add	a5,a5,a3
80002cec:	4699                	li	a3,6
80002cee:	f2d42423          	sw	a3,-216(s0)
80002cf2:	e9b42623          	sw	s11,-372(s0)
80002cf6:	f0c42623          	sw	a2,-244(s0)
80002cfa:	8de6                	mv	s11,s9
80002cfc:	8309                	srli	a4,a4,0x2
80002cfe:	02ee06b3          	mul	a3,t3,a4
80002d02:	00171993          	slli	s3,a4,0x1
80002d06:	99ba                	add	s3,s3,a4
80002d08:	0992                	slli	s3,s3,0x4
80002d0a:	99e6                	add	s3,s3,s9
80002d0c:	e9d42423          	sw	t4,-376(s0)
80002d10:	4c81                	li	s9,0
80002d12:	83f2                	mv	t2,t3
80002d14:	00169713          	slli	a4,a3,0x1
80002d18:	9736                	add	a4,a4,a3
80002d1a:	0712                	slli	a4,a4,0x4
80002d1c:	f2e42823          	sw	a4,-208(s0)
80002d20:	f1042703          	lw	a4,-240(s0)
80002d24:	4691                	li	a3,4
80002d26:	003c9893          	slli	a7,s9,0x3
80002d2a:	44e6ff63          	bgeu	a3,a4,80003188 <mm_cb+0x1032>
80002d2e:	eb442703          	lw	a4,-332(s0)
80002d32:	f4042e83          	lw	t4,-192(s0)
80002d36:	4f01                	li	t5,0
80002d38:	01170333          	add	t1,a4,a7
80002d3c:	eec42703          	lw	a4,-276(s0)
80002d40:	85be                	mv	a1,a5
80002d42:	01170833          	add	a6,a4,a7
80002d46:	ed442703          	lw	a4,-300(s0)
80002d4a:	01a702b3          	add	t0,a4,s10
80002d4e:	01370fb3          	add	t6,a4,s3
80002d52:	01630e33          	add	t3,t1,s6
80002d56:	01680533          	add	a0,a6,s6
80002d5a:	000e3887          	fld	fa7,0(t3)
80002d5e:	008e3807          	fld	fa6,8(t3)
80002d62:	010e3387          	fld	ft7,16(t3)
80002d66:	018e3307          	fld	ft6,24(t3)
80002d6a:	020e3607          	fld	fa2,32(t3)
80002d6e:	00053287          	fld	ft5,0(a0)
80002d72:	00853207          	fld	ft4,8(a0)
80002d76:	2914                	fld	fa3,16(a0)
80002d78:	2d18                	fld	fa4,24(a0)
80002d7a:	311c                	fld	fa5,32(a0)
80002d7c:	00033f87          	fld	ft11,0(t1)
80002d80:	00833f07          	fld	ft10,8(t1)
80002d84:	01033e87          	fld	ft9,16(t1)
80002d88:	01833e07          	fld	ft8,24(t1)
80002d8c:	02033587          	fld	fa1,32(t1)
80002d90:	00083187          	fld	ft3,0(a6)
80002d94:	00883107          	fld	ft2,8(a6)
80002d98:	01083087          	fld	ft1,16(a6)
80002d9c:	01883007          	fld	ft0,24(a6)
80002da0:	02083507          	fld	fa0,32(a6)
80002da4:	2f3d7963          	bgeu	s10,s3,80003096 <mm_cb+0xf40>
80002da8:	8676                	mv	a2,t4
80002daa:	01da87b3          	add	a5,s5,t4
80002dae:	8696                	mv	a3,t0
80002db0:	876a                	mv	a4,s10
80002db2:	f5542c23          	sw	s5,-168(s0)
80002db6:	f5642823          	sw	s6,-176(s0)
80002dba:	f5e42423          	sw	t5,-184(s0)
80002dbe:	00970ab3          	add	s5,a4,s1
80002dc2:	000ab407          	fld	fs0,0(s5)
80002dc6:	00063b87          	fld	fs7,0(a2)
80002dca:	00863b07          	fld	fs6,8(a2)
80002dce:	01063a87          	fld	fs5,16(a2)
80002dd2:	01863a07          	fld	fs4,24(a2)
80002dd6:	02063987          	fld	fs3,32(a2)
80002dda:	00968f33          	add	t5,a3,s1
80002dde:	2304                	fld	fs1,0(a4)
80002de0:	000f3907          	fld	fs2,0(t5)
80002de4:	6289f643          	fmadd.d	fa2,fs3,fs0,fa2
80002de8:	8a8bf8c3          	fmadd.d	fa7,fs7,fs0,fa7
80002dec:	828b7843          	fmadd.d	fa6,fs6,fs0,fa6
80002df0:	3a8af3c3          	fmadd.d	ft7,fs5,fs0,ft7
80002df4:	328a7343          	fmadd.d	ft6,fs4,fs0,ft6
80002df8:	2280                	fld	fs0,0(a3)
80002dfa:	7b29f7c3          	fmadd.d	fa5,fs3,fs2,fa5
80002dfe:	5b34f5c3          	fmadd.d	fa1,fs1,fs3,fa1
80002e02:	1a8bf1c3          	fmadd.d	ft3,fs7,fs0,ft3
80002e06:	128b7143          	fmadd.d	ft2,fs6,fs0,ft2
80002e0a:	0a8af0c3          	fmadd.d	ft1,fs5,fs0,ft1
80002e0e:	028a7043          	fmadd.d	ft0,fs4,fs0,ft0
80002e12:	2b2bf2c3          	fmadd.d	ft5,fs7,fs2,ft5
80002e16:	fb74ffc3          	fmadd.d	ft11,fs1,fs7,ft11
80002e1a:	232b7243          	fmadd.d	ft4,fs6,fs2,ft4
80002e1e:	f364ff43          	fmadd.d	ft10,fs1,fs6,ft10
80002e22:	6b2af6c3          	fmadd.d	fa3,fs5,fs2,fa3
80002e26:	eb54fec3          	fmadd.d	ft9,fs1,fs5,ft9
80002e2a:	732a7743          	fmadd.d	fa4,fs4,fs2,fa4
80002e2e:	e344fe43          	fmadd.d	ft8,fs1,fs4,ft8
80002e32:	5289f543          	fmadd.d	fa0,fs3,fs0,fa0
80002e36:	0086bb87          	fld	fs7,8(a3)
80002e3a:	2700                	fld	fs0,8(a4)
80002e3c:	0207bc07          	fld	fs8,32(a5)
80002e40:	008ab907          	fld	fs2,8(s5)
80002e44:	0007bb07          	fld	fs6,0(a5)
80002e48:	008f3487          	fld	fs1,8(t5)
80002e4c:	0087ba87          	fld	fs5,8(a5)
80002e50:	0107ba07          	fld	fs4,16(a5)
80002e54:	0187b987          	fld	fs3,24(a5)
80002e58:	537c7543          	fmadd.d	fa0,fs8,fs7,fa0
80002e5c:	8b2b78c3          	fmadd.d	fa7,fs6,fs2,fa7
80002e60:	7299f743          	fmadd.d	fa4,fs3,fs1,fa4
80002e64:	2a9b72c3          	fmadd.d	ft5,fs6,fs1,ft5
80002e68:	fb647fc3          	fmadd.d	ft11,fs0,fs6,ft11
80002e6c:	832af843          	fmadd.d	fa6,fs5,fs2,fa6
80002e70:	1b7b7b43          	fmadd.d	fs6,fs6,fs7,ft3
80002e74:	229af243          	fmadd.d	ft4,fs5,fs1,ft4
80002e78:	f3547f43          	fmadd.d	ft10,fs0,fs5,ft10
80002e7c:	3b2a73c3          	fmadd.d	ft7,fs4,fs2,ft7
80002e80:	137afac3          	fmadd.d	fs5,fs5,fs7,ft2
80002e84:	6a9a76c3          	fmadd.d	fa3,fs4,fs1,fa3
80002e88:	eb447ec3          	fmadd.d	ft9,fs0,fs4,ft9
80002e8c:	7a9c74c3          	fmadd.d	fs1,fs8,fs1,fa5
80002e90:	0b7a7a43          	fmadd.d	fs4,fs4,fs7,ft1
80002e94:	3329f343          	fmadd.d	ft6,fs3,fs2,ft6
80002e98:	e3347e43          	fmadd.d	ft8,fs0,fs3,ft8
80002e9c:	632c7943          	fmadd.d	fs2,fs8,fs2,fa2
80002ea0:	5b847443          	fmadd.d	fs0,fs0,fs8,fa1
80002ea4:	0379f9c3          	fmadd.d	fs3,fs3,fs7,ft0
80002ea8:	00c90b33          	add	s6,s2,a2
80002eac:	010ab787          	fld	fa5,16(s5)
80002eb0:	01073007          	fld	ft0,16(a4)
80002eb4:	2a90                	fld	fa2,16(a3)
80002eb6:	000b3b87          	fld	fs7,0(s6)
80002eba:	008b3187          	fld	ft3,8(s6)
80002ebe:	010b3107          	fld	ft2,16(s6)
80002ec2:	018b3087          	fld	ft1,24(s6)
80002ec6:	020b3c07          	fld	fs8,32(s6)
80002eca:	010f3587          	fld	fa1,16(t5)
80002ece:	8afbf8c3          	fmadd.d	fa7,fs7,fa5,fa7
80002ed2:	92fc7943          	fmadd.d	fs2,fs8,fa5,fs2
80002ed6:	2abbf2c3          	fmadd.d	ft5,fs7,fa1,ft5
80002eda:	82f1f843          	fmadd.d	fa6,ft3,fa5,fa6
80002ede:	22b1f243          	fmadd.d	ft4,ft3,fa1,ft4
80002ee2:	3af173c3          	fmadd.d	ft7,ft2,fa5,ft7
80002ee6:	6ab176c3          	fmadd.d	fa3,ft2,fa1,fa3
80002eea:	32f0f343          	fmadd.d	ft6,ft1,fa5,ft6
80002eee:	fb707fc3          	fmadd.d	ft11,ft0,fs7,ft11
80002ef2:	72b0f7c3          	fmadd.d	fa5,ft1,fa1,fa4
80002ef6:	b2cbfbc3          	fmadd.d	fs7,fs7,fa2,fs6
80002efa:	4abc75c3          	fmadd.d	fa1,fs8,fa1,fs1
80002efe:	f2307f43          	fmadd.d	ft10,ft0,ft3,ft10
80002f02:	ea207ec3          	fmadd.d	ft9,ft0,ft2,ft9
80002f06:	aac1f1c3          	fmadd.d	ft3,ft3,fa2,fs5
80002f0a:	a2c17143          	fmadd.d	ft2,ft2,fa2,fs4
80002f0e:	e2107e43          	fmadd.d	ft8,ft0,ft1,ft8
80002f12:	43807043          	fmadd.d	ft0,ft0,fs8,fs0
80002f16:	9ac0f0c3          	fmadd.d	ft1,ft1,fa2,fs3
80002f1a:	52cc7643          	fmadd.d	fa2,fs8,fa2,fa0
80002f1e:	97ca                	add	a5,a5,s2
80002f20:	2f08                	fld	fa0,24(a4)
80002f22:	0007bb07          	fld	fs6,0(a5)
80002f26:	0087ba87          	fld	fs5,8(a5)
80002f2a:	0107ba07          	fld	fs4,16(a5)
80002f2e:	0187b987          	fld	fs3,24(a5)
80002f32:	0207bc07          	fld	fs8,32(a5)
80002f36:	2e98                	fld	fa4,24(a3)
80002f38:	018ab487          	fld	fs1,24(s5)
80002f3c:	018f3407          	fld	fs0,24(t5)
80002f40:	62ec7cc3          	fmadd.d	fs9,fs8,fa4,fa2
80002f44:	fb657fc3          	fmadd.d	ft11,fa0,fs6,ft11
80002f48:	7a89f7c3          	fmadd.d	fa5,fs3,fs0,fa5
80002f4c:	f3557f43          	fmadd.d	ft10,fa0,fs5,ft10
80002f50:	eb457ec3          	fmadd.d	ft9,fa0,fs4,ft9
80002f54:	e3357e43          	fmadd.d	ft8,fa0,fs3,ft8
80002f58:	8a9b78c3          	fmadd.d	fa7,fs6,fs1,fa7
80002f5c:	03857543          	fmadd.d	fa0,fa0,fs8,ft0
80002f60:	829af843          	fmadd.d	fa6,fs5,fs1,fa6
80002f64:	3a9a73c3          	fmadd.d	ft7,fs4,fs1,ft7
80002f68:	3299f343          	fmadd.d	ft6,fs3,fs1,ft6
80002f6c:	2a8b72c3          	fmadd.d	ft5,fs6,fs0,ft5
80002f70:	929c74c3          	fmadd.d	fs1,fs8,fs1,fs2
80002f74:	228af243          	fmadd.d	ft4,fs5,fs0,ft4
80002f78:	6a8a76c3          	fmadd.d	fa3,fs4,fs0,fa3
80002f7c:	baeb7b43          	fmadd.d	fs6,fs6,fa4,fs7
80002f80:	5a8c7443          	fmadd.d	fs0,fs8,fs0,fa1
80002f84:	1aeafac3          	fmadd.d	fs5,fs5,fa4,ft3
80002f88:	12ea7a43          	fmadd.d	fs4,fs4,fa4,ft2
80002f8c:	0ae9f9c3          	fmadd.d	fs3,fs3,fa4,ft1
80002f90:	00ca0b33          	add	s6,s4,a2
80002f94:	02073087          	fld	ft1,32(a4)
80002f98:	0206b007          	fld	ft0,32(a3)
80002f9c:	020f3607          	fld	fa2,32(t5)
80002fa0:	020ab587          	fld	fa1,32(s5)
80002fa4:	008b3b87          	fld	fs7,8(s6)
80002fa8:	010b3907          	fld	fs2,16(s6)
80002fac:	018b3187          	fld	ft3,24(s6)
80002fb0:	020b3107          	fld	ft2,32(s6)
80002fb4:	000b3c07          	fld	fs8,0(s6)
80002fb8:	7ac1f743          	fmadd.d	fa4,ft3,fa2,fa5
80002fbc:	5220fd43          	fmadd.d	fs10,ft1,ft2,fa0
80002fc0:	82bbf843          	fmadd.d	fa6,fs7,fa1,fa6
80002fc4:	3ab973c3          	fmadd.d	ft7,fs2,fa1,ft7
80002fc8:	32b1f343          	fmadd.d	ft6,ft3,fa1,ft6
80002fcc:	22cbf243          	fmadd.d	ft4,fs7,fa2,ft4
80002fd0:	6ac976c3          	fmadd.d	fa3,fs2,fa2,fa3
80002fd4:	42c17443          	fmadd.d	fs0,ft2,fa2,fs0
80002fd8:	f370ff43          	fmadd.d	ft10,ft1,fs7,ft10
80002fdc:	eb20fec3          	fmadd.d	ft9,ft1,fs2,ft9
80002fe0:	e230fe43          	fmadd.d	ft8,ft1,ft3,ft8
80002fe4:	aa0bfac3          	fmadd.d	fs5,fs7,ft0,fs5
80002fe8:	a2097a43          	fmadd.d	fs4,fs2,ft0,fs4
80002fec:	9a01f9c3          	fmadd.d	fs3,ft3,ft0,fs3
80002ff0:	ca017bc3          	fmadd.d	fs7,ft2,ft0,fs9
80002ff4:	8abc78c3          	fmadd.d	fa7,fs8,fa1,fa7
80002ff8:	2acc72c3          	fmadd.d	ft5,fs8,fa2,ft5
80002ffc:	4ab175c3          	fmadd.d	fa1,ft2,fa1,fs1
80003000:	fb80ffc3          	fmadd.d	ft11,ft1,fs8,ft11
80003004:	b20c7b43          	fmadd.d	fs6,fs8,ft0,fs6
80003008:	97ca                	add	a5,a5,s2
8000300a:	02873907          	fld	fs2,40(a4)
8000300e:	3684                	fld	fs1,40(a3)
80003010:	0007b187          	fld	ft3,0(a5)
80003014:	028ab607          	fld	fa2,40(s5)
80003018:	0087b107          	fld	ft2,8(a5)
8000301c:	0107b087          	fld	ft1,16(a5)
80003020:	0187b007          	fld	ft0,24(a5)
80003024:	3388                	fld	fa0,32(a5)
80003026:	028f3787          	fld	fa5,40(t5)
8000302a:	03070713          	addi	a4,a4,48
8000302e:	8ac1f8c3          	fmadd.d	fa7,ft3,fa2,fa7
80003032:	82c17843          	fmadd.d	fa6,ft2,fa2,fa6
80003036:	3ac0f3c3          	fmadd.d	ft7,ft1,fa2,ft7
8000303a:	32c07343          	fmadd.d	ft6,ft0,fa2,ft6
8000303e:	2af1f2c3          	fmadd.d	ft5,ft3,fa5,ft5
80003042:	5ac57643          	fmadd.d	fa2,fa0,fa2,fa1
80003046:	22f17243          	fmadd.d	ft4,ft2,fa5,ft4
8000304a:	6af0f6c3          	fmadd.d	fa3,ft1,fa5,fa3
8000304e:	72f07743          	fmadd.d	fa4,ft0,fa5,fa4
80003052:	fa397fc3          	fmadd.d	ft11,fs2,ft3,ft11
80003056:	42f577c3          	fmadd.d	fa5,fa0,fa5,fs0
8000305a:	f2297f43          	fmadd.d	ft10,fs2,ft2,ft10
8000305e:	ea197ec3          	fmadd.d	ft9,fs2,ft1,ft9
80003062:	e2097e43          	fmadd.d	ft8,fs2,ft0,ft8
80003066:	d2a975c3          	fmadd.d	fa1,fs2,fa0,fs10
8000306a:	b291f1c3          	fmadd.d	ft3,ft3,fs1,fs6
8000306e:	aa917143          	fmadd.d	ft2,ft2,fs1,fs5
80003072:	a290f0c3          	fmadd.d	ft1,ft1,fs1,fs4
80003076:	9a907043          	fmadd.d	ft0,ft0,fs1,fs3
8000307a:	ba957543          	fmadd.d	fa0,fa0,fs1,fs7
8000307e:	9662                	add	a2,a2,s8
80003080:	97ca                	add	a5,a5,s2
80003082:	03068693          	addi	a3,a3,48
80003086:	d3376ce3          	bltu	a4,s3,80002dbe <mm_cb+0xc68>
8000308a:	f5842a83          	lw	s5,-168(s0)
8000308e:	f5042b03          	lw	s6,-176(s0)
80003092:	f4842f03          	lw	t5,-184(s0)
80003096:	0979f863          	bgeu	s3,s7,80003126 <mm_cb+0xfd0>
8000309a:	f3042783          	lw	a5,-208(s0)
8000309e:	86fe                	mv	a3,t6
800030a0:	874e                	mv	a4,s3
800030a2:	97f6                	add	a5,a5,t4
800030a4:	00970633          	add	a2,a4,s1
800030a8:	00063987          	fld	fs3,0(a2)
800030ac:	00968633          	add	a2,a3,s1
800030b0:	2304                	fld	fs1,0(a4)
800030b2:	2280                	fld	fs0,0(a3)
800030b4:	0007bc07          	fld	fs8,0(a5)
800030b8:	0087bb87          	fld	fs7,8(a5)
800030bc:	0107bb07          	fld	fs6,16(a5)
800030c0:	0187ba87          	fld	fs5,24(a5)
800030c4:	0207ba07          	fld	fs4,32(a5)
800030c8:	00063907          	fld	fs2,0(a2)
800030cc:	0721                	addi	a4,a4,8
800030ce:	8b3c78c3          	fmadd.d	fa7,fs8,fs3,fa7
800030d2:	833bf843          	fmadd.d	fa6,fs7,fs3,fa6
800030d6:	3b3b73c3          	fmadd.d	ft7,fs6,fs3,ft7
800030da:	333af343          	fmadd.d	ft6,fs5,fs3,ft6
800030de:	633a7643          	fmadd.d	fa2,fs4,fs3,fa2
800030e2:	2b2c72c3          	fmadd.d	ft5,fs8,fs2,ft5
800030e6:	232bf243          	fmadd.d	ft4,fs7,fs2,ft4
800030ea:	6b2b76c3          	fmadd.d	fa3,fs6,fs2,fa3
800030ee:	732af743          	fmadd.d	fa4,fs5,fs2,fa4
800030f2:	7b2a77c3          	fmadd.d	fa5,fs4,fs2,fa5
800030f6:	fb84ffc3          	fmadd.d	ft11,fs1,fs8,ft11
800030fa:	f374ff43          	fmadd.d	ft10,fs1,fs7,ft10
800030fe:	eb64fec3          	fmadd.d	ft9,fs1,fs6,ft9
80003102:	e354fe43          	fmadd.d	ft8,fs1,fs5,ft8
80003106:	5b44f5c3          	fmadd.d	fa1,fs1,fs4,fa1
8000310a:	1a8c71c3          	fmadd.d	ft3,fs8,fs0,ft3
8000310e:	128bf143          	fmadd.d	ft2,fs7,fs0,ft2
80003112:	0a8b70c3          	fmadd.d	ft1,fs6,fs0,ft1
80003116:	028af043          	fmadd.d	ft0,fs5,fs0,ft0
8000311a:	528a7543          	fmadd.d	fa0,fs4,fs0,fa0
8000311e:	97d6                	add	a5,a5,s5
80003120:	06a1                	addi	a3,a3,8
80003122:	f97761e3          	bltu	a4,s7,800030a4 <mm_cb+0xf4e>
80003126:	01f33027          	fsd	ft11,0(t1)
8000312a:	01e33427          	fsd	ft10,8(t1)
8000312e:	01d33827          	fsd	ft9,16(t1)
80003132:	01c33c27          	fsd	ft8,24(t1)
80003136:	02b33027          	fsd	fa1,32(t1)
8000313a:	00383027          	fsd	ft3,0(a6)
8000313e:	00283427          	fsd	ft2,8(a6)
80003142:	00183827          	fsd	ft1,16(a6)
80003146:	00083c27          	fsd	ft0,24(a6)
8000314a:	02a83027          	fsd	fa0,32(a6)
8000314e:	f3842783          	lw	a5,-200(s0)
80003152:	011e3027          	fsd	fa7,0(t3)
80003156:	010e3427          	fsd	fa6,8(t3)
8000315a:	007e3827          	fsd	ft7,16(t3)
8000315e:	006e3c27          	fsd	ft6,24(t3)
80003162:	02ce3027          	fsd	fa2,32(t3)
80003166:	00553027          	fsd	ft5,0(a0)
8000316a:	00453427          	fsd	ft4,8(a0)
8000316e:	a914                	fsd	fa3,16(a0)
80003170:	ad18                	fsd	fa4,24(a0)
80003172:	b11c                	fsd	fa5,32(a0)
80003174:	0f15                	addi	t5,t5,5
80003176:	02830313          	addi	t1,t1,40
8000317a:	02880813          	addi	a6,a6,40
8000317e:	028e8e93          	addi	t4,t4,40
80003182:	bcff68e3          	bltu	t5,a5,80002d52 <mm_cb+0xbfc>
80003186:	87ae                	mv	a5,a1
80003188:	4018                	lw	a4,0(s0)
8000318a:	881e                	mv	a6,t2
8000318c:	86ea                	mv	a3,s10
8000318e:	c03a                	sw	a4,0(sp)
80003190:	ee842703          	lw	a4,-280(s0)
80003194:	f0c42603          	lw	a2,-244(s0)
80003198:	ef442583          	lw	a1,-268(s0)
8000319c:	98ba                	add	a7,a7,a4
8000319e:	f1c42703          	lw	a4,-228(s0)
800031a2:	f4742823          	sw	t2,-176(s0)
800031a6:	f4f42c23          	sw	a5,-168(s0)
800031aa:	4511                	li	a0,4
800031ac:	e55fe0ef          	jal	80002000 <mm_naive>
800031b0:	f2842783          	lw	a5,-216(s0)
800031b4:	f5042383          	lw	t2,-176(s0)
800031b8:	fff78713          	addi	a4,a5,-1
800031bc:	ec842783          	lw	a5,-312(s0)
800031c0:	f2e42423          	sw	a4,-216(s0)
800031c4:	9d3e                	add	s10,s10,a5
800031c6:	99be                	add	s3,s3,a5
800031c8:	9bbe                	add	s7,s7,a5
800031ca:	ee442783          	lw	a5,-284(s0)
800031ce:	9cbe                	add	s9,s9,a5
800031d0:	f5842783          	lw	a5,-168(s0)
800031d4:	b40716e3          	bnez	a4,80002d20 <mm_cb+0xbca>
800031d8:	e8842e83          	lw	t4,-376(s0)
800031dc:	401c                	lw	a5,0(s0)
800031de:	8cee                	mv	s9,s11
800031e0:	f5d42823          	sw	t4,-176(s0)
800031e4:	e8c42d83          	lw	s11,-372(s0)
800031e8:	f0c42603          	lw	a2,-244(s0)
800031ec:	c03e                	sw	a5,0(sp)
800031ee:	f4042983          	lw	s3,-192(s0)
800031f2:	ee042683          	lw	a3,-288(s0)
800031f6:	f1c42703          	lw	a4,-228(s0)
800031fa:	f2042883          	lw	a7,-224(s0)
800031fe:	f1042583          	lw	a1,-240(s0)
80003202:	87ce                	mv	a5,s3
80003204:	96e6                	add	a3,a3,s9
80003206:	881e                	mv	a6,t2
80003208:	f4742c23          	sw	t2,-168(s0)
8000320c:	4501                	li	a0,0
8000320e:	df3fe0ef          	jal	80002000 <mm_naive>
80003212:	ec442703          	lw	a4,-316(s0)
80003216:	f5042e83          	lw	t4,-176(s0)
8000321a:	0de1                	addi	s11,s11,24
8000321c:	00e987b3          	add	a5,s3,a4
80003220:	f4f42023          	sw	a5,-192(s0)
80003224:	f5842e03          	lw	t3,-168(s0)
80003228:	0c0c8c93          	addi	s9,s9,192
8000322c:	a9ddede3          	bltu	s11,t4,80002cc6 <mm_cb+0xb70>
80003230:	ebc42d83          	lw	s11,-324(s0)
80003234:	eac42d03          	lw	s10,-340(s0)
80003238:	82a6                	mv	t0,s1
8000323a:	0de1                	addi	s11,s11,24
8000323c:	8fca                	mv	t6,s2
8000323e:	83e2                	mv	t2,s8
80003240:	eb842783          	lw	a5,-328(s0)
80003244:	eb042483          	lw	s1,-336(s0)
80003248:	ea842f03          	lw	t5,-344(s0)
8000324c:	ea442c03          	lw	s8,-348(s0)
80003250:	ea042b83          	lw	s7,-352(s0)
80003254:	e9c42983          	lw	s3,-356(s0)
80003258:	e9842583          	lw	a1,-360(s0)
8000325c:	e9042903          	lw	s2,-368(s0)
80003260:	8872                	mv	a6,t3
80003262:	03adfe63          	bgeu	s11,s10,8000329e <mm_cb+0x1148>
80003266:	f0442603          	lw	a2,-252(s0)
8000326a:	46e1                	li	a3,24
8000326c:	f2042703          	lw	a4,-224(s0)
80003270:	97b2                	add	a5,a5,a2
80003272:	acb6eb63          	bltu	a3,a1,80002548 <mm_cb+0x3f2>
80003276:	960e99e3          	bnez	t4,80002be8 <mm_cb+0xa92>
8000327a:	0de1                	addi	s11,s11,24
8000327c:	03adf163          	bgeu	s11,s10,8000329e <mm_cb+0x1148>
80003280:	f0042683          	lw	a3,-256(s0)
80003284:	9736                	add	a4,a4,a3
80003286:	f0442683          	lw	a3,-252(s0)
8000328a:	97b6                	add	a5,a5,a3
8000328c:	f5ed                	bnez	a1,80003276 <mm_cb+0x1120>
8000328e:	018d8793          	addi	a5,s11,24
80003292:	030d8d93          	addi	s11,s11,48
80003296:	01a7f663          	bgeu	a5,s10,800032a2 <mm_cb+0x114c>
8000329a:	ffadeae3          	bltu	s11,s10,8000328e <mm_cb+0x1138>
8000329e:	6f3d6f63          	bltu	s10,s3,8000399c <mm_cb+0x1846>
800032a2:	47e1                	li	a5,24
800032a4:	0cb7f763          	bgeu	a5,a1,80003372 <mm_cb+0x121c>
800032a8:	401c                	lw	a5,0(s0)
800032aa:	aaaabfb7          	lui	t6,0xaaaab
800032ae:	51eb8f37          	lui	t5,0x51eb8
800032b2:	00179513          	slli	a0,a5,0x1
800032b6:	953e                	add	a0,a0,a5
800032b8:	6e85                	lui	t4,0x1
800032ba:	050e                	slli	a0,a0,0x3
800032bc:	00379493          	slli	s1,a5,0x3
800032c0:	aabf8f93          	addi	t6,t6,-1365 # aaaaaaab <__global_pointer$+0x2aaa4893>
800032c4:	51ff0f13          	addi	t5,t5,1311 # 51eb851f <_start-0x2e147ae1>
800032c8:	2c0e8e93          	addi	t4,t4,704 # 12c0 <_start-0x7fffed40>
800032cc:	4e01                	li	t3,0
800032ce:	4881                	li	a7,0
800032d0:	25800293          	li	t0,600
800032d4:	03f8b5b3          	mulhu	a1,a7,t6
800032d8:	ef842783          	lw	a5,-264(s0)
800032dc:	003e1813          	slli	a6,t3,0x3
800032e0:	4301                	li	t1,0
800032e2:	983e                	add	a6,a6,a5
800032e4:	f1442783          	lw	a5,-236(s0)
800032e8:	8191                	srli	a1,a1,0x4
800032ea:	02f585b3          	mul	a1,a1,a5
800032ee:	f0842783          	lw	a5,-248(s0)
800032f2:	0c080693          	addi	a3,a6,192
800032f6:	4381                	li	t2,0
800032f8:	03e33633          	mulhu	a2,t1,t5
800032fc:	820d                	srli	a2,a2,0x3
800032fe:	962e                	add	a2,a2,a1
80003300:	03d60633          	mul	a2,a2,t4
80003304:	963e                	add	a2,a2,a5
80003306:	f4068793          	addi	a5,a3,-192
8000330a:	8732                	mv	a4,a2
8000330c:	00073087          	fld	ft1,0(a4)
80003310:	00873007          	fld	ft0,8(a4)
80003314:	2b08                	fld	fa0,16(a4)
80003316:	2f0c                	fld	fa1,24(a4)
80003318:	3310                	fld	fa2,32(a4)
8000331a:	3714                	fld	fa3,40(a4)
8000331c:	3b18                	fld	fa4,48(a4)
8000331e:	3f1c                	fld	fa5,56(a4)
80003320:	04078793          	addi	a5,a5,64
80003324:	fc17b027          	fsd	ft1,-64(a5)
80003328:	fc07b427          	fsd	ft0,-56(a5)
8000332c:	fca7b827          	fsd	fa0,-48(a5)
80003330:	fcb7bc27          	fsd	fa1,-40(a5)
80003334:	fec7b027          	fsd	fa2,-32(a5)
80003338:	fed7b427          	fsd	fa3,-24(a5)
8000333c:	fee7b827          	fsd	fa4,-16(a5)
80003340:	fef7bc27          	fsd	fa5,-8(a5)
80003344:	04070713          	addi	a4,a4,64
80003348:	fcf692e3          	bne	a3,a5,8000330c <mm_cb+0x11b6>
8000334c:	227c                	fld	fa5,192(a2)
8000334e:	03e5                	addi	t2,t2,25
80003350:	0c860613          	addi	a2,a2,200
80003354:	a29c                	fsd	fa5,0(a3)
80003356:	96a6                	add	a3,a3,s1
80003358:	fa5397e3          	bne	t2,t0,80003306 <mm_cb+0x11b0>
8000335c:	f1842783          	lw	a5,-232(s0)
80003360:	0365                	addi	t1,t1,25
80003362:	0c880813          	addi	a6,a6,200
80003366:	f8f364e3          	bltu	t1,a5,800032ee <mm_cb+0x1198>
8000336a:	08e1                	addi	a7,a7,24
8000336c:	9e2a                	add	t3,t3,a0
8000336e:	f7a8e3e3          	bltu	a7,s10,800032d4 <mm_cb+0x117e>
80003372:	e4040113          	addi	sp,s0,-448
80003376:	1bc12083          	lw	ra,444(sp)
8000337a:	1b812403          	lw	s0,440(sp)
8000337e:	1b412483          	lw	s1,436(sp)
80003382:	1b012903          	lw	s2,432(sp)
80003386:	1ac12983          	lw	s3,428(sp)
8000338a:	1a812a03          	lw	s4,424(sp)
8000338e:	1a412a83          	lw	s5,420(sp)
80003392:	1a012b03          	lw	s6,416(sp)
80003396:	19c12b83          	lw	s7,412(sp)
8000339a:	19812c03          	lw	s8,408(sp)
8000339e:	19412c83          	lw	s9,404(sp)
800033a2:	19012d03          	lw	s10,400(sp)
800033a6:	18c12d83          	lw	s11,396(sp)
800033aa:	3476                	fld	fs0,376(sp)
800033ac:	34d6                	fld	fs1,368(sp)
800033ae:	3936                	fld	fs2,360(sp)
800033b0:	3996                	fld	fs3,352(sp)
800033b2:	2a76                	fld	fs4,344(sp)
800033b4:	2ad6                	fld	fs5,336(sp)
800033b6:	2b36                	fld	fs6,328(sp)
800033b8:	2b96                	fld	fs7,320(sp)
800033ba:	3c72                	fld	fs8,312(sp)
800033bc:	3cd2                	fld	fs9,304(sp)
800033be:	3d32                	fld	fs10,296(sp)
800033c0:	3d92                	fld	fs11,288(sp)
800033c2:	6139                	addi	sp,sp,448
800033c4:	8082                	ret
800033c6:	8e4a                	mv	t3,s2
800033c8:	ec042a83          	lw	s5,-320(s0)
800033cc:	ebc42903          	lw	s2,-324(s0)
800033d0:	eb842c03          	lw	s8,-328(s0)
800033d4:	eb442b03          	lw	s6,-332(s0)
800033d8:	eb042b83          	lw	s7,-336(s0)
800033dc:	8dbe                	mv	s11,a5
800033de:	87ce                	mv	a5,s3
800033e0:	89ae                	mv	s3,a1
800033e2:	e8042583          	lw	a1,-384(s0)
800033e6:	003c1713          	slli	a4,s8,0x3
800033ea:	f3342023          	sw	s3,-224(s0)
800033ee:	95ba                	add	a1,a1,a4
800033f0:	ecb42023          	sw	a1,-320(s0)
800033f4:	e9842583          	lw	a1,-360(s0)
800033f8:	f5b42023          	sw	s11,-192(s0)
800033fc:	f3842c23          	sw	s8,-200(s0)
80003400:	95ba                	add	a1,a1,a4
80003402:	ecb42223          	sw	a1,-316(s0)
80003406:	e9c42583          	lw	a1,-356(s0)
8000340a:	f3642823          	sw	s6,-208(s0)
8000340e:	f3a42423          	sw	s10,-216(s0)
80003412:	95ba                	add	a1,a1,a4
80003414:	eab42c23          	sw	a1,-328(s0)
80003418:	ea042583          	lw	a1,-352(s0)
8000341c:	89f2                	mv	s3,t3
8000341e:	972e                	add	a4,a4,a1
80003420:	eae42e23          	sw	a4,-324(s0)
80003424:	51eb8737          	lui	a4,0x51eb8
80003428:	51f70713          	addi	a4,a4,1311 # 51eb851f <_start-0x2e147ae1>
8000342c:	eae42a23          	sw	a4,-332(s0)
80003430:	6705                	lui	a4,0x1
80003432:	2c070713          	addi	a4,a4,704 # 12c0 <_start-0x7fffed40>
80003436:	f4e42423          	sw	a4,-184(s0)
8000343a:	eb442703          	lw	a4,-332(s0)
8000343e:	ecc42603          	lw	a2,-308(s0)
80003442:	00399693          	slli	a3,s3,0x3
80003446:	02e9b733          	mulhu	a4,s3,a4
8000344a:	00c682b3          	add	t0,a3,a2
8000344e:	ee442683          	lw	a3,-284(s0)
80003452:	ebc42c03          	lw	s8,-324(s0)
80003456:	eb842b03          	lw	s6,-328(s0)
8000345a:	ec042d03          	lw	s10,-320(s0)
8000345e:	8e4e                	mv	t3,s3
80003460:	833e                	mv	t1,a5
80003462:	8d96                	mv	s11,t0
80003464:	4981                	li	s3,0
80003466:	830d                	srli	a4,a4,0x3
80003468:	9736                	add	a4,a4,a3
8000346a:	f4842683          	lw	a3,-184(s0)
8000346e:	0c878793          	addi	a5,a5,200
80003472:	02d70733          	mul	a4,a4,a3
80003476:	f0842683          	lw	a3,-248(s0)
8000347a:	9736                	add	a4,a4,a3
8000347c:	0c870893          	addi	a7,a4,200
80003480:	82ba                	mv	t0,a4
80003482:	ed442703          	lw	a4,-300(s0)
80003486:	e8442503          	lw	a0,-380(s0)
8000348a:	f3888813          	addi	a6,a7,-200
8000348e:	01a70fb3          	add	t6,a4,s10
80003492:	01670f33          	add	t5,a4,s6
80003496:	8eee                	mv	t4,s11
80003498:	00083f87          	fld	ft11,0(a6)
8000349c:	00883f07          	fld	ft10,8(a6)
800034a0:	01083e87          	fld	ft9,16(a6)
800034a4:	01883e07          	fld	ft8,24(a6)
800034a8:	02083587          	fld	fa1,32(a6)
800034ac:	0c883187          	fld	ft3,200(a6)
800034b0:	0d083107          	fld	ft2,208(a6)
800034b4:	0d883087          	fld	ft1,216(a6)
800034b8:	0e083007          	fld	ft0,224(a6)
800034bc:	0e883507          	fld	fa0,232(a6)
800034c0:	19083887          	fld	fa7,400(a6)
800034c4:	19883807          	fld	fa6,408(a6)
800034c8:	1a083387          	fld	ft7,416(a6)
800034cc:	1a883307          	fld	ft6,424(a6)
800034d0:	1b083607          	fld	fa2,432(a6)
800034d4:	25883287          	fld	ft5,600(a6)
800034d8:	26083207          	fld	ft4,608(a6)
800034dc:	26883687          	fld	fa3,616(a6)
800034e0:	27083707          	fld	fa4,624(a6)
800034e4:	27883787          	fld	fa5,632(a6)
800034e8:	2f6d7563          	bgeu	s10,s6,800037d2 <mm_cb+0x167c>
800034ec:	85f6                	mv	a1,t4
800034ee:	01da8733          	add	a4,s5,t4
800034f2:	867e                	mv	a2,t6
800034f4:	86ea                	mv	a3,s10
800034f6:	f4542c23          	sw	t0,-168(s0)
800034fa:	f5542823          	sw	s5,-176(s0)
800034fe:	009683b3          	add	t2,a3,s1
80003502:	0003b407          	fld	fs0,0(t2)
80003506:	0005bb87          	fld	fs7,0(a1)
8000350a:	0085bb07          	fld	fs6,8(a1)
8000350e:	0105ba87          	fld	fs5,16(a1)
80003512:	0185ba07          	fld	fs4,24(a1)
80003516:	0205b987          	fld	fs3,32(a1)
8000351a:	009602b3          	add	t0,a2,s1
8000351e:	2284                	fld	fs1,0(a3)
80003520:	0002b907          	fld	fs2,0(t0)
80003524:	6289f643          	fmadd.d	fa2,fs3,fs0,fa2
80003528:	8a8bf8c3          	fmadd.d	fa7,fs7,fs0,fa7
8000352c:	828b7843          	fmadd.d	fa6,fs6,fs0,fa6
80003530:	3a8af3c3          	fmadd.d	ft7,fs5,fs0,ft7
80003534:	328a7343          	fmadd.d	ft6,fs4,fs0,ft6
80003538:	2200                	fld	fs0,0(a2)
8000353a:	7b29f7c3          	fmadd.d	fa5,fs3,fs2,fa5
8000353e:	5b34f5c3          	fmadd.d	fa1,fs1,fs3,fa1
80003542:	1a8bf1c3          	fmadd.d	ft3,fs7,fs0,ft3
80003546:	128b7143          	fmadd.d	ft2,fs6,fs0,ft2
8000354a:	0a8af0c3          	fmadd.d	ft1,fs5,fs0,ft1
8000354e:	028a7043          	fmadd.d	ft0,fs4,fs0,ft0
80003552:	2b2bf2c3          	fmadd.d	ft5,fs7,fs2,ft5
80003556:	fb74ffc3          	fmadd.d	ft11,fs1,fs7,ft11
8000355a:	232b7243          	fmadd.d	ft4,fs6,fs2,ft4
8000355e:	f364ff43          	fmadd.d	ft10,fs1,fs6,ft10
80003562:	6b2af6c3          	fmadd.d	fa3,fs5,fs2,fa3
80003566:	eb54fec3          	fmadd.d	ft9,fs1,fs5,ft9
8000356a:	732a7743          	fmadd.d	fa4,fs4,fs2,fa4
8000356e:	e344fe43          	fmadd.d	ft8,fs1,fs4,ft8
80003572:	5289f543          	fmadd.d	fa0,fs3,fs0,fa0
80003576:	00863b87          	fld	fs7,8(a2)
8000357a:	2680                	fld	fs0,8(a3)
8000357c:	02073c07          	fld	fs8,32(a4)
80003580:	0083b907          	fld	fs2,8(t2)
80003584:	00073b07          	fld	fs6,0(a4)
80003588:	0082b487          	fld	fs1,8(t0)
8000358c:	00873a87          	fld	fs5,8(a4)
80003590:	01073a07          	fld	fs4,16(a4)
80003594:	01873987          	fld	fs3,24(a4)
80003598:	537c7543          	fmadd.d	fa0,fs8,fs7,fa0
8000359c:	8b2b78c3          	fmadd.d	fa7,fs6,fs2,fa7
800035a0:	7299f743          	fmadd.d	fa4,fs3,fs1,fa4
800035a4:	2a9b72c3          	fmadd.d	ft5,fs6,fs1,ft5
800035a8:	fb647fc3          	fmadd.d	ft11,fs0,fs6,ft11
800035ac:	832af843          	fmadd.d	fa6,fs5,fs2,fa6
800035b0:	1b7b7b43          	fmadd.d	fs6,fs6,fs7,ft3
800035b4:	229af243          	fmadd.d	ft4,fs5,fs1,ft4
800035b8:	f3547f43          	fmadd.d	ft10,fs0,fs5,ft10
800035bc:	3b2a73c3          	fmadd.d	ft7,fs4,fs2,ft7
800035c0:	137afac3          	fmadd.d	fs5,fs5,fs7,ft2
800035c4:	6a9a76c3          	fmadd.d	fa3,fs4,fs1,fa3
800035c8:	eb447ec3          	fmadd.d	ft9,fs0,fs4,ft9
800035cc:	7a9c74c3          	fmadd.d	fs1,fs8,fs1,fa5
800035d0:	0b7a7a43          	fmadd.d	fs4,fs4,fs7,ft1
800035d4:	3329f343          	fmadd.d	ft6,fs3,fs2,ft6
800035d8:	e3347e43          	fmadd.d	ft8,fs0,fs3,ft8
800035dc:	632c7943          	fmadd.d	fs2,fs8,fs2,fa2
800035e0:	5b847443          	fmadd.d	fs0,fs0,fs8,fa1
800035e4:	0379f9c3          	fmadd.d	fs3,fs3,fs7,ft0
800035e8:	00b90ab3          	add	s5,s2,a1
800035ec:	0103b787          	fld	fa5,16(t2)
800035f0:	0106b007          	fld	ft0,16(a3)
800035f4:	2a10                	fld	fa2,16(a2)
800035f6:	000abb87          	fld	fs7,0(s5)
800035fa:	008ab187          	fld	ft3,8(s5)
800035fe:	010ab107          	fld	ft2,16(s5)
80003602:	018ab087          	fld	ft1,24(s5)
80003606:	020abc07          	fld	fs8,32(s5)
8000360a:	0102b587          	fld	fa1,16(t0)
8000360e:	8afbf8c3          	fmadd.d	fa7,fs7,fa5,fa7
80003612:	92fc7943          	fmadd.d	fs2,fs8,fa5,fs2
80003616:	2abbf2c3          	fmadd.d	ft5,fs7,fa1,ft5
8000361a:	82f1f843          	fmadd.d	fa6,ft3,fa5,fa6
8000361e:	22b1f243          	fmadd.d	ft4,ft3,fa1,ft4
80003622:	3af173c3          	fmadd.d	ft7,ft2,fa5,ft7
80003626:	6ab176c3          	fmadd.d	fa3,ft2,fa1,fa3
8000362a:	32f0f343          	fmadd.d	ft6,ft1,fa5,ft6
8000362e:	fb707fc3          	fmadd.d	ft11,ft0,fs7,ft11
80003632:	72b0f7c3          	fmadd.d	fa5,ft1,fa1,fa4
80003636:	b2cbfbc3          	fmadd.d	fs7,fs7,fa2,fs6
8000363a:	4abc75c3          	fmadd.d	fa1,fs8,fa1,fs1
8000363e:	f2307f43          	fmadd.d	ft10,ft0,ft3,ft10
80003642:	ea207ec3          	fmadd.d	ft9,ft0,ft2,ft9
80003646:	aac1f1c3          	fmadd.d	ft3,ft3,fa2,fs5
8000364a:	a2c17143          	fmadd.d	ft2,ft2,fa2,fs4
8000364e:	e2107e43          	fmadd.d	ft8,ft0,ft1,ft8
80003652:	43807043          	fmadd.d	ft0,ft0,fs8,fs0
80003656:	9ac0f0c3          	fmadd.d	ft1,ft1,fa2,fs3
8000365a:	52cc7643          	fmadd.d	fa2,fs8,fa2,fa0
8000365e:	974a                	add	a4,a4,s2
80003660:	2e88                	fld	fa0,24(a3)
80003662:	00073b07          	fld	fs6,0(a4)
80003666:	00873a87          	fld	fs5,8(a4)
8000366a:	01073a07          	fld	fs4,16(a4)
8000366e:	01873987          	fld	fs3,24(a4)
80003672:	02073c07          	fld	fs8,32(a4)
80003676:	2e18                	fld	fa4,24(a2)
80003678:	0183b487          	fld	fs1,24(t2)
8000367c:	0182b407          	fld	fs0,24(t0)
80003680:	62ec7cc3          	fmadd.d	fs9,fs8,fa4,fa2
80003684:	fb657fc3          	fmadd.d	ft11,fa0,fs6,ft11
80003688:	7a89f7c3          	fmadd.d	fa5,fs3,fs0,fa5
8000368c:	f3557f43          	fmadd.d	ft10,fa0,fs5,ft10
80003690:	eb457ec3          	fmadd.d	ft9,fa0,fs4,ft9
80003694:	e3357e43          	fmadd.d	ft8,fa0,fs3,ft8
80003698:	8a9b78c3          	fmadd.d	fa7,fs6,fs1,fa7
8000369c:	03857543          	fmadd.d	fa0,fa0,fs8,ft0
800036a0:	829af843          	fmadd.d	fa6,fs5,fs1,fa6
800036a4:	3a9a73c3          	fmadd.d	ft7,fs4,fs1,ft7
800036a8:	3299f343          	fmadd.d	ft6,fs3,fs1,ft6
800036ac:	2a8b72c3          	fmadd.d	ft5,fs6,fs0,ft5
800036b0:	929c74c3          	fmadd.d	fs1,fs8,fs1,fs2
800036b4:	228af243          	fmadd.d	ft4,fs5,fs0,ft4
800036b8:	6a8a76c3          	fmadd.d	fa3,fs4,fs0,fa3
800036bc:	baeb7b43          	fmadd.d	fs6,fs6,fa4,fs7
800036c0:	5a8c7443          	fmadd.d	fs0,fs8,fs0,fa1
800036c4:	1aeafac3          	fmadd.d	fs5,fs5,fa4,ft3
800036c8:	12ea7a43          	fmadd.d	fs4,fs4,fa4,ft2
800036cc:	0ae9f9c3          	fmadd.d	fs3,fs3,fa4,ft1
800036d0:	00ba0ab3          	add	s5,s4,a1
800036d4:	0206b087          	fld	ft1,32(a3)
800036d8:	02063007          	fld	ft0,32(a2)
800036dc:	0202b607          	fld	fa2,32(t0)
800036e0:	0203b587          	fld	fa1,32(t2)
800036e4:	008abb87          	fld	fs7,8(s5)
800036e8:	010ab907          	fld	fs2,16(s5)
800036ec:	018ab187          	fld	ft3,24(s5)
800036f0:	020ab107          	fld	ft2,32(s5)
800036f4:	000abc07          	fld	fs8,0(s5)
800036f8:	7ac1f743          	fmadd.d	fa4,ft3,fa2,fa5
800036fc:	5220fd43          	fmadd.d	fs10,ft1,ft2,fa0
80003700:	82bbf843          	fmadd.d	fa6,fs7,fa1,fa6
80003704:	3ab973c3          	fmadd.d	ft7,fs2,fa1,ft7
80003708:	32b1f343          	fmadd.d	ft6,ft3,fa1,ft6
8000370c:	22cbf243          	fmadd.d	ft4,fs7,fa2,ft4
80003710:	6ac976c3          	fmadd.d	fa3,fs2,fa2,fa3
80003714:	42c17443          	fmadd.d	fs0,ft2,fa2,fs0
80003718:	f370ff43          	fmadd.d	ft10,ft1,fs7,ft10
8000371c:	eb20fec3          	fmadd.d	ft9,ft1,fs2,ft9
80003720:	e230fe43          	fmadd.d	ft8,ft1,ft3,ft8
80003724:	aa0bfac3          	fmadd.d	fs5,fs7,ft0,fs5
80003728:	a2097a43          	fmadd.d	fs4,fs2,ft0,fs4
8000372c:	9a01f9c3          	fmadd.d	fs3,ft3,ft0,fs3
80003730:	ca017bc3          	fmadd.d	fs7,ft2,ft0,fs9
80003734:	8abc78c3          	fmadd.d	fa7,fs8,fa1,fa7
80003738:	2acc72c3          	fmadd.d	ft5,fs8,fa2,ft5
8000373c:	4ab175c3          	fmadd.d	fa1,ft2,fa1,fs1
80003740:	fb80ffc3          	fmadd.d	ft11,ft1,fs8,ft11
80003744:	b20c7b43          	fmadd.d	fs6,fs8,ft0,fs6
80003748:	974a                	add	a4,a4,s2
8000374a:	0286b907          	fld	fs2,40(a3)
8000374e:	3604                	fld	fs1,40(a2)
80003750:	00073187          	fld	ft3,0(a4)
80003754:	0283b607          	fld	fa2,40(t2)
80003758:	00873107          	fld	ft2,8(a4)
8000375c:	01073087          	fld	ft1,16(a4)
80003760:	01873007          	fld	ft0,24(a4)
80003764:	3308                	fld	fa0,32(a4)
80003766:	0282b787          	fld	fa5,40(t0)
8000376a:	03068693          	addi	a3,a3,48
8000376e:	8ac1f8c3          	fmadd.d	fa7,ft3,fa2,fa7
80003772:	82c17843          	fmadd.d	fa6,ft2,fa2,fa6
80003776:	3ac0f3c3          	fmadd.d	ft7,ft1,fa2,ft7
8000377a:	32c07343          	fmadd.d	ft6,ft0,fa2,ft6
8000377e:	2af1f2c3          	fmadd.d	ft5,ft3,fa5,ft5
80003782:	5ac57643          	fmadd.d	fa2,fa0,fa2,fa1
80003786:	22f17243          	fmadd.d	ft4,ft2,fa5,ft4
8000378a:	6af0f6c3          	fmadd.d	fa3,ft1,fa5,fa3
8000378e:	72f07743          	fmadd.d	fa4,ft0,fa5,fa4
80003792:	fa397fc3          	fmadd.d	ft11,fs2,ft3,ft11
80003796:	42f577c3          	fmadd.d	fa5,fa0,fa5,fs0
8000379a:	f2297f43          	fmadd.d	ft10,fs2,ft2,ft10
8000379e:	ea197ec3          	fmadd.d	ft9,fs2,ft1,ft9
800037a2:	e2097e43          	fmadd.d	ft8,fs2,ft0,ft8
800037a6:	d2a975c3          	fmadd.d	fa1,fs2,fa0,fs10
800037aa:	b291f1c3          	fmadd.d	ft3,ft3,fs1,fs6
800037ae:	aa917143          	fmadd.d	ft2,ft2,fs1,fs5
800037b2:	a290f0c3          	fmadd.d	ft1,ft1,fs1,fs4
800037b6:	9a907043          	fmadd.d	ft0,ft0,fs1,fs3
800037ba:	ba957543          	fmadd.d	fa0,fa0,fs1,fs7
800037be:	95de                	add	a1,a1,s7
800037c0:	974a                	add	a4,a4,s2
800037c2:	03060613          	addi	a2,a2,48
800037c6:	d366ece3          	bltu	a3,s6,800034fe <mm_cb+0x13a8>
800037ca:	f5842283          	lw	t0,-168(s0)
800037ce:	f5042a83          	lw	s5,-176(s0)
800037d2:	098b7763          	bgeu	s6,s8,80003860 <mm_cb+0x170a>
800037d6:	01d50733          	add	a4,a0,t4
800037da:	867a                	mv	a2,t5
800037dc:	86da                	mv	a3,s6
800037de:	009685b3          	add	a1,a3,s1
800037e2:	0005b987          	fld	fs3,0(a1)
800037e6:	009605b3          	add	a1,a2,s1
800037ea:	2284                	fld	fs1,0(a3)
800037ec:	2200                	fld	fs0,0(a2)
800037ee:	00073c07          	fld	fs8,0(a4)
800037f2:	00873b87          	fld	fs7,8(a4)
800037f6:	01073b07          	fld	fs6,16(a4)
800037fa:	01873a87          	fld	fs5,24(a4)
800037fe:	02073a07          	fld	fs4,32(a4)
80003802:	0005b907          	fld	fs2,0(a1)
80003806:	06a1                	addi	a3,a3,8
80003808:	8b3c78c3          	fmadd.d	fa7,fs8,fs3,fa7
8000380c:	833bf843          	fmadd.d	fa6,fs7,fs3,fa6
80003810:	3b3b73c3          	fmadd.d	ft7,fs6,fs3,ft7
80003814:	333af343          	fmadd.d	ft6,fs5,fs3,ft6
80003818:	633a7643          	fmadd.d	fa2,fs4,fs3,fa2
8000381c:	2b2c72c3          	fmadd.d	ft5,fs8,fs2,ft5
80003820:	232bf243          	fmadd.d	ft4,fs7,fs2,ft4
80003824:	6b2b76c3          	fmadd.d	fa3,fs6,fs2,fa3
80003828:	732af743          	fmadd.d	fa4,fs5,fs2,fa4
8000382c:	7b2a77c3          	fmadd.d	fa5,fs4,fs2,fa5
80003830:	fb84ffc3          	fmadd.d	ft11,fs1,fs8,ft11
80003834:	f374ff43          	fmadd.d	ft10,fs1,fs7,ft10
80003838:	eb64fec3          	fmadd.d	ft9,fs1,fs6,ft9
8000383c:	e354fe43          	fmadd.d	ft8,fs1,fs5,ft8
80003840:	5b44f5c3          	fmadd.d	fa1,fs1,fs4,fa1
80003844:	1a8c71c3          	fmadd.d	ft3,fs8,fs0,ft3
80003848:	128bf143          	fmadd.d	ft2,fs7,fs0,ft2
8000384c:	0a8b70c3          	fmadd.d	ft1,fs6,fs0,ft1
80003850:	028af043          	fmadd.d	ft0,fs5,fs0,ft0
80003854:	528a7543          	fmadd.d	fa0,fs4,fs0,fa0
80003858:	9756                	add	a4,a4,s5
8000385a:	0621                	addi	a2,a2,8
8000385c:	f986e1e3          	bltu	a3,s8,800037de <mm_cb+0x1688>
80003860:	01f83027          	fsd	ft11,0(a6)
80003864:	01e83427          	fsd	ft10,8(a6)
80003868:	01d83827          	fsd	ft9,16(a6)
8000386c:	01c83c27          	fsd	ft8,24(a6)
80003870:	02b83027          	fsd	fa1,32(a6)
80003874:	0c383427          	fsd	ft3,200(a6)
80003878:	0c283827          	fsd	ft2,208(a6)
8000387c:	0c183c27          	fsd	ft1,216(a6)
80003880:	0e083027          	fsd	ft0,224(a6)
80003884:	0ea83427          	fsd	fa0,232(a6)
80003888:	19183827          	fsd	fa7,400(a6)
8000388c:	19083c27          	fsd	fa6,408(a6)
80003890:	1a783027          	fsd	ft7,416(a6)
80003894:	1a683427          	fsd	ft6,424(a6)
80003898:	1ac83827          	fsd	fa2,432(a6)
8000389c:	24583c27          	fsd	ft5,600(a6)
800038a0:	26483027          	fsd	ft4,608(a6)
800038a4:	26d83427          	fsd	fa3,616(a6)
800038a8:	26e83827          	fsd	fa4,624(a6)
800038ac:	26f83c27          	fsd	fa5,632(a6)
800038b0:	028e8e93          	addi	t4,t4,40
800038b4:	02880813          	addi	a6,a6,40
800038b8:	bfd790e3          	bne	a5,t4,80003498 <mm_cb+0x1342>
800038bc:	ea542223          	sw	t0,-348(s0)
800038c0:	ea642423          	sw	t1,-344(s0)
800038c4:	ebc42823          	sw	t3,-336(s0)
800038c8:	c066                	sw	s9,0(sp)
800038ca:	f1c42703          	lw	a4,-228(s0)
800038ce:	f0c42803          	lw	a6,-244(s0)
800038d2:	ee042603          	lw	a2,-288(s0)
800038d6:	f5142823          	sw	a7,-176(s0)
800038da:	f4f42c23          	sw	a5,-168(s0)
800038de:	86ea                	mv	a3,s10
800038e0:	4581                	li	a1,0
800038e2:	4511                	li	a0,4
800038e4:	f1cfe0ef          	jal	80002000 <mm_naive>
800038e8:	ec842783          	lw	a5,-312(s0)
800038ec:	f5042883          	lw	a7,-176(s0)
800038f0:	06498993          	addi	s3,s3,100
800038f4:	25800713          	li	a4,600
800038f8:	9d3e                	add	s10,s10,a5
800038fa:	9b3e                	add	s6,s6,a5
800038fc:	9c3e                	add	s8,s8,a5
800038fe:	eb042e03          	lw	t3,-336(s0)
80003902:	f5842783          	lw	a5,-168(s0)
80003906:	ea842303          	lw	t1,-344(s0)
8000390a:	ea442283          	lw	t0,-348(s0)
8000390e:	32088893          	addi	a7,a7,800
80003912:	b6e998e3          	bne	s3,a4,80003482 <mm_cb+0x132c>
80003916:	c066                	sw	s9,0(sp)
80003918:	f4842683          	lw	a3,-184(s0)
8000391c:	f0c42803          	lw	a6,-244(s0)
80003920:	f1c42703          	lw	a4,-228(s0)
80003924:	00d288b3          	add	a7,t0,a3
80003928:	ee042603          	lw	a2,-288(s0)
8000392c:	ec442683          	lw	a3,-316(s0)
80003930:	8dbe                	mv	s11,a5
80003932:	45e5                	li	a1,25
80003934:	879a                	mv	a5,t1
80003936:	4501                	li	a0,0
80003938:	019e0993          	addi	s3,t3,25
8000393c:	ec4fe0ef          	jal	80002000 <mm_naive>
80003940:	f1842783          	lw	a5,-232(s0)
80003944:	02f9f463          	bgeu	s3,a5,8000396c <mm_cb+0x1816>
80003948:	f1042703          	lw	a4,-240(s0)
8000394c:	87ee                	mv	a5,s11
8000394e:	ae0706e3          	beqz	a4,8000343a <mm_cb+0x12e4>
80003952:	8e4e                	mv	t3,s3
80003954:	f4042d83          	lw	s11,-192(s0)
80003958:	f3842c03          	lw	s8,-200(s0)
8000395c:	f3042b03          	lw	s6,-208(s0)
80003960:	f2842d03          	lw	s10,-216(s0)
80003964:	f2042983          	lw	s3,-224(s0)
80003968:	cc1fe06f          	j	80002628 <mm_cb+0x4d2>
8000396c:	f4042d83          	lw	s11,-192(s0)
80003970:	f3842c03          	lw	s8,-200(s0)
80003974:	f3042b03          	lw	s6,-208(s0)
80003978:	f2842d03          	lw	s10,-216(s0)
8000397c:	f2042983          	lw	s3,-224(s0)
80003980:	9eeff06f          	j	80002b6e <mm_cb+0xa18>
80003984:	8eea                	mv	t4,s10
80003986:	8d4e                	mv	s10,s3
80003988:	eec42983          	lw	s3,-276(s0)
8000398c:	ef442583          	lw	a1,-268(s0)
80003990:	ee842903          	lw	s2,-280(s0)
80003994:	f0c42803          	lw	a6,-244(s0)
80003998:	913d75e3          	bgeu	s10,s3,800032a2 <mm_cb+0x114c>
8000399c:	900583e3          	beqz	a1,800032a2 <mm_cb+0x114c>
800039a0:	720e8863          	beqz	t4,800040d0 <mm_cb+0x1f7a>
800039a4:	aaaab7b7          	lui	a5,0xaaaab
800039a8:	aab78793          	addi	a5,a5,-1365 # aaaaaaab <__global_pointer$+0x2aaa4893>
800039ac:	02f9b733          	mulhu	a4,s3,a5
800039b0:	eef42023          	sw	a5,-288(s0)
800039b4:	401c                	lw	a5,0(s0)
800039b6:	f1c42503          	lw	a0,-228(s0)
800039ba:	efc42883          	lw	a7,-260(s0)
800039be:	00379613          	slli	a2,a5,0x3
800039c2:	00181793          	slli	a5,a6,0x1
800039c6:	97c2                	add	a5,a5,a6
800039c8:	00479b13          	slli	s6,a5,0x4
800039cc:	079a                	slli	a5,a5,0x6
800039ce:	8311                	srli	a4,a4,0x4
800039d0:	ecf42e23          	sw	a5,-292(s0)
800039d4:	00171793          	slli	a5,a4,0x1
800039d8:	97ba                	add	a5,a5,a4
800039da:	078e                	slli	a5,a5,0x3
800039dc:	40f98733          	sub	a4,s3,a5
800039e0:	ffc77493          	andi	s1,a4,-4
800039e4:	029507b3          	mul	a5,a0,s1
800039e8:	8b0d                	andi	a4,a4,3
800039ea:	f0e42223          	sw	a4,-252(s0)
800039ee:	4018                	lw	a4,0(s0)
800039f0:	00351693          	slli	a3,a0,0x3
800039f4:	eed42223          	sw	a3,-284(s0)
800039f8:	00471313          	slli	t1,a4,0x4
800039fc:	02dd06b3          	mul	a3,s10,a3
80003a00:	00551713          	slli	a4,a0,0x5
80003a04:	eee42423          	sw	a4,-280(s0)
80003a08:	4018                	lw	a4,0(s0)
80003a0a:	078e                	slli	a5,a5,0x3
80003a0c:	f0f42023          	sw	a5,-256(s0)
80003a10:	f2942823          	sw	s1,-208(s0)
80003a14:	02970733          	mul	a4,a4,s1
80003a18:	eda42a23          	sw	s10,-300(s0)
80003a1c:	8ab2                	mv	s5,a2
80003a1e:	00d88a33          	add	s4,a7,a3
80003a22:	4014                	lw	a3,0(s0)
80003a24:	8bda                	mv	s7,s6
80003a26:	00481c13          	slli	s8,a6,0x4
80003a2a:	02cd07b3          	mul	a5,s10,a2
80003a2e:	068a                	slli	a3,a3,0x2
80003a30:	eed42623          	sw	a3,-276(s0)
80003a34:	00371693          	slli	a3,a4,0x3
80003a38:	ef842703          	lw	a4,-264(s0)
80003a3c:	4981                	li	s3,0
80003a3e:	00451493          	slli	s1,a0,0x4
80003a42:	8f76                	mv	t5,t4
80003a44:	00581d13          	slli	s10,a6,0x5
80003a48:	00381d93          	slli	s11,a6,0x3
80003a4c:	973e                	add	a4,a4,a5
80003a4e:	8636                	mv	a2,a3
80003a50:	8b2e                	mv	s6,a1
80003a52:	413b0533          	sub	a0,s6,s3
80003a56:	47e5                	li	a5,25
80003a58:	85aa                	mv	a1,a0
80003a5a:	00a7f363          	bgeu	a5,a0,80003a60 <mm_cb+0x190a>
80003a5e:	85be                	mv	a1,a5
80003a60:	ccccd7b7          	lui	a5,0xccccd
80003a64:	ccd78793          	addi	a5,a5,-819 # cccccccd <__global_pointer$+0x4ccc6ab5>
80003a68:	02f5b7b3          	mulhu	a5,a1,a5
80003a6c:	00399693          	slli	a3,s3,0x3
80003a70:	00d90eb3          	add	t4,s2,a3
80003a74:	00e606b3          	add	a3,a2,a4
80003a78:	eed42e23          	sw	a3,-260(s0)
80003a7c:	015706b3          	add	a3,a4,s5
80003a80:	eed42a23          	sw	a3,-268(s0)
80003a84:	ed442023          	sw	s4,-320(s0)
80003a88:	eb542e23          	sw	s5,-324(s0)
80003a8c:	4f81                	li	t6,0
80003a8e:	0027d693          	srli	a3,a5,0x2
80003a92:	9bf1                	andi	a5,a5,-4
80003a94:	00d783b3          	add	t2,a5,a3
80003a98:	00339793          	slli	a5,t2,0x3
80003a9c:	ecf42c23          	sw	a5,-296(s0)
80003aa0:	97ba                	add	a5,a5,a4
80003aa2:	eef42823          	sw	a5,-272(s0)
80003aa6:	407587b3          	sub	a5,a1,t2
80003aaa:	8ad2                	mv	s5,s4
80003aac:	f0f42623          	sw	a5,-244(s0)
80003ab0:	8a1a                	mv	s4,t1
80003ab2:	eca42823          	sw	a0,-304(s0)
80003ab6:	ecb42623          	sw	a1,-308(s0)
80003aba:	f2e42023          	sw	a4,-224(s0)
80003abe:	8c9e                	mv	s9,t2
80003ac0:	ecc42423          	sw	a2,-312(s0)
80003ac4:	ed342223          	sw	s3,-316(s0)
80003ac8:	8376                	mv	t1,t4
80003aca:	eb642c23          	sw	s6,-328(s0)
80003ace:	eb242a23          	sw	s2,-332(s0)
80003ad2:	f3042c23          	sw	a6,-200(s0)
80003ad6:	41ff0633          	sub	a2,t5,t6
80003ada:	47e1                	li	a5,24
80003adc:	00c7f363          	bgeu	a5,a2,80003ae2 <mm_cb+0x198c>
80003ae0:	863e                	mv	a2,a5
80003ae2:	f3042783          	lw	a5,-208(s0)
80003ae6:	52078c63          	beqz	a5,8000401e <mm_cb+0x1ec8>
80003aea:	ee042783          	lw	a5,-288(s0)
80003aee:	f3842683          	lw	a3,-200(s0)
80003af2:	00361993          	slli	s3,a2,0x3
80003af6:	02f63733          	mulhu	a4,a2,a5
80003afa:	ed842783          	lw	a5,-296(s0)
80003afe:	99d6                	add	s3,s3,s5
80003b00:	8b56                	mv	s6,s5
80003b02:	979a                	add	a5,a5,t1
80003b04:	82d6                	mv	t0,s5
80003b06:	f4042023          	sw	zero,-192(s0)
80003b0a:	f2042423          	sw	zero,-216(s0)
80003b0e:	f0c42823          	sw	a2,-240(s0)
80003b12:	ebf42823          	sw	t6,-336(s0)
80003b16:	8309                	srli	a4,a4,0x2
80003b18:	02e686b3          	mul	a3,a3,a4
80003b1c:	00171913          	slli	s2,a4,0x1
80003b20:	993a                	add	s2,s2,a4
80003b22:	0912                	slli	s2,s2,0x4
80003b24:	9956                	add	s2,s2,s5
80003b26:	eaf42623          	sw	a5,-340(s0)
80003b2a:	ebe42423          	sw	t5,-344(s0)
80003b2e:	00169713          	slli	a4,a3,0x1
80003b32:	9736                	add	a4,a4,a3
80003b34:	00471a93          	slli	s5,a4,0x4
80003b38:	ed042783          	lw	a5,-304(s0)
80003b3c:	4711                	li	a4,4
80003b3e:	58f77463          	bgeu	a4,a5,800040c6 <mm_cb+0x1f70>
80003b42:	f4042783          	lw	a5,-192(s0)
80003b46:	8396                	mv	t2,t0
80003b48:	8e1a                	mv	t3,t1
80003b4a:	00379713          	slli	a4,a5,0x3
80003b4e:	f2042783          	lw	a5,-224(s0)
80003b52:	4e81                	li	t4,0
80003b54:	851a                	mv	a0,t1
80003b56:	00e786b3          	add	a3,a5,a4
80003b5a:	ef442783          	lw	a5,-268(s0)
80003b5e:	82ba                	mv	t0,a4
80003b60:	00e78833          	add	a6,a5,a4
80003b64:	ee442783          	lw	a5,-284(s0)
80003b68:	00fb0fb3          	add	t6,s6,a5
80003b6c:	00f90f33          	add	t5,s2,a5
80003b70:	01468333          	add	t1,a3,s4
80003b74:	014808b3          	add	a7,a6,s4
80003b78:	00033887          	fld	fa7,0(t1)
80003b7c:	00833807          	fld	fa6,8(t1)
80003b80:	01033387          	fld	ft7,16(t1)
80003b84:	01833307          	fld	ft6,24(t1)
80003b88:	02033607          	fld	fa2,32(t1)
80003b8c:	0008b287          	fld	ft5,0(a7)
80003b90:	0088b207          	fld	ft4,8(a7)
80003b94:	0108b687          	fld	fa3,16(a7)
80003b98:	0188b707          	fld	fa4,24(a7)
80003b9c:	0208b787          	fld	fa5,32(a7)
80003ba0:	0006bf87          	fld	ft11,0(a3)
80003ba4:	0086bf07          	fld	ft10,8(a3)
80003ba8:	0106be87          	fld	ft9,16(a3)
80003bac:	0186be07          	fld	ft8,24(a3)
80003bb0:	328c                	fld	fa1,32(a3)
80003bb2:	00083187          	fld	ft3,0(a6)
80003bb6:	00883107          	fld	ft2,8(a6)
80003bba:	01083087          	fld	ft1,16(a6)
80003bbe:	01883007          	fld	ft0,24(a6)
80003bc2:	02083507          	fld	fa0,32(a6)
80003bc6:	2f2b7963          	bgeu	s6,s2,80003eb8 <mm_cb+0x1d62>
80003bca:	85f2                	mv	a1,t3
80003bcc:	01be07b3          	add	a5,t3,s11
80003bd0:	867e                	mv	a2,t6
80003bd2:	875a                	mv	a4,s6
80003bd4:	f5942c23          	sw	s9,-168(s0)
80003bd8:	f5d42823          	sw	t4,-176(s0)
80003bdc:	f4742423          	sw	t2,-184(s0)
80003be0:	009703b3          	add	t2,a4,s1
80003be4:	0003b407          	fld	fs0,0(t2)
80003be8:	0005bb87          	fld	fs7,0(a1)
80003bec:	0085bb07          	fld	fs6,8(a1)
80003bf0:	0105ba87          	fld	fs5,16(a1)
80003bf4:	0185ba07          	fld	fs4,24(a1)
80003bf8:	0205b987          	fld	fs3,32(a1)
80003bfc:	00960eb3          	add	t4,a2,s1
80003c00:	2304                	fld	fs1,0(a4)
80003c02:	000eb907          	fld	fs2,0(t4)
80003c06:	6289f643          	fmadd.d	fa2,fs3,fs0,fa2
80003c0a:	8a8bf8c3          	fmadd.d	fa7,fs7,fs0,fa7
80003c0e:	828b7843          	fmadd.d	fa6,fs6,fs0,fa6
80003c12:	3a8af3c3          	fmadd.d	ft7,fs5,fs0,ft7
80003c16:	328a7343          	fmadd.d	ft6,fs4,fs0,ft6
80003c1a:	2200                	fld	fs0,0(a2)
80003c1c:	7b29f7c3          	fmadd.d	fa5,fs3,fs2,fa5
80003c20:	5b34f5c3          	fmadd.d	fa1,fs1,fs3,fa1
80003c24:	1a8bf1c3          	fmadd.d	ft3,fs7,fs0,ft3
80003c28:	128b7143          	fmadd.d	ft2,fs6,fs0,ft2
80003c2c:	0a8af0c3          	fmadd.d	ft1,fs5,fs0,ft1
80003c30:	028a7043          	fmadd.d	ft0,fs4,fs0,ft0
80003c34:	2b2bf2c3          	fmadd.d	ft5,fs7,fs2,ft5
80003c38:	fb74ffc3          	fmadd.d	ft11,fs1,fs7,ft11
80003c3c:	232b7243          	fmadd.d	ft4,fs6,fs2,ft4
80003c40:	f364ff43          	fmadd.d	ft10,fs1,fs6,ft10
80003c44:	6b2af6c3          	fmadd.d	fa3,fs5,fs2,fa3
80003c48:	eb54fec3          	fmadd.d	ft9,fs1,fs5,ft9
80003c4c:	732a7743          	fmadd.d	fa4,fs4,fs2,fa4
80003c50:	e344fe43          	fmadd.d	ft8,fs1,fs4,ft8
80003c54:	5289f543          	fmadd.d	fa0,fs3,fs0,fa0
80003c58:	00863b87          	fld	fs7,8(a2)
80003c5c:	2700                	fld	fs0,8(a4)
80003c5e:	0207bc07          	fld	fs8,32(a5)
80003c62:	0083b907          	fld	fs2,8(t2)
80003c66:	0007bb07          	fld	fs6,0(a5)
80003c6a:	008eb487          	fld	fs1,8(t4)
80003c6e:	0087ba87          	fld	fs5,8(a5)
80003c72:	0107ba07          	fld	fs4,16(a5)
80003c76:	0187b987          	fld	fs3,24(a5)
80003c7a:	537c7543          	fmadd.d	fa0,fs8,fs7,fa0
80003c7e:	8b2b78c3          	fmadd.d	fa7,fs6,fs2,fa7
80003c82:	7299f743          	fmadd.d	fa4,fs3,fs1,fa4
80003c86:	2a9b72c3          	fmadd.d	ft5,fs6,fs1,ft5
80003c8a:	fb647fc3          	fmadd.d	ft11,fs0,fs6,ft11
80003c8e:	832af843          	fmadd.d	fa6,fs5,fs2,fa6
80003c92:	1b7b7b43          	fmadd.d	fs6,fs6,fs7,ft3
80003c96:	229af243          	fmadd.d	ft4,fs5,fs1,ft4
80003c9a:	f3547f43          	fmadd.d	ft10,fs0,fs5,ft10
80003c9e:	3b2a73c3          	fmadd.d	ft7,fs4,fs2,ft7
80003ca2:	137afac3          	fmadd.d	fs5,fs5,fs7,ft2
80003ca6:	6a9a76c3          	fmadd.d	fa3,fs4,fs1,fa3
80003caa:	eb447ec3          	fmadd.d	ft9,fs0,fs4,ft9
80003cae:	7a9c74c3          	fmadd.d	fs1,fs8,fs1,fa5
80003cb2:	0b7a7a43          	fmadd.d	fs4,fs4,fs7,ft1
80003cb6:	3329f343          	fmadd.d	ft6,fs3,fs2,ft6
80003cba:	e3347e43          	fmadd.d	ft8,fs0,fs3,ft8
80003cbe:	632c7943          	fmadd.d	fs2,fs8,fs2,fa2
80003cc2:	5b847443          	fmadd.d	fs0,fs0,fs8,fa1
80003cc6:	0379f9c3          	fmadd.d	fs3,fs3,fs7,ft0
80003cca:	01858cb3          	add	s9,a1,s8
80003cce:	0103b787          	fld	fa5,16(t2)
80003cd2:	01073007          	fld	ft0,16(a4)
80003cd6:	2a10                	fld	fa2,16(a2)
80003cd8:	000cbb87          	fld	fs7,0(s9)
80003cdc:	008cb187          	fld	ft3,8(s9)
80003ce0:	010cb107          	fld	ft2,16(s9)
80003ce4:	018cb087          	fld	ft1,24(s9)
80003ce8:	020cbc07          	fld	fs8,32(s9)
80003cec:	010eb587          	fld	fa1,16(t4)
80003cf0:	8afbf8c3          	fmadd.d	fa7,fs7,fa5,fa7
80003cf4:	92fc7943          	fmadd.d	fs2,fs8,fa5,fs2
80003cf8:	2abbf2c3          	fmadd.d	ft5,fs7,fa1,ft5
80003cfc:	82f1f843          	fmadd.d	fa6,ft3,fa5,fa6
80003d00:	22b1f243          	fmadd.d	ft4,ft3,fa1,ft4
80003d04:	3af173c3          	fmadd.d	ft7,ft2,fa5,ft7
80003d08:	6ab176c3          	fmadd.d	fa3,ft2,fa1,fa3
80003d0c:	32f0f343          	fmadd.d	ft6,ft1,fa5,ft6
80003d10:	fb707fc3          	fmadd.d	ft11,ft0,fs7,ft11
80003d14:	72b0f7c3          	fmadd.d	fa5,ft1,fa1,fa4
80003d18:	b2cbfbc3          	fmadd.d	fs7,fs7,fa2,fs6
80003d1c:	4abc75c3          	fmadd.d	fa1,fs8,fa1,fs1
80003d20:	f2307f43          	fmadd.d	ft10,ft0,ft3,ft10
80003d24:	ea207ec3          	fmadd.d	ft9,ft0,ft2,ft9
80003d28:	aac1f1c3          	fmadd.d	ft3,ft3,fa2,fs5
80003d2c:	a2c17143          	fmadd.d	ft2,ft2,fa2,fs4
80003d30:	e2107e43          	fmadd.d	ft8,ft0,ft1,ft8
80003d34:	43807043          	fmadd.d	ft0,ft0,fs8,fs0
80003d38:	9ac0f0c3          	fmadd.d	ft1,ft1,fa2,fs3
80003d3c:	52cc7643          	fmadd.d	fa2,fs8,fa2,fa0
80003d40:	97e2                	add	a5,a5,s8
80003d42:	2f08                	fld	fa0,24(a4)
80003d44:	0007bb07          	fld	fs6,0(a5)
80003d48:	0087ba87          	fld	fs5,8(a5)
80003d4c:	0107ba07          	fld	fs4,16(a5)
80003d50:	0187b987          	fld	fs3,24(a5)
80003d54:	0207bc07          	fld	fs8,32(a5)
80003d58:	2e18                	fld	fa4,24(a2)
80003d5a:	0183b487          	fld	fs1,24(t2)
80003d5e:	018eb407          	fld	fs0,24(t4)
80003d62:	62ec7cc3          	fmadd.d	fs9,fs8,fa4,fa2
80003d66:	fb657fc3          	fmadd.d	ft11,fa0,fs6,ft11
80003d6a:	7a89f7c3          	fmadd.d	fa5,fs3,fs0,fa5
80003d6e:	f3557f43          	fmadd.d	ft10,fa0,fs5,ft10
80003d72:	eb457ec3          	fmadd.d	ft9,fa0,fs4,ft9
80003d76:	e3357e43          	fmadd.d	ft8,fa0,fs3,ft8
80003d7a:	8a9b78c3          	fmadd.d	fa7,fs6,fs1,fa7
80003d7e:	03857543          	fmadd.d	fa0,fa0,fs8,ft0
80003d82:	829af843          	fmadd.d	fa6,fs5,fs1,fa6
80003d86:	3a9a73c3          	fmadd.d	ft7,fs4,fs1,ft7
80003d8a:	3299f343          	fmadd.d	ft6,fs3,fs1,ft6
80003d8e:	2a8b72c3          	fmadd.d	ft5,fs6,fs0,ft5
80003d92:	929c74c3          	fmadd.d	fs1,fs8,fs1,fs2
80003d96:	228af243          	fmadd.d	ft4,fs5,fs0,ft4
80003d9a:	6a8a76c3          	fmadd.d	fa3,fs4,fs0,fa3
80003d9e:	baeb7b43          	fmadd.d	fs6,fs6,fa4,fs7
80003da2:	5a8c7443          	fmadd.d	fs0,fs8,fs0,fa1
80003da6:	1aeafac3          	fmadd.d	fs5,fs5,fa4,ft3
80003daa:	12ea7a43          	fmadd.d	fs4,fs4,fa4,ft2
80003dae:	0ae9f9c3          	fmadd.d	fs3,fs3,fa4,ft1
80003db2:	01a58cb3          	add	s9,a1,s10
80003db6:	02073087          	fld	ft1,32(a4)
80003dba:	02063007          	fld	ft0,32(a2)
80003dbe:	020eb607          	fld	fa2,32(t4)
80003dc2:	0203b587          	fld	fa1,32(t2)
80003dc6:	008cbb87          	fld	fs7,8(s9)
80003dca:	010cb907          	fld	fs2,16(s9)
80003dce:	018cb187          	fld	ft3,24(s9)
80003dd2:	020cb107          	fld	ft2,32(s9)
80003dd6:	000cbc07          	fld	fs8,0(s9)
80003dda:	7ac1f743          	fmadd.d	fa4,ft3,fa2,fa5
80003dde:	5220fd43          	fmadd.d	fs10,ft1,ft2,fa0
80003de2:	82bbf843          	fmadd.d	fa6,fs7,fa1,fa6
80003de6:	3ab973c3          	fmadd.d	ft7,fs2,fa1,ft7
80003dea:	32b1f343          	fmadd.d	ft6,ft3,fa1,ft6
80003dee:	22cbf243          	fmadd.d	ft4,fs7,fa2,ft4
80003df2:	6ac976c3          	fmadd.d	fa3,fs2,fa2,fa3
80003df6:	42c17443          	fmadd.d	fs0,ft2,fa2,fs0
80003dfa:	f370ff43          	fmadd.d	ft10,ft1,fs7,ft10
80003dfe:	eb20fec3          	fmadd.d	ft9,ft1,fs2,ft9
80003e02:	e230fe43          	fmadd.d	ft8,ft1,ft3,ft8
80003e06:	aa0bfac3          	fmadd.d	fs5,fs7,ft0,fs5
80003e0a:	a2097a43          	fmadd.d	fs4,fs2,ft0,fs4
80003e0e:	9a01f9c3          	fmadd.d	fs3,ft3,ft0,fs3
80003e12:	ca017bc3          	fmadd.d	fs7,ft2,ft0,fs9
80003e16:	8abc78c3          	fmadd.d	fa7,fs8,fa1,fa7
80003e1a:	2acc72c3          	fmadd.d	ft5,fs8,fa2,ft5
80003e1e:	4ab175c3          	fmadd.d	fa1,ft2,fa1,fs1
80003e22:	fb80ffc3          	fmadd.d	ft11,ft1,fs8,ft11
80003e26:	b20c7b43          	fmadd.d	fs6,fs8,ft0,fs6
80003e2a:	97e2                	add	a5,a5,s8
80003e2c:	02873907          	fld	fs2,40(a4)
80003e30:	3604                	fld	fs1,40(a2)
80003e32:	0007b187          	fld	ft3,0(a5)
80003e36:	0283b607          	fld	fa2,40(t2)
80003e3a:	0087b107          	fld	ft2,8(a5)
80003e3e:	0107b087          	fld	ft1,16(a5)
80003e42:	0187b007          	fld	ft0,24(a5)
80003e46:	3388                	fld	fa0,32(a5)
80003e48:	028eb787          	fld	fa5,40(t4)
80003e4c:	03070713          	addi	a4,a4,48
80003e50:	8ac1f8c3          	fmadd.d	fa7,ft3,fa2,fa7
80003e54:	82c17843          	fmadd.d	fa6,ft2,fa2,fa6
80003e58:	3ac0f3c3          	fmadd.d	ft7,ft1,fa2,ft7
80003e5c:	32c07343          	fmadd.d	ft6,ft0,fa2,ft6
80003e60:	2af1f2c3          	fmadd.d	ft5,ft3,fa5,ft5
80003e64:	5ac57643          	fmadd.d	fa2,fa0,fa2,fa1
80003e68:	22f17243          	fmadd.d	ft4,ft2,fa5,ft4
80003e6c:	6af0f6c3          	fmadd.d	fa3,ft1,fa5,fa3
80003e70:	72f07743          	fmadd.d	fa4,ft0,fa5,fa4
80003e74:	fa397fc3          	fmadd.d	ft11,fs2,ft3,ft11
80003e78:	42f577c3          	fmadd.d	fa5,fa0,fa5,fs0
80003e7c:	f2297f43          	fmadd.d	ft10,fs2,ft2,ft10
80003e80:	ea197ec3          	fmadd.d	ft9,fs2,ft1,ft9
80003e84:	e2097e43          	fmadd.d	ft8,fs2,ft0,ft8
80003e88:	d2a975c3          	fmadd.d	fa1,fs2,fa0,fs10
80003e8c:	b291f1c3          	fmadd.d	ft3,ft3,fs1,fs6
80003e90:	aa917143          	fmadd.d	ft2,ft2,fs1,fs5
80003e94:	a290f0c3          	fmadd.d	ft1,ft1,fs1,fs4
80003e98:	9a907043          	fmadd.d	ft0,ft0,fs1,fs3
80003e9c:	ba957543          	fmadd.d	fa0,fa0,fs1,fs7
80003ea0:	95de                	add	a1,a1,s7
80003ea2:	97e2                	add	a5,a5,s8
80003ea4:	03060613          	addi	a2,a2,48
80003ea8:	d3276ce3          	bltu	a4,s2,80003be0 <mm_cb+0x1a8a>
80003eac:	f5842c83          	lw	s9,-168(s0)
80003eb0:	f5042e83          	lw	t4,-176(s0)
80003eb4:	f4842383          	lw	t2,-184(s0)
80003eb8:	09397763          	bgeu	s2,s3,80003f46 <mm_cb+0x1df0>
80003ebc:	01ca87b3          	add	a5,s5,t3
80003ec0:	867a                	mv	a2,t5
80003ec2:	874a                	mv	a4,s2
80003ec4:	009705b3          	add	a1,a4,s1
80003ec8:	0005b987          	fld	fs3,0(a1)
80003ecc:	009605b3          	add	a1,a2,s1
80003ed0:	2304                	fld	fs1,0(a4)
80003ed2:	2200                	fld	fs0,0(a2)
80003ed4:	0007bc07          	fld	fs8,0(a5)
80003ed8:	0087bb87          	fld	fs7,8(a5)
80003edc:	0107bb07          	fld	fs6,16(a5)
80003ee0:	0187ba87          	fld	fs5,24(a5)
80003ee4:	0207ba07          	fld	fs4,32(a5)
80003ee8:	0005b907          	fld	fs2,0(a1)
80003eec:	0721                	addi	a4,a4,8
80003eee:	8b3c78c3          	fmadd.d	fa7,fs8,fs3,fa7
80003ef2:	833bf843          	fmadd.d	fa6,fs7,fs3,fa6
80003ef6:	3b3b73c3          	fmadd.d	ft7,fs6,fs3,ft7
80003efa:	333af343          	fmadd.d	ft6,fs5,fs3,ft6
80003efe:	633a7643          	fmadd.d	fa2,fs4,fs3,fa2
80003f02:	2b2c72c3          	fmadd.d	ft5,fs8,fs2,ft5
80003f06:	232bf243          	fmadd.d	ft4,fs7,fs2,ft4
80003f0a:	6b2b76c3          	fmadd.d	fa3,fs6,fs2,fa3
80003f0e:	732af743          	fmadd.d	fa4,fs5,fs2,fa4
80003f12:	7b2a77c3          	fmadd.d	fa5,fs4,fs2,fa5
80003f16:	fb84ffc3          	fmadd.d	ft11,fs1,fs8,ft11
80003f1a:	f374ff43          	fmadd.d	ft10,fs1,fs7,ft10
80003f1e:	eb64fec3          	fmadd.d	ft9,fs1,fs6,ft9
80003f22:	e354fe43          	fmadd.d	ft8,fs1,fs5,ft8
80003f26:	5b44f5c3          	fmadd.d	fa1,fs1,fs4,fa1
80003f2a:	1a8c71c3          	fmadd.d	ft3,fs8,fs0,ft3
80003f2e:	128bf143          	fmadd.d	ft2,fs7,fs0,ft2
80003f32:	0a8b70c3          	fmadd.d	ft1,fs6,fs0,ft1
80003f36:	028af043          	fmadd.d	ft0,fs5,fs0,ft0
80003f3a:	528a7543          	fmadd.d	fa0,fs4,fs0,fa0
80003f3e:	97ee                	add	a5,a5,s11
80003f40:	0621                	addi	a2,a2,8
80003f42:	f93761e3          	bltu	a4,s3,80003ec4 <mm_cb+0x1d6e>
80003f46:	01f6b027          	fsd	ft11,0(a3)
80003f4a:	01e6b427          	fsd	ft10,8(a3)
80003f4e:	01d6b827          	fsd	ft9,16(a3)
80003f52:	01c6bc27          	fsd	ft8,24(a3)
80003f56:	b28c                	fsd	fa1,32(a3)
80003f58:	00383027          	fsd	ft3,0(a6)
80003f5c:	00283427          	fsd	ft2,8(a6)
80003f60:	00183827          	fsd	ft1,16(a6)
80003f64:	00083c27          	fsd	ft0,24(a6)
80003f68:	02a83027          	fsd	fa0,32(a6)
80003f6c:	01133027          	fsd	fa7,0(t1)
80003f70:	01033427          	fsd	fa6,8(t1)
80003f74:	00733827          	fsd	ft7,16(t1)
80003f78:	00633c27          	fsd	ft6,24(t1)
80003f7c:	02c33027          	fsd	fa2,32(t1)
80003f80:	0058b027          	fsd	ft5,0(a7)
80003f84:	0048b427          	fsd	ft4,8(a7)
80003f88:	00d8b827          	fsd	fa3,16(a7)
80003f8c:	00e8bc27          	fsd	fa4,24(a7)
80003f90:	02f8b027          	fsd	fa5,32(a7)
80003f94:	0e95                	addi	t4,t4,5
80003f96:	02868693          	addi	a3,a3,40
80003f9a:	02880813          	addi	a6,a6,40
80003f9e:	028e0e13          	addi	t3,t3,40
80003fa2:	bd9ee7e3          	bltu	t4,s9,80003b70 <mm_cb+0x1a1a>
80003fa6:	8716                	mv	a4,t0
80003fa8:	832a                	mv	t1,a0
80003faa:	829e                	mv	t0,t2
80003fac:	401c                	lw	a5,0(s0)
80003fae:	f4642823          	sw	t1,-176(s0)
80003fb2:	f4542c23          	sw	t0,-168(s0)
80003fb6:	c03e                	sw	a5,0(sp)
80003fb8:	ef042783          	lw	a5,-272(s0)
80003fbc:	f3842803          	lw	a6,-200(s0)
80003fc0:	f1042603          	lw	a2,-240(s0)
80003fc4:	00f708b3          	add	a7,a4,a5
80003fc8:	f0c42583          	lw	a1,-244(s0)
80003fcc:	eac42783          	lw	a5,-340(s0)
80003fd0:	f1c42703          	lw	a4,-228(s0)
80003fd4:	86da                	mv	a3,s6
80003fd6:	4511                	li	a0,4
80003fd8:	828fe0ef          	jal	80002000 <mm_naive>
80003fdc:	f2842783          	lw	a5,-216(s0)
80003fe0:	eec42683          	lw	a3,-276(s0)
80003fe4:	f5842283          	lw	t0,-168(s0)
80003fe8:	00478713          	addi	a4,a5,4
80003fec:	ee842783          	lw	a5,-280(s0)
80003ff0:	f2e42423          	sw	a4,-216(s0)
80003ff4:	f5042303          	lw	t1,-176(s0)
80003ff8:	9b3e                	add	s6,s6,a5
80003ffa:	993e                	add	s2,s2,a5
80003ffc:	99be                	add	s3,s3,a5
80003ffe:	f4042783          	lw	a5,-192(s0)
80004002:	97b6                	add	a5,a5,a3
80004004:	f4f42023          	sw	a5,-192(s0)
80004008:	f3042783          	lw	a5,-208(s0)
8000400c:	b2f766e3          	bltu	a4,a5,80003b38 <mm_cb+0x19e2>
80004010:	f1042603          	lw	a2,-240(s0)
80004014:	eb042f83          	lw	t6,-336(s0)
80004018:	ea842f03          	lw	t5,-344(s0)
8000401c:	8a96                	mv	s5,t0
8000401e:	401c                	lw	a5,0(s0)
80004020:	f5e42423          	sw	t5,-184(s0)
80004024:	f5f42823          	sw	t6,-176(s0)
80004028:	c03e                	sw	a5,0(sp)
8000402a:	f0042683          	lw	a3,-256(s0)
8000402e:	efc42883          	lw	a7,-260(s0)
80004032:	f3842803          	lw	a6,-200(s0)
80004036:	f1c42703          	lw	a4,-228(s0)
8000403a:	ecc42583          	lw	a1,-308(s0)
8000403e:	f0442503          	lw	a0,-252(s0)
80004042:	879a                	mv	a5,t1
80004044:	f4642c23          	sw	t1,-168(s0)
80004048:	96d6                	add	a3,a3,s5
8000404a:	fb7fd0ef          	jal	80002000 <mm_naive>
8000404e:	f5042f83          	lw	t6,-176(s0)
80004052:	edc42783          	lw	a5,-292(s0)
80004056:	f5842303          	lw	t1,-168(s0)
8000405a:	f4842f03          	lw	t5,-184(s0)
8000405e:	0fe1                	addi	t6,t6,24
80004060:	933e                	add	t1,t1,a5
80004062:	0c0a8a93          	addi	s5,s5,192
80004066:	a7efe8e3          	bltu	t6,t5,80003ad6 <mm_cb+0x1980>
8000406a:	ec442983          	lw	s3,-316(s0)
8000406e:	f2042703          	lw	a4,-224(s0)
80004072:	eb842b03          	lw	s6,-328(s0)
80004076:	09e5                	addi	s3,s3,25
80004078:	8352                	mv	t1,s4
8000407a:	ec842603          	lw	a2,-312(s0)
8000407e:	ebc42a83          	lw	s5,-324(s0)
80004082:	ec042a03          	lw	s4,-320(s0)
80004086:	eb442903          	lw	s2,-332(s0)
8000408a:	f3842803          	lw	a6,-200(s0)
8000408e:	0c870713          	addi	a4,a4,200
80004092:	9d69e0e3          	bltu	s3,s6,80003a52 <mm_cb+0x18fc>
80004096:	ed442d03          	lw	s10,-300(s0)
8000409a:	85da                	mv	a1,s6
8000409c:	a00d1363          	bnez	s10,800032a2 <mm_cb+0x114c>
800040a0:	ad2ff06f          	j	80003372 <mm_cb+0x121c>
800040a4:	0de1                	addi	s11,s11,24
800040a6:	013df463          	bgeu	s11,s3,800040ae <mm_cb+0x1f58>
800040aa:	ad7fe06f          	j	80002b80 <mm_cb+0xa2a>
800040ae:	8eea                	mv	t4,s10
800040b0:	8d4e                	mv	s10,s3
800040b2:	eec42983          	lw	s3,-276(s0)
800040b6:	ee842903          	lw	s2,-280(s0)
800040ba:	f0c42803          	lw	a6,-244(s0)
800040be:	85be                	mv	a1,a5
800040c0:	9f3d7163          	bgeu	s10,s3,800032a2 <mm_cb+0x114c>
800040c4:	b8e1                	j	8000399c <mm_cb+0x1846>
800040c6:	f4042783          	lw	a5,-192(s0)
800040ca:	00379713          	slli	a4,a5,0x3
800040ce:	bdf9                	j	80003fac <mm_cb+0x1e56>
800040d0:	019e8793          	addi	a5,t4,25
800040d4:	032e8e93          	addi	t4,t4,50
800040d8:	fcb7f2e3          	bgeu	a5,a1,8000409c <mm_cb+0x1f46>
800040dc:	febeeae3          	bltu	t4,a1,800040d0 <mm_cb+0x1f7a>
800040e0:	9c0d1163          	bnez	s10,800032a2 <mm_cb+0x114c>
800040e4:	a8eff06f          	j	80003372 <mm_cb+0x121c>
800040e8:	000f0463          	beqz	t5,800040f0 <mm_cb+0x1f9a>
800040ec:	a58fe06f          	j	80002344 <mm_cb+0x1ee>
800040f0:	a8098163          	beqz	s3,80003372 <mm_cb+0x121c>
800040f4:	8a0596e3          	bnez	a1,800039a0 <mm_cb+0x184a>
800040f8:	a7aff06f          	j	80003372 <mm_cb+0x121c>
800040fc:	401c                	lw	a5,0(s0)
800040fe:	00179713          	slli	a4,a5,0x1
80004102:	beafe06f          	j	800024ec <mm_cb+0x396>
80004106:	4781                	li	a5,0
80004108:	01878713          	addi	a4,a5,24
8000410c:	03078793          	addi	a5,a5,48
80004110:	01a76463          	bltu	a4,s10,80004118 <mm_cb+0x1fc2>
80004114:	afefe06f          	j	80002412 <mm_cb+0x2bc>
80004118:	ffa7e8e3          	bltu	a5,s10,80004108 <mm_cb+0x1fb2>
8000411c:	af6fe06f          	j	80002412 <mm_cb+0x2bc>

80004120 <mm>:
80004120:	7151                	addi	sp,sp,-240
80004122:	d5a2                	sw	s0,232(sp)
80004124:	544e                	lw	s0,240(sp)
80004126:	03163313          	sltiu	t1,a2,49
8000412a:	0335be13          	sltiu	t3,a1,51
8000412e:	006e7e33          	and	t3,t3,t1
80004132:	03153313          	sltiu	t1,a0,49
80004136:	d786                	sw	ra,236(sp)
80004138:	01c37333          	and	t1,t1,t3
8000413c:	d022                	sw	s0,32(sp)
8000413e:	5c030063          	beqz	t1,800046fe <mm+0x5de>
80004142:	8f3e                	mv	t5,a5
80004144:	d3a6                	sw	s1,228(sp)
80004146:	8eaa                	mv	t4,a0
80004148:	c6c6                	sw	a7,76(sp)
8000414a:	c4fa                	sw	t5,72(sp)
8000414c:	9971                	andi	a0,a0,-4
8000414e:	8336                	mv	t1,a3
80004150:	84c6                	mv	s1,a7
80004152:	87c2                	mv	a5,a6
80004154:	86ba                	mv	a3,a4
80004156:	56050e63          	beqz	a0,800046d2 <mm+0x5b2>
8000415a:	aaaab737          	lui	a4,0xaaaab
8000415e:	aab70713          	addi	a4,a4,-1365 # aaaaaaab <__global_pointer$+0x2aaa4893>
80004162:	02e63733          	mulhu	a4,a2,a4
80004166:	ccccd837          	lui	a6,0xccccd
8000416a:	ccd80813          	addi	a6,a6,-819 # cccccccd <__global_pointer$+0x4ccc6ab5>
8000416e:	d1ca                	sw	s2,224(sp)
80004170:	00341893          	slli	a7,s0,0x3
80004174:	98a6                	add	a7,a7,s1
80004176:	cac6                	sw	a7,84(sp)
80004178:	0305b833          	mulhu	a6,a1,a6
8000417c:	c5e2                	sw	s8,200(sp)
8000417e:	c3e6                	sw	s9,196(sp)
80004180:	8309                	srli	a4,a4,0x2
80004182:	00171913          	slli	s2,a4,0x1
80004186:	993a                	add	s2,s2,a4
80004188:	cbd6                	sw	s5,212(sp)
8000418a:	02e78733          	mul	a4,a5,a4
8000418e:	c7de                	sw	s7,204(sp)
80004190:	00179a93          	slli	s5,a5,0x1
80004194:	00285893          	srli	a7,a6,0x2
80004198:	ffc87813          	andi	a6,a6,-4
8000419c:	01180c33          	add	s8,a6,a7
800041a0:	003c1813          	slli	a6,s8,0x3
800041a4:	94c2                	add	s1,s1,a6
800041a6:	c0a6                	sw	s1,64(sp)
800041a8:	010f08b3          	add	a7,t5,a6
800041ac:	00171c93          	slli	s9,a4,0x1
800041b0:	418584b3          	sub	s1,a1,s8
800041b4:	9cba                	add	s9,s9,a4
800041b6:	00441b93          	slli	s7,s0,0x4
800041ba:	00241713          	slli	a4,s0,0x2
800041be:	00369413          	slli	s0,a3,0x3
800041c2:	cfce                	sw	s3,220(sp)
800041c4:	cdd2                	sw	s4,216(sp)
800041c6:	c9da                	sw	s6,208(sp)
800041c8:	c1ea                	sw	s10,192(sp)
800041ca:	df6e                	sw	s11,188(sp)
800041cc:	dc26                	sw	s1,56(sp)
800041ce:	c8a2                	sw	s0,80(sp)
800041d0:	b522                	fsd	fs0,168(sp)
800041d2:	b126                	fsd	fs1,160(sp)
800041d4:	ad4a                	fsd	fs2,152(sp)
800041d6:	a94e                	fsd	fs3,144(sp)
800041d8:	a552                	fsd	fs4,136(sp)
800041da:	a156                	fsd	fs5,128(sp)
800041dc:	bcda                	fsd	fs6,120(sp)
800041de:	b8de                	fsd	fs7,112(sp)
800041e0:	b4e2                	fsd	fs8,104(sp)
800041e2:	b0e6                	fsd	fs9,96(sp)
800041e4:	9abe                	add	s5,s5,a5
800041e6:	00361993          	slli	s3,a2,0x3
800041ea:	0912                	slli	s2,s2,0x4
800041ec:	de46                	sw	a7,60(sp)
800041ee:	c2ba                	sw	a4,68(sp)
800041f0:	d22a                	sw	a0,36(sp)
800041f2:	d42e                	sw	a1,40(sp)
800041f4:	d632                	sw	a2,44(sp)
800041f6:	ccf6                	sw	t4,88(sp)
800041f8:	ce9a                	sw	t1,92(sp)
800041fa:	d836                	sw	a3,48(sp)
800041fc:	0a92                	slli	s5,s5,0x4
800041fe:	999a                	add	s3,s3,t1
80004200:	991a                	add	s2,s2,t1
80004202:	0c92                	slli	s9,s9,0x4
80004204:	00469493          	slli	s1,a3,0x4
80004208:	00379a13          	slli	s4,a5,0x3
8000420c:	00479413          	slli	s0,a5,0x4
80004210:	00579b13          	slli	s6,a5,0x5
80004214:	00569d93          	slli	s11,a3,0x5
80004218:	8d1a                	mv	s10,t1
8000421a:	4e01                	li	t3,0
8000421c:	4381                	li	t2,0
8000421e:	da3e                	sw	a5,52(sp)
80004220:	57a2                	lw	a5,40(sp)
80004222:	4711                	li	a4,4
80004224:	003e1893          	slli	a7,t3,0x3
80004228:	44f77063          	bgeu	a4,a5,80004668 <mm+0x548>
8000422c:	47b6                	lw	a5,76(sp)
8000422e:	4ea6                	lw	t4,72(sp)
80004230:	4f01                	li	t5,0
80004232:	01178333          	add	t1,a5,a7
80004236:	47d6                	lw	a5,84(sp)
80004238:	85f2                	mv	a1,t3
8000423a:	01178833          	add	a6,a5,a7
8000423e:	47c6                	lw	a5,80(sp)
80004240:	01a782b3          	add	t0,a5,s10
80004244:	01278fb3          	add	t6,a5,s2
80004248:	01730e33          	add	t3,t1,s7
8000424c:	01780533          	add	a0,a6,s7
80004250:	000e3887          	fld	fa7,0(t3)
80004254:	008e3807          	fld	fa6,8(t3)
80004258:	010e3387          	fld	ft7,16(t3)
8000425c:	018e3307          	fld	ft6,24(t3)
80004260:	020e3607          	fld	fa2,32(t3)
80004264:	00053287          	fld	ft5,0(a0)
80004268:	00853207          	fld	ft4,8(a0)
8000426c:	2914                	fld	fa3,16(a0)
8000426e:	2d18                	fld	fa4,24(a0)
80004270:	311c                	fld	fa5,32(a0)
80004272:	00033f87          	fld	ft11,0(t1)
80004276:	00833f07          	fld	ft10,8(t1)
8000427a:	01033e87          	fld	ft9,16(t1)
8000427e:	01833e07          	fld	ft8,24(t1)
80004282:	02033587          	fld	fa1,32(t1)
80004286:	00083187          	fld	ft3,0(a6)
8000428a:	00883107          	fld	ft2,8(a6)
8000428e:	01083087          	fld	ft1,16(a6)
80004292:	01883007          	fld	ft0,24(a6)
80004296:	02083507          	fld	fa0,32(a6)
8000429a:	2f2d7163          	bgeu	s10,s2,8000457c <mm+0x45c>
8000429e:	8676                	mv	a2,t4
800042a0:	01da07b3          	add	a5,s4,t4
800042a4:	8696                	mv	a3,t0
800042a6:	876a                	mv	a4,s10
800042a8:	ca62                	sw	s8,20(sp)
800042aa:	cc5e                	sw	s7,24(sp)
800042ac:	ce52                	sw	s4,28(sp)
800042ae:	00970bb3          	add	s7,a4,s1
800042b2:	000bb407          	fld	fs0,0(s7)
800042b6:	00063b87          	fld	fs7,0(a2)
800042ba:	00863b07          	fld	fs6,8(a2)
800042be:	01063a87          	fld	fs5,16(a2)
800042c2:	01863a07          	fld	fs4,24(a2)
800042c6:	02063987          	fld	fs3,32(a2)
800042ca:	00968a33          	add	s4,a3,s1
800042ce:	2304                	fld	fs1,0(a4)
800042d0:	000a3907          	fld	fs2,0(s4)
800042d4:	6289f643          	fmadd.d	fa2,fs3,fs0,fa2
800042d8:	8a8bf8c3          	fmadd.d	fa7,fs7,fs0,fa7
800042dc:	828b7843          	fmadd.d	fa6,fs6,fs0,fa6
800042e0:	3a8af3c3          	fmadd.d	ft7,fs5,fs0,ft7
800042e4:	328a7343          	fmadd.d	ft6,fs4,fs0,ft6
800042e8:	2280                	fld	fs0,0(a3)
800042ea:	7b29f7c3          	fmadd.d	fa5,fs3,fs2,fa5
800042ee:	5b34f5c3          	fmadd.d	fa1,fs1,fs3,fa1
800042f2:	1a8bf1c3          	fmadd.d	ft3,fs7,fs0,ft3
800042f6:	128b7143          	fmadd.d	ft2,fs6,fs0,ft2
800042fa:	0a8af0c3          	fmadd.d	ft1,fs5,fs0,ft1
800042fe:	028a7043          	fmadd.d	ft0,fs4,fs0,ft0
80004302:	2b2bf2c3          	fmadd.d	ft5,fs7,fs2,ft5
80004306:	fb74ffc3          	fmadd.d	ft11,fs1,fs7,ft11
8000430a:	232b7243          	fmadd.d	ft4,fs6,fs2,ft4
8000430e:	f364ff43          	fmadd.d	ft10,fs1,fs6,ft10
80004312:	6b2af6c3          	fmadd.d	fa3,fs5,fs2,fa3
80004316:	eb54fec3          	fmadd.d	ft9,fs1,fs5,ft9
8000431a:	732a7743          	fmadd.d	fa4,fs4,fs2,fa4
8000431e:	e344fe43          	fmadd.d	ft8,fs1,fs4,ft8
80004322:	5289f543          	fmadd.d	fa0,fs3,fs0,fa0
80004326:	0086bb87          	fld	fs7,8(a3)
8000432a:	2700                	fld	fs0,8(a4)
8000432c:	0207bc07          	fld	fs8,32(a5)
80004330:	008bb907          	fld	fs2,8(s7)
80004334:	0007bb07          	fld	fs6,0(a5)
80004338:	008a3487          	fld	fs1,8(s4)
8000433c:	0087ba87          	fld	fs5,8(a5)
80004340:	0107ba07          	fld	fs4,16(a5)
80004344:	0187b987          	fld	fs3,24(a5)
80004348:	537c7543          	fmadd.d	fa0,fs8,fs7,fa0
8000434c:	8b2b78c3          	fmadd.d	fa7,fs6,fs2,fa7
80004350:	7299f743          	fmadd.d	fa4,fs3,fs1,fa4
80004354:	2a9b72c3          	fmadd.d	ft5,fs6,fs1,ft5
80004358:	fb647fc3          	fmadd.d	ft11,fs0,fs6,ft11
8000435c:	832af843          	fmadd.d	fa6,fs5,fs2,fa6
80004360:	1b7b7b43          	fmadd.d	fs6,fs6,fs7,ft3
80004364:	229af243          	fmadd.d	ft4,fs5,fs1,ft4
80004368:	f3547f43          	fmadd.d	ft10,fs0,fs5,ft10
8000436c:	3b2a73c3          	fmadd.d	ft7,fs4,fs2,ft7
80004370:	137afac3          	fmadd.d	fs5,fs5,fs7,ft2
80004374:	6a9a76c3          	fmadd.d	fa3,fs4,fs1,fa3
80004378:	eb447ec3          	fmadd.d	ft9,fs0,fs4,ft9
8000437c:	7a9c74c3          	fmadd.d	fs1,fs8,fs1,fa5
80004380:	0b7a7a43          	fmadd.d	fs4,fs4,fs7,ft1
80004384:	3329f343          	fmadd.d	ft6,fs3,fs2,ft6
80004388:	e3347e43          	fmadd.d	ft8,fs0,fs3,ft8
8000438c:	632c7943          	fmadd.d	fs2,fs8,fs2,fa2
80004390:	5b847443          	fmadd.d	fs0,fs0,fs8,fa1
80004394:	0379f9c3          	fmadd.d	fs3,fs3,fs7,ft0
80004398:	00c40c33          	add	s8,s0,a2
8000439c:	010bb787          	fld	fa5,16(s7)
800043a0:	01073007          	fld	ft0,16(a4)
800043a4:	2a90                	fld	fa2,16(a3)
800043a6:	000c3b87          	fld	fs7,0(s8)
800043aa:	008c3187          	fld	ft3,8(s8)
800043ae:	010c3107          	fld	ft2,16(s8)
800043b2:	018c3087          	fld	ft1,24(s8)
800043b6:	020c3c07          	fld	fs8,32(s8)
800043ba:	010a3587          	fld	fa1,16(s4)
800043be:	8afbf8c3          	fmadd.d	fa7,fs7,fa5,fa7
800043c2:	92fc7943          	fmadd.d	fs2,fs8,fa5,fs2
800043c6:	2abbf2c3          	fmadd.d	ft5,fs7,fa1,ft5
800043ca:	82f1f843          	fmadd.d	fa6,ft3,fa5,fa6
800043ce:	22b1f243          	fmadd.d	ft4,ft3,fa1,ft4
800043d2:	3af173c3          	fmadd.d	ft7,ft2,fa5,ft7
800043d6:	6ab176c3          	fmadd.d	fa3,ft2,fa1,fa3
800043da:	32f0f343          	fmadd.d	ft6,ft1,fa5,ft6
800043de:	fb707fc3          	fmadd.d	ft11,ft0,fs7,ft11
800043e2:	72b0f7c3          	fmadd.d	fa5,ft1,fa1,fa4
800043e6:	b2cbfbc3          	fmadd.d	fs7,fs7,fa2,fs6
800043ea:	4abc75c3          	fmadd.d	fa1,fs8,fa1,fs1
800043ee:	f2307f43          	fmadd.d	ft10,ft0,ft3,ft10
800043f2:	ea207ec3          	fmadd.d	ft9,ft0,ft2,ft9
800043f6:	aac1f1c3          	fmadd.d	ft3,ft3,fa2,fs5
800043fa:	a2c17143          	fmadd.d	ft2,ft2,fa2,fs4
800043fe:	e2107e43          	fmadd.d	ft8,ft0,ft1,ft8
80004402:	9ac0f0c3          	fmadd.d	ft1,ft1,fa2,fs3
80004406:	43807043          	fmadd.d	ft0,ft0,fs8,fs0
8000440a:	52cc7643          	fmadd.d	fa2,fs8,fa2,fa0
8000440e:	97a2                	add	a5,a5,s0
80004410:	2f18                	fld	fa4,24(a4)
80004412:	0007bb07          	fld	fs6,0(a5)
80004416:	0087ba87          	fld	fs5,8(a5)
8000441a:	0107ba07          	fld	fs4,16(a5)
8000441e:	0187b987          	fld	fs3,24(a5)
80004422:	0207bc07          	fld	fs8,32(a5)
80004426:	018a3507          	fld	fa0,24(s4)
8000442a:	2e80                	fld	fs0,24(a3)
8000442c:	018bb487          	fld	fs1,24(s7)
80004430:	03877043          	fmadd.d	ft0,fa4,fs8,ft0
80004434:	5aac75c3          	fmadd.d	fa1,fs8,fa0,fa1
80004438:	fb677fc3          	fmadd.d	ft11,fa4,fs6,ft11
8000443c:	f3577f43          	fmadd.d	ft10,fa4,fs5,ft10
80004440:	eb477ec3          	fmadd.d	ft9,fa4,fs4,ft9
80004444:	e3377e43          	fmadd.d	ft8,fa4,fs3,ft8
80004448:	8a9b78c3          	fmadd.d	fa7,fs6,fs1,fa7
8000444c:	7aa9f743          	fmadd.d	fa4,fs3,fa0,fa5
80004450:	829af843          	fmadd.d	fa6,fs5,fs1,fa6
80004454:	3a9a73c3          	fmadd.d	ft7,fs4,fs1,ft7
80004458:	3299f343          	fmadd.d	ft6,fs3,fs1,ft6
8000445c:	2aab72c3          	fmadd.d	ft5,fs6,fa0,ft5
80004460:	929c74c3          	fmadd.d	fs1,fs8,fs1,fs2
80004464:	22aaf243          	fmadd.d	ft4,fs5,fa0,ft4
80004468:	6aaa76c3          	fmadd.d	fa3,fs4,fa0,fa3
8000446c:	ba8b7b43          	fmadd.d	fs6,fs6,fs0,fs7
80004470:	128a7a43          	fmadd.d	fs4,fs4,fs0,ft2
80004474:	1a8afac3          	fmadd.d	fs5,fs5,fs0,ft3
80004478:	0a89f9c3          	fmadd.d	fs3,fs3,fs0,ft1
8000447c:	628c7443          	fmadd.d	fs0,fs8,fs0,fa2
80004480:	00cb0c33          	add	s8,s6,a2
80004484:	02073087          	fld	ft1,32(a4)
80004488:	329c                	fld	fa5,32(a3)
8000448a:	020bb607          	fld	fa2,32(s7)
8000448e:	008c3b87          	fld	fs7,8(s8)
80004492:	018c3187          	fld	ft3,24(s8)
80004496:	020c3107          	fld	ft2,32(s8)
8000449a:	020a3507          	fld	fa0,32(s4)
8000449e:	000c3c07          	fld	fs8,0(s8)
800044a2:	010c3907          	fld	fs2,16(s8)
800044a6:	0220fcc3          	fmadd.d	fs9,ft1,ft2,ft0
800044aa:	82cbf843          	fmadd.d	fa6,fs7,fa2,fa6
800044ae:	3ac973c3          	fmadd.d	ft7,fs2,fa2,ft7
800044b2:	32c1f343          	fmadd.d	ft6,ft3,fa2,ft6
800044b6:	22abf243          	fmadd.d	ft4,fs7,fa0,ft4
800044ba:	6aa976c3          	fmadd.d	fa3,fs2,fa0,fa3
800044be:	72a1f743          	fmadd.d	fa4,ft3,fa0,fa4
800044c2:	f370ff43          	fmadd.d	ft10,ft1,fs7,ft10
800044c6:	eb20fec3          	fmadd.d	ft9,ft1,fs2,ft9
800044ca:	e230fe43          	fmadd.d	ft8,ft1,ft3,ft8
800044ce:	aafbfac3          	fmadd.d	fs5,fs7,fa5,fs5
800044d2:	a2f97943          	fmadd.d	fs2,fs2,fa5,fs4
800044d6:	42f17bc3          	fmadd.d	fs7,ft2,fa5,fs0
800044da:	9af1f9c3          	fmadd.d	fs3,ft3,fa5,fs3
800044de:	8acc78c3          	fmadd.d	fa7,fs8,fa2,fa7
800044e2:	2aac72c3          	fmadd.d	ft5,fs8,fa0,ft5
800044e6:	4ac17643          	fmadd.d	fa2,ft2,fa2,fs1
800044ea:	5aa17543          	fmadd.d	fa0,ft2,fa0,fa1
800044ee:	fb80ffc3          	fmadd.d	ft11,ft1,fs8,ft11
800044f2:	b2fc7b43          	fmadd.d	fs6,fs8,fa5,fs6
800044f6:	97a2                	add	a5,a5,s0
800044f8:	370c                	fld	fa1,40(a4)
800044fa:	3680                	fld	fs0,40(a3)
800044fc:	0007b187          	fld	ft3,0(a5)
80004500:	028bba07          	fld	fs4,40(s7)
80004504:	0087b107          	fld	ft2,8(a5)
80004508:	0107b087          	fld	ft1,16(a5)
8000450c:	0187b007          	fld	ft0,24(a5)
80004510:	3384                	fld	fs1,32(a5)
80004512:	028a3787          	fld	fa5,40(s4)
80004516:	03070713          	addi	a4,a4,48
8000451a:	fa35ffc3          	fmadd.d	ft11,fa1,ft3,ft11
8000451e:	2af1f2c3          	fmadd.d	ft5,ft3,fa5,ft5
80004522:	22f17243          	fmadd.d	ft4,ft2,fa5,ft4
80004526:	6af0f6c3          	fmadd.d	fa3,ft1,fa5,fa3
8000452a:	72f07743          	fmadd.d	fa4,ft0,fa5,fa4
8000452e:	f225ff43          	fmadd.d	ft10,fa1,ft2,ft10
80004532:	ea15fec3          	fmadd.d	ft9,fa1,ft1,ft9
80004536:	e205fe43          	fmadd.d	ft8,fa1,ft0,ft8
8000453a:	8b41f8c3          	fmadd.d	fa7,ft3,fs4,fa7
8000453e:	83417843          	fmadd.d	fa6,ft2,fs4,fa6
80004542:	3b40f3c3          	fmadd.d	ft7,ft1,fs4,ft7
80004546:	33407343          	fmadd.d	ft6,ft0,fs4,ft6
8000454a:	52f4f7c3          	fmadd.d	fa5,fs1,fa5,fa0
8000454e:	6344f643          	fmadd.d	fa2,fs1,fs4,fa2
80004552:	ca95f5c3          	fmadd.d	fa1,fa1,fs1,fs9
80004556:	b281f1c3          	fmadd.d	ft3,ft3,fs0,fs6
8000455a:	aa817143          	fmadd.d	ft2,ft2,fs0,fs5
8000455e:	9280f0c3          	fmadd.d	ft1,ft1,fs0,fs2
80004562:	9a807043          	fmadd.d	ft0,ft0,fs0,fs3
80004566:	ba84f543          	fmadd.d	fa0,fs1,fs0,fs7
8000456a:	9656                	add	a2,a2,s5
8000456c:	97a2                	add	a5,a5,s0
8000456e:	03068693          	addi	a3,a3,48
80004572:	d3276ee3          	bltu	a4,s2,800042ae <mm+0x18e>
80004576:	4c52                	lw	s8,20(sp)
80004578:	4be2                	lw	s7,24(sp)
8000457a:	4a72                	lw	s4,28(sp)
8000457c:	09397763          	bgeu	s2,s3,8000460a <mm+0x4ea>
80004580:	01dc87b3          	add	a5,s9,t4
80004584:	86fe                	mv	a3,t6
80004586:	874a                	mv	a4,s2
80004588:	00970633          	add	a2,a4,s1
8000458c:	00063987          	fld	fs3,0(a2)
80004590:	00968633          	add	a2,a3,s1
80004594:	2304                	fld	fs1,0(a4)
80004596:	2280                	fld	fs0,0(a3)
80004598:	0007bc07          	fld	fs8,0(a5)
8000459c:	0087bb87          	fld	fs7,8(a5)
800045a0:	0107bb07          	fld	fs6,16(a5)
800045a4:	0187ba87          	fld	fs5,24(a5)
800045a8:	0207ba07          	fld	fs4,32(a5)
800045ac:	00063907          	fld	fs2,0(a2)
800045b0:	0721                	addi	a4,a4,8
800045b2:	8b3c78c3          	fmadd.d	fa7,fs8,fs3,fa7
800045b6:	833bf843          	fmadd.d	fa6,fs7,fs3,fa6
800045ba:	3b3b73c3          	fmadd.d	ft7,fs6,fs3,ft7
800045be:	333af343          	fmadd.d	ft6,fs5,fs3,ft6
800045c2:	633a7643          	fmadd.d	fa2,fs4,fs3,fa2
800045c6:	2b2c72c3          	fmadd.d	ft5,fs8,fs2,ft5
800045ca:	232bf243          	fmadd.d	ft4,fs7,fs2,ft4
800045ce:	6b2b76c3          	fmadd.d	fa3,fs6,fs2,fa3
800045d2:	732af743          	fmadd.d	fa4,fs5,fs2,fa4
800045d6:	7b2a77c3          	fmadd.d	fa5,fs4,fs2,fa5
800045da:	fb84ffc3          	fmadd.d	ft11,fs1,fs8,ft11
800045de:	f374ff43          	fmadd.d	ft10,fs1,fs7,ft10
800045e2:	eb64fec3          	fmadd.d	ft9,fs1,fs6,ft9
800045e6:	e354fe43          	fmadd.d	ft8,fs1,fs5,ft8
800045ea:	5b44f5c3          	fmadd.d	fa1,fs1,fs4,fa1
800045ee:	1a8c71c3          	fmadd.d	ft3,fs8,fs0,ft3
800045f2:	128bf143          	fmadd.d	ft2,fs7,fs0,ft2
800045f6:	0a8b70c3          	fmadd.d	ft1,fs6,fs0,ft1
800045fa:	028af043          	fmadd.d	ft0,fs5,fs0,ft0
800045fe:	528a7543          	fmadd.d	fa0,fs4,fs0,fa0
80004602:	97d2                	add	a5,a5,s4
80004604:	06a1                	addi	a3,a3,8
80004606:	f93761e3          	bltu	a4,s3,80004588 <mm+0x468>
8000460a:	01f33027          	fsd	ft11,0(t1)
8000460e:	01e33427          	fsd	ft10,8(t1)
80004612:	01d33827          	fsd	ft9,16(t1)
80004616:	01c33c27          	fsd	ft8,24(t1)
8000461a:	02b33027          	fsd	fa1,32(t1)
8000461e:	00383027          	fsd	ft3,0(a6)
80004622:	00283427          	fsd	ft2,8(a6)
80004626:	00183827          	fsd	ft1,16(a6)
8000462a:	00083c27          	fsd	ft0,24(a6)
8000462e:	02a83027          	fsd	fa0,32(a6)
80004632:	011e3027          	fsd	fa7,0(t3)
80004636:	010e3427          	fsd	fa6,8(t3)
8000463a:	007e3827          	fsd	ft7,16(t3)
8000463e:	006e3c27          	fsd	ft6,24(t3)
80004642:	02ce3027          	fsd	fa2,32(t3)
80004646:	00553027          	fsd	ft5,0(a0)
8000464a:	00453427          	fsd	ft4,8(a0)
8000464e:	a914                	fsd	fa3,16(a0)
80004650:	ad18                	fsd	fa4,24(a0)
80004652:	b11c                	fsd	fa5,32(a0)
80004654:	0f15                	addi	t5,t5,5
80004656:	02830313          	addi	t1,t1,40
8000465a:	02880813          	addi	a6,a6,40
8000465e:	028e8e93          	addi	t4,t4,40
80004662:	bf8f63e3          	bltu	t5,s8,80004248 <mm+0x128>
80004666:	8e2e                	mv	t3,a1
80004668:	5782                	lw	a5,32(sp)
8000466a:	5852                	lw	a6,52(sp)
8000466c:	5742                	lw	a4,48(sp)
8000466e:	c03e                	sw	a5,0(sp)
80004670:	4786                	lw	a5,64(sp)
80004672:	5632                	lw	a2,44(sp)
80004674:	55e2                	lw	a1,56(sp)
80004676:	98be                	add	a7,a7,a5
80004678:	57f2                	lw	a5,60(sp)
8000467a:	86ea                	mv	a3,s10
8000467c:	4511                	li	a0,4
8000467e:	cc72                	sw	t3,24(sp)
80004680:	ca1e                	sw	t2,20(sp)
80004682:	97ffd0ef          	jal	80002000 <mm_naive>
80004686:	4796                	lw	a5,68(sp)
80004688:	4e62                	lw	t3,24(sp)
8000468a:	43d2                	lw	t2,20(sp)
8000468c:	9d6e                	add	s10,s10,s11
8000468e:	9e3e                	add	t3,t3,a5
80004690:	5792                	lw	a5,36(sp)
80004692:	0391                	addi	t2,t2,4
80004694:	99ee                	add	s3,s3,s11
80004696:	996e                	add	s2,s2,s11
80004698:	b8f3e4e3          	bltu	t2,a5,80004220 <mm+0x100>
8000469c:	5512                	lw	a0,36(sp)
8000469e:	55a2                	lw	a1,40(sp)
800046a0:	5632                	lw	a2,44(sp)
800046a2:	4ee6                	lw	t4,88(sp)
800046a4:	4376                	lw	t1,92(sp)
800046a6:	56c2                	lw	a3,48(sp)
800046a8:	57d2                	lw	a5,52(sp)
800046aa:	590e                	lw	s2,224(sp)
800046ac:	49fe                	lw	s3,220(sp)
800046ae:	4a6e                	lw	s4,216(sp)
800046b0:	4ade                	lw	s5,212(sp)
800046b2:	4b4e                	lw	s6,208(sp)
800046b4:	4bbe                	lw	s7,204(sp)
800046b6:	4c2e                	lw	s8,200(sp)
800046b8:	4c9e                	lw	s9,196(sp)
800046ba:	4d0e                	lw	s10,192(sp)
800046bc:	5dfa                	lw	s11,188(sp)
800046be:	342a                	fld	fs0,168(sp)
800046c0:	348a                	fld	fs1,160(sp)
800046c2:	296a                	fld	fs2,152(sp)
800046c4:	29ca                	fld	fs3,144(sp)
800046c6:	2a2a                	fld	fs4,136(sp)
800046c8:	2a8a                	fld	fs5,128(sp)
800046ca:	3b66                	fld	fs6,120(sp)
800046cc:	3bc6                	fld	fs7,112(sp)
800046ce:	3c26                	fld	fs8,104(sp)
800046d0:	3c86                	fld	fs9,96(sp)
800046d2:	5702                	lw	a4,32(sp)
800046d4:	4436                	lw	s0,76(sp)
800046d6:	549e                	lw	s1,228(sp)
800046d8:	02a708b3          	mul	a7,a4,a0
800046dc:	d9ba                	sw	a4,240(sp)
800046de:	8736                	mv	a4,a3
800046e0:	50be                	lw	ra,236(sp)
800046e2:	883e                	mv	a6,a5
800046e4:	47a6                	lw	a5,72(sp)
800046e6:	02a686b3          	mul	a3,a3,a0
800046ea:	003ef513          	andi	a0,t4,3
800046ee:	088e                	slli	a7,a7,0x3
800046f0:	98a2                	add	a7,a7,s0
800046f2:	542e                	lw	s0,232(sp)
800046f4:	616d                	addi	sp,sp,240
800046f6:	068e                	slli	a3,a3,0x3
800046f8:	969a                	add	a3,a3,t1
800046fa:	907fd06f          	j	80002000 <mm_naive>
800046fe:	5402                	lw	s0,32(sp)
80004700:	50be                	lw	ra,236(sp)
80004702:	d9a2                	sw	s0,240(sp)
80004704:	542e                	lw	s0,232(sp)
80004706:	616d                	addi	sp,sp,240
80004708:	a4ffd06f          	j	80002156 <mm_cb>

8000470c <barrier.constprop.0>:
8000470c:	4158                	lw	a4,4(a0)
8000470e:	b9018793          	addi	a5,gp,-1136 # 80005da8 <bar+0x4>
80004712:	4685                	li	a3,1
80004714:	00173713          	seqz	a4,a4
80004718:	c158                	sw	a4,4(a0)
8000471a:	06d7a5af          	amoadd.w.aqrl	a1,a3,(a5)
8000471e:	4110                	lw	a2,0(a0)
80004720:	b8c18693          	addi	a3,gp,-1140 # 80005da4 <bar>
80004724:	167d                	addi	a2,a2,-1
80004726:	00c58863          	beq	a1,a2,80004736 <barrier.constprop.0+0x2a>
8000472a:	429c                	lw	a5,0(a3)
8000472c:	0230000f          	fence	r,rw
80004730:	fef71de3          	bne	a4,a5,8000472a <barrier.constprop.0+0x1e>
80004734:	8082                	ret
80004736:	0007a023          	sw	zero,0(a5)
8000473a:	0310000f          	fence	rw,w
8000473e:	c298                	sw	a4,0(a3)
80004740:	8082                	ret

80004742 <thread_entry>:
80004742:	7159                	addi	sp,sp,-112
80004744:	77fd                	lui	a5,0xfffff
80004746:	d4a2                	sw	s0,104(sp)
80004748:	d2a6                	sw	s1,100(sp)
8000474a:	1880                	addi	s0,sp,112
8000474c:	cece                	sw	s3,92(sp)
8000474e:	ccd2                	sw	s4,88(sp)
80004750:	cad6                	sw	s5,84(sp)
80004752:	c8da                	sw	s6,80(sp)
80004754:	c4e2                	sw	s8,72(sp)
80004756:	c2e6                	sw	s9,68(sp)
80004758:	c0ea                	sw	s10,64(sp)
8000475a:	d686                	sw	ra,108(sp)
8000475c:	d0ca                	sw	s2,96(sp)
8000475e:	c6de                	sw	s7,76(sp)
80004760:	de6e                	sw	s11,60(sp)
80004762:	e0078293          	addi	t0,a5,-512 # ffffee00 <__global_pointer$+0x7fff8be8>
80004766:	737d                	lui	t1,0xfffff
80004768:	d4030393          	addi	t2,t1,-704 # ffffed40 <__global_pointer$+0x7fff8b28>
8000476c:	9116                	add	sp,sp,t0
8000476e:	00810a93          	addi	s5,sp,8
80004772:	6705                	lui	a4,0x1
80004774:	911e                	add	sp,sp,t2
80004776:	2c070493          	addi	s1,a4,704 # 12c0 <_start-0x7fffed40>
8000477a:	00810b13          	addi	s6,sp,8
8000477e:	911e                	add	sp,sp,t2
80004780:	faa42423          	sw	a0,-88(s0)
80004784:	deadc537          	lui	a0,0xdeadc
80004788:	009a8cb3          	add	s9,s5,s1
8000478c:	fab42c23          	sw	a1,-72(s0)
80004790:	fa042e23          	sw	zero,-68(s0)
80004794:	00810a13          	addi	s4,sp,8
80004798:	0c0a8c13          	addi	s8,s5,192
8000479c:	eef50493          	addi	s1,a0,-273 # deadbeef <__global_pointer$+0x5ead5cd7>
800047a0:	4d01                	li	s10,0
800047a2:	400009b7          	lui	s3,0x40000
800047a6:	f40c0913          	addi	s2,s8,-192
800047aa:	0014d613          	srli	a2,s1,0x1
800047ae:	01fd1593          	slli	a1,s10,0x1f
800047b2:	00c58bb3          	add	s7,a1,a2
800047b6:	009bc6b3          	xor	a3,s7,s1
800047ba:	01e69813          	slli	a6,a3,0x1e
800047be:	013878b3          	and	a7,a6,s3
800047c2:	001d5d13          	srli	s10,s10,0x1
800047c6:	01a8e4b3          	or	s1,a7,s10
800047ca:	85a6                	mv	a1,s1
800047cc:	855e                	mv	a0,s7
800047ce:	3cf000ef          	jal	8000539c <__floatundidf>
800047d2:	001bde13          	srli	t3,s7,0x1
800047d6:	01f49d93          	slli	s11,s1,0x1f
800047da:	9df2                	add	s11,s11,t3
800047dc:	017dceb3          	xor	t4,s11,s7
800047e0:	01ee9f13          	slli	t5,t4,0x1e
800047e4:	0014df93          	srli	t6,s1,0x1
800047e8:	013f77b3          	and	a5,t5,s3
800047ec:	01f7ebb3          	or	s7,a5,t6
800047f0:	85de                	mv	a1,s7
800047f2:	856e                	mv	a0,s11
800047f4:	00a93027          	fsd	fa0,0(s2)
800047f8:	3a5000ef          	jal	8000539c <__floatundidf>
800047fc:	01fb9293          	slli	t0,s7,0x1f
80004800:	001dd313          	srli	t1,s11,0x1
80004804:	00628d33          	add	s10,t0,t1
80004808:	01bd43b3          	xor	t2,s10,s11
8000480c:	01e39713          	slli	a4,t2,0x1e
80004810:	013775b3          	and	a1,a4,s3
80004814:	001bd513          	srli	a0,s7,0x1
80004818:	00a5edb3          	or	s11,a1,a0
8000481c:	85ee                	mv	a1,s11
8000481e:	856a                	mv	a0,s10
80004820:	00a93427          	fsd	fa0,8(s2)
80004824:	379000ef          	jal	8000539c <__floatundidf>
80004828:	01fd9613          	slli	a2,s11,0x1f
8000482c:	001d5693          	srli	a3,s10,0x1
80004830:	00d604b3          	add	s1,a2,a3
80004834:	01a4c833          	xor	a6,s1,s10
80004838:	01e81893          	slli	a7,a6,0x1e
8000483c:	001dde13          	srli	t3,s11,0x1
80004840:	0138feb3          	and	t4,a7,s3
80004844:	01ceed33          	or	s10,t4,t3
80004848:	85ea                	mv	a1,s10
8000484a:	8526                	mv	a0,s1
8000484c:	00a93827          	fsd	fa0,16(s2)
80004850:	34d000ef          	jal	8000539c <__floatundidf>
80004854:	01fd1f13          	slli	t5,s10,0x1f
80004858:	0014df93          	srli	t6,s1,0x1
8000485c:	01ff0bb3          	add	s7,t5,t6
80004860:	009bc7b3          	xor	a5,s7,s1
80004864:	01e79293          	slli	t0,a5,0x1e
80004868:	001d5313          	srli	t1,s10,0x1
8000486c:	0132f3b3          	and	t2,t0,s3
80004870:	0063edb3          	or	s11,t2,t1
80004874:	00a93c27          	fsd	fa0,24(s2)
80004878:	85ee                	mv	a1,s11
8000487a:	855e                	mv	a0,s7
8000487c:	321000ef          	jal	8000539c <__floatundidf>
80004880:	01fd9713          	slli	a4,s11,0x1f
80004884:	001bd513          	srli	a0,s7,0x1
80004888:	00a704b3          	add	s1,a4,a0
8000488c:	0174c5b3          	xor	a1,s1,s7
80004890:	01e59613          	slli	a2,a1,0x1e
80004894:	001dd693          	srli	a3,s11,0x1
80004898:	01367833          	and	a6,a2,s3
8000489c:	00d86d33          	or	s10,a6,a3
800048a0:	02a93027          	fsd	fa0,32(s2)
800048a4:	85ea                	mv	a1,s10
800048a6:	8526                	mv	a0,s1
800048a8:	2f5000ef          	jal	8000539c <__floatundidf>
800048ac:	02a93427          	fsd	fa0,40(s2)
800048b0:	03090913          	addi	s2,s2,48
800048b4:	ef891be3          	bne	s2,s8,800047aa <thread_entry+0x68>
800048b8:	0c090c13          	addi	s8,s2,192
800048bc:	ef9c15e3          	bne	s8,s9,800047a6 <thread_entry+0x64>
800048c0:	6905                	lui	s2,0x1
800048c2:	38890993          	addi	s3,s2,904 # 1388 <_start-0x7fffec78>
800048c6:	013b0cb3          	add	s9,s6,s3
800048ca:	0c8b0c13          	addi	s8,s6,200
800048ce:	400009b7          	lui	s3,0x40000
800048d2:	f38c0913          	addi	s2,s8,-200
800048d6:	01fd1893          	slli	a7,s10,0x1f
800048da:	0014de13          	srli	t3,s1,0x1
800048de:	01c88bb3          	add	s7,a7,t3
800048e2:	009bc4b3          	xor	s1,s7,s1
800048e6:	01e49e93          	slli	t4,s1,0x1e
800048ea:	013eff33          	and	t5,t4,s3
800048ee:	001d5d13          	srli	s10,s10,0x1
800048f2:	01af64b3          	or	s1,t5,s10
800048f6:	85a6                	mv	a1,s1
800048f8:	855e                	mv	a0,s7
800048fa:	2a3000ef          	jal	8000539c <__floatundidf>
800048fe:	01f49f93          	slli	t6,s1,0x1f
80004902:	001bd793          	srli	a5,s7,0x1
80004906:	00ff8d33          	add	s10,t6,a5
8000490a:	017d42b3          	xor	t0,s10,s7
8000490e:	01e29313          	slli	t1,t0,0x1e
80004912:	0014d393          	srli	t2,s1,0x1
80004916:	01337db3          	and	s11,t1,s3
8000491a:	007debb3          	or	s7,s11,t2
8000491e:	85de                	mv	a1,s7
80004920:	856a                	mv	a0,s10
80004922:	00a93027          	fsd	fa0,0(s2)
80004926:	277000ef          	jal	8000539c <__floatundidf>
8000492a:	01fb9713          	slli	a4,s7,0x1f
8000492e:	001d5513          	srli	a0,s10,0x1
80004932:	00a704b3          	add	s1,a4,a0
80004936:	01a4c5b3          	xor	a1,s1,s10
8000493a:	01e59613          	slli	a2,a1,0x1e
8000493e:	001bd693          	srli	a3,s7,0x1
80004942:	01367833          	and	a6,a2,s3
80004946:	00d86d33          	or	s10,a6,a3
8000494a:	85ea                	mv	a1,s10
8000494c:	8526                	mv	a0,s1
8000494e:	00a93427          	fsd	fa0,8(s2)
80004952:	24b000ef          	jal	8000539c <__floatundidf>
80004956:	01fd1893          	slli	a7,s10,0x1f
8000495a:	0014de13          	srli	t3,s1,0x1
8000495e:	01c88bb3          	add	s7,a7,t3
80004962:	009bceb3          	xor	t4,s7,s1
80004966:	01ee9f13          	slli	t5,t4,0x1e
8000496a:	001d5f93          	srli	t6,s10,0x1
8000496e:	013f77b3          	and	a5,t5,s3
80004972:	01f7edb3          	or	s11,a5,t6
80004976:	00a93827          	fsd	fa0,16(s2)
8000497a:	85ee                	mv	a1,s11
8000497c:	855e                	mv	a0,s7
8000497e:	21f000ef          	jal	8000539c <__floatundidf>
80004982:	01fd9293          	slli	t0,s11,0x1f
80004986:	001bd313          	srli	t1,s7,0x1
8000498a:	006284b3          	add	s1,t0,t1
8000498e:	0174c3b3          	xor	t2,s1,s7
80004992:	01e39713          	slli	a4,t2,0x1e
80004996:	01377533          	and	a0,a4,s3
8000499a:	001dd593          	srli	a1,s11,0x1
8000499e:	00b56d33          	or	s10,a0,a1
800049a2:	00a93c27          	fsd	fa0,24(s2)
800049a6:	85ea                	mv	a1,s10
800049a8:	8526                	mv	a0,s1
800049aa:	1f3000ef          	jal	8000539c <__floatundidf>
800049ae:	02a93027          	fsd	fa0,32(s2)
800049b2:	02890913          	addi	s2,s2,40
800049b6:	f38910e3          	bne	s2,s8,800048d6 <thread_entry+0x194>
800049ba:	0c890c13          	addi	s8,s2,200
800049be:	f19c1ae3          	bne	s8,s9,800048d2 <thread_entry+0x190>
800049c2:	6905                	lui	s2,0x1
800049c4:	2c090613          	addi	a2,s2,704 # 12c0 <_start-0x7fffed40>
800049c8:	4581                	li	a1,0
800049ca:	8552                	mv	a0,s4
800049cc:	0c1000ef          	jal	8000528c <memset>
800049d0:	4da1                	li	s11,8
800049d2:	4ce5                	li	s9,25
800049d4:	b0202bf3          	csrr	s7,minstret
800049d8:	b00029f3          	csrr	s3,mcycle
800049dc:	4761                	li	a4,24
800049de:	4865                	li	a6,25
800049e0:	c066                	sw	s9,0(sp)
800049e2:	88d2                	mv	a7,s4
800049e4:	87da                	mv	a5,s6
800049e6:	86d6                	mv	a3,s5
800049e8:	85c2                	mv	a1,a6
800049ea:	863a                	mv	a2,a4
800049ec:	853a                	mv	a0,a4
800049ee:	f32ff0ef          	jal	80004120 <mm>
800049f2:	b0202673          	csrr	a2,minstret
800049f6:	b00026f3          	csrr	a3,mcycle
800049fa:	1dfd                	addi	s11,s11,-1
800049fc:	fc0d9ce3          	bnez	s11,800049d4 <thread_entry+0x292>
80004a00:	41760d33          	sub	s10,a2,s7
80004a04:	41368c33          	sub	s8,a3,s3
80004a08:	0ff0000f          	fence
80004a0c:	fa842483          	lw	s1,-88(s0)
80004a10:	48e1                	li	a7,24
80004a12:	87c6                	mv	a5,a7
80004a14:	4719                	li	a4,6
80004a16:	4695                	li	a3,5
80004a18:	4865                	li	a6,25
80004a1a:	85a6                	mv	a1,s1
80004a1c:	4611                	li	a2,4
80004a1e:	00001517          	auipc	a0,0x1
80004a22:	01250513          	addi	a0,a0,18 # 80005a30 <main+0x36>
80004a26:	2d59                	jal	800050bc <printf>
80004a28:	866a                	mv	a2,s10
80004a2a:	85a6                	mv	a1,s1
80004a2c:	00001517          	auipc	a0,0x1
80004a30:	03850513          	addi	a0,a0,56 # 80005a64 <main+0x6a>
80004a34:	2561                	jal	800050bc <printf>
80004a36:	8662                	mv	a2,s8
80004a38:	85a6                	mv	a1,s1
80004a3a:	00001517          	auipc	a0,0x1
80004a3e:	04250513          	addi	a0,a0,66 # 80005a7c <main+0x82>
80004a42:	2dad                	jal	800050bc <printf>
80004a44:	681d                	lui	a6,0x7
80004a46:	08080613          	addi	a2,a6,128 # 7080 <_start-0x7fff8f80>
80004a4a:	85a6                	mv	a1,s1
80004a4c:	00001517          	auipc	a0,0x1
80004a50:	04050513          	addi	a0,a0,64 # 80005a8c <main+0x92>
80004a54:	25a5                	jal	800050bc <printf>
80004a56:	01b778b7          	lui	a7,0x1b77
80004a5a:	40088e13          	addi	t3,a7,1024 # 1b77400 <_start-0x7e488c00>
80004a5e:	038e5633          	divu	a2,t3,s8
80004a62:	85a6                	mv	a1,s1
80004a64:	00001517          	auipc	a0,0x1
80004a68:	03850513          	addi	a0,a0,56 # 80005a9c <main+0xa2>
80004a6c:	2d81                	jal	800050bc <printf>
80004a6e:	00001797          	auipc	a5,0x1
80004a72:	faa7b807          	fld	fa6,-86(a5) # 80005a18 <main+0x1e>
80004a76:	00001797          	auipc	a5,0x1
80004a7a:	faa7b387          	fld	ft7,-86(a5) # 80005a20 <main+0x26>
80004a7e:	6e85                	lui	t4,0x1
80004a80:	7f7d                	lui	t5,0xfffff
80004a82:	2c0e8b93          	addi	s7,t4,704 # 12c0 <_start-0x7fffed40>
80004a86:	d40f0c93          	addi	s9,t5,-704 # ffffed40 <__global_pointer$+0x7fff8b28>
80004a8a:	4601                	li	a2,0
80004a8c:	4365                	li	t1,25
80004a8e:	00161f93          	slli	t6,a2,0x1
80004a92:	00cf87b3          	add	a5,t6,a2
80004a96:	00679293          	slli	t0,a5,0x6
80004a9a:	005a83b3          	add	t2,s5,t0
80004a9e:	017b05b3          	add	a1,s6,s7
80004aa2:	8552                	mv	a0,s4
80004aa4:	4681                	li	a3,0
80004aa6:	d20007d3          	fcvt.d.w	fa5,zero
80004aaa:	01958933          	add	s2,a1,s9
80004aae:	871e                	mv	a4,t2
80004ab0:	2318                	fld	fa4,0(a4)
80004ab2:	00093607          	fld	fa2,0(s2)
80004ab6:	00873007          	fld	ft0,8(a4)
80004aba:	0c893687          	fld	fa3,200(s2)
80004abe:	7ac770c3          	fmadd.d	ft1,fa4,fa2,fa5
80004ac2:	2b08                	fld	fa0,16(a4)
80004ac4:	19093307          	fld	ft6,400(s2)
80004ac8:	2f0c                	fld	fa1,24(a4)
80004aca:	25893287          	fld	ft5,600(s2)
80004ace:	02073887          	fld	fa7,32(a4)
80004ad2:	32093207          	fld	ft4,800(s2)
80004ad6:	0ad07e43          	fmadd.d	ft8,ft0,fa3,ft1
80004ada:	02873e87          	fld	ft9,40(a4)
80004ade:	3e893187          	fld	ft3,1000(s2)
80004ae2:	03073f07          	fld	ft10,48(a4)
80004ae6:	4b093107          	fld	ft2,1200(s2)
80004aea:	03873f87          	fld	ft11,56(a4)
80004aee:	57893787          	fld	fa5,1400(s2)
80004af2:	e2657743          	fmadd.d	fa4,fa0,ft6,ft8
80004af6:	64090913          	addi	s2,s2,1600
80004afa:	04070713          	addi	a4,a4,64
80004afe:	7255f643          	fmadd.d	fa2,fa1,ft5,fa4
80004b02:	6248f043          	fmadd.d	ft0,fa7,ft4,fa2
80004b06:	023ef6c3          	fmadd.d	fa3,ft9,ft3,ft0
80004b0a:	6a2f70c3          	fmadd.d	ft1,ft10,ft2,fa3
80004b0e:	0afff7c3          	fmadd.d	fa5,ft11,fa5,ft1
80004b12:	f9259fe3          	bne	a1,s2,80004ab0 <thread_entry+0x36e>
80004b16:	1307f553          	fmul.d	fa0,fa5,fa6
80004b1a:	00053307          	fld	ft6,0(a0)
80004b1e:	127575d3          	fmul.d	fa1,fa0,ft7
80004b22:	0aa372d3          	fsub.d	ft5,ft6,fa0
80004b26:	22b5a8d3          	fabs.d	fa7,fa1
80004b2a:	2252a253          	fabs.d	ft4,ft5
80004b2e:	a31209d3          	fle.d	s3,ft4,fa7
80004b32:	02098263          	beqz	s3,80004b56 <thread_entry+0x414>
80004b36:	0685                	addi	a3,a3,1
80004b38:	0521                	addi	a0,a0,8
80004b3a:	05a1                	addi	a1,a1,8
80004b3c:	f66695e3          	bne	a3,t1,80004aa6 <thread_entry+0x364>
80004b40:	0605                	addi	a2,a2,1
80004b42:	46e1                	li	a3,24
80004b44:	0c8a0a13          	addi	s4,s4,200
80004b48:	f4d613e3          	bne	a2,a3,80004a8e <thread_entry+0x34c>
80004b4c:	fb840513          	addi	a0,s0,-72
80004b50:	3e75                	jal	8000470c <barrier.constprop.0>
80004b52:	4501                	li	a0,0
80004b54:	2149                	jal	80004fd6 <exit>
80004b56:	fa842583          	lw	a1,-88(s0)
80004b5a:	faa43427          	fsd	fa0,-88(s0)
80004b5e:	fa842803          	lw	a6,-88(s0)
80004b62:	fac42883          	lw	a7,-84(s0)
80004b66:	fa643427          	fsd	ft6,-88(s0)
80004b6a:	fa842703          	lw	a4,-88(s0)
80004b6e:	fac42783          	lw	a5,-84(s0)
80004b72:	00001517          	auipc	a0,0x1
80004b76:	f4250513          	addi	a0,a0,-190 # 80005ab4 <main+0xba>
80004b7a:	2389                	jal	800050bc <printf>
80004b7c:	4505                	li	a0,1
80004b7e:	29a1                	jal	80004fd6 <exit>

80004b80 <vprintfmt>:
80004b80:	714d                	addi	sp,sp,-336
80004b82:	14812423          	sw	s0,328(sp)
80004b86:	14912223          	sw	s1,324(sp)
80004b8a:	15212023          	sw	s2,320(sp)
80004b8e:	13512a23          	sw	s5,308(sp)
80004b92:	14112623          	sw	ra,332(sp)
80004b96:	13312e23          	sw	s3,316(sp)
80004b9a:	13412c23          	sw	s4,312(sp)
80004b9e:	13712623          	sw	s7,300(sp)
80004ba2:	13812423          	sw	s8,296(sp)
80004ba6:	13912223          	sw	s9,292(sp)
80004baa:	13a12023          	sw	s10,288(sp)
80004bae:	84aa                	mv	s1,a0
80004bb0:	8432                	mv	s0,a2
80004bb2:	c636                	sw	a3,12(sp)
80004bb4:	892e                	mv	s2,a1
80004bb6:	02500a93          	li	s5,37
80004bba:	a029                	j	80004bc4 <vprintfmt+0x44>
80004bbc:	c521                	beqz	a0,80004c04 <vprintfmt+0x84>
80004bbe:	85ca                	mv	a1,s2
80004bc0:	0405                	addi	s0,s0,1
80004bc2:	9482                	jalr	s1
80004bc4:	00044503          	lbu	a0,0(s0)
80004bc8:	ff551ae3          	bne	a0,s5,80004bbc <vprintfmt+0x3c>
80004bcc:	00144683          	lbu	a3,1(s0)
80004bd0:	00140a13          	addi	s4,s0,1
80004bd4:	59fd                	li	s3,-1
80004bd6:	02000793          	li	a5,32
80004bda:	8752                	mv	a4,s4
80004bdc:	8c4e                	mv	s8,s3
80004bde:	c43e                	sw	a5,8(sp)
80004be0:	4581                	li	a1,0
80004be2:	fdd68793          	addi	a5,a3,-35
80004be6:	0ff7f793          	zext.b	a5,a5
80004bea:	05500613          	li	a2,85
80004bee:	00170413          	addi	s0,a4,1
80004bf2:	04f66f63          	bltu	a2,a5,80004c50 <vprintfmt+0xd0>
80004bf6:	8f818613          	addi	a2,gp,-1800 # 80005b10 <main+0x116>
80004bfa:	078a                	slli	a5,a5,0x2
80004bfc:	97b2                	add	a5,a5,a2
80004bfe:	439c                	lw	a5,0(a5)
80004c00:	97b2                	add	a5,a5,a2
80004c02:	8782                	jr	a5
80004c04:	14c12083          	lw	ra,332(sp)
80004c08:	14812403          	lw	s0,328(sp)
80004c0c:	14412483          	lw	s1,324(sp)
80004c10:	14012903          	lw	s2,320(sp)
80004c14:	13c12983          	lw	s3,316(sp)
80004c18:	13812a03          	lw	s4,312(sp)
80004c1c:	13412a83          	lw	s5,308(sp)
80004c20:	12c12b83          	lw	s7,300(sp)
80004c24:	12812c03          	lw	s8,296(sp)
80004c28:	12412c83          	lw	s9,292(sp)
80004c2c:	12012d03          	lw	s10,288(sp)
80004c30:	6171                	addi	sp,sp,336
80004c32:	8082                	ret
80004c34:	c436                	sw	a3,8(sp)
80004c36:	00174683          	lbu	a3,1(a4)
80004c3a:	05500613          	li	a2,85
80004c3e:	8722                	mv	a4,s0
80004c40:	fdd68793          	addi	a5,a3,-35
80004c44:	0ff7f793          	zext.b	a5,a5
80004c48:	00170413          	addi	s0,a4,1
80004c4c:	faf675e3          	bgeu	a2,a5,80004bf6 <vprintfmt+0x76>
80004c50:	85ca                	mv	a1,s2
80004c52:	02500513          	li	a0,37
80004c56:	9482                	jalr	s1
80004c58:	8452                	mv	s0,s4
80004c5a:	b7ad                	j	80004bc4 <vprintfmt+0x44>
80004c5c:	fd068993          	addi	s3,a3,-48
80004c60:	00174683          	lbu	a3,1(a4)
80004c64:	4525                	li	a0,9
80004c66:	fd068793          	addi	a5,a3,-48
80004c6a:	28f56463          	bltu	a0,a5,80004ef2 <vprintfmt+0x372>
80004c6e:	8636                	mv	a2,a3
80004c70:	8722                	mv	a4,s0
80004c72:	00299793          	slli	a5,s3,0x2
80004c76:	97ce                	add	a5,a5,s3
80004c78:	0705                	addi	a4,a4,1
80004c7a:	0786                	slli	a5,a5,0x1
80004c7c:	97b2                	add	a5,a5,a2
80004c7e:	00074603          	lbu	a2,0(a4)
80004c82:	fd078993          	addi	s3,a5,-48
80004c86:	fd060793          	addi	a5,a2,-48
80004c8a:	86b2                	mv	a3,a2
80004c8c:	fef573e3          	bgeu	a0,a5,80004c72 <vprintfmt+0xf2>
80004c90:	f40c59e3          	bgez	s8,80004be2 <vprintfmt+0x62>
80004c94:	8c4e                	mv	s8,s3
80004c96:	59fd                	li	s3,-1
80004c98:	b7a9                	j	80004be2 <vprintfmt+0x62>
80004c9a:	00174683          	lbu	a3,1(a4)
80004c9e:	8722                	mv	a4,s0
80004ca0:	b789                	j	80004be2 <vprintfmt+0x62>
80004ca2:	85ca                	mv	a1,s2
80004ca4:	02500513          	li	a0,37
80004ca8:	9482                	jalr	s1
80004caa:	bf29                	j	80004bc4 <vprintfmt+0x44>
80004cac:	47b2                	lw	a5,12(sp)
80004cae:	00174683          	lbu	a3,1(a4)
80004cb2:	8722                	mv	a4,s0
80004cb4:	0007a983          	lw	s3,0(a5)
80004cb8:	0791                	addi	a5,a5,4
80004cba:	c63e                	sw	a5,12(sp)
80004cbc:	bfd1                	j	80004c90 <vprintfmt+0x110>
80004cbe:	85ca                	mv	a1,s2
80004cc0:	03000513          	li	a0,48
80004cc4:	13612823          	sw	s6,304(sp)
80004cc8:	9482                	jalr	s1
80004cca:	85ca                	mv	a1,s2
80004ccc:	07800513          	li	a0,120
80004cd0:	9482                	jalr	s1
80004cd2:	4bc1                	li	s7,16
80004cd4:	4d01                	li	s10,0
80004cd6:	47b2                	lw	a5,12(sp)
80004cd8:	4c81                	li	s9,0
80004cda:	0007a983          	lw	s3,0(a5)
80004cde:	0791                	addi	a5,a5,4
80004ce0:	c63e                	sw	a5,12(sp)
80004ce2:	865e                	mv	a2,s7
80004ce4:	4681                	li	a3,0
80004ce6:	854e                	mv	a0,s3
80004ce8:	85e6                	mv	a1,s9
80004cea:	1c7000ef          	jal	800056b0 <__umoddi3>
80004cee:	c82a                	sw	a0,16(sp)
80004cf0:	179d0b63          	beq	s10,s9,80004e66 <vprintfmt+0x2e6>
80004cf4:	11b12e23          	sw	s11,284(sp)
80004cf8:	4b05                	li	s6,1
80004cfa:	01410d93          	addi	s11,sp,20
80004cfe:	854e                	mv	a0,s3
80004d00:	85e6                	mv	a1,s9
80004d02:	865e                	mv	a2,s7
80004d04:	4681                	li	a3,0
80004d06:	2565                	jal	800053ae <__udivdi3>
80004d08:	865e                	mv	a2,s7
80004d0a:	4681                	li	a3,0
80004d0c:	89aa                	mv	s3,a0
80004d0e:	8cae                	mv	s9,a1
80004d10:	1a1000ef          	jal	800056b0 <__umoddi3>
80004d14:	00ada023          	sw	a0,0(s11)
80004d18:	8a5a                	mv	s4,s6
80004d1a:	0d91                	addi	s11,s11,4
80004d1c:	0b05                	addi	s6,s6,1
80004d1e:	ff9d10e3          	bne	s10,s9,80004cfe <vprintfmt+0x17e>
80004d22:	fd79fee3          	bgeu	s3,s7,80004cfe <vprintfmt+0x17e>
80004d26:	11c12d83          	lw	s11,284(sp)
80004d2a:	fffc0b93          	addi	s7,s8,-1
80004d2e:	fffb0993          	addi	s3,s6,-1
80004d32:	018b5863          	bge	s6,s8,80004d42 <vprintfmt+0x1c2>
80004d36:	4522                	lw	a0,8(sp)
80004d38:	85ca                	mv	a1,s2
80004d3a:	1bfd                	addi	s7,s7,-1
80004d3c:	9482                	jalr	s1
80004d3e:	ff799ce3          	bne	s3,s7,80004d36 <vprintfmt+0x1b6>
80004d42:	0a0a                	slli	s4,s4,0x2
80004d44:	01010993          	addi	s3,sp,16
80004d48:	9a4e                	add	s4,s4,s3
80004d4a:	a011                	j	80004d4e <vprintfmt+0x1ce>
80004d4c:	1a71                	addi	s4,s4,-4
80004d4e:	000a2503          	lw	a0,0(s4)
80004d52:	85ca                	mv	a1,s2
80004d54:	00a53793          	sltiu	a5,a0,10
80004d58:	40f007b3          	neg	a5,a5
80004d5c:	fd97f793          	andi	a5,a5,-39
80004d60:	05778793          	addi	a5,a5,87
80004d64:	953e                	add	a0,a0,a5
80004d66:	9482                	jalr	s1
80004d68:	ff3a12e3          	bne	s4,s3,80004d4c <vprintfmt+0x1cc>
80004d6c:	13012b03          	lw	s6,304(sp)
80004d70:	bd91                	j	80004bc4 <vprintfmt+0x44>
80004d72:	13612823          	sw	s6,304(sp)
80004d76:	4785                	li	a5,1
80004d78:	0eb7cc63          	blt	a5,a1,80004e70 <vprintfmt+0x2f0>
80004d7c:	47b2                	lw	a5,12(sp)
80004d7e:	0007a983          	lw	s3,0(a5)
80004d82:	0791                	addi	a5,a5,4
80004d84:	c63e                	sw	a5,12(sp)
80004d86:	41f9d793          	srai	a5,s3,0x1f
80004d8a:	8cbe                	mv	s9,a5
80004d8c:	4ba9                	li	s7,10
80004d8e:	4d01                	li	s10,0
80004d90:	f407d9e3          	bgez	a5,80004ce2 <vprintfmt+0x162>
80004d94:	85ca                	mv	a1,s2
80004d96:	02d00513          	li	a0,45
80004d9a:	9482                	jalr	s1
80004d9c:	01303733          	snez	a4,s3
80004da0:	419007b3          	neg	a5,s9
80004da4:	40e78cb3          	sub	s9,a5,a4
80004da8:	413009b3          	neg	s3,s3
80004dac:	bf1d                	j	80004ce2 <vprintfmt+0x162>
80004dae:	00174683          	lbu	a3,1(a4)
80004db2:	0585                	addi	a1,a1,1
80004db4:	8722                	mv	a4,s0
80004db6:	b535                	j	80004be2 <vprintfmt+0x62>
80004db8:	13612823          	sw	s6,304(sp)
80004dbc:	4bc1                	li	s7,16
80004dbe:	4d01                	li	s10,0
80004dc0:	4785                	li	a5,1
80004dc2:	f0b7dae3          	bge	a5,a1,80004cd6 <vprintfmt+0x156>
80004dc6:	47b2                	lw	a5,12(sp)
80004dc8:	079d                	addi	a5,a5,7
80004dca:	9be1                	andi	a5,a5,-8
80004dcc:	00878713          	addi	a4,a5,8
80004dd0:	0007a983          	lw	s3,0(a5)
80004dd4:	0047ac83          	lw	s9,4(a5)
80004dd8:	c63a                	sw	a4,12(sp)
80004dda:	b721                	j	80004ce2 <vprintfmt+0x162>
80004ddc:	46b2                	lw	a3,12(sp)
80004dde:	47a2                	lw	a5,8(sp)
80004de0:	11b12e23          	sw	s11,284(sp)
80004de4:	0006aa03          	lw	s4,0(a3)
80004de8:	fd378793          	addi	a5,a5,-45
80004dec:	00f037b3          	snez	a5,a5
80004df0:	01802733          	sgtz	a4,s8
80004df4:	8f7d                	and	a4,a4,a5
80004df6:	00468d93          	addi	s11,a3,4
80004dfa:	080a0f63          	beqz	s4,80004e98 <vprintfmt+0x318>
80004dfe:	ef45                	bnez	a4,80004eb6 <vprintfmt+0x336>
80004e00:	000a4503          	lbu	a0,0(s4)
80004e04:	c115                	beqz	a0,80004e28 <vprintfmt+0x2a8>
80004e06:	13612823          	sw	s6,304(sp)
80004e0a:	5b7d                	li	s6,-1
80004e0c:	0009c563          	bltz	s3,80004e16 <vprintfmt+0x296>
80004e10:	19fd                	addi	s3,s3,-1 # 3fffffff <_start-0x40000001>
80004e12:	01698963          	beq	s3,s6,80004e24 <vprintfmt+0x2a4>
80004e16:	85ca                	mv	a1,s2
80004e18:	9482                	jalr	s1
80004e1a:	001a4503          	lbu	a0,1(s4)
80004e1e:	0a05                	addi	s4,s4,1
80004e20:	1c7d                	addi	s8,s8,-1
80004e22:	f56d                	bnez	a0,80004e0c <vprintfmt+0x28c>
80004e24:	13012b03          	lw	s6,304(sp)
80004e28:	01805963          	blez	s8,80004e3a <vprintfmt+0x2ba>
80004e2c:	85ca                	mv	a1,s2
80004e2e:	02000513          	li	a0,32
80004e32:	1c7d                	addi	s8,s8,-1
80004e34:	9482                	jalr	s1
80004e36:	fe0c1be3          	bnez	s8,80004e2c <vprintfmt+0x2ac>
80004e3a:	c66e                	sw	s11,12(sp)
80004e3c:	11c12d83          	lw	s11,284(sp)
80004e40:	b351                	j	80004bc4 <vprintfmt+0x44>
80004e42:	fffc4793          	not	a5,s8
80004e46:	87fd                	srai	a5,a5,0x1f
80004e48:	00174683          	lbu	a3,1(a4)
80004e4c:	00fc7c33          	and	s8,s8,a5
80004e50:	8722                	mv	a4,s0
80004e52:	bb41                	j	80004be2 <vprintfmt+0x62>
80004e54:	49b2                	lw	s3,12(sp)
80004e56:	85ca                	mv	a1,s2
80004e58:	0009a503          	lw	a0,0(s3)
80004e5c:	9482                	jalr	s1
80004e5e:	00498793          	addi	a5,s3,4
80004e62:	c63e                	sw	a5,12(sp)
80004e64:	b385                	j	80004bc4 <vprintfmt+0x44>
80004e66:	e979f7e3          	bgeu	s3,s7,80004cf4 <vprintfmt+0x174>
80004e6a:	4a01                	li	s4,0
80004e6c:	4b05                	li	s6,1
80004e6e:	bd75                	j	80004d2a <vprintfmt+0x1aa>
80004e70:	47b2                	lw	a5,12(sp)
80004e72:	079d                	addi	a5,a5,7
80004e74:	9be1                	andi	a5,a5,-8
80004e76:	00878713          	addi	a4,a5,8
80004e7a:	0007a983          	lw	s3,0(a5)
80004e7e:	c63a                	sw	a4,12(sp)
80004e80:	43dc                	lw	a5,4(a5)
80004e82:	b721                	j	80004d8a <vprintfmt+0x20a>
80004e84:	13612823          	sw	s6,304(sp)
80004e88:	4ba9                	li	s7,10
80004e8a:	4d01                	li	s10,0
80004e8c:	bf15                	j	80004dc0 <vprintfmt+0x240>
80004e8e:	13612823          	sw	s6,304(sp)
80004e92:	4ba1                	li	s7,8
80004e94:	4d01                	li	s10,0
80004e96:	b72d                	j	80004dc0 <vprintfmt+0x240>
80004e98:	eb19                	bnez	a4,80004eae <vprintfmt+0x32e>
80004e9a:	13612823          	sw	s6,304(sp)
80004e9e:	00001a17          	auipc	s4,0x1
80004ea2:	c32a0a13          	addi	s4,s4,-974 # 80005ad0 <main+0xd6>
80004ea6:	02800513          	li	a0,40
80004eaa:	5b7d                	li	s6,-1
80004eac:	b785                	j	80004e0c <vprintfmt+0x28c>
80004eae:	00001a17          	auipc	s4,0x1
80004eb2:	c22a0a13          	addi	s4,s4,-990 # 80005ad0 <main+0xd6>
80004eb6:	87d2                	mv	a5,s4
80004eb8:	013a06b3          	add	a3,s4,s3
80004ebc:	00099663          	bnez	s3,80004ec8 <vprintfmt+0x348>
80004ec0:	a829                	j	80004eda <vprintfmt+0x35a>
80004ec2:	0785                	addi	a5,a5,1
80004ec4:	00d78563          	beq	a5,a3,80004ece <vprintfmt+0x34e>
80004ec8:	0007c703          	lbu	a4,0(a5)
80004ecc:	fb7d                	bnez	a4,80004ec2 <vprintfmt+0x342>
80004ece:	414787b3          	sub	a5,a5,s4
80004ed2:	40fc0c33          	sub	s8,s8,a5
80004ed6:	01805863          	blez	s8,80004ee6 <vprintfmt+0x366>
80004eda:	4522                	lw	a0,8(sp)
80004edc:	85ca                	mv	a1,s2
80004ede:	1c7d                	addi	s8,s8,-1
80004ee0:	9482                	jalr	s1
80004ee2:	fe0c1ce3          	bnez	s8,80004eda <vprintfmt+0x35a>
80004ee6:	000a4503          	lbu	a0,0(s4)
80004eea:	d921                	beqz	a0,80004e3a <vprintfmt+0x2ba>
80004eec:	13612823          	sw	s6,304(sp)
80004ef0:	bf29                	j	80004e0a <vprintfmt+0x28a>
80004ef2:	8722                	mv	a4,s0
80004ef4:	bb71                	j	80004c90 <vprintfmt+0x110>

80004ef6 <sprintf_putch.0>:
80004ef6:	419c                	lw	a5,0(a1)
80004ef8:	00a78023          	sb	a0,0(a5)
80004efc:	419c                	lw	a5,0(a1)
80004efe:	0785                	addi	a5,a5,1
80004f00:	c19c                	sw	a5,0(a1)
80004f02:	8082                	ret

80004f04 <putchar>:
80004f04:	7175                	addi	sp,sp,-144
80004f06:	04f10613          	addi	a2,sp,79
80004f0a:	fc067613          	andi	a2,a2,-64
80004f0e:	04000713          	li	a4,64
80004f12:	c218                	sw	a4,0(a2)
80004f14:	4781                	li	a5,0
80004f16:	c25c                	sw	a5,4(a2)
80004f18:	4805                	li	a6,1
80004f1a:	01062423          	sw	a6,8(a2)
80004f1e:	4881                	li	a7,0
80004f20:	01162623          	sw	a7,12(a2)
80004f24:	00f10713          	addi	a4,sp,15
80004f28:	ca18                	sw	a4,16(a2)
80004f2a:	4781                	li	a5,0
80004f2c:	ca5c                	sw	a5,20(a2)
80004f2e:	01062c23          	sw	a6,24(a2)
80004f32:	00a107a3          	sb	a0,15(sp)
80004f36:	01162e23          	sw	a7,28(a2)
80004f3a:	0330000f          	fence	rw,rw
80004f3e:	ffffc697          	auipc	a3,0xffffc
80004f42:	0c268693          	addi	a3,a3,194 # 80001000 <tohost>
80004f46:	4781                	li	a5,0
80004f48:	c290                	sw	a2,0(a3)
80004f4a:	c2dc                	sw	a5,4(a3)
80004f4c:	4698                	lw	a4,8(a3)
80004f4e:	46dc                	lw	a5,12(a3)
80004f50:	8f5d                	or	a4,a4,a5
80004f52:	df6d                	beqz	a4,80004f4c <putchar+0x48>
80004f54:	0006a423          	sw	zero,8(a3)
80004f58:	0006a623          	sw	zero,12(a3)
80004f5c:	0330000f          	fence	rw,rw
80004f60:	4501                	li	a0,0
80004f62:	4218                	lw	a4,0(a2)
80004f64:	425c                	lw	a5,4(a2)
80004f66:	6149                	addi	sp,sp,144
80004f68:	8082                	ret

80004f6a <setStats>:
80004f6a:	b0002773          	csrr	a4,mcycle
80004f6e:	b9c18793          	addi	a5,gp,-1124 # 80005db4 <counters>
80004f72:	c511                	beqz	a0,80004f7e <setStats+0x14>
80004f74:	c398                	sw	a4,0(a5)
80004f76:	b0202773          	csrr	a4,minstret
80004f7a:	c3d8                	sw	a4,4(a5)
80004f7c:	8082                	ret
80004f7e:	4394                	lw	a3,0(a5)
80004f80:	00001617          	auipc	a2,0x1
80004f84:	b5860613          	addi	a2,a2,-1192 # 80005ad8 <main+0xde>
80004f88:	b8c1aa23          	sw	a2,-1132(gp) # 80005dac <counter_names>
80004f8c:	8f15                	sub	a4,a4,a3
80004f8e:	c398                	sw	a4,0(a5)
80004f90:	b0202773          	csrr	a4,minstret
80004f94:	43d4                	lw	a3,4(a5)
80004f96:	00001617          	auipc	a2,0x1
80004f9a:	b4a60613          	addi	a2,a2,-1206 # 80005ae0 <main+0xe6>
80004f9e:	b8c1ac23          	sw	a2,-1128(gp) # 80005db0 <counter_names+0x4>
80004fa2:	8f15                	sub	a4,a4,a3
80004fa4:	c3d8                	sw	a4,4(a5)
80004fa6:	8082                	ret

80004fa8 <tohost_exit>:
80004fa8:	00151693          	slli	a3,a0,0x1
80004fac:	0016e713          	ori	a4,a3,1
80004fb0:	ffffc697          	auipc	a3,0xffffc
80004fb4:	05068693          	addi	a3,a3,80 # 80001000 <tohost>
80004fb8:	4781                	li	a5,0
80004fba:	c298                	sw	a4,0(a3)
80004fbc:	c2dc                	sw	a5,4(a3)
80004fbe:	a001                	j	80004fbe <tohost_exit+0x16>

80004fc0 <handle_trap>:
80004fc0:	6605                	lui	a2,0x1
80004fc2:	ffffc797          	auipc	a5,0xffffc
80004fc6:	03e78793          	addi	a5,a5,62 # 80001000 <tohost>
80004fca:	a7360613          	addi	a2,a2,-1421 # a73 <_start-0x7ffff58d>
80004fce:	4681                	li	a3,0
80004fd0:	c390                	sw	a2,0(a5)
80004fd2:	c3d4                	sw	a3,4(a5)
80004fd4:	a001                	j	80004fd4 <handle_trap+0x14>

80004fd6 <exit>:
80004fd6:	1141                	addi	sp,sp,-16
80004fd8:	c606                	sw	ra,12(sp)
80004fda:	37f9                	jal	80004fa8 <tohost_exit>

80004fdc <abort>:
80004fdc:	ffffc797          	auipc	a5,0xffffc
80004fe0:	02478793          	addi	a5,a5,36 # 80001000 <tohost>
80004fe4:	10d00613          	li	a2,269
80004fe8:	4681                	li	a3,0
80004fea:	c390                	sw	a2,0(a5)
80004fec:	c3d4                	sw	a3,4(a5)
80004fee:	a001                	j	80004fee <abort+0x12>

80004ff0 <printstr>:
80004ff0:	00054783          	lbu	a5,0(a0)
80004ff4:	cfad                	beqz	a5,8000506e <printstr+0x7e>
80004ff6:	7175                	addi	sp,sp,-144
80004ff8:	03f10613          	addi	a2,sp,63
80004ffc:	fc067613          	andi	a2,a2,-64
80005000:	c722                	sw	s0,140(sp)
80005002:	c526                	sw	s1,136(sp)
80005004:	8e32                	mv	t3,a2
80005006:	4e81                	li	t4,0
80005008:	ffffc697          	auipc	a3,0xffffc
8000500c:	ff868693          	addi	a3,a3,-8 # 80001000 <tohost>
80005010:	04000f13          	li	t5,64
80005014:	4f81                	li	t6,0
80005016:	4305                	li	t1,1
80005018:	4381                	li	t2,0
8000501a:	01e62023          	sw	t5,0(a2)
8000501e:	01f62223          	sw	t6,4(a2)
80005022:	00662423          	sw	t1,8(a2)
80005026:	00762623          	sw	t2,12(a2)
8000502a:	ca08                	sw	a0,16(a2)
8000502c:	4881                	li	a7,0
8000502e:	01162a23          	sw	a7,20(a2)
80005032:	00662c23          	sw	t1,24(a2)
80005036:	00762e23          	sw	t2,28(a2)
8000503a:	0330000f          	fence	rw,rw
8000503e:	01c6a023          	sw	t3,0(a3)
80005042:	01d6a223          	sw	t4,4(a3)
80005046:	4698                	lw	a4,8(a3)
80005048:	46dc                	lw	a5,12(a3)
8000504a:	8f5d                	or	a4,a4,a5
8000504c:	df6d                	beqz	a4,80005046 <printstr+0x56>
8000504e:	0006a423          	sw	zero,8(a3)
80005052:	0006a623          	sw	zero,12(a3)
80005056:	0330000f          	fence	rw,rw
8000505a:	00154783          	lbu	a5,1(a0)
8000505e:	4200                	lw	s0,0(a2)
80005060:	4244                	lw	s1,4(a2)
80005062:	0505                	addi	a0,a0,1
80005064:	fbdd                	bnez	a5,8000501a <printstr+0x2a>
80005066:	443a                	lw	s0,140(sp)
80005068:	44aa                	lw	s1,136(sp)
8000506a:	6149                	addi	sp,sp,144
8000506c:	8082                	ret
8000506e:	8082                	ret
80005070:	e111                	bnez	a0,80005074 <printstr+0x84>
80005072:	8082                	ret
80005074:	a001                	j	80005074 <printstr+0x84>

80005076 <printhex>:
80005076:	7179                	addi	sp,sp,-48
80005078:	872a                	mv	a4,a0
8000507a:	d606                	sw	ra,44(sp)
8000507c:	0068                	addi	a0,sp,12
8000507e:	01b10613          	addi	a2,sp,27
80005082:	4825                	li	a6,9
80005084:	a011                	j	80005088 <printhex+0x12>
80005086:	167d                	addi	a2,a2,-1
80005088:	00f77693          	andi	a3,a4,15
8000508c:	00d837b3          	sltu	a5,a6,a3
80005090:	40f007b3          	neg	a5,a5
80005094:	0277f793          	andi	a5,a5,39
80005098:	03078793          	addi	a5,a5,48
8000509c:	96be                	add	a3,a3,a5
8000509e:	8311                	srli	a4,a4,0x4
800050a0:	01c59793          	slli	a5,a1,0x1c
800050a4:	00d60023          	sb	a3,0(a2)
800050a8:	973e                	add	a4,a4,a5
800050aa:	8191                	srli	a1,a1,0x4
800050ac:	fcc51de3          	bne	a0,a2,80005086 <printhex+0x10>
800050b0:	00010e23          	sb	zero,28(sp)
800050b4:	3f35                	jal	80004ff0 <printstr>
800050b6:	50b2                	lw	ra,44(sp)
800050b8:	6145                	addi	sp,sp,48
800050ba:	8082                	ret

800050bc <printf>:
800050bc:	7139                	addi	sp,sp,-64
800050be:	02410313          	addi	t1,sp,36
800050c2:	d22e                	sw	a1,36(sp)
800050c4:	d432                	sw	a2,40(sp)
800050c6:	d636                	sw	a3,44(sp)
800050c8:	862a                	mv	a2,a0
800050ca:	869a                	mv	a3,t1
800050cc:	00000517          	auipc	a0,0x0
800050d0:	e3850513          	addi	a0,a0,-456 # 80004f04 <putchar>
800050d4:	4581                	li	a1,0
800050d6:	ce06                	sw	ra,28(sp)
800050d8:	d83a                	sw	a4,48(sp)
800050da:	da3e                	sw	a5,52(sp)
800050dc:	dc42                	sw	a6,56(sp)
800050de:	de46                	sw	a7,60(sp)
800050e0:	c61a                	sw	t1,12(sp)
800050e2:	3c79                	jal	80004b80 <vprintfmt>
800050e4:	40f2                	lw	ra,28(sp)
800050e6:	4501                	li	a0,0
800050e8:	6121                	addi	sp,sp,64
800050ea:	8082                	ret

800050ec <sprintf>:
800050ec:	715d                	addi	sp,sp,-80
800050ee:	03810313          	addi	t1,sp,56
800050f2:	d422                	sw	s0,40(sp)
800050f4:	c62a                	sw	a0,12(sp)
800050f6:	dc32                	sw	a2,56(sp)
800050f8:	de36                	sw	a3,60(sp)
800050fa:	842a                	mv	s0,a0
800050fc:	862e                	mv	a2,a1
800050fe:	00000517          	auipc	a0,0x0
80005102:	df850513          	addi	a0,a0,-520 # 80004ef6 <sprintf_putch.0>
80005106:	006c                	addi	a1,sp,12
80005108:	869a                	mv	a3,t1
8000510a:	d606                	sw	ra,44(sp)
8000510c:	c2be                	sw	a5,68(sp)
8000510e:	c0ba                	sw	a4,64(sp)
80005110:	c4c2                	sw	a6,72(sp)
80005112:	c6c6                	sw	a7,76(sp)
80005114:	ce1a                	sw	t1,28(sp)
80005116:	34ad                	jal	80004b80 <vprintfmt>
80005118:	47b2                	lw	a5,12(sp)
8000511a:	00078023          	sb	zero,0(a5)
8000511e:	4532                	lw	a0,12(sp)
80005120:	50b2                	lw	ra,44(sp)
80005122:	8d01                	sub	a0,a0,s0
80005124:	5422                	lw	s0,40(sp)
80005126:	6161                	addi	sp,sp,80
80005128:	8082                	ret

8000512a <memcpy>:
8000512a:	00c5e7b3          	or	a5,a1,a2
8000512e:	8fc9                	or	a5,a5,a0
80005130:	8b8d                	andi	a5,a5,3
80005132:	83ae                	mv	t2,a1
80005134:	00c506b3          	add	a3,a0,a2
80005138:	cf91                	beqz	a5,80005154 <memcpy+0x2a>
8000513a:	962e                	add	a2,a2,a1
8000513c:	87aa                	mv	a5,a0
8000513e:	08d57963          	bgeu	a0,a3,800051d0 <memcpy+0xa6>
80005142:	0005c703          	lbu	a4,0(a1)
80005146:	0585                	addi	a1,a1,1
80005148:	0785                	addi	a5,a5,1
8000514a:	fee78fa3          	sb	a4,-1(a5)
8000514e:	fec59ae3          	bne	a1,a2,80005142 <memcpy+0x18>
80005152:	8082                	ret
80005154:	02050713          	addi	a4,a0,32
80005158:	06d77d63          	bgeu	a4,a3,800051d2 <memcpy+0xa8>
8000515c:	87ba                	mv	a5,a4
8000515e:	0005a283          	lw	t0,0(a1)
80005162:	0045af83          	lw	t6,4(a1)
80005166:	0085af03          	lw	t5,8(a1)
8000516a:	00c5ae83          	lw	t4,12(a1)
8000516e:	0105ae03          	lw	t3,16(a1)
80005172:	0145a303          	lw	t1,20(a1)
80005176:	0185a883          	lw	a7,24(a1)
8000517a:	01c5a803          	lw	a6,28(a1)
8000517e:	02078793          	addi	a5,a5,32
80005182:	fc57a023          	sw	t0,-64(a5)
80005186:	fdf7a223          	sw	t6,-60(a5)
8000518a:	fde7a423          	sw	t5,-56(a5)
8000518e:	fdd7a623          	sw	t4,-52(a5)
80005192:	fdc7a823          	sw	t3,-48(a5)
80005196:	fc67aa23          	sw	t1,-44(a5)
8000519a:	fd17ac23          	sw	a7,-40(a5)
8000519e:	fd07ae23          	sw	a6,-36(a5)
800051a2:	02058593          	addi	a1,a1,32
800051a6:	fad7ece3          	bltu	a5,a3,8000515e <memcpy+0x34>
800051aa:	fdf60613          	addi	a2,a2,-33
800051ae:	9a01                	andi	a2,a2,-32
800051b0:	02038393          	addi	t2,t2,32
800051b4:	00c707b3          	add	a5,a4,a2
800051b8:	00c385b3          	add	a1,t2,a2
800051bc:	f8d7fbe3          	bgeu	a5,a3,80005152 <memcpy+0x28>
800051c0:	4198                	lw	a4,0(a1)
800051c2:	0791                	addi	a5,a5,4
800051c4:	0591                	addi	a1,a1,4
800051c6:	fee7ae23          	sw	a4,-4(a5)
800051ca:	fed7ebe3          	bltu	a5,a3,800051c0 <memcpy+0x96>
800051ce:	8082                	ret
800051d0:	8082                	ret
800051d2:	87aa                	mv	a5,a0
800051d4:	b7e5                	j	800051bc <memcpy+0x92>

800051d6 <_init>:
800051d6:	7135                	addi	sp,sp,-160
800051d8:	ba418793          	addi	a5,gp,-1116 # 80005dbc <_end>
800051dc:	cb26                	sw	s1,148(sp)
800051de:	ba418493          	addi	s1,gp,-1116 # 80005dbc <_end>
800051e2:	c74e                	sw	s3,140(sp)
800051e4:	40f489b3          	sub	s3,s1,a5
800051e8:	c552                	sw	s4,136(sp)
800051ea:	c356                	sw	s5,132(sp)
800051ec:	864e                	mv	a2,s3
800051ee:	8a2a                	mv	s4,a0
800051f0:	8aae                	mv	s5,a1
800051f2:	8512                	mv	a0,tp
800051f4:	85be                	mv	a1,a5
800051f6:	cd22                	sw	s0,152(sp)
800051f8:	c94a                	sw	s2,144(sp)
800051fa:	8412                	mv	s0,tp
800051fc:	cf06                	sw	ra,156(sp)
800051fe:	3735                	jal	8000512a <memcpy>
80005200:	ba418793          	addi	a5,gp,-1116 # 80005dbc <_end>
80005204:	01340633          	add	a2,s0,s3
80005208:	8f85                	sub	a5,a5,s1
8000520a:	00f66733          	or	a4,a2,a5
8000520e:	03f10913          	addi	s2,sp,63
80005212:	8b0d                	andi	a4,a4,3
80005214:	fc097913          	andi	s2,s2,-64
80005218:	97b2                	add	a5,a5,a2
8000521a:	cf21                	beqz	a4,80005272 <_init+0x9c>
8000521c:	00f67763          	bgeu	a2,a5,8000522a <_init+0x54>
80005220:	0605                	addi	a2,a2,1
80005222:	fe060fa3          	sb	zero,-1(a2)
80005226:	fef61de3          	bne	a2,a5,80005220 <_init+0x4a>
8000522a:	85d6                	mv	a1,s5
8000522c:	8552                	mv	a0,s4
8000522e:	d14ff0ef          	jal	80004742 <thread_entry>
80005232:	4581                	li	a1,0
80005234:	4501                	li	a0,0
80005236:	27d1                	jal	800059fa <main>
80005238:	8aaa                	mv	s5,a0
8000523a:	89ca                	mv	s3,s2
8000523c:	b9c18413          	addi	s0,gp,-1124 # 80005db4 <counters>
80005240:	b9418493          	addi	s1,gp,-1132 # 80005dac <counter_names>
80005244:	ba418a13          	addi	s4,gp,-1116 # 80005dbc <_end>
80005248:	4014                	lw	a3,0(s0)
8000524a:	ea99                	bnez	a3,80005260 <_init+0x8a>
8000524c:	0411                	addi	s0,s0,4
8000524e:	0491                	addi	s1,s1,4
80005250:	ff441ce3          	bne	s0,s4,80005248 <_init+0x72>
80005254:	01298463          	beq	s3,s2,8000525c <_init+0x86>
80005258:	854a                	mv	a0,s2
8000525a:	3b59                	jal	80004ff0 <printstr>
8000525c:	8556                	mv	a0,s5
8000525e:	33a9                	jal	80004fa8 <tohost_exit>
80005260:	4090                	lw	a2,0(s1)
80005262:	854e                	mv	a0,s3
80005264:	00001597          	auipc	a1,0x1
80005268:	8a058593          	addi	a1,a1,-1888 # 80005b04 <main+0x10a>
8000526c:	3541                	jal	800050ec <sprintf>
8000526e:	99aa                	add	s3,s3,a0
80005270:	bff1                	j	8000524c <_init+0x76>
80005272:	faf67ce3          	bgeu	a2,a5,8000522a <_init+0x54>
80005276:	0611                	addi	a2,a2,4
80005278:	fe062e23          	sw	zero,-4(a2)
8000527c:	faf677e3          	bgeu	a2,a5,8000522a <_init+0x54>
80005280:	0611                	addi	a2,a2,4
80005282:	fe062e23          	sw	zero,-4(a2)
80005286:	fef668e3          	bltu	a2,a5,80005276 <_init+0xa0>
8000528a:	b745                	j	8000522a <_init+0x54>

8000528c <memset>:
8000528c:	00c567b3          	or	a5,a0,a2
80005290:	8b8d                	andi	a5,a5,3
80005292:	962a                	add	a2,a2,a0
80005294:	cb91                	beqz	a5,800052a8 <memset+0x1c>
80005296:	87aa                	mv	a5,a0
80005298:	02c57963          	bgeu	a0,a2,800052ca <memset+0x3e>
8000529c:	0785                	addi	a5,a5,1
8000529e:	feb78fa3          	sb	a1,-1(a5)
800052a2:	fec79de3          	bne	a5,a2,8000529c <memset+0x10>
800052a6:	8082                	ret
800052a8:	fec57fe3          	bgeu	a0,a2,800052a6 <memset+0x1a>
800052ac:	0ff5f593          	zext.b	a1,a1
800052b0:	00859713          	slli	a4,a1,0x8
800052b4:	972e                	add	a4,a4,a1
800052b6:	01071793          	slli	a5,a4,0x10
800052ba:	973e                	add	a4,a4,a5
800052bc:	87aa                	mv	a5,a0
800052be:	0791                	addi	a5,a5,4
800052c0:	fee7ae23          	sw	a4,-4(a5)
800052c4:	fec7ede3          	bltu	a5,a2,800052be <memset+0x32>
800052c8:	8082                	ret
800052ca:	8082                	ret

800052cc <strlen>:
800052cc:	00054783          	lbu	a5,0(a0)
800052d0:	cb89                	beqz	a5,800052e2 <strlen+0x16>
800052d2:	87aa                	mv	a5,a0
800052d4:	0017c703          	lbu	a4,1(a5)
800052d8:	0785                	addi	a5,a5,1
800052da:	ff6d                	bnez	a4,800052d4 <strlen+0x8>
800052dc:	40a78533          	sub	a0,a5,a0
800052e0:	8082                	ret
800052e2:	4501                	li	a0,0
800052e4:	8082                	ret

800052e6 <strnlen>:
800052e6:	00b506b3          	add	a3,a0,a1
800052ea:	87aa                	mv	a5,a0
800052ec:	e589                	bnez	a1,800052f6 <strnlen+0x10>
800052ee:	a811                	j	80005302 <strnlen+0x1c>
800052f0:	0785                	addi	a5,a5,1
800052f2:	00d78563          	beq	a5,a3,800052fc <strnlen+0x16>
800052f6:	0007c703          	lbu	a4,0(a5)
800052fa:	fb7d                	bnez	a4,800052f0 <strnlen+0xa>
800052fc:	40a78533          	sub	a0,a5,a0
80005300:	8082                	ret
80005302:	4501                	li	a0,0
80005304:	8082                	ret

80005306 <strcmp>:
80005306:	86aa                	mv	a3,a0
80005308:	0006c783          	lbu	a5,0(a3)
8000530c:	0005c603          	lbu	a2,0(a1)
80005310:	0685                	addi	a3,a3,1
80005312:	00f03733          	snez	a4,a5
80005316:	40c78533          	sub	a0,a5,a2
8000531a:	00153793          	seqz	a5,a0
8000531e:	8ff9                	and	a5,a5,a4
80005320:	0585                	addi	a1,a1,1
80005322:	f3fd                	bnez	a5,80005308 <strcmp+0x2>
80005324:	8082                	ret

80005326 <strcpy>:
80005326:	87aa                	mv	a5,a0
80005328:	0005c703          	lbu	a4,0(a1)
8000532c:	0585                	addi	a1,a1,1
8000532e:	0785                	addi	a5,a5,1
80005330:	fee78fa3          	sb	a4,-1(a5)
80005334:	fb75                	bnez	a4,80005328 <strcpy+0x2>
80005336:	8082                	ret

80005338 <atol>:
80005338:	00054703          	lbu	a4,0(a0)
8000533c:	02000693          	li	a3,32
80005340:	87aa                	mv	a5,a0
80005342:	00d71763          	bne	a4,a3,80005350 <atol+0x18>
80005346:	0017c703          	lbu	a4,1(a5)
8000534a:	0785                	addi	a5,a5,1
8000534c:	fed70de3          	beq	a4,a3,80005346 <atol+0xe>
80005350:	fd570693          	addi	a3,a4,-43
80005354:	0fd6f693          	andi	a3,a3,253
80005358:	ea95                	bnez	a3,8000538c <atol+0x54>
8000535a:	0017c683          	lbu	a3,1(a5)
8000535e:	fd370713          	addi	a4,a4,-45
80005362:	00173613          	seqz	a2,a4
80005366:	ca8d                	beqz	a3,80005398 <atol+0x60>
80005368:	0785                	addi	a5,a5,1
8000536a:	4501                	li	a0,0
8000536c:	0785                	addi	a5,a5,1
8000536e:	fd068593          	addi	a1,a3,-48
80005372:	00251713          	slli	a4,a0,0x2
80005376:	0007c683          	lbu	a3,0(a5)
8000537a:	972a                	add	a4,a4,a0
8000537c:	0706                	slli	a4,a4,0x1
8000537e:	00e58533          	add	a0,a1,a4
80005382:	f6ed                	bnez	a3,8000536c <atol+0x34>
80005384:	c219                	beqz	a2,8000538a <atol+0x52>
80005386:	40a00533          	neg	a0,a0
8000538a:	8082                	ret
8000538c:	0007c683          	lbu	a3,0(a5)
80005390:	4601                	li	a2,0
80005392:	fee1                	bnez	a3,8000536a <atol+0x32>
80005394:	4501                	li	a0,0
80005396:	8082                	ret
80005398:	4501                	li	a0,0
8000539a:	b7ed                	j	80005384 <atol+0x4c>

8000539c <__floatundidf>:
8000539c:	d2158553          	fcvt.d.wu	fa0,a1
800053a0:	d21507d3          	fcvt.d.wu	fa5,a0
800053a4:	8101b707          	fld	fa4,-2032(gp) # 80005a28 <main+0x2e>
800053a8:	7ae57543          	fmadd.d	fa0,fa0,fa4,fa5
800053ac:	8082                	ret

800053ae <__udivdi3>:
800053ae:	8732                	mv	a4,a2
800053b0:	88b6                	mv	a7,a3
800053b2:	882a                	mv	a6,a0
800053b4:	832e                	mv	t1,a1
800053b6:	1c069163          	bnez	a3,80005578 <__udivdi3+0x1ca>
800053ba:	a5018793          	addi	a5,gp,-1456 # 80005c68 <__clz_tab>
800053be:	0ac5fb63          	bgeu	a1,a2,80005474 <__udivdi3+0xc6>
800053c2:	66c1                	lui	a3,0x10
800053c4:	08d67e63          	bgeu	a2,a3,80005460 <__udivdi3+0xb2>
800053c8:	10063693          	sltiu	a3,a2,256
800053cc:	0016b693          	seqz	a3,a3
800053d0:	068e                	slli	a3,a3,0x3
800053d2:	00d65e33          	srl	t3,a2,a3
800053d6:	97f2                	add	a5,a5,t3
800053d8:	0007c783          	lbu	a5,0(a5)
800053dc:	97b6                	add	a5,a5,a3
800053de:	02000693          	li	a3,32
800053e2:	00d78d63          	beq	a5,a3,800053fc <__udivdi3+0x4e>
800053e6:	8e9d                	sub	a3,a3,a5
800053e8:	00d59333          	sll	t1,a1,a3
800053ec:	00f557b3          	srl	a5,a0,a5
800053f0:	00d61733          	sll	a4,a2,a3
800053f4:	0067e333          	or	t1,a5,t1
800053f8:	00d51833          	sll	a6,a0,a3
800053fc:	01075513          	srli	a0,a4,0x10
80005400:	02a357b3          	divu	a5,t1,a0
80005404:	01071593          	slli	a1,a4,0x10
80005408:	81c1                	srli	a1,a1,0x10
8000540a:	01085693          	srli	a3,a6,0x10
8000540e:	02a37333          	remu	t1,t1,a0
80005412:	02f58633          	mul	a2,a1,a5
80005416:	0342                	slli	t1,t1,0x10
80005418:	0066e6b3          	or	a3,a3,t1
8000541c:	00c6f863          	bgeu	a3,a2,8000542c <__udivdi3+0x7e>
80005420:	96ba                	add	a3,a3,a4
80005422:	00c6f463          	bgeu	a3,a2,8000542a <__udivdi3+0x7c>
80005426:	04e6f463          	bgeu	a3,a4,8000546e <__udivdi3+0xc0>
8000542a:	17fd                	addi	a5,a5,-1
8000542c:	8e91                	sub	a3,a3,a2
8000542e:	02a6d633          	divu	a2,a3,a0
80005432:	0842                	slli	a6,a6,0x10
80005434:	01085813          	srli	a6,a6,0x10
80005438:	02a6f6b3          	remu	a3,a3,a0
8000543c:	02c585b3          	mul	a1,a1,a2
80005440:	06c2                	slli	a3,a3,0x10
80005442:	00d86833          	or	a6,a6,a3
80005446:	00b87863          	bgeu	a6,a1,80005456 <__udivdi3+0xa8>
8000544a:	983a                	add	a6,a6,a4
8000544c:	00b87463          	bgeu	a6,a1,80005454 <__udivdi3+0xa6>
80005450:	12e87263          	bgeu	a6,a4,80005574 <__udivdi3+0x1c6>
80005454:	167d                	addi	a2,a2,-1
80005456:	07c2                	slli	a5,a5,0x10
80005458:	8fd1                	or	a5,a5,a2
8000545a:	853e                	mv	a0,a5
8000545c:	85c6                	mv	a1,a7
8000545e:	8082                	ret
80005460:	01000e37          	lui	t3,0x1000
80005464:	46e1                	li	a3,24
80005466:	f7c676e3          	bgeu	a2,t3,800053d2 <__udivdi3+0x24>
8000546a:	46c1                	li	a3,16
8000546c:	b79d                	j	800053d2 <__udivdi3+0x24>
8000546e:	17f9                	addi	a5,a5,-2
80005470:	96ba                	add	a3,a3,a4
80005472:	bf6d                	j	8000542c <__udivdi3+0x7e>
80005474:	4681                	li	a3,0
80005476:	ca09                	beqz	a2,80005488 <__udivdi3+0xda>
80005478:	66c1                	lui	a3,0x10
8000547a:	04d67e63          	bgeu	a2,a3,800054d6 <__udivdi3+0x128>
8000547e:	10063693          	sltiu	a3,a2,256
80005482:	0016b693          	seqz	a3,a3
80005486:	068e                	slli	a3,a3,0x3
80005488:	00d658b3          	srl	a7,a2,a3
8000548c:	97c6                	add	a5,a5,a7
8000548e:	0007c783          	lbu	a5,0(a5)
80005492:	97b6                	add	a5,a5,a3
80005494:	02000693          	li	a3,32
80005498:	04d79663          	bne	a5,a3,800054e4 <__udivdi3+0x136>
8000549c:	40c58633          	sub	a2,a1,a2
800054a0:	4885                	li	a7,1
800054a2:	01075513          	srli	a0,a4,0x10
800054a6:	02a657b3          	divu	a5,a2,a0
800054aa:	01071593          	slli	a1,a4,0x10
800054ae:	81c1                	srli	a1,a1,0x10
800054b0:	01085693          	srli	a3,a6,0x10
800054b4:	02a67633          	remu	a2,a2,a0
800054b8:	02f58333          	mul	t1,a1,a5
800054bc:	0642                	slli	a2,a2,0x10
800054be:	8ed1                	or	a3,a3,a2
800054c0:	0066f863          	bgeu	a3,t1,800054d0 <__udivdi3+0x122>
800054c4:	96ba                	add	a3,a3,a4
800054c6:	0066f463          	bgeu	a3,t1,800054ce <__udivdi3+0x120>
800054ca:	0ae6f263          	bgeu	a3,a4,8000556e <__udivdi3+0x1c0>
800054ce:	17fd                	addi	a5,a5,-1
800054d0:	406686b3          	sub	a3,a3,t1
800054d4:	bfa9                	j	8000542e <__udivdi3+0x80>
800054d6:	010008b7          	lui	a7,0x1000
800054da:	46e1                	li	a3,24
800054dc:	fb1676e3          	bgeu	a2,a7,80005488 <__udivdi3+0xda>
800054e0:	46c1                	li	a3,16
800054e2:	b75d                	j	80005488 <__udivdi3+0xda>
800054e4:	40f68833          	sub	a6,a3,a5
800054e8:	01061733          	sll	a4,a2,a6
800054ec:	00f5d6b3          	srl	a3,a1,a5
800054f0:	010595b3          	sll	a1,a1,a6
800054f4:	00f557b3          	srl	a5,a0,a5
800054f8:	01051833          	sll	a6,a0,a6
800054fc:	01075513          	srli	a0,a4,0x10
80005500:	02a6d8b3          	divu	a7,a3,a0
80005504:	01071613          	slli	a2,a4,0x10
80005508:	8241                	srli	a2,a2,0x10
8000550a:	8fcd                	or	a5,a5,a1
8000550c:	02a6f6b3          	remu	a3,a3,a0
80005510:	03160333          	mul	t1,a2,a7
80005514:	01069593          	slli	a1,a3,0x10
80005518:	0107d693          	srli	a3,a5,0x10
8000551c:	8ecd                	or	a3,a3,a1
8000551e:	0066f863          	bgeu	a3,t1,8000552e <__udivdi3+0x180>
80005522:	96ba                	add	a3,a3,a4
80005524:	0066f463          	bgeu	a3,t1,8000552c <__udivdi3+0x17e>
80005528:	02e6fd63          	bgeu	a3,a4,80005562 <__udivdi3+0x1b4>
8000552c:	18fd                	addi	a7,a7,-1 # ffffff <_start-0x7f000001>
8000552e:	406686b3          	sub	a3,a3,t1
80005532:	02a6d5b3          	divu	a1,a3,a0
80005536:	07c2                	slli	a5,a5,0x10
80005538:	83c1                	srli	a5,a5,0x10
8000553a:	02a6f6b3          	remu	a3,a3,a0
8000553e:	02b60633          	mul	a2,a2,a1
80005542:	06c2                	slli	a3,a3,0x10
80005544:	8fd5                	or	a5,a5,a3
80005546:	00c7f863          	bgeu	a5,a2,80005556 <__udivdi3+0x1a8>
8000554a:	97ba                	add	a5,a5,a4
8000554c:	00c7f463          	bgeu	a5,a2,80005554 <__udivdi3+0x1a6>
80005550:	00e7fc63          	bgeu	a5,a4,80005568 <__udivdi3+0x1ba>
80005554:	15fd                	addi	a1,a1,-1
80005556:	08c2                	slli	a7,a7,0x10
80005558:	40c78633          	sub	a2,a5,a2
8000555c:	00b8e8b3          	or	a7,a7,a1
80005560:	b789                	j	800054a2 <__udivdi3+0xf4>
80005562:	18f9                	addi	a7,a7,-2
80005564:	96ba                	add	a3,a3,a4
80005566:	b7e1                	j	8000552e <__udivdi3+0x180>
80005568:	15f9                	addi	a1,a1,-2
8000556a:	97ba                	add	a5,a5,a4
8000556c:	b7ed                	j	80005556 <__udivdi3+0x1a8>
8000556e:	17f9                	addi	a5,a5,-2
80005570:	96ba                	add	a3,a3,a4
80005572:	bfb9                	j	800054d0 <__udivdi3+0x122>
80005574:	1679                	addi	a2,a2,-2
80005576:	b5c5                	j	80005456 <__udivdi3+0xa8>
80005578:	12d5e963          	bltu	a1,a3,800056aa <__udivdi3+0x2fc>
8000557c:	67c1                	lui	a5,0x10
8000557e:	02f6fc63          	bgeu	a3,a5,800055b6 <__udivdi3+0x208>
80005582:	1006b793          	sltiu	a5,a3,256
80005586:	0017b793          	seqz	a5,a5
8000558a:	078e                	slli	a5,a5,0x3
8000558c:	00f6d833          	srl	a6,a3,a5
80005590:	a5018713          	addi	a4,gp,-1456 # 80005c68 <__clz_tab>
80005594:	9742                	add	a4,a4,a6
80005596:	00074703          	lbu	a4,0(a4)
8000559a:	02000813          	li	a6,32
8000559e:	973e                	add	a4,a4,a5
800055a0:	03071263          	bne	a4,a6,800055c4 <__udivdi3+0x216>
800055a4:	00c537b3          	sltu	a5,a0,a2
800055a8:	0017b793          	seqz	a5,a5
800055ac:	00b6b6b3          	sltu	a3,a3,a1
800055b0:	8fd5                	or	a5,a5,a3
800055b2:	4881                	li	a7,0
800055b4:	b55d                	j	8000545a <__udivdi3+0xac>
800055b6:	01000737          	lui	a4,0x1000
800055ba:	47e1                	li	a5,24
800055bc:	fce6f8e3          	bgeu	a3,a4,8000558c <__udivdi3+0x1de>
800055c0:	47c1                	li	a5,16
800055c2:	b7e9                	j	8000558c <__udivdi3+0x1de>
800055c4:	40e80833          	sub	a6,a6,a4
800055c8:	00e658b3          	srl	a7,a2,a4
800055cc:	010696b3          	sll	a3,a3,a6
800055d0:	00d8e8b3          	or	a7,a7,a3
800055d4:	0108de13          	srli	t3,a7,0x10
800055d8:	00e5d6b3          	srl	a3,a1,a4
800055dc:	03c6d7b3          	divu	a5,a3,t3
800055e0:	01089313          	slli	t1,a7,0x10
800055e4:	01035313          	srli	t1,t1,0x10
800055e8:	010595b3          	sll	a1,a1,a6
800055ec:	00e55733          	srl	a4,a0,a4
800055f0:	8f4d                	or	a4,a4,a1
800055f2:	01061633          	sll	a2,a2,a6
800055f6:	03c6f6b3          	remu	a3,a3,t3
800055fa:	02f30eb3          	mul	t4,t1,a5
800055fe:	01069593          	slli	a1,a3,0x10
80005602:	01075693          	srli	a3,a4,0x10
80005606:	8ecd                	or	a3,a3,a1
80005608:	01d6f863          	bgeu	a3,t4,80005618 <__udivdi3+0x26a>
8000560c:	96c6                	add	a3,a3,a7
8000560e:	01d6f463          	bgeu	a3,t4,80005616 <__udivdi3+0x268>
80005612:	0916f663          	bgeu	a3,a7,8000569e <__udivdi3+0x2f0>
80005616:	17fd                	addi	a5,a5,-1 # ffff <_start-0x7fff0001>
80005618:	41d686b3          	sub	a3,a3,t4
8000561c:	03c6d5b3          	divu	a1,a3,t3
80005620:	0742                	slli	a4,a4,0x10
80005622:	8341                	srli	a4,a4,0x10
80005624:	03c6f6b3          	remu	a3,a3,t3
80005628:	02b30333          	mul	t1,t1,a1
8000562c:	06c2                	slli	a3,a3,0x10
8000562e:	8f55                	or	a4,a4,a3
80005630:	00677863          	bgeu	a4,t1,80005640 <__udivdi3+0x292>
80005634:	9746                	add	a4,a4,a7
80005636:	00677463          	bgeu	a4,t1,8000563e <__udivdi3+0x290>
8000563a:	07177563          	bgeu	a4,a7,800056a4 <__udivdi3+0x2f6>
8000563e:	15fd                	addi	a1,a1,-1
80005640:	07c2                	slli	a5,a5,0x10
80005642:	8fcd                	or	a5,a5,a1
80005644:	40670733          	sub	a4,a4,t1
80005648:	05c2                	slli	a1,a1,0x10
8000564a:	01061313          	slli	t1,a2,0x10
8000564e:	81c1                	srli	a1,a1,0x10
80005650:	0107d893          	srli	a7,a5,0x10
80005654:	01035313          	srli	t1,t1,0x10
80005658:	8241                	srli	a2,a2,0x10
8000565a:	02658e33          	mul	t3,a1,t1
8000565e:	02688333          	mul	t1,a7,t1
80005662:	010e5693          	srli	a3,t3,0x10
80005666:	02c585b3          	mul	a1,a1,a2
8000566a:	02c888b3          	mul	a7,a7,a2
8000566e:	959a                	add	a1,a1,t1
80005670:	96ae                	add	a3,a3,a1
80005672:	0066f463          	bgeu	a3,t1,8000567a <__udivdi3+0x2cc>
80005676:	6641                	lui	a2,0x10
80005678:	98b2                	add	a7,a7,a2
8000567a:	0106d613          	srli	a2,a3,0x10
8000567e:	9646                	add	a2,a2,a7
80005680:	00c76d63          	bltu	a4,a2,8000569a <__udivdi3+0x2ec>
80005684:	0e42                	slli	t3,t3,0x10
80005686:	06c2                	slli	a3,a3,0x10
80005688:	010e5e13          	srli	t3,t3,0x10
8000568c:	01051533          	sll	a0,a0,a6
80005690:	96f2                	add	a3,a3,t3
80005692:	f2d570e3          	bgeu	a0,a3,800055b2 <__udivdi3+0x204>
80005696:	f0c71ee3          	bne	a4,a2,800055b2 <__udivdi3+0x204>
8000569a:	17fd                	addi	a5,a5,-1
8000569c:	bf19                	j	800055b2 <__udivdi3+0x204>
8000569e:	17f9                	addi	a5,a5,-2
800056a0:	96c6                	add	a3,a3,a7
800056a2:	bf9d                	j	80005618 <__udivdi3+0x26a>
800056a4:	15f9                	addi	a1,a1,-2
800056a6:	9746                	add	a4,a4,a7
800056a8:	bf61                	j	80005640 <__udivdi3+0x292>
800056aa:	4881                	li	a7,0
800056ac:	4781                	li	a5,0
800056ae:	b375                	j	8000545a <__udivdi3+0xac>

800056b0 <__umoddi3>:
800056b0:	8832                	mv	a6,a2
800056b2:	87aa                	mv	a5,a0
800056b4:	872e                	mv	a4,a1
800056b6:	1c069e63          	bnez	a3,80005892 <__umoddi3+0x1e2>
800056ba:	a5018693          	addi	a3,gp,-1456 # 80005c68 <__clz_tab>
800056be:	0cc5f263          	bgeu	a1,a2,80005782 <__umoddi3+0xd2>
800056c2:	68c1                	lui	a7,0x10
800056c4:	0b167863          	bgeu	a2,a7,80005774 <__umoddi3+0xc4>
800056c8:	10063893          	sltiu	a7,a2,256
800056cc:	0018b893          	seqz	a7,a7
800056d0:	088e                	slli	a7,a7,0x3
800056d2:	01165333          	srl	t1,a2,a7
800056d6:	969a                	add	a3,a3,t1
800056d8:	0006c683          	lbu	a3,0(a3) # 10000 <_start-0x7fff0000>
800056dc:	02000313          	li	t1,32
800056e0:	96c6                	add	a3,a3,a7
800056e2:	40d308b3          	sub	a7,t1,a3
800056e6:	00668b63          	beq	a3,t1,800056fc <__umoddi3+0x4c>
800056ea:	01159733          	sll	a4,a1,a7
800056ee:	00d556b3          	srl	a3,a0,a3
800056f2:	01161833          	sll	a6,a2,a7
800056f6:	8f55                	or	a4,a4,a3
800056f8:	011517b3          	sll	a5,a0,a7
800056fc:	01085513          	srli	a0,a6,0x10
80005700:	02a756b3          	divu	a3,a4,a0
80005704:	01081313          	slli	t1,a6,0x10
80005708:	01035313          	srli	t1,t1,0x10
8000570c:	02a77733          	remu	a4,a4,a0
80005710:	026686b3          	mul	a3,a3,t1
80005714:	01071593          	slli	a1,a4,0x10
80005718:	0107d713          	srli	a4,a5,0x10
8000571c:	8f4d                	or	a4,a4,a1
8000571e:	00d77d63          	bgeu	a4,a3,80005738 <__umoddi3+0x88>
80005722:	9742                	add	a4,a4,a6
80005724:	010735b3          	sltu	a1,a4,a6
80005728:	00d73633          	sltu	a2,a4,a3
8000572c:	0015b593          	seqz	a1,a1
80005730:	8e6d                	and	a2,a2,a1
80005732:	03060633          	mul	a2,a2,a6
80005736:	9732                	add	a4,a4,a2
80005738:	8f15                	sub	a4,a4,a3
8000573a:	02a756b3          	divu	a3,a4,a0
8000573e:	02a77733          	remu	a4,a4,a0
80005742:	026686b3          	mul	a3,a3,t1
80005746:	01079513          	slli	a0,a5,0x10
8000574a:	0742                	slli	a4,a4,0x10
8000574c:	8141                	srli	a0,a0,0x10
8000574e:	8d59                	or	a0,a0,a4
80005750:	00d57d63          	bgeu	a0,a3,8000576a <__umoddi3+0xba>
80005754:	9542                	add	a0,a0,a6
80005756:	01053733          	sltu	a4,a0,a6
8000575a:	00d537b3          	sltu	a5,a0,a3
8000575e:	00173713          	seqz	a4,a4
80005762:	8ff9                	and	a5,a5,a4
80005764:	030787b3          	mul	a5,a5,a6
80005768:	953e                	add	a0,a0,a5
8000576a:	8d15                	sub	a0,a0,a3
8000576c:	01155533          	srl	a0,a0,a7
80005770:	4581                	li	a1,0
80005772:	8082                	ret
80005774:	01000337          	lui	t1,0x1000
80005778:	48e1                	li	a7,24
8000577a:	f4667ce3          	bgeu	a2,t1,800056d2 <__umoddi3+0x22>
8000577e:	48c1                	li	a7,16
80005780:	bf89                	j	800056d2 <__umoddi3+0x22>
80005782:	4701                	li	a4,0
80005784:	ca09                	beqz	a2,80005796 <__umoddi3+0xe6>
80005786:	6741                	lui	a4,0x10
80005788:	06e67a63          	bgeu	a2,a4,800057fc <__umoddi3+0x14c>
8000578c:	10063713          	sltiu	a4,a2,256
80005790:	00173713          	seqz	a4,a4
80005794:	070e                	slli	a4,a4,0x3
80005796:	00e658b3          	srl	a7,a2,a4
8000579a:	96c6                	add	a3,a3,a7
8000579c:	0006c683          	lbu	a3,0(a3)
800057a0:	96ba                	add	a3,a3,a4
800057a2:	02000713          	li	a4,32
800057a6:	40d708b3          	sub	a7,a4,a3
800057aa:	06e69063          	bne	a3,a4,8000580a <__umoddi3+0x15a>
800057ae:	40c586b3          	sub	a3,a1,a2
800057b2:	01085593          	srli	a1,a6,0x10
800057b6:	02b6d633          	divu	a2,a3,a1
800057ba:	01081313          	slli	t1,a6,0x10
800057be:	01035313          	srli	t1,t1,0x10
800057c2:	0107d713          	srli	a4,a5,0x10
800057c6:	02b6f6b3          	remu	a3,a3,a1
800057ca:	02660633          	mul	a2,a2,t1
800057ce:	06c2                	slli	a3,a3,0x10
800057d0:	8f55                	or	a4,a4,a3
800057d2:	00c77d63          	bgeu	a4,a2,800057ec <__umoddi3+0x13c>
800057d6:	9742                	add	a4,a4,a6
800057d8:	01073533          	sltu	a0,a4,a6
800057dc:	00c736b3          	sltu	a3,a4,a2
800057e0:	00153513          	seqz	a0,a0
800057e4:	8ee9                	and	a3,a3,a0
800057e6:	030686b3          	mul	a3,a3,a6
800057ea:	9736                	add	a4,a4,a3
800057ec:	8f11                	sub	a4,a4,a2
800057ee:	02b756b3          	divu	a3,a4,a1
800057f2:	02b77733          	remu	a4,a4,a1
800057f6:	026686b3          	mul	a3,a3,t1
800057fa:	b7b1                	j	80005746 <__umoddi3+0x96>
800057fc:	010008b7          	lui	a7,0x1000
80005800:	4761                	li	a4,24
80005802:	f9167ae3          	bgeu	a2,a7,80005796 <__umoddi3+0xe6>
80005806:	4741                	li	a4,16
80005808:	b779                	j	80005796 <__umoddi3+0xe6>
8000580a:	01161833          	sll	a6,a2,a7
8000580e:	00d5d733          	srl	a4,a1,a3
80005812:	011517b3          	sll	a5,a0,a7
80005816:	011595b3          	sll	a1,a1,a7
8000581a:	00d556b3          	srl	a3,a0,a3
8000581e:	01085513          	srli	a0,a6,0x10
80005822:	8ecd                	or	a3,a3,a1
80005824:	02a755b3          	divu	a1,a4,a0
80005828:	01081e13          	slli	t3,a6,0x10
8000582c:	010e5e13          	srli	t3,t3,0x10
80005830:	02a77733          	remu	a4,a4,a0
80005834:	03c585b3          	mul	a1,a1,t3
80005838:	01071613          	slli	a2,a4,0x10
8000583c:	0106d713          	srli	a4,a3,0x10
80005840:	8f51                	or	a4,a4,a2
80005842:	00b77e63          	bgeu	a4,a1,8000585e <__umoddi3+0x1ae>
80005846:	9742                	add	a4,a4,a6
80005848:	01073333          	sltu	t1,a4,a6
8000584c:	00b73633          	sltu	a2,a4,a1
80005850:	00133313          	seqz	t1,t1
80005854:	00667633          	and	a2,a2,t1
80005858:	03060633          	mul	a2,a2,a6
8000585c:	9732                	add	a4,a4,a2
8000585e:	8f0d                	sub	a4,a4,a1
80005860:	02a75633          	divu	a2,a4,a0
80005864:	06c2                	slli	a3,a3,0x10
80005866:	82c1                	srli	a3,a3,0x10
80005868:	02a77733          	remu	a4,a4,a0
8000586c:	03c60633          	mul	a2,a2,t3
80005870:	0742                	slli	a4,a4,0x10
80005872:	8ed9                	or	a3,a3,a4
80005874:	00c6fd63          	bgeu	a3,a2,8000588e <__umoddi3+0x1de>
80005878:	96c2                	add	a3,a3,a6
8000587a:	0106b5b3          	sltu	a1,a3,a6
8000587e:	00c6b733          	sltu	a4,a3,a2
80005882:	0015b593          	seqz	a1,a1
80005886:	8f6d                	and	a4,a4,a1
80005888:	03070733          	mul	a4,a4,a6
8000588c:	96ba                	add	a3,a3,a4
8000588e:	8e91                	sub	a3,a3,a2
80005890:	b70d                	j	800057b2 <__umoddi3+0x102>
80005892:	14d5ed63          	bltu	a1,a3,800059ec <__umoddi3+0x33c>
80005896:	6841                	lui	a6,0x10
80005898:	0506f363          	bgeu	a3,a6,800058de <__umoddi3+0x22e>
8000589c:	1006b893          	sltiu	a7,a3,256
800058a0:	0018b893          	seqz	a7,a7
800058a4:	088e                	slli	a7,a7,0x3
800058a6:	0116d333          	srl	t1,a3,a7
800058aa:	a5018813          	addi	a6,gp,-1456 # 80005c68 <__clz_tab>
800058ae:	981a                	add	a6,a6,t1
800058b0:	00084803          	lbu	a6,0(a6) # 10000 <_start-0x7fff0000>
800058b4:	9846                	add	a6,a6,a7
800058b6:	02000893          	li	a7,32
800058ba:	03181963          	bne	a6,a7,800058ec <__umoddi3+0x23c>
800058be:	00c57463          	bgeu	a0,a2,800058c6 <__umoddi3+0x216>
800058c2:	00b6fb63          	bgeu	a3,a1,800058d8 <__umoddi3+0x228>
800058c6:	40c50733          	sub	a4,a0,a2
800058ca:	87ba                	mv	a5,a4
800058cc:	40d586b3          	sub	a3,a1,a3
800058d0:	00e53733          	sltu	a4,a0,a4
800058d4:	40e68733          	sub	a4,a3,a4
800058d8:	853e                	mv	a0,a5
800058da:	85ba                	mv	a1,a4
800058dc:	8082                	ret
800058de:	01000837          	lui	a6,0x1000
800058e2:	48e1                	li	a7,24
800058e4:	fd06f1e3          	bgeu	a3,a6,800058a6 <__umoddi3+0x1f6>
800058e8:	48c1                	li	a7,16
800058ea:	bf75                	j	800058a6 <__umoddi3+0x1f6>
800058ec:	410888b3          	sub	a7,a7,a6
800058f0:	011696b3          	sll	a3,a3,a7
800058f4:	01065333          	srl	t1,a2,a6
800058f8:	00d36333          	or	t1,t1,a3
800058fc:	0105d733          	srl	a4,a1,a6
80005900:	01035e93          	srli	t4,t1,0x10
80005904:	03d756b3          	divu	a3,a4,t4
80005908:	01031e13          	slli	t3,t1,0x10
8000590c:	010e5e13          	srli	t3,t3,0x10
80005910:	011597b3          	sll	a5,a1,a7
80005914:	010555b3          	srl	a1,a0,a6
80005918:	8ddd                	or	a1,a1,a5
8000591a:	0105d793          	srli	a5,a1,0x10
8000591e:	03d77733          	remu	a4,a4,t4
80005922:	01161633          	sll	a2,a2,a7
80005926:	01151533          	sll	a0,a0,a7
8000592a:	02de0f33          	mul	t5,t3,a3
8000592e:	0742                	slli	a4,a4,0x10
80005930:	8fd9                	or	a5,a5,a4
80005932:	01e7f863          	bgeu	a5,t5,80005942 <__umoddi3+0x292>
80005936:	979a                	add	a5,a5,t1
80005938:	01e7f463          	bgeu	a5,t5,80005940 <__umoddi3+0x290>
8000593c:	0a67f963          	bgeu	a5,t1,800059ee <__umoddi3+0x33e>
80005940:	16fd                	addi	a3,a3,-1
80005942:	41e787b3          	sub	a5,a5,t5
80005946:	03d7d733          	divu	a4,a5,t4
8000594a:	05c2                	slli	a1,a1,0x10
8000594c:	81c1                	srli	a1,a1,0x10
8000594e:	03d7f7b3          	remu	a5,a5,t4
80005952:	02ee0e33          	mul	t3,t3,a4
80005956:	07c2                	slli	a5,a5,0x10
80005958:	8ddd                	or	a1,a1,a5
8000595a:	01c5f863          	bgeu	a1,t3,8000596a <__umoddi3+0x2ba>
8000595e:	959a                	add	a1,a1,t1
80005960:	01c5f463          	bgeu	a1,t3,80005968 <__umoddi3+0x2b8>
80005964:	0865f863          	bgeu	a1,t1,800059f4 <__umoddi3+0x344>
80005968:	177d                	addi	a4,a4,-1 # ffff <_start-0x7fff0001>
8000596a:	06c2                	slli	a3,a3,0x10
8000596c:	8ed9                	or	a3,a3,a4
8000596e:	41c585b3          	sub	a1,a1,t3
80005972:	0742                	slli	a4,a4,0x10
80005974:	01061e13          	slli	t3,a2,0x10
80005978:	01065793          	srli	a5,a2,0x10
8000597c:	8341                	srli	a4,a4,0x10
8000597e:	82c1                	srli	a3,a3,0x10
80005980:	010e5e13          	srli	t3,t3,0x10
80005984:	03c70eb3          	mul	t4,a4,t3
80005988:	03c68e33          	mul	t3,a3,t3
8000598c:	02f70733          	mul	a4,a4,a5
80005990:	02f686b3          	mul	a3,a3,a5
80005994:	01c707b3          	add	a5,a4,t3
80005998:	010ed713          	srli	a4,t4,0x10
8000599c:	973e                	add	a4,a4,a5
8000599e:	01c77463          	bgeu	a4,t3,800059a6 <__umoddi3+0x2f6>
800059a2:	67c1                	lui	a5,0x10
800059a4:	96be                	add	a3,a3,a5
800059a6:	01075793          	srli	a5,a4,0x10
800059aa:	0ec2                	slli	t4,t4,0x10
800059ac:	0742                	slli	a4,a4,0x10
800059ae:	010ede93          	srli	t4,t4,0x10
800059b2:	97b6                	add	a5,a5,a3
800059b4:	9776                	add	a4,a4,t4
800059b6:	00f5e663          	bltu	a1,a5,800059c2 <__umoddi3+0x312>
800059ba:	00e57b63          	bgeu	a0,a4,800059d0 <__umoddi3+0x320>
800059be:	00f59963          	bne	a1,a5,800059d0 <__umoddi3+0x320>
800059c2:	40c70633          	sub	a2,a4,a2
800059c6:	00c736b3          	sltu	a3,a4,a2
800059ca:	969a                	add	a3,a3,t1
800059cc:	8732                	mv	a4,a2
800059ce:	8f95                	sub	a5,a5,a3
800059d0:	40e50733          	sub	a4,a0,a4
800059d4:	00e53533          	sltu	a0,a0,a4
800059d8:	8d9d                	sub	a1,a1,a5
800059da:	8d89                	sub	a1,a1,a0
800059dc:	01059833          	sll	a6,a1,a6
800059e0:	01175733          	srl	a4,a4,a7
800059e4:	00e86533          	or	a0,a6,a4
800059e8:	0115d5b3          	srl	a1,a1,a7
800059ec:	8082                	ret
800059ee:	16f9                	addi	a3,a3,-2
800059f0:	979a                	add	a5,a5,t1
800059f2:	bf81                	j	80005942 <__umoddi3+0x292>
800059f4:	1779                	addi	a4,a4,-2
800059f6:	959a                	add	a1,a1,t1
800059f8:	bf8d                	j	8000596a <__umoddi3+0x2ba>

セクション .text.startup の逆アセンブル:

800059fa <main>:
800059fa:	1141                	addi	sp,sp,-16
800059fc:	00000517          	auipc	a0,0x0
80005a00:	0f050513          	addi	a0,a0,240 # 80005aec <main+0xf2>
80005a04:	c606                	sw	ra,12(sp)
80005a06:	deaff0ef          	jal	80004ff0 <printstr>
80005a0a:	40b2                	lw	ra,12(sp)
80005a0c:	557d                	li	a0,-1
80005a0e:	0141                	addi	sp,sp,16
80005a10:	8082                	ret
