
qsort.riscv:     ファイル形式 elf32-littleriscv


セクション .text.init の逆アセンブル:

80000000 <_start>:
80000000:	4081                	li	ra,0
80000002:	4101                	li	sp,0
80000004:	4181                	li	gp,0
80000006:	4201                	li	tp,0
80000008:	4281                	li	t0,0
8000000a:	4301                	li	t1,0
8000000c:	4381                	li	t2,0
8000000e:	4401                	li	s0,0
80000010:	4481                	li	s1,0
80000012:	4501                	li	a0,0
80000014:	4581                	li	a1,0
80000016:	4601                	li	a2,0
80000018:	4681                	li	a3,0
8000001a:	4701                	li	a4,0
8000001c:	4781                	li	a5,0
8000001e:	4801                	li	a6,0
80000020:	4881                	li	a7,0
80000022:	4901                	li	s2,0
80000024:	4981                	li	s3,0
80000026:	4a01                	li	s4,0
80000028:	4a81                	li	s5,0
8000002a:	4b01                	li	s6,0
8000002c:	4b81                	li	s7,0
8000002e:	4c01                	li	s8,0
80000030:	4c81                	li	s9,0
80000032:	4d01                	li	s10,0
80000034:	4d81                	li	s11,0
80000036:	4e01                	li	t3,0
80000038:	4e81                	li	t4,0
8000003a:	4f01                	li	t5,0
8000003c:	4f81                	li	t6,0
8000003e:	62f9                	lui	t0,0x1e
80000040:	60028293          	addi	t0,t0,1536 # 1e600 <_start-0x7ffe1a00>
80000044:	3002a073          	csrs	mstatus,t0
80000048:	4285                	li	t0,1
8000004a:	02fe                	slli	t0,t0,0x1f
8000004c:	0002c863          	bltz	t0,8000005c <_start+0x5c>
80000050:	4505                	li	a0,1
80000052:	00001297          	auipc	t0,0x1
80000056:	faa2a723          	sw	a0,-82(t0) # 80001000 <tohost>
8000005a:	bfdd                	j	80000050 <_start+0x50>
8000005c:	00000297          	auipc	t0,0x0
80000060:	09028293          	addi	t0,t0,144 # 800000ec <_start+0xec>
80000064:	30529073          	csrw	mtvec,t0
80000068:	00301073          	fscsr	zero
8000006c:	f0000053          	fmv.w.x	ft0,zero
80000070:	f00000d3          	fmv.w.x	ft1,zero
80000074:	f0000153          	fmv.w.x	ft2,zero
80000078:	f00001d3          	fmv.w.x	ft3,zero
8000007c:	f0000253          	fmv.w.x	ft4,zero
80000080:	f00002d3          	fmv.w.x	ft5,zero
80000084:	f0000353          	fmv.w.x	ft6,zero
80000088:	f00003d3          	fmv.w.x	ft7,zero
8000008c:	f0000453          	fmv.w.x	fs0,zero
80000090:	f00004d3          	fmv.w.x	fs1,zero
80000094:	f0000553          	fmv.w.x	fa0,zero
80000098:	f00005d3          	fmv.w.x	fa1,zero
8000009c:	f0000653          	fmv.w.x	fa2,zero
800000a0:	f00006d3          	fmv.w.x	fa3,zero
800000a4:	f0000753          	fmv.w.x	fa4,zero
800000a8:	f00007d3          	fmv.w.x	fa5,zero
800000ac:	f0000853          	fmv.w.x	fa6,zero
800000b0:	f00008d3          	fmv.w.x	fa7,zero
800000b4:	f0000953          	fmv.w.x	fs2,zero
800000b8:	f00009d3          	fmv.w.x	fs3,zero
800000bc:	f0000a53          	fmv.w.x	fs4,zero
800000c0:	f0000ad3          	fmv.w.x	fs5,zero
800000c4:	f0000b53          	fmv.w.x	fs6,zero
800000c8:	f0000bd3          	fmv.w.x	fs7,zero
800000cc:	f0000c53          	fmv.w.x	fs8,zero
800000d0:	f0000cd3          	fmv.w.x	fs9,zero
800000d4:	f0000d53          	fmv.w.x	fs10,zero
800000d8:	f0000dd3          	fmv.w.x	fs11,zero
800000dc:	f0000e53          	fmv.w.x	ft8,zero
800000e0:	f0000ed3          	fmv.w.x	ft9,zero
800000e4:	f0000f53          	fmv.w.x	ft10,zero
800000e8:	f0000fd3          	fmv.w.x	ft11,zero
800000ec:	00000297          	auipc	t0,0x0
800000f0:	04028293          	addi	t0,t0,64 # 8000012c <trap_entry>
800000f4:	30529073          	csrw	mtvec,t0
800000f8:	00008197          	auipc	gp,0x8
800000fc:	a3818193          	addi	gp,gp,-1480 # 80007b30 <__global_pointer$>
80000100:	00007217          	auipc	tp,0x7
80000104:	24020213          	addi	tp,tp,576 # 80007340 <_end>
80000108:	03f20213          	addi	tp,tp,63 # 3f <_start-0x7fffffc1>
8000010c:	fc027213          	andi	tp,tp,-64
80000110:	f1402573          	csrr	a0,mhartid
80000114:	4585                	li	a1,1
80000116:	00b57063          	bgeu	a0,a1,80000116 <_start+0x116>
8000011a:	00150113          	addi	sp,a0,1
8000011e:	0146                	slli	sp,sp,0x11
80000120:	9112                	add	sp,sp,tp
80000122:	01151613          	slli	a2,a0,0x11
80000126:	9232                	add	tp,tp,a2
80000128:	6900206f          	j	800027b8 <_init>

8000012c <trap_entry>:
8000012c:	716d                	addi	sp,sp,-272
8000012e:	c206                	sw	ra,4(sp)
80000130:	c40a                	sw	sp,8(sp)
80000132:	c60e                	sw	gp,12(sp)
80000134:	c812                	sw	tp,16(sp)
80000136:	ca16                	sw	t0,20(sp)
80000138:	cc1a                	sw	t1,24(sp)
8000013a:	ce1e                	sw	t2,28(sp)
8000013c:	d022                	sw	s0,32(sp)
8000013e:	d226                	sw	s1,36(sp)
80000140:	d42a                	sw	a0,40(sp)
80000142:	d62e                	sw	a1,44(sp)
80000144:	d832                	sw	a2,48(sp)
80000146:	da36                	sw	a3,52(sp)
80000148:	dc3a                	sw	a4,56(sp)
8000014a:	de3e                	sw	a5,60(sp)
8000014c:	c0c2                	sw	a6,64(sp)
8000014e:	c2c6                	sw	a7,68(sp)
80000150:	c4ca                	sw	s2,72(sp)
80000152:	c6ce                	sw	s3,76(sp)
80000154:	c8d2                	sw	s4,80(sp)
80000156:	cad6                	sw	s5,84(sp)
80000158:	ccda                	sw	s6,88(sp)
8000015a:	cede                	sw	s7,92(sp)
8000015c:	d0e2                	sw	s8,96(sp)
8000015e:	d2e6                	sw	s9,100(sp)
80000160:	d4ea                	sw	s10,104(sp)
80000162:	d6ee                	sw	s11,108(sp)
80000164:	d8f2                	sw	t3,112(sp)
80000166:	daf6                	sw	t4,116(sp)
80000168:	dcfa                	sw	t5,120(sp)
8000016a:	defe                	sw	t6,124(sp)
8000016c:	34202573          	csrr	a0,mcause
80000170:	341025f3          	csrr	a1,mepc
80000174:	860a                	mv	a2,sp
80000176:	42c020ef          	jal	800025a2 <handle_trap>
8000017a:	34151073          	csrw	mepc,a0
8000017e:	6289                	lui	t0,0x2
80000180:	80028293          	addi	t0,t0,-2048 # 1800 <_start-0x7fffe800>
80000184:	3002a073          	csrs	mstatus,t0
80000188:	4092                	lw	ra,4(sp)
8000018a:	4122                	lw	sp,8(sp)
8000018c:	41b2                	lw	gp,12(sp)
8000018e:	4242                	lw	tp,16(sp)
80000190:	42d2                	lw	t0,20(sp)
80000192:	4362                	lw	t1,24(sp)
80000194:	43f2                	lw	t2,28(sp)
80000196:	5402                	lw	s0,32(sp)
80000198:	5492                	lw	s1,36(sp)
8000019a:	5522                	lw	a0,40(sp)
8000019c:	55b2                	lw	a1,44(sp)
8000019e:	5642                	lw	a2,48(sp)
800001a0:	56d2                	lw	a3,52(sp)
800001a2:	5762                	lw	a4,56(sp)
800001a4:	57f2                	lw	a5,60(sp)
800001a6:	4806                	lw	a6,64(sp)
800001a8:	4896                	lw	a7,68(sp)
800001aa:	4926                	lw	s2,72(sp)
800001ac:	49b6                	lw	s3,76(sp)
800001ae:	4a46                	lw	s4,80(sp)
800001b0:	4ad6                	lw	s5,84(sp)
800001b2:	4b66                	lw	s6,88(sp)
800001b4:	4bf6                	lw	s7,92(sp)
800001b6:	5c06                	lw	s8,96(sp)
800001b8:	5c96                	lw	s9,100(sp)
800001ba:	5d26                	lw	s10,104(sp)
800001bc:	5db6                	lw	s11,108(sp)
800001be:	5e46                	lw	t3,112(sp)
800001c0:	5ed6                	lw	t4,116(sp)
800001c2:	5f66                	lw	t5,120(sp)
800001c4:	5ff6                	lw	t6,124(sp)
800001c6:	6151                	addi	sp,sp,272
800001c8:	30200073          	mret
800001cc:	0001                	nop

セクション .text の逆アセンブル:

80002000 <verify.constprop.0>:
80002000:	87aa                	mv	a5,a0
80002002:	00003717          	auipc	a4,0x3
80002006:	32e70713          	addi	a4,a4,814 # 80005330 <input_data>
8000200a:	4501                	li	a0,0
8000200c:	4310                	lw	a2,0(a4)
8000200e:	4394                	lw	a3,0(a5)
80002010:	434c                	lw	a1,4(a4)
80002012:	0721                	addi	a4,a4,8
80002014:	00d61c63          	bne	a2,a3,8000202c <verify.constprop.0+0x2c>
80002018:	43d4                	lw	a3,4(a5)
8000201a:	0509                	addi	a0,a0,2
8000201c:	80050613          	addi	a2,a0,-2048
80002020:	00d59563          	bne	a1,a3,8000202a <verify.constprop.0+0x2a>
80002024:	07a1                	addi	a5,a5,8
80002026:	f27d                	bnez	a2,8000200c <verify.constprop.0+0xc>
80002028:	4501                	li	a0,0
8000202a:	8082                	ret
8000202c:	0505                	addi	a0,a0,1
8000202e:	8082                	ret

80002030 <sort>:
80002030:	7155                	addi	sp,sp,-208
80002032:	00251313          	slli	t1,a0,0x2
80002036:	00810f13          	addi	t5,sp,8
8000203a:	40000fb7          	lui	t6,0x40000
8000203e:	932e                	add	t1,t1,a1
80002040:	00458513          	addi	a0,a1,4
80002044:	8e7a                	mv	t3,t5
80002046:	1ffd                	addi	t6,t6,-1 # 3fffffff <_start-0x40000001>
80002048:	02400e93          	li	t4,36
8000204c:	40a307b3          	sub	a5,t1,a0
80002050:	04fec063          	blt	t4,a5,80002090 <sort+0x60>
80002054:	02657363          	bgeu	a0,t1,8000207a <sort+0x4a>
80002058:	ffc50613          	addi	a2,a0,-4
8000205c:	4114                	lw	a3,0(a0)
8000205e:	87aa                	mv	a5,a0
80002060:	a029                	j	8000206a <sort+0x3a>
80002062:	c398                	sw	a4,0(a5)
80002064:	17f1                	addi	a5,a5,-4
80002066:	00f60663          	beq	a2,a5,80002072 <sort+0x42>
8000206a:	ffc7a703          	lw	a4,-4(a5)
8000206e:	fee6cae3          	blt	a3,a4,80002062 <sort+0x32>
80002072:	c394                	sw	a3,0(a5)
80002074:	0511                	addi	a0,a0,4
80002076:	fe6563e3          	bltu	a0,t1,8000205c <sort+0x2c>
8000207a:	0dee0a63          	beq	t3,t5,8000214e <sort+0x11e>
8000207e:	000e2303          	lw	t1,0(t3)
80002082:	ffce2503          	lw	a0,-4(t3)
80002086:	1e61                	addi	t3,t3,-8
80002088:	40a307b3          	sub	a5,t1,a0
8000208c:	fcfed4e3          	bge	t4,a5,80002054 <sort+0x24>
80002090:	40b50733          	sub	a4,a0,a1
80002094:	40b307b3          	sub	a5,t1,a1
80002098:	8789                	srai	a5,a5,0x2
8000209a:	8709                	srai	a4,a4,0x2
8000209c:	973e                	add	a4,a4,a5
8000209e:	01f75793          	srli	a5,a4,0x1f
800020a2:	97ba                	add	a5,a5,a4
800020a4:	8785                	srai	a5,a5,0x1
800020a6:	97fe                	add	a5,a5,t6
800020a8:	078a                	slli	a5,a5,0x2
800020aa:	4118                	lw	a4,0(a0)
800020ac:	97ae                	add	a5,a5,a1
800020ae:	4394                	lw	a3,0(a5)
800020b0:	c398                	sw	a4,0(a5)
800020b2:	ffc52703          	lw	a4,-4(a0)
800020b6:	c114                	sw	a3,0(a0)
800020b8:	ffc32783          	lw	a5,-4(t1)
800020bc:	00e7d863          	bge	a5,a4,800020cc <sort+0x9c>
800020c0:	fef52e23          	sw	a5,-4(a0)
800020c4:	fee32e23          	sw	a4,-4(t1)
800020c8:	4114                	lw	a3,0(a0)
800020ca:	87ba                	mv	a5,a4
800020cc:	00d7d663          	bge	a5,a3,800020d8 <sort+0xa8>
800020d0:	c11c                	sw	a5,0(a0)
800020d2:	fed32e23          	sw	a3,-4(t1)
800020d6:	4114                	lw	a3,0(a0)
800020d8:	ffc52783          	lw	a5,-4(a0)
800020dc:	00f6d663          	bge	a3,a5,800020e8 <sort+0xb8>
800020e0:	fed52e23          	sw	a3,-4(a0)
800020e4:	c11c                	sw	a5,0(a0)
800020e6:	86be                	mv	a3,a5
800020e8:	00450813          	addi	a6,a0,4
800020ec:	879a                	mv	a5,t1
800020ee:	00082883          	lw	a7,0(a6)
800020f2:	0811                	addi	a6,a6,4
800020f4:	fed8cde3          	blt	a7,a3,800020ee <sort+0xbe>
800020f8:	863e                	mv	a2,a5
800020fa:	ff87a703          	lw	a4,-8(a5)
800020fe:	17f1                	addi	a5,a5,-4
80002100:	fee6cce3          	blt	a3,a4,800020f8 <sort+0xc8>
80002104:	0107e763          	bltu	a5,a6,80002112 <sort+0xe2>
80002108:	fee82e23          	sw	a4,-4(a6)
8000210c:	ff17ae23          	sw	a7,-4(a5)
80002110:	bff9                	j	800020ee <sort+0xbe>
80002112:	410308b3          	sub	a7,t1,a6
80002116:	c118                	sw	a4,0(a0)
80002118:	40a782b3          	sub	t0,a5,a0
8000211c:	4028d713          	srai	a4,a7,0x2
80002120:	fed7ae23          	sw	a3,-4(a5)
80002124:	4022d693          	srai	a3,t0,0x2
80002128:	00170793          	addi	a5,a4,1
8000212c:	1661                	addi	a2,a2,-8
8000212e:	00d7c963          	blt	a5,a3,80002140 <sort+0x110>
80002132:	006e2423          	sw	t1,8(t3)
80002136:	010e2223          	sw	a6,4(t3)
8000213a:	8332                	mv	t1,a2
8000213c:	0e21                	addi	t3,t3,8
8000213e:	b739                	j	8000204c <sort+0x1c>
80002140:	00ae2223          	sw	a0,4(t3)
80002144:	00ce2423          	sw	a2,8(t3)
80002148:	8542                	mv	a0,a6
8000214a:	0e21                	addi	t3,t3,8
8000214c:	b701                	j	8000204c <sort+0x1c>
8000214e:	6169                	addi	sp,sp,208
80002150:	8082                	ret

80002152 <vprintfmt>:
80002152:	714d                	addi	sp,sp,-336
80002154:	14812423          	sw	s0,328(sp)
80002158:	14912223          	sw	s1,324(sp)
8000215c:	15212023          	sw	s2,320(sp)
80002160:	13512a23          	sw	s5,308(sp)
80002164:	14112623          	sw	ra,332(sp)
80002168:	13312e23          	sw	s3,316(sp)
8000216c:	13412c23          	sw	s4,312(sp)
80002170:	13712623          	sw	s7,300(sp)
80002174:	13812423          	sw	s8,296(sp)
80002178:	13912223          	sw	s9,292(sp)
8000217c:	13a12023          	sw	s10,288(sp)
80002180:	84aa                	mv	s1,a0
80002182:	8432                	mv	s0,a2
80002184:	c636                	sw	a3,12(sp)
80002186:	892e                	mv	s2,a1
80002188:	02500a93          	li	s5,37
8000218c:	a029                	j	80002196 <vprintfmt+0x44>
8000218e:	c531                	beqz	a0,800021da <vprintfmt+0x88>
80002190:	85ca                	mv	a1,s2
80002192:	0405                	addi	s0,s0,1
80002194:	9482                	jalr	s1
80002196:	00044503          	lbu	a0,0(s0)
8000219a:	ff551ae3          	bne	a0,s5,8000218e <vprintfmt+0x3c>
8000219e:	00144683          	lbu	a3,1(s0)
800021a2:	00140a13          	addi	s4,s0,1
800021a6:	59fd                	li	s3,-1
800021a8:	02000793          	li	a5,32
800021ac:	8752                	mv	a4,s4
800021ae:	8c4e                	mv	s8,s3
800021b0:	c43e                	sw	a5,8(sp)
800021b2:	4581                	li	a1,0
800021b4:	fdd68793          	addi	a5,a3,-35
800021b8:	0ff7f793          	zext.b	a5,a5
800021bc:	05500613          	li	a2,85
800021c0:	00170413          	addi	s0,a4,1
800021c4:	06f66163          	bltu	a2,a5,80002226 <vprintfmt+0xd4>
800021c8:	00001617          	auipc	a2,0x1
800021cc:	ed460613          	addi	a2,a2,-300 # 8000309c <main+0xbc>
800021d0:	078a                	slli	a5,a5,0x2
800021d2:	97b2                	add	a5,a5,a2
800021d4:	439c                	lw	a5,0(a5)
800021d6:	97b2                	add	a5,a5,a2
800021d8:	8782                	jr	a5
800021da:	14c12083          	lw	ra,332(sp)
800021de:	14812403          	lw	s0,328(sp)
800021e2:	14412483          	lw	s1,324(sp)
800021e6:	14012903          	lw	s2,320(sp)
800021ea:	13c12983          	lw	s3,316(sp)
800021ee:	13812a03          	lw	s4,312(sp)
800021f2:	13412a83          	lw	s5,308(sp)
800021f6:	12c12b83          	lw	s7,300(sp)
800021fa:	12812c03          	lw	s8,296(sp)
800021fe:	12412c83          	lw	s9,292(sp)
80002202:	12012d03          	lw	s10,288(sp)
80002206:	6171                	addi	sp,sp,336
80002208:	8082                	ret
8000220a:	c436                	sw	a3,8(sp)
8000220c:	00174683          	lbu	a3,1(a4)
80002210:	05500613          	li	a2,85
80002214:	8722                	mv	a4,s0
80002216:	fdd68793          	addi	a5,a3,-35
8000221a:	0ff7f793          	zext.b	a5,a5
8000221e:	00170413          	addi	s0,a4,1
80002222:	faf673e3          	bgeu	a2,a5,800021c8 <vprintfmt+0x76>
80002226:	85ca                	mv	a1,s2
80002228:	02500513          	li	a0,37
8000222c:	9482                	jalr	s1
8000222e:	8452                	mv	s0,s4
80002230:	b79d                	j	80002196 <vprintfmt+0x44>
80002232:	fd068993          	addi	s3,a3,-48
80002236:	00174683          	lbu	a3,1(a4)
8000223a:	4525                	li	a0,9
8000223c:	fd068793          	addi	a5,a3,-48
80002240:	28f56463          	bltu	a0,a5,800024c8 <vprintfmt+0x376>
80002244:	8636                	mv	a2,a3
80002246:	8722                	mv	a4,s0
80002248:	00299793          	slli	a5,s3,0x2
8000224c:	97ce                	add	a5,a5,s3
8000224e:	0705                	addi	a4,a4,1
80002250:	0786                	slli	a5,a5,0x1
80002252:	97b2                	add	a5,a5,a2
80002254:	00074603          	lbu	a2,0(a4)
80002258:	fd078993          	addi	s3,a5,-48
8000225c:	fd060793          	addi	a5,a2,-48
80002260:	86b2                	mv	a3,a2
80002262:	fef573e3          	bgeu	a0,a5,80002248 <vprintfmt+0xf6>
80002266:	f40c57e3          	bgez	s8,800021b4 <vprintfmt+0x62>
8000226a:	8c4e                	mv	s8,s3
8000226c:	59fd                	li	s3,-1
8000226e:	b799                	j	800021b4 <vprintfmt+0x62>
80002270:	00174683          	lbu	a3,1(a4)
80002274:	8722                	mv	a4,s0
80002276:	bf3d                	j	800021b4 <vprintfmt+0x62>
80002278:	85ca                	mv	a1,s2
8000227a:	02500513          	li	a0,37
8000227e:	9482                	jalr	s1
80002280:	bf19                	j	80002196 <vprintfmt+0x44>
80002282:	47b2                	lw	a5,12(sp)
80002284:	00174683          	lbu	a3,1(a4)
80002288:	8722                	mv	a4,s0
8000228a:	0007a983          	lw	s3,0(a5)
8000228e:	0791                	addi	a5,a5,4
80002290:	c63e                	sw	a5,12(sp)
80002292:	bfd1                	j	80002266 <vprintfmt+0x114>
80002294:	85ca                	mv	a1,s2
80002296:	03000513          	li	a0,48
8000229a:	13612823          	sw	s6,304(sp)
8000229e:	9482                	jalr	s1
800022a0:	85ca                	mv	a1,s2
800022a2:	07800513          	li	a0,120
800022a6:	9482                	jalr	s1
800022a8:	4bc1                	li	s7,16
800022aa:	4d01                	li	s10,0
800022ac:	47b2                	lw	a5,12(sp)
800022ae:	4c81                	li	s9,0
800022b0:	0007a983          	lw	s3,0(a5)
800022b4:	0791                	addi	a5,a5,4
800022b6:	c63e                	sw	a5,12(sp)
800022b8:	865e                	mv	a2,s7
800022ba:	4681                	li	a3,0
800022bc:	854e                	mv	a0,s3
800022be:	85e6                	mv	a1,s9
800022c0:	1cf000ef          	jal	80002c8e <__umoddi3>
800022c4:	c82a                	sw	a0,16(sp)
800022c6:	179d0b63          	beq	s10,s9,8000243c <vprintfmt+0x2ea>
800022ca:	11b12e23          	sw	s11,284(sp)
800022ce:	4b05                	li	s6,1
800022d0:	01410d93          	addi	s11,sp,20
800022d4:	854e                	mv	a0,s3
800022d6:	85e6                	mv	a1,s9
800022d8:	865e                	mv	a2,s7
800022da:	4681                	li	a3,0
800022dc:	2565                	jal	80002984 <__udivdi3>
800022de:	865e                	mv	a2,s7
800022e0:	4681                	li	a3,0
800022e2:	89aa                	mv	s3,a0
800022e4:	8cae                	mv	s9,a1
800022e6:	1a9000ef          	jal	80002c8e <__umoddi3>
800022ea:	00ada023          	sw	a0,0(s11)
800022ee:	8a5a                	mv	s4,s6
800022f0:	0d91                	addi	s11,s11,4
800022f2:	0b05                	addi	s6,s6,1
800022f4:	ff9d10e3          	bne	s10,s9,800022d4 <vprintfmt+0x182>
800022f8:	fd79fee3          	bgeu	s3,s7,800022d4 <vprintfmt+0x182>
800022fc:	11c12d83          	lw	s11,284(sp)
80002300:	fffc0b93          	addi	s7,s8,-1
80002304:	fffb0993          	addi	s3,s6,-1
80002308:	018b5863          	bge	s6,s8,80002318 <vprintfmt+0x1c6>
8000230c:	4522                	lw	a0,8(sp)
8000230e:	85ca                	mv	a1,s2
80002310:	1bfd                	addi	s7,s7,-1
80002312:	9482                	jalr	s1
80002314:	ff799ce3          	bne	s3,s7,8000230c <vprintfmt+0x1ba>
80002318:	0a0a                	slli	s4,s4,0x2
8000231a:	01010993          	addi	s3,sp,16
8000231e:	9a4e                	add	s4,s4,s3
80002320:	a011                	j	80002324 <vprintfmt+0x1d2>
80002322:	1a71                	addi	s4,s4,-4
80002324:	000a2503          	lw	a0,0(s4)
80002328:	85ca                	mv	a1,s2
8000232a:	00a53793          	sltiu	a5,a0,10
8000232e:	40f007b3          	neg	a5,a5
80002332:	fd97f793          	andi	a5,a5,-39
80002336:	05778793          	addi	a5,a5,87
8000233a:	953e                	add	a0,a0,a5
8000233c:	9482                	jalr	s1
8000233e:	ff3a12e3          	bne	s4,s3,80002322 <vprintfmt+0x1d0>
80002342:	13012b03          	lw	s6,304(sp)
80002346:	bd81                	j	80002196 <vprintfmt+0x44>
80002348:	13612823          	sw	s6,304(sp)
8000234c:	4785                	li	a5,1
8000234e:	0eb7cc63          	blt	a5,a1,80002446 <vprintfmt+0x2f4>
80002352:	47b2                	lw	a5,12(sp)
80002354:	0007a983          	lw	s3,0(a5)
80002358:	0791                	addi	a5,a5,4
8000235a:	c63e                	sw	a5,12(sp)
8000235c:	41f9d793          	srai	a5,s3,0x1f
80002360:	8cbe                	mv	s9,a5
80002362:	4ba9                	li	s7,10
80002364:	4d01                	li	s10,0
80002366:	f407d9e3          	bgez	a5,800022b8 <vprintfmt+0x166>
8000236a:	85ca                	mv	a1,s2
8000236c:	02d00513          	li	a0,45
80002370:	9482                	jalr	s1
80002372:	01303733          	snez	a4,s3
80002376:	419007b3          	neg	a5,s9
8000237a:	40e78cb3          	sub	s9,a5,a4
8000237e:	413009b3          	neg	s3,s3
80002382:	bf1d                	j	800022b8 <vprintfmt+0x166>
80002384:	00174683          	lbu	a3,1(a4)
80002388:	0585                	addi	a1,a1,1
8000238a:	8722                	mv	a4,s0
8000238c:	b525                	j	800021b4 <vprintfmt+0x62>
8000238e:	13612823          	sw	s6,304(sp)
80002392:	4bc1                	li	s7,16
80002394:	4d01                	li	s10,0
80002396:	4785                	li	a5,1
80002398:	f0b7dae3          	bge	a5,a1,800022ac <vprintfmt+0x15a>
8000239c:	47b2                	lw	a5,12(sp)
8000239e:	079d                	addi	a5,a5,7
800023a0:	9be1                	andi	a5,a5,-8
800023a2:	00878713          	addi	a4,a5,8
800023a6:	0007a983          	lw	s3,0(a5)
800023aa:	0047ac83          	lw	s9,4(a5)
800023ae:	c63a                	sw	a4,12(sp)
800023b0:	b721                	j	800022b8 <vprintfmt+0x166>
800023b2:	46b2                	lw	a3,12(sp)
800023b4:	47a2                	lw	a5,8(sp)
800023b6:	11b12e23          	sw	s11,284(sp)
800023ba:	0006aa03          	lw	s4,0(a3)
800023be:	fd378793          	addi	a5,a5,-45
800023c2:	00f037b3          	snez	a5,a5
800023c6:	01802733          	sgtz	a4,s8
800023ca:	8f7d                	and	a4,a4,a5
800023cc:	00468d93          	addi	s11,a3,4
800023d0:	080a0f63          	beqz	s4,8000246e <vprintfmt+0x31c>
800023d4:	ef45                	bnez	a4,8000248c <vprintfmt+0x33a>
800023d6:	000a4503          	lbu	a0,0(s4)
800023da:	c115                	beqz	a0,800023fe <vprintfmt+0x2ac>
800023dc:	13612823          	sw	s6,304(sp)
800023e0:	5b7d                	li	s6,-1
800023e2:	0009c563          	bltz	s3,800023ec <vprintfmt+0x29a>
800023e6:	19fd                	addi	s3,s3,-1
800023e8:	01698963          	beq	s3,s6,800023fa <vprintfmt+0x2a8>
800023ec:	85ca                	mv	a1,s2
800023ee:	9482                	jalr	s1
800023f0:	001a4503          	lbu	a0,1(s4)
800023f4:	0a05                	addi	s4,s4,1
800023f6:	1c7d                	addi	s8,s8,-1
800023f8:	f56d                	bnez	a0,800023e2 <vprintfmt+0x290>
800023fa:	13012b03          	lw	s6,304(sp)
800023fe:	01805963          	blez	s8,80002410 <vprintfmt+0x2be>
80002402:	85ca                	mv	a1,s2
80002404:	02000513          	li	a0,32
80002408:	1c7d                	addi	s8,s8,-1
8000240a:	9482                	jalr	s1
8000240c:	fe0c1be3          	bnez	s8,80002402 <vprintfmt+0x2b0>
80002410:	c66e                	sw	s11,12(sp)
80002412:	11c12d83          	lw	s11,284(sp)
80002416:	b341                	j	80002196 <vprintfmt+0x44>
80002418:	fffc4793          	not	a5,s8
8000241c:	87fd                	srai	a5,a5,0x1f
8000241e:	00174683          	lbu	a3,1(a4)
80002422:	00fc7c33          	and	s8,s8,a5
80002426:	8722                	mv	a4,s0
80002428:	b371                	j	800021b4 <vprintfmt+0x62>
8000242a:	49b2                	lw	s3,12(sp)
8000242c:	85ca                	mv	a1,s2
8000242e:	0009a503          	lw	a0,0(s3)
80002432:	9482                	jalr	s1
80002434:	00498793          	addi	a5,s3,4
80002438:	c63e                	sw	a5,12(sp)
8000243a:	bbb1                	j	80002196 <vprintfmt+0x44>
8000243c:	e979f7e3          	bgeu	s3,s7,800022ca <vprintfmt+0x178>
80002440:	4a01                	li	s4,0
80002442:	4b05                	li	s6,1
80002444:	bd75                	j	80002300 <vprintfmt+0x1ae>
80002446:	47b2                	lw	a5,12(sp)
80002448:	079d                	addi	a5,a5,7
8000244a:	9be1                	andi	a5,a5,-8
8000244c:	00878713          	addi	a4,a5,8
80002450:	0007a983          	lw	s3,0(a5)
80002454:	c63a                	sw	a4,12(sp)
80002456:	43dc                	lw	a5,4(a5)
80002458:	b721                	j	80002360 <vprintfmt+0x20e>
8000245a:	13612823          	sw	s6,304(sp)
8000245e:	4ba9                	li	s7,10
80002460:	4d01                	li	s10,0
80002462:	bf15                	j	80002396 <vprintfmt+0x244>
80002464:	13612823          	sw	s6,304(sp)
80002468:	4ba1                	li	s7,8
8000246a:	4d01                	li	s10,0
8000246c:	b72d                	j	80002396 <vprintfmt+0x244>
8000246e:	eb19                	bnez	a4,80002484 <vprintfmt+0x332>
80002470:	13612823          	sw	s6,304(sp)
80002474:	00001a17          	auipc	s4,0x1
80002478:	be4a0a13          	addi	s4,s4,-1052 # 80003058 <main+0x78>
8000247c:	02800513          	li	a0,40
80002480:	5b7d                	li	s6,-1
80002482:	b785                	j	800023e2 <vprintfmt+0x290>
80002484:	00001a17          	auipc	s4,0x1
80002488:	bd4a0a13          	addi	s4,s4,-1068 # 80003058 <main+0x78>
8000248c:	87d2                	mv	a5,s4
8000248e:	013a06b3          	add	a3,s4,s3
80002492:	00099663          	bnez	s3,8000249e <vprintfmt+0x34c>
80002496:	a829                	j	800024b0 <vprintfmt+0x35e>
80002498:	0785                	addi	a5,a5,1
8000249a:	00d78563          	beq	a5,a3,800024a4 <vprintfmt+0x352>
8000249e:	0007c703          	lbu	a4,0(a5)
800024a2:	fb7d                	bnez	a4,80002498 <vprintfmt+0x346>
800024a4:	414787b3          	sub	a5,a5,s4
800024a8:	40fc0c33          	sub	s8,s8,a5
800024ac:	01805863          	blez	s8,800024bc <vprintfmt+0x36a>
800024b0:	4522                	lw	a0,8(sp)
800024b2:	85ca                	mv	a1,s2
800024b4:	1c7d                	addi	s8,s8,-1
800024b6:	9482                	jalr	s1
800024b8:	fe0c1ce3          	bnez	s8,800024b0 <vprintfmt+0x35e>
800024bc:	000a4503          	lbu	a0,0(s4)
800024c0:	d921                	beqz	a0,80002410 <vprintfmt+0x2be>
800024c2:	13612823          	sw	s6,304(sp)
800024c6:	bf29                	j	800023e0 <vprintfmt+0x28e>
800024c8:	8722                	mv	a4,s0
800024ca:	bb71                	j	80002266 <vprintfmt+0x114>

800024cc <sprintf_putch.0>:
800024cc:	419c                	lw	a5,0(a1)
800024ce:	00a78023          	sb	a0,0(a5)
800024d2:	419c                	lw	a5,0(a1)
800024d4:	0785                	addi	a5,a5,1
800024d6:	c19c                	sw	a5,0(a1)
800024d8:	8082                	ret

800024da <putchar>:
800024da:	7175                	addi	sp,sp,-144
800024dc:	04f10613          	addi	a2,sp,79
800024e0:	fc067613          	andi	a2,a2,-64
800024e4:	04000713          	li	a4,64
800024e8:	c218                	sw	a4,0(a2)
800024ea:	4781                	li	a5,0
800024ec:	c25c                	sw	a5,4(a2)
800024ee:	4805                	li	a6,1
800024f0:	01062423          	sw	a6,8(a2)
800024f4:	4881                	li	a7,0
800024f6:	01162623          	sw	a7,12(a2)
800024fa:	00f10713          	addi	a4,sp,15
800024fe:	ca18                	sw	a4,16(a2)
80002500:	4781                	li	a5,0
80002502:	ca5c                	sw	a5,20(a2)
80002504:	01062c23          	sw	a6,24(a2)
80002508:	00a107a3          	sb	a0,15(sp)
8000250c:	01162e23          	sw	a7,28(a2)
80002510:	0330000f          	fence	rw,rw
80002514:	fffff697          	auipc	a3,0xfffff
80002518:	aec68693          	addi	a3,a3,-1300 # 80001000 <tohost>
8000251c:	4781                	li	a5,0
8000251e:	c290                	sw	a2,0(a3)
80002520:	c2dc                	sw	a5,4(a3)
80002522:	4698                	lw	a4,8(a3)
80002524:	46dc                	lw	a5,12(a3)
80002526:	8f5d                	or	a4,a4,a5
80002528:	df6d                	beqz	a4,80002522 <putchar+0x48>
8000252a:	0006a423          	sw	zero,8(a3)
8000252e:	0006a623          	sw	zero,12(a3)
80002532:	0330000f          	fence	rw,rw
80002536:	4501                	li	a0,0
80002538:	4218                	lw	a4,0(a2)
8000253a:	425c                	lw	a5,4(a2)
8000253c:	6149                	addi	sp,sp,144
8000253e:	8082                	ret

80002540 <setStats>:
80002540:	b0002773          	csrr	a4,mcycle
80002544:	00005797          	auipc	a5,0x5
80002548:	df478793          	addi	a5,a5,-524 # 80007338 <counters>
8000254c:	c511                	beqz	a0,80002558 <setStats+0x18>
8000254e:	c398                	sw	a4,0(a5)
80002550:	b0202773          	csrr	a4,minstret
80002554:	c3d8                	sw	a4,4(a5)
80002556:	8082                	ret
80002558:	4394                	lw	a3,0(a5)
8000255a:	00001617          	auipc	a2,0x1
8000255e:	b0a60613          	addi	a2,a2,-1270 # 80003064 <main+0x84>
80002562:	00005597          	auipc	a1,0x5
80002566:	dcc5a723          	sw	a2,-562(a1) # 80007330 <counter_names>
8000256a:	8f15                	sub	a4,a4,a3
8000256c:	c398                	sw	a4,0(a5)
8000256e:	b0202773          	csrr	a4,minstret
80002572:	43d4                	lw	a3,4(a5)
80002574:	00001617          	auipc	a2,0x1
80002578:	af860613          	addi	a2,a2,-1288 # 8000306c <main+0x8c>
8000257c:	00005597          	auipc	a1,0x5
80002580:	dac5ac23          	sw	a2,-584(a1) # 80007334 <counter_names+0x4>
80002584:	8f15                	sub	a4,a4,a3
80002586:	c3d8                	sw	a4,4(a5)
80002588:	8082                	ret

8000258a <tohost_exit>:
8000258a:	00151693          	slli	a3,a0,0x1
8000258e:	0016e713          	ori	a4,a3,1
80002592:	fffff697          	auipc	a3,0xfffff
80002596:	a6e68693          	addi	a3,a3,-1426 # 80001000 <tohost>
8000259a:	4781                	li	a5,0
8000259c:	c298                	sw	a4,0(a3)
8000259e:	c2dc                	sw	a5,4(a3)
800025a0:	a001                	j	800025a0 <tohost_exit+0x16>

800025a2 <handle_trap>:
800025a2:	6605                	lui	a2,0x1
800025a4:	fffff797          	auipc	a5,0xfffff
800025a8:	a5c78793          	addi	a5,a5,-1444 # 80001000 <tohost>
800025ac:	a7360613          	addi	a2,a2,-1421 # a73 <_start-0x7ffff58d>
800025b0:	4681                	li	a3,0
800025b2:	c390                	sw	a2,0(a5)
800025b4:	c3d4                	sw	a3,4(a5)
800025b6:	a001                	j	800025b6 <handle_trap+0x14>

800025b8 <exit>:
800025b8:	1141                	addi	sp,sp,-16
800025ba:	c606                	sw	ra,12(sp)
800025bc:	37f9                	jal	8000258a <tohost_exit>

800025be <abort>:
800025be:	fffff797          	auipc	a5,0xfffff
800025c2:	a4278793          	addi	a5,a5,-1470 # 80001000 <tohost>
800025c6:	10d00613          	li	a2,269
800025ca:	4681                	li	a3,0
800025cc:	c390                	sw	a2,0(a5)
800025ce:	c3d4                	sw	a3,4(a5)
800025d0:	a001                	j	800025d0 <abort+0x12>

800025d2 <printstr>:
800025d2:	00054783          	lbu	a5,0(a0)
800025d6:	cfad                	beqz	a5,80002650 <printstr+0x7e>
800025d8:	7175                	addi	sp,sp,-144
800025da:	03f10613          	addi	a2,sp,63
800025de:	fc067613          	andi	a2,a2,-64
800025e2:	c722                	sw	s0,140(sp)
800025e4:	c526                	sw	s1,136(sp)
800025e6:	8e32                	mv	t3,a2
800025e8:	4e81                	li	t4,0
800025ea:	fffff697          	auipc	a3,0xfffff
800025ee:	a1668693          	addi	a3,a3,-1514 # 80001000 <tohost>
800025f2:	04000f13          	li	t5,64
800025f6:	4f81                	li	t6,0
800025f8:	4305                	li	t1,1
800025fa:	4381                	li	t2,0
800025fc:	01e62023          	sw	t5,0(a2)
80002600:	01f62223          	sw	t6,4(a2)
80002604:	00662423          	sw	t1,8(a2)
80002608:	00762623          	sw	t2,12(a2)
8000260c:	ca08                	sw	a0,16(a2)
8000260e:	4881                	li	a7,0
80002610:	01162a23          	sw	a7,20(a2)
80002614:	00662c23          	sw	t1,24(a2)
80002618:	00762e23          	sw	t2,28(a2)
8000261c:	0330000f          	fence	rw,rw
80002620:	01c6a023          	sw	t3,0(a3)
80002624:	01d6a223          	sw	t4,4(a3)
80002628:	4698                	lw	a4,8(a3)
8000262a:	46dc                	lw	a5,12(a3)
8000262c:	8f5d                	or	a4,a4,a5
8000262e:	df6d                	beqz	a4,80002628 <printstr+0x56>
80002630:	0006a423          	sw	zero,8(a3)
80002634:	0006a623          	sw	zero,12(a3)
80002638:	0330000f          	fence	rw,rw
8000263c:	00154783          	lbu	a5,1(a0)
80002640:	4200                	lw	s0,0(a2)
80002642:	4244                	lw	s1,4(a2)
80002644:	0505                	addi	a0,a0,1
80002646:	fbdd                	bnez	a5,800025fc <printstr+0x2a>
80002648:	443a                	lw	s0,140(sp)
8000264a:	44aa                	lw	s1,136(sp)
8000264c:	6149                	addi	sp,sp,144
8000264e:	8082                	ret
80002650:	8082                	ret

80002652 <thread_entry>:
80002652:	e111                	bnez	a0,80002656 <thread_entry+0x4>
80002654:	8082                	ret
80002656:	a001                	j	80002656 <thread_entry+0x4>

80002658 <printhex>:
80002658:	7179                	addi	sp,sp,-48
8000265a:	872a                	mv	a4,a0
8000265c:	d606                	sw	ra,44(sp)
8000265e:	0068                	addi	a0,sp,12
80002660:	01b10613          	addi	a2,sp,27
80002664:	4825                	li	a6,9
80002666:	a011                	j	8000266a <printhex+0x12>
80002668:	167d                	addi	a2,a2,-1
8000266a:	00f77693          	andi	a3,a4,15
8000266e:	00d837b3          	sltu	a5,a6,a3
80002672:	40f007b3          	neg	a5,a5
80002676:	0277f793          	andi	a5,a5,39
8000267a:	03078793          	addi	a5,a5,48
8000267e:	96be                	add	a3,a3,a5
80002680:	8311                	srli	a4,a4,0x4
80002682:	01c59793          	slli	a5,a1,0x1c
80002686:	00d60023          	sb	a3,0(a2)
8000268a:	973e                	add	a4,a4,a5
8000268c:	8191                	srli	a1,a1,0x4
8000268e:	fcc51de3          	bne	a0,a2,80002668 <printhex+0x10>
80002692:	00010e23          	sb	zero,28(sp)
80002696:	3f35                	jal	800025d2 <printstr>
80002698:	50b2                	lw	ra,44(sp)
8000269a:	6145                	addi	sp,sp,48
8000269c:	8082                	ret

8000269e <printf>:
8000269e:	7139                	addi	sp,sp,-64
800026a0:	02410313          	addi	t1,sp,36
800026a4:	d22e                	sw	a1,36(sp)
800026a6:	d432                	sw	a2,40(sp)
800026a8:	d636                	sw	a3,44(sp)
800026aa:	862a                	mv	a2,a0
800026ac:	869a                	mv	a3,t1
800026ae:	00000517          	auipc	a0,0x0
800026b2:	e2c50513          	addi	a0,a0,-468 # 800024da <putchar>
800026b6:	4581                	li	a1,0
800026b8:	ce06                	sw	ra,28(sp)
800026ba:	d83a                	sw	a4,48(sp)
800026bc:	da3e                	sw	a5,52(sp)
800026be:	dc42                	sw	a6,56(sp)
800026c0:	de46                	sw	a7,60(sp)
800026c2:	c61a                	sw	t1,12(sp)
800026c4:	3479                	jal	80002152 <vprintfmt>
800026c6:	40f2                	lw	ra,28(sp)
800026c8:	4501                	li	a0,0
800026ca:	6121                	addi	sp,sp,64
800026cc:	8082                	ret

800026ce <sprintf>:
800026ce:	715d                	addi	sp,sp,-80
800026d0:	03810313          	addi	t1,sp,56
800026d4:	d422                	sw	s0,40(sp)
800026d6:	c62a                	sw	a0,12(sp)
800026d8:	dc32                	sw	a2,56(sp)
800026da:	de36                	sw	a3,60(sp)
800026dc:	842a                	mv	s0,a0
800026de:	862e                	mv	a2,a1
800026e0:	00000517          	auipc	a0,0x0
800026e4:	dec50513          	addi	a0,a0,-532 # 800024cc <sprintf_putch.0>
800026e8:	006c                	addi	a1,sp,12
800026ea:	869a                	mv	a3,t1
800026ec:	d606                	sw	ra,44(sp)
800026ee:	c2be                	sw	a5,68(sp)
800026f0:	c0ba                	sw	a4,64(sp)
800026f2:	c4c2                	sw	a6,72(sp)
800026f4:	c6c6                	sw	a7,76(sp)
800026f6:	ce1a                	sw	t1,28(sp)
800026f8:	3ca9                	jal	80002152 <vprintfmt>
800026fa:	47b2                	lw	a5,12(sp)
800026fc:	00078023          	sb	zero,0(a5)
80002700:	4532                	lw	a0,12(sp)
80002702:	50b2                	lw	ra,44(sp)
80002704:	8d01                	sub	a0,a0,s0
80002706:	5422                	lw	s0,40(sp)
80002708:	6161                	addi	sp,sp,80
8000270a:	8082                	ret

8000270c <memcpy>:
8000270c:	00c5e7b3          	or	a5,a1,a2
80002710:	8fc9                	or	a5,a5,a0
80002712:	8b8d                	andi	a5,a5,3
80002714:	83ae                	mv	t2,a1
80002716:	00c506b3          	add	a3,a0,a2
8000271a:	cf91                	beqz	a5,80002736 <memcpy+0x2a>
8000271c:	962e                	add	a2,a2,a1
8000271e:	87aa                	mv	a5,a0
80002720:	08d57963          	bgeu	a0,a3,800027b2 <memcpy+0xa6>
80002724:	0005c703          	lbu	a4,0(a1)
80002728:	0585                	addi	a1,a1,1
8000272a:	0785                	addi	a5,a5,1
8000272c:	fee78fa3          	sb	a4,-1(a5)
80002730:	fec59ae3          	bne	a1,a2,80002724 <memcpy+0x18>
80002734:	8082                	ret
80002736:	02050713          	addi	a4,a0,32
8000273a:	06d77d63          	bgeu	a4,a3,800027b4 <memcpy+0xa8>
8000273e:	87ba                	mv	a5,a4
80002740:	0005a283          	lw	t0,0(a1)
80002744:	0045af83          	lw	t6,4(a1)
80002748:	0085af03          	lw	t5,8(a1)
8000274c:	00c5ae83          	lw	t4,12(a1)
80002750:	0105ae03          	lw	t3,16(a1)
80002754:	0145a303          	lw	t1,20(a1)
80002758:	0185a883          	lw	a7,24(a1)
8000275c:	01c5a803          	lw	a6,28(a1)
80002760:	02078793          	addi	a5,a5,32
80002764:	fc57a023          	sw	t0,-64(a5)
80002768:	fdf7a223          	sw	t6,-60(a5)
8000276c:	fde7a423          	sw	t5,-56(a5)
80002770:	fdd7a623          	sw	t4,-52(a5)
80002774:	fdc7a823          	sw	t3,-48(a5)
80002778:	fc67aa23          	sw	t1,-44(a5)
8000277c:	fd17ac23          	sw	a7,-40(a5)
80002780:	fd07ae23          	sw	a6,-36(a5)
80002784:	02058593          	addi	a1,a1,32
80002788:	fad7ece3          	bltu	a5,a3,80002740 <memcpy+0x34>
8000278c:	fdf60613          	addi	a2,a2,-33
80002790:	9a01                	andi	a2,a2,-32
80002792:	02038393          	addi	t2,t2,32
80002796:	00c707b3          	add	a5,a4,a2
8000279a:	00c385b3          	add	a1,t2,a2
8000279e:	f8d7fbe3          	bgeu	a5,a3,80002734 <memcpy+0x28>
800027a2:	4198                	lw	a4,0(a1)
800027a4:	0791                	addi	a5,a5,4
800027a6:	0591                	addi	a1,a1,4
800027a8:	fee7ae23          	sw	a4,-4(a5)
800027ac:	fed7ebe3          	bltu	a5,a3,800027a2 <memcpy+0x96>
800027b0:	8082                	ret
800027b2:	8082                	ret
800027b4:	87aa                	mv	a5,a0
800027b6:	b7e5                	j	8000279e <memcpy+0x92>

800027b8 <_init>:
800027b8:	7135                	addi	sp,sp,-160
800027ba:	81018793          	addi	a5,gp,-2032 # 80007340 <_end>
800027be:	cb26                	sw	s1,148(sp)
800027c0:	81018493          	addi	s1,gp,-2032 # 80007340 <_end>
800027c4:	c74e                	sw	s3,140(sp)
800027c6:	40f489b3          	sub	s3,s1,a5
800027ca:	c552                	sw	s4,136(sp)
800027cc:	c356                	sw	s5,132(sp)
800027ce:	864e                	mv	a2,s3
800027d0:	8a2a                	mv	s4,a0
800027d2:	8aae                	mv	s5,a1
800027d4:	8512                	mv	a0,tp
800027d6:	85be                	mv	a1,a5
800027d8:	cd22                	sw	s0,152(sp)
800027da:	c94a                	sw	s2,144(sp)
800027dc:	8412                	mv	s0,tp
800027de:	cf06                	sw	ra,156(sp)
800027e0:	3735                	jal	8000270c <memcpy>
800027e2:	81018793          	addi	a5,gp,-2032 # 80007340 <_end>
800027e6:	01340633          	add	a2,s0,s3
800027ea:	8f85                	sub	a5,a5,s1
800027ec:	00f66733          	or	a4,a2,a5
800027f0:	03f10913          	addi	s2,sp,63
800027f4:	8b0d                	andi	a4,a4,3
800027f6:	fc097913          	andi	s2,s2,-64
800027fa:	97b2                	add	a5,a5,a2
800027fc:	cf39                	beqz	a4,8000285a <_init+0xa2>
800027fe:	00f67763          	bgeu	a2,a5,8000280c <_init+0x54>
80002802:	0605                	addi	a2,a2,1
80002804:	fe060fa3          	sb	zero,-1(a2)
80002808:	fef61de3          	bne	a2,a5,80002802 <_init+0x4a>
8000280c:	85d6                	mv	a1,s5
8000280e:	8552                	mv	a0,s4
80002810:	3589                	jal	80002652 <thread_entry>
80002812:	4581                	li	a1,0
80002814:	4501                	li	a0,0
80002816:	27e9                	jal	80002fe0 <main>
80002818:	8aaa                	mv	s5,a0
8000281a:	89ca                	mv	s3,s2
8000281c:	00005417          	auipc	s0,0x5
80002820:	b1c40413          	addi	s0,s0,-1252 # 80007338 <counters>
80002824:	00005497          	auipc	s1,0x5
80002828:	b0c48493          	addi	s1,s1,-1268 # 80007330 <counter_names>
8000282c:	81018a13          	addi	s4,gp,-2032 # 80007340 <_end>
80002830:	4014                	lw	a3,0(s0)
80002832:	ea99                	bnez	a3,80002848 <_init+0x90>
80002834:	0411                	addi	s0,s0,4
80002836:	0491                	addi	s1,s1,4
80002838:	ff441ce3          	bne	s0,s4,80002830 <_init+0x78>
8000283c:	01298463          	beq	s3,s2,80002844 <_init+0x8c>
80002840:	854a                	mv	a0,s2
80002842:	3b41                	jal	800025d2 <printstr>
80002844:	8556                	mv	a0,s5
80002846:	3391                	jal	8000258a <tohost_exit>
80002848:	4090                	lw	a2,0(s1)
8000284a:	854e                	mv	a0,s3
8000284c:	00001597          	auipc	a1,0x1
80002850:	84458593          	addi	a1,a1,-1980 # 80003090 <main+0xb0>
80002854:	3dad                	jal	800026ce <sprintf>
80002856:	99aa                	add	s3,s3,a0
80002858:	bff1                	j	80002834 <_init+0x7c>
8000285a:	faf679e3          	bgeu	a2,a5,8000280c <_init+0x54>
8000285e:	0611                	addi	a2,a2,4
80002860:	fe062e23          	sw	zero,-4(a2)
80002864:	faf674e3          	bgeu	a2,a5,8000280c <_init+0x54>
80002868:	0611                	addi	a2,a2,4
8000286a:	fe062e23          	sw	zero,-4(a2)
8000286e:	fef668e3          	bltu	a2,a5,8000285e <_init+0xa6>
80002872:	bf69                	j	8000280c <_init+0x54>

80002874 <memset>:
80002874:	00c567b3          	or	a5,a0,a2
80002878:	8b8d                	andi	a5,a5,3
8000287a:	962a                	add	a2,a2,a0
8000287c:	cb91                	beqz	a5,80002890 <memset+0x1c>
8000287e:	87aa                	mv	a5,a0
80002880:	02c57963          	bgeu	a0,a2,800028b2 <memset+0x3e>
80002884:	0785                	addi	a5,a5,1
80002886:	feb78fa3          	sb	a1,-1(a5)
8000288a:	fec79de3          	bne	a5,a2,80002884 <memset+0x10>
8000288e:	8082                	ret
80002890:	fec57fe3          	bgeu	a0,a2,8000288e <memset+0x1a>
80002894:	0ff5f593          	zext.b	a1,a1
80002898:	00859713          	slli	a4,a1,0x8
8000289c:	972e                	add	a4,a4,a1
8000289e:	01071793          	slli	a5,a4,0x10
800028a2:	973e                	add	a4,a4,a5
800028a4:	87aa                	mv	a5,a0
800028a6:	0791                	addi	a5,a5,4
800028a8:	fee7ae23          	sw	a4,-4(a5)
800028ac:	fec7ede3          	bltu	a5,a2,800028a6 <memset+0x32>
800028b0:	8082                	ret
800028b2:	8082                	ret

800028b4 <strlen>:
800028b4:	00054783          	lbu	a5,0(a0)
800028b8:	cb89                	beqz	a5,800028ca <strlen+0x16>
800028ba:	87aa                	mv	a5,a0
800028bc:	0017c703          	lbu	a4,1(a5)
800028c0:	0785                	addi	a5,a5,1
800028c2:	ff6d                	bnez	a4,800028bc <strlen+0x8>
800028c4:	40a78533          	sub	a0,a5,a0
800028c8:	8082                	ret
800028ca:	4501                	li	a0,0
800028cc:	8082                	ret

800028ce <strnlen>:
800028ce:	00b506b3          	add	a3,a0,a1
800028d2:	87aa                	mv	a5,a0
800028d4:	e589                	bnez	a1,800028de <strnlen+0x10>
800028d6:	a811                	j	800028ea <strnlen+0x1c>
800028d8:	0785                	addi	a5,a5,1
800028da:	00d78563          	beq	a5,a3,800028e4 <strnlen+0x16>
800028de:	0007c703          	lbu	a4,0(a5)
800028e2:	fb7d                	bnez	a4,800028d8 <strnlen+0xa>
800028e4:	40a78533          	sub	a0,a5,a0
800028e8:	8082                	ret
800028ea:	4501                	li	a0,0
800028ec:	8082                	ret

800028ee <strcmp>:
800028ee:	86aa                	mv	a3,a0
800028f0:	0006c783          	lbu	a5,0(a3)
800028f4:	0005c603          	lbu	a2,0(a1)
800028f8:	0685                	addi	a3,a3,1
800028fa:	00f03733          	snez	a4,a5
800028fe:	40c78533          	sub	a0,a5,a2
80002902:	00153793          	seqz	a5,a0
80002906:	8ff9                	and	a5,a5,a4
80002908:	0585                	addi	a1,a1,1
8000290a:	f3fd                	bnez	a5,800028f0 <strcmp+0x2>
8000290c:	8082                	ret

8000290e <strcpy>:
8000290e:	87aa                	mv	a5,a0
80002910:	0005c703          	lbu	a4,0(a1)
80002914:	0585                	addi	a1,a1,1
80002916:	0785                	addi	a5,a5,1
80002918:	fee78fa3          	sb	a4,-1(a5)
8000291c:	fb75                	bnez	a4,80002910 <strcpy+0x2>
8000291e:	8082                	ret

80002920 <atol>:
80002920:	00054703          	lbu	a4,0(a0)
80002924:	02000693          	li	a3,32
80002928:	87aa                	mv	a5,a0
8000292a:	00d71763          	bne	a4,a3,80002938 <atol+0x18>
8000292e:	0017c703          	lbu	a4,1(a5)
80002932:	0785                	addi	a5,a5,1
80002934:	fed70de3          	beq	a4,a3,8000292e <atol+0xe>
80002938:	fd570693          	addi	a3,a4,-43
8000293c:	0fd6f693          	andi	a3,a3,253
80002940:	ea95                	bnez	a3,80002974 <atol+0x54>
80002942:	0017c683          	lbu	a3,1(a5)
80002946:	fd370713          	addi	a4,a4,-45
8000294a:	00173613          	seqz	a2,a4
8000294e:	ca8d                	beqz	a3,80002980 <atol+0x60>
80002950:	0785                	addi	a5,a5,1
80002952:	4501                	li	a0,0
80002954:	0785                	addi	a5,a5,1
80002956:	fd068593          	addi	a1,a3,-48
8000295a:	00251713          	slli	a4,a0,0x2
8000295e:	0007c683          	lbu	a3,0(a5)
80002962:	972a                	add	a4,a4,a0
80002964:	0706                	slli	a4,a4,0x1
80002966:	00e58533          	add	a0,a1,a4
8000296a:	f6ed                	bnez	a3,80002954 <atol+0x34>
8000296c:	c219                	beqz	a2,80002972 <atol+0x52>
8000296e:	40a00533          	neg	a0,a0
80002972:	8082                	ret
80002974:	0007c683          	lbu	a3,0(a5)
80002978:	4601                	li	a2,0
8000297a:	fee1                	bnez	a3,80002952 <atol+0x32>
8000297c:	4501                	li	a0,0
8000297e:	8082                	ret
80002980:	4501                	li	a0,0
80002982:	b7ed                	j	8000296c <atol+0x4c>

80002984 <__udivdi3>:
80002984:	8732                	mv	a4,a2
80002986:	88b6                	mv	a7,a3
80002988:	882a                	mv	a6,a0
8000298a:	832e                	mv	t1,a1
8000298c:	1c069363          	bnez	a3,80002b52 <__udivdi3+0x1ce>
80002990:	800037b7          	lui	a5,0x80003
80002994:	1f478793          	addi	a5,a5,500 # 800031f4 <__clz_tab>
80002998:	0ac5fb63          	bgeu	a1,a2,80002a4e <__udivdi3+0xca>
8000299c:	66c1                	lui	a3,0x10
8000299e:	08d67e63          	bgeu	a2,a3,80002a3a <__udivdi3+0xb6>
800029a2:	10063693          	sltiu	a3,a2,256
800029a6:	0016b693          	seqz	a3,a3
800029aa:	068e                	slli	a3,a3,0x3
800029ac:	00d65e33          	srl	t3,a2,a3
800029b0:	97f2                	add	a5,a5,t3
800029b2:	0007c783          	lbu	a5,0(a5)
800029b6:	97b6                	add	a5,a5,a3
800029b8:	02000693          	li	a3,32
800029bc:	00d78d63          	beq	a5,a3,800029d6 <__udivdi3+0x52>
800029c0:	8e9d                	sub	a3,a3,a5
800029c2:	00d59333          	sll	t1,a1,a3
800029c6:	00f557b3          	srl	a5,a0,a5
800029ca:	00d61733          	sll	a4,a2,a3
800029ce:	0067e333          	or	t1,a5,t1
800029d2:	00d51833          	sll	a6,a0,a3
800029d6:	01075513          	srli	a0,a4,0x10
800029da:	02a357b3          	divu	a5,t1,a0
800029de:	01071593          	slli	a1,a4,0x10
800029e2:	81c1                	srli	a1,a1,0x10
800029e4:	01085693          	srli	a3,a6,0x10
800029e8:	02a37333          	remu	t1,t1,a0
800029ec:	02f58633          	mul	a2,a1,a5
800029f0:	0342                	slli	t1,t1,0x10
800029f2:	0066e6b3          	or	a3,a3,t1
800029f6:	00c6f863          	bgeu	a3,a2,80002a06 <__udivdi3+0x82>
800029fa:	96ba                	add	a3,a3,a4
800029fc:	00c6f463          	bgeu	a3,a2,80002a04 <__udivdi3+0x80>
80002a00:	04e6f463          	bgeu	a3,a4,80002a48 <__udivdi3+0xc4>
80002a04:	17fd                	addi	a5,a5,-1
80002a06:	8e91                	sub	a3,a3,a2
80002a08:	02a6d633          	divu	a2,a3,a0
80002a0c:	0842                	slli	a6,a6,0x10
80002a0e:	01085813          	srli	a6,a6,0x10
80002a12:	02a6f6b3          	remu	a3,a3,a0
80002a16:	02c585b3          	mul	a1,a1,a2
80002a1a:	06c2                	slli	a3,a3,0x10
80002a1c:	00d86833          	or	a6,a6,a3
80002a20:	00b87863          	bgeu	a6,a1,80002a30 <__udivdi3+0xac>
80002a24:	983a                	add	a6,a6,a4
80002a26:	00b87463          	bgeu	a6,a1,80002a2e <__udivdi3+0xaa>
80002a2a:	12e87263          	bgeu	a6,a4,80002b4e <__udivdi3+0x1ca>
80002a2e:	167d                	addi	a2,a2,-1
80002a30:	07c2                	slli	a5,a5,0x10
80002a32:	8fd1                	or	a5,a5,a2
80002a34:	853e                	mv	a0,a5
80002a36:	85c6                	mv	a1,a7
80002a38:	8082                	ret
80002a3a:	01000e37          	lui	t3,0x1000
80002a3e:	46e1                	li	a3,24
80002a40:	f7c676e3          	bgeu	a2,t3,800029ac <__udivdi3+0x28>
80002a44:	46c1                	li	a3,16
80002a46:	b79d                	j	800029ac <__udivdi3+0x28>
80002a48:	17f9                	addi	a5,a5,-2
80002a4a:	96ba                	add	a3,a3,a4
80002a4c:	bf6d                	j	80002a06 <__udivdi3+0x82>
80002a4e:	4681                	li	a3,0
80002a50:	ca09                	beqz	a2,80002a62 <__udivdi3+0xde>
80002a52:	66c1                	lui	a3,0x10
80002a54:	04d67e63          	bgeu	a2,a3,80002ab0 <__udivdi3+0x12c>
80002a58:	10063693          	sltiu	a3,a2,256
80002a5c:	0016b693          	seqz	a3,a3
80002a60:	068e                	slli	a3,a3,0x3
80002a62:	00d658b3          	srl	a7,a2,a3
80002a66:	97c6                	add	a5,a5,a7
80002a68:	0007c783          	lbu	a5,0(a5)
80002a6c:	97b6                	add	a5,a5,a3
80002a6e:	02000693          	li	a3,32
80002a72:	04d79663          	bne	a5,a3,80002abe <__udivdi3+0x13a>
80002a76:	40c58633          	sub	a2,a1,a2
80002a7a:	4885                	li	a7,1
80002a7c:	01075513          	srli	a0,a4,0x10
80002a80:	02a657b3          	divu	a5,a2,a0
80002a84:	01071593          	slli	a1,a4,0x10
80002a88:	81c1                	srli	a1,a1,0x10
80002a8a:	01085693          	srli	a3,a6,0x10
80002a8e:	02a67633          	remu	a2,a2,a0
80002a92:	02f58333          	mul	t1,a1,a5
80002a96:	0642                	slli	a2,a2,0x10
80002a98:	8ed1                	or	a3,a3,a2
80002a9a:	0066f863          	bgeu	a3,t1,80002aaa <__udivdi3+0x126>
80002a9e:	96ba                	add	a3,a3,a4
80002aa0:	0066f463          	bgeu	a3,t1,80002aa8 <__udivdi3+0x124>
80002aa4:	0ae6f263          	bgeu	a3,a4,80002b48 <__udivdi3+0x1c4>
80002aa8:	17fd                	addi	a5,a5,-1
80002aaa:	406686b3          	sub	a3,a3,t1
80002aae:	bfa9                	j	80002a08 <__udivdi3+0x84>
80002ab0:	010008b7          	lui	a7,0x1000
80002ab4:	46e1                	li	a3,24
80002ab6:	fb1676e3          	bgeu	a2,a7,80002a62 <__udivdi3+0xde>
80002aba:	46c1                	li	a3,16
80002abc:	b75d                	j	80002a62 <__udivdi3+0xde>
80002abe:	40f68833          	sub	a6,a3,a5
80002ac2:	01061733          	sll	a4,a2,a6
80002ac6:	00f5d6b3          	srl	a3,a1,a5
80002aca:	010595b3          	sll	a1,a1,a6
80002ace:	00f557b3          	srl	a5,a0,a5
80002ad2:	01051833          	sll	a6,a0,a6
80002ad6:	01075513          	srli	a0,a4,0x10
80002ada:	02a6d8b3          	divu	a7,a3,a0
80002ade:	01071613          	slli	a2,a4,0x10
80002ae2:	8241                	srli	a2,a2,0x10
80002ae4:	8fcd                	or	a5,a5,a1
80002ae6:	02a6f6b3          	remu	a3,a3,a0
80002aea:	03160333          	mul	t1,a2,a7
80002aee:	01069593          	slli	a1,a3,0x10
80002af2:	0107d693          	srli	a3,a5,0x10
80002af6:	8ecd                	or	a3,a3,a1
80002af8:	0066f863          	bgeu	a3,t1,80002b08 <__udivdi3+0x184>
80002afc:	96ba                	add	a3,a3,a4
80002afe:	0066f463          	bgeu	a3,t1,80002b06 <__udivdi3+0x182>
80002b02:	02e6fd63          	bgeu	a3,a4,80002b3c <__udivdi3+0x1b8>
80002b06:	18fd                	addi	a7,a7,-1 # ffffff <_start-0x7f000001>
80002b08:	406686b3          	sub	a3,a3,t1
80002b0c:	02a6d5b3          	divu	a1,a3,a0
80002b10:	07c2                	slli	a5,a5,0x10
80002b12:	83c1                	srli	a5,a5,0x10
80002b14:	02a6f6b3          	remu	a3,a3,a0
80002b18:	02b60633          	mul	a2,a2,a1
80002b1c:	06c2                	slli	a3,a3,0x10
80002b1e:	8fd5                	or	a5,a5,a3
80002b20:	00c7f863          	bgeu	a5,a2,80002b30 <__udivdi3+0x1ac>
80002b24:	97ba                	add	a5,a5,a4
80002b26:	00c7f463          	bgeu	a5,a2,80002b2e <__udivdi3+0x1aa>
80002b2a:	00e7fc63          	bgeu	a5,a4,80002b42 <__udivdi3+0x1be>
80002b2e:	15fd                	addi	a1,a1,-1
80002b30:	08c2                	slli	a7,a7,0x10
80002b32:	40c78633          	sub	a2,a5,a2
80002b36:	00b8e8b3          	or	a7,a7,a1
80002b3a:	b789                	j	80002a7c <__udivdi3+0xf8>
80002b3c:	18f9                	addi	a7,a7,-2
80002b3e:	96ba                	add	a3,a3,a4
80002b40:	b7e1                	j	80002b08 <__udivdi3+0x184>
80002b42:	15f9                	addi	a1,a1,-2
80002b44:	97ba                	add	a5,a5,a4
80002b46:	b7ed                	j	80002b30 <__udivdi3+0x1ac>
80002b48:	17f9                	addi	a5,a5,-2
80002b4a:	96ba                	add	a3,a3,a4
80002b4c:	bfb9                	j	80002aaa <__udivdi3+0x126>
80002b4e:	1679                	addi	a2,a2,-2
80002b50:	b5c5                	j	80002a30 <__udivdi3+0xac>
80002b52:	12d5eb63          	bltu	a1,a3,80002c88 <__udivdi3+0x304>
80002b56:	67c1                	lui	a5,0x10
80002b58:	02f6fe63          	bgeu	a3,a5,80002b94 <__udivdi3+0x210>
80002b5c:	1006b793          	sltiu	a5,a3,256
80002b60:	0017b793          	seqz	a5,a5
80002b64:	078e                	slli	a5,a5,0x3
80002b66:	80003737          	lui	a4,0x80003
80002b6a:	00f6d833          	srl	a6,a3,a5
80002b6e:	1f470713          	addi	a4,a4,500 # 800031f4 <__clz_tab>
80002b72:	9742                	add	a4,a4,a6
80002b74:	00074703          	lbu	a4,0(a4)
80002b78:	02000813          	li	a6,32
80002b7c:	973e                	add	a4,a4,a5
80002b7e:	03071263          	bne	a4,a6,80002ba2 <__udivdi3+0x21e>
80002b82:	00c537b3          	sltu	a5,a0,a2
80002b86:	0017b793          	seqz	a5,a5
80002b8a:	00b6b6b3          	sltu	a3,a3,a1
80002b8e:	8fd5                	or	a5,a5,a3
80002b90:	4881                	li	a7,0
80002b92:	b54d                	j	80002a34 <__udivdi3+0xb0>
80002b94:	01000737          	lui	a4,0x1000
80002b98:	47e1                	li	a5,24
80002b9a:	fce6f6e3          	bgeu	a3,a4,80002b66 <__udivdi3+0x1e2>
80002b9e:	47c1                	li	a5,16
80002ba0:	b7d9                	j	80002b66 <__udivdi3+0x1e2>
80002ba2:	40e80833          	sub	a6,a6,a4
80002ba6:	00e658b3          	srl	a7,a2,a4
80002baa:	010696b3          	sll	a3,a3,a6
80002bae:	00d8e8b3          	or	a7,a7,a3
80002bb2:	0108de13          	srli	t3,a7,0x10
80002bb6:	00e5d6b3          	srl	a3,a1,a4
80002bba:	03c6d7b3          	divu	a5,a3,t3
80002bbe:	01089313          	slli	t1,a7,0x10
80002bc2:	01035313          	srli	t1,t1,0x10
80002bc6:	010595b3          	sll	a1,a1,a6
80002bca:	00e55733          	srl	a4,a0,a4
80002bce:	8f4d                	or	a4,a4,a1
80002bd0:	01061633          	sll	a2,a2,a6
80002bd4:	03c6f6b3          	remu	a3,a3,t3
80002bd8:	02f30eb3          	mul	t4,t1,a5
80002bdc:	01069593          	slli	a1,a3,0x10
80002be0:	01075693          	srli	a3,a4,0x10
80002be4:	8ecd                	or	a3,a3,a1
80002be6:	01d6f863          	bgeu	a3,t4,80002bf6 <__udivdi3+0x272>
80002bea:	96c6                	add	a3,a3,a7
80002bec:	01d6f463          	bgeu	a3,t4,80002bf4 <__udivdi3+0x270>
80002bf0:	0916f663          	bgeu	a3,a7,80002c7c <__udivdi3+0x2f8>
80002bf4:	17fd                	addi	a5,a5,-1 # ffff <_start-0x7fff0001>
80002bf6:	41d686b3          	sub	a3,a3,t4
80002bfa:	03c6d5b3          	divu	a1,a3,t3
80002bfe:	0742                	slli	a4,a4,0x10
80002c00:	8341                	srli	a4,a4,0x10
80002c02:	03c6f6b3          	remu	a3,a3,t3
80002c06:	02b30333          	mul	t1,t1,a1
80002c0a:	06c2                	slli	a3,a3,0x10
80002c0c:	8f55                	or	a4,a4,a3
80002c0e:	00677863          	bgeu	a4,t1,80002c1e <__udivdi3+0x29a>
80002c12:	9746                	add	a4,a4,a7
80002c14:	00677463          	bgeu	a4,t1,80002c1c <__udivdi3+0x298>
80002c18:	07177563          	bgeu	a4,a7,80002c82 <__udivdi3+0x2fe>
80002c1c:	15fd                	addi	a1,a1,-1
80002c1e:	07c2                	slli	a5,a5,0x10
80002c20:	8fcd                	or	a5,a5,a1
80002c22:	40670733          	sub	a4,a4,t1
80002c26:	05c2                	slli	a1,a1,0x10
80002c28:	01061313          	slli	t1,a2,0x10
80002c2c:	81c1                	srli	a1,a1,0x10
80002c2e:	0107d893          	srli	a7,a5,0x10
80002c32:	01035313          	srli	t1,t1,0x10
80002c36:	8241                	srli	a2,a2,0x10
80002c38:	02658e33          	mul	t3,a1,t1
80002c3c:	02688333          	mul	t1,a7,t1
80002c40:	010e5693          	srli	a3,t3,0x10
80002c44:	02c585b3          	mul	a1,a1,a2
80002c48:	02c888b3          	mul	a7,a7,a2
80002c4c:	959a                	add	a1,a1,t1
80002c4e:	96ae                	add	a3,a3,a1
80002c50:	0066f463          	bgeu	a3,t1,80002c58 <__udivdi3+0x2d4>
80002c54:	6641                	lui	a2,0x10
80002c56:	98b2                	add	a7,a7,a2
80002c58:	0106d613          	srli	a2,a3,0x10
80002c5c:	9646                	add	a2,a2,a7
80002c5e:	00c76d63          	bltu	a4,a2,80002c78 <__udivdi3+0x2f4>
80002c62:	0e42                	slli	t3,t3,0x10
80002c64:	06c2                	slli	a3,a3,0x10
80002c66:	010e5e13          	srli	t3,t3,0x10
80002c6a:	01051533          	sll	a0,a0,a6
80002c6e:	96f2                	add	a3,a3,t3
80002c70:	f2d570e3          	bgeu	a0,a3,80002b90 <__udivdi3+0x20c>
80002c74:	f0c71ee3          	bne	a4,a2,80002b90 <__udivdi3+0x20c>
80002c78:	17fd                	addi	a5,a5,-1
80002c7a:	bf19                	j	80002b90 <__udivdi3+0x20c>
80002c7c:	17f9                	addi	a5,a5,-2
80002c7e:	96c6                	add	a3,a3,a7
80002c80:	bf9d                	j	80002bf6 <__udivdi3+0x272>
80002c82:	15f9                	addi	a1,a1,-2
80002c84:	9746                	add	a4,a4,a7
80002c86:	bf61                	j	80002c1e <__udivdi3+0x29a>
80002c88:	4881                	li	a7,0
80002c8a:	4781                	li	a5,0
80002c8c:	b365                	j	80002a34 <__udivdi3+0xb0>

80002c8e <__umoddi3>:
80002c8e:	8832                	mv	a6,a2
80002c90:	87aa                	mv	a5,a0
80002c92:	872e                	mv	a4,a1
80002c94:	1e069063          	bnez	a3,80002e74 <__umoddi3+0x1e6>
80002c98:	800036b7          	lui	a3,0x80003
80002c9c:	1f468693          	addi	a3,a3,500 # 800031f4 <__clz_tab>
80002ca0:	0cc5f263          	bgeu	a1,a2,80002d64 <__umoddi3+0xd6>
80002ca4:	68c1                	lui	a7,0x10
80002ca6:	0b167863          	bgeu	a2,a7,80002d56 <__umoddi3+0xc8>
80002caa:	10063893          	sltiu	a7,a2,256
80002cae:	0018b893          	seqz	a7,a7
80002cb2:	088e                	slli	a7,a7,0x3
80002cb4:	01165333          	srl	t1,a2,a7
80002cb8:	969a                	add	a3,a3,t1
80002cba:	0006c683          	lbu	a3,0(a3)
80002cbe:	02000313          	li	t1,32
80002cc2:	96c6                	add	a3,a3,a7
80002cc4:	40d308b3          	sub	a7,t1,a3
80002cc8:	00668b63          	beq	a3,t1,80002cde <__umoddi3+0x50>
80002ccc:	01159733          	sll	a4,a1,a7
80002cd0:	00d556b3          	srl	a3,a0,a3
80002cd4:	01161833          	sll	a6,a2,a7
80002cd8:	8f55                	or	a4,a4,a3
80002cda:	011517b3          	sll	a5,a0,a7
80002cde:	01085513          	srli	a0,a6,0x10
80002ce2:	02a756b3          	divu	a3,a4,a0
80002ce6:	01081313          	slli	t1,a6,0x10
80002cea:	01035313          	srli	t1,t1,0x10
80002cee:	02a77733          	remu	a4,a4,a0
80002cf2:	026686b3          	mul	a3,a3,t1
80002cf6:	01071593          	slli	a1,a4,0x10
80002cfa:	0107d713          	srli	a4,a5,0x10
80002cfe:	8f4d                	or	a4,a4,a1
80002d00:	00d77d63          	bgeu	a4,a3,80002d1a <__umoddi3+0x8c>
80002d04:	9742                	add	a4,a4,a6
80002d06:	010735b3          	sltu	a1,a4,a6
80002d0a:	00d73633          	sltu	a2,a4,a3
80002d0e:	0015b593          	seqz	a1,a1
80002d12:	8e6d                	and	a2,a2,a1
80002d14:	03060633          	mul	a2,a2,a6
80002d18:	9732                	add	a4,a4,a2
80002d1a:	8f15                	sub	a4,a4,a3
80002d1c:	02a756b3          	divu	a3,a4,a0
80002d20:	02a77733          	remu	a4,a4,a0
80002d24:	026686b3          	mul	a3,a3,t1
80002d28:	01079513          	slli	a0,a5,0x10
80002d2c:	0742                	slli	a4,a4,0x10
80002d2e:	8141                	srli	a0,a0,0x10
80002d30:	8d59                	or	a0,a0,a4
80002d32:	00d57d63          	bgeu	a0,a3,80002d4c <__umoddi3+0xbe>
80002d36:	9542                	add	a0,a0,a6
80002d38:	01053733          	sltu	a4,a0,a6
80002d3c:	00d537b3          	sltu	a5,a0,a3
80002d40:	00173713          	seqz	a4,a4
80002d44:	8ff9                	and	a5,a5,a4
80002d46:	030787b3          	mul	a5,a5,a6
80002d4a:	953e                	add	a0,a0,a5
80002d4c:	8d15                	sub	a0,a0,a3
80002d4e:	01155533          	srl	a0,a0,a7
80002d52:	4581                	li	a1,0
80002d54:	8082                	ret
80002d56:	01000337          	lui	t1,0x1000
80002d5a:	48e1                	li	a7,24
80002d5c:	f4667ce3          	bgeu	a2,t1,80002cb4 <__umoddi3+0x26>
80002d60:	48c1                	li	a7,16
80002d62:	bf89                	j	80002cb4 <__umoddi3+0x26>
80002d64:	4701                	li	a4,0
80002d66:	ca09                	beqz	a2,80002d78 <__umoddi3+0xea>
80002d68:	6741                	lui	a4,0x10
80002d6a:	06e67a63          	bgeu	a2,a4,80002dde <__umoddi3+0x150>
80002d6e:	10063713          	sltiu	a4,a2,256
80002d72:	00173713          	seqz	a4,a4
80002d76:	070e                	slli	a4,a4,0x3
80002d78:	00e658b3          	srl	a7,a2,a4
80002d7c:	96c6                	add	a3,a3,a7
80002d7e:	0006c683          	lbu	a3,0(a3)
80002d82:	96ba                	add	a3,a3,a4
80002d84:	02000713          	li	a4,32
80002d88:	40d708b3          	sub	a7,a4,a3
80002d8c:	06e69063          	bne	a3,a4,80002dec <__umoddi3+0x15e>
80002d90:	40c586b3          	sub	a3,a1,a2
80002d94:	01085593          	srli	a1,a6,0x10
80002d98:	02b6d633          	divu	a2,a3,a1
80002d9c:	01081313          	slli	t1,a6,0x10
80002da0:	01035313          	srli	t1,t1,0x10
80002da4:	0107d713          	srli	a4,a5,0x10
80002da8:	02b6f6b3          	remu	a3,a3,a1
80002dac:	02660633          	mul	a2,a2,t1
80002db0:	06c2                	slli	a3,a3,0x10
80002db2:	8f55                	or	a4,a4,a3
80002db4:	00c77d63          	bgeu	a4,a2,80002dce <__umoddi3+0x140>
80002db8:	9742                	add	a4,a4,a6
80002dba:	01073533          	sltu	a0,a4,a6
80002dbe:	00c736b3          	sltu	a3,a4,a2
80002dc2:	00153513          	seqz	a0,a0
80002dc6:	8ee9                	and	a3,a3,a0
80002dc8:	030686b3          	mul	a3,a3,a6
80002dcc:	9736                	add	a4,a4,a3
80002dce:	8f11                	sub	a4,a4,a2
80002dd0:	02b756b3          	divu	a3,a4,a1
80002dd4:	02b77733          	remu	a4,a4,a1
80002dd8:	026686b3          	mul	a3,a3,t1
80002ddc:	b7b1                	j	80002d28 <__umoddi3+0x9a>
80002dde:	010008b7          	lui	a7,0x1000
80002de2:	4761                	li	a4,24
80002de4:	f9167ae3          	bgeu	a2,a7,80002d78 <__umoddi3+0xea>
80002de8:	4741                	li	a4,16
80002dea:	b779                	j	80002d78 <__umoddi3+0xea>
80002dec:	01161833          	sll	a6,a2,a7
80002df0:	00d5d733          	srl	a4,a1,a3
80002df4:	011517b3          	sll	a5,a0,a7
80002df8:	011595b3          	sll	a1,a1,a7
80002dfc:	00d556b3          	srl	a3,a0,a3
80002e00:	01085513          	srli	a0,a6,0x10
80002e04:	8ecd                	or	a3,a3,a1
80002e06:	02a755b3          	divu	a1,a4,a0
80002e0a:	01081e13          	slli	t3,a6,0x10
80002e0e:	010e5e13          	srli	t3,t3,0x10
80002e12:	02a77733          	remu	a4,a4,a0
80002e16:	03c585b3          	mul	a1,a1,t3
80002e1a:	01071613          	slli	a2,a4,0x10
80002e1e:	0106d713          	srli	a4,a3,0x10
80002e22:	8f51                	or	a4,a4,a2
80002e24:	00b77e63          	bgeu	a4,a1,80002e40 <__umoddi3+0x1b2>
80002e28:	9742                	add	a4,a4,a6
80002e2a:	01073333          	sltu	t1,a4,a6
80002e2e:	00b73633          	sltu	a2,a4,a1
80002e32:	00133313          	seqz	t1,t1
80002e36:	00667633          	and	a2,a2,t1
80002e3a:	03060633          	mul	a2,a2,a6
80002e3e:	9732                	add	a4,a4,a2
80002e40:	8f0d                	sub	a4,a4,a1
80002e42:	02a75633          	divu	a2,a4,a0
80002e46:	06c2                	slli	a3,a3,0x10
80002e48:	82c1                	srli	a3,a3,0x10
80002e4a:	02a77733          	remu	a4,a4,a0
80002e4e:	03c60633          	mul	a2,a2,t3
80002e52:	0742                	slli	a4,a4,0x10
80002e54:	8ed9                	or	a3,a3,a4
80002e56:	00c6fd63          	bgeu	a3,a2,80002e70 <__umoddi3+0x1e2>
80002e5a:	96c2                	add	a3,a3,a6
80002e5c:	0106b5b3          	sltu	a1,a3,a6
80002e60:	00c6b733          	sltu	a4,a3,a2
80002e64:	0015b593          	seqz	a1,a1
80002e68:	8f6d                	and	a4,a4,a1
80002e6a:	03070733          	mul	a4,a4,a6
80002e6e:	96ba                	add	a3,a3,a4
80002e70:	8e91                	sub	a3,a3,a2
80002e72:	b70d                	j	80002d94 <__umoddi3+0x106>
80002e74:	14d5ef63          	bltu	a1,a3,80002fd2 <__umoddi3+0x344>
80002e78:	6841                	lui	a6,0x10
80002e7a:	0506f563          	bgeu	a3,a6,80002ec4 <__umoddi3+0x236>
80002e7e:	1006b893          	sltiu	a7,a3,256
80002e82:	0018b893          	seqz	a7,a7
80002e86:	088e                	slli	a7,a7,0x3
80002e88:	80003837          	lui	a6,0x80003
80002e8c:	0116d333          	srl	t1,a3,a7
80002e90:	1f480813          	addi	a6,a6,500 # 800031f4 <__clz_tab>
80002e94:	981a                	add	a6,a6,t1
80002e96:	00084803          	lbu	a6,0(a6)
80002e9a:	9846                	add	a6,a6,a7
80002e9c:	02000893          	li	a7,32
80002ea0:	03181963          	bne	a6,a7,80002ed2 <__umoddi3+0x244>
80002ea4:	00c57463          	bgeu	a0,a2,80002eac <__umoddi3+0x21e>
80002ea8:	00b6fb63          	bgeu	a3,a1,80002ebe <__umoddi3+0x230>
80002eac:	40c50733          	sub	a4,a0,a2
80002eb0:	87ba                	mv	a5,a4
80002eb2:	40d586b3          	sub	a3,a1,a3
80002eb6:	00e53733          	sltu	a4,a0,a4
80002eba:	40e68733          	sub	a4,a3,a4
80002ebe:	853e                	mv	a0,a5
80002ec0:	85ba                	mv	a1,a4
80002ec2:	8082                	ret
80002ec4:	01000837          	lui	a6,0x1000
80002ec8:	48e1                	li	a7,24
80002eca:	fb06ffe3          	bgeu	a3,a6,80002e88 <__umoddi3+0x1fa>
80002ece:	48c1                	li	a7,16
80002ed0:	bf65                	j	80002e88 <__umoddi3+0x1fa>
80002ed2:	410888b3          	sub	a7,a7,a6
80002ed6:	011696b3          	sll	a3,a3,a7
80002eda:	01065333          	srl	t1,a2,a6
80002ede:	00d36333          	or	t1,t1,a3
80002ee2:	0105d733          	srl	a4,a1,a6
80002ee6:	01035e93          	srli	t4,t1,0x10
80002eea:	03d756b3          	divu	a3,a4,t4
80002eee:	01031e13          	slli	t3,t1,0x10
80002ef2:	010e5e13          	srli	t3,t3,0x10
80002ef6:	011597b3          	sll	a5,a1,a7
80002efa:	010555b3          	srl	a1,a0,a6
80002efe:	8ddd                	or	a1,a1,a5
80002f00:	0105d793          	srli	a5,a1,0x10
80002f04:	03d77733          	remu	a4,a4,t4
80002f08:	01161633          	sll	a2,a2,a7
80002f0c:	01151533          	sll	a0,a0,a7
80002f10:	02de0f33          	mul	t5,t3,a3
80002f14:	0742                	slli	a4,a4,0x10
80002f16:	8fd9                	or	a5,a5,a4
80002f18:	01e7f863          	bgeu	a5,t5,80002f28 <__umoddi3+0x29a>
80002f1c:	979a                	add	a5,a5,t1
80002f1e:	01e7f463          	bgeu	a5,t5,80002f26 <__umoddi3+0x298>
80002f22:	0a67f963          	bgeu	a5,t1,80002fd4 <__umoddi3+0x346>
80002f26:	16fd                	addi	a3,a3,-1
80002f28:	41e787b3          	sub	a5,a5,t5
80002f2c:	03d7d733          	divu	a4,a5,t4
80002f30:	05c2                	slli	a1,a1,0x10
80002f32:	81c1                	srli	a1,a1,0x10
80002f34:	03d7f7b3          	remu	a5,a5,t4
80002f38:	02ee0e33          	mul	t3,t3,a4
80002f3c:	07c2                	slli	a5,a5,0x10
80002f3e:	8ddd                	or	a1,a1,a5
80002f40:	01c5f863          	bgeu	a1,t3,80002f50 <__umoddi3+0x2c2>
80002f44:	959a                	add	a1,a1,t1
80002f46:	01c5f463          	bgeu	a1,t3,80002f4e <__umoddi3+0x2c0>
80002f4a:	0865f863          	bgeu	a1,t1,80002fda <__umoddi3+0x34c>
80002f4e:	177d                	addi	a4,a4,-1 # ffff <_start-0x7fff0001>
80002f50:	06c2                	slli	a3,a3,0x10
80002f52:	8ed9                	or	a3,a3,a4
80002f54:	41c585b3          	sub	a1,a1,t3
80002f58:	0742                	slli	a4,a4,0x10
80002f5a:	01061e13          	slli	t3,a2,0x10
80002f5e:	01065793          	srli	a5,a2,0x10
80002f62:	8341                	srli	a4,a4,0x10
80002f64:	82c1                	srli	a3,a3,0x10
80002f66:	010e5e13          	srli	t3,t3,0x10
80002f6a:	03c70eb3          	mul	t4,a4,t3
80002f6e:	03c68e33          	mul	t3,a3,t3
80002f72:	02f70733          	mul	a4,a4,a5
80002f76:	02f686b3          	mul	a3,a3,a5
80002f7a:	01c707b3          	add	a5,a4,t3
80002f7e:	010ed713          	srli	a4,t4,0x10
80002f82:	973e                	add	a4,a4,a5
80002f84:	01c77463          	bgeu	a4,t3,80002f8c <__umoddi3+0x2fe>
80002f88:	67c1                	lui	a5,0x10
80002f8a:	96be                	add	a3,a3,a5
80002f8c:	01075793          	srli	a5,a4,0x10
80002f90:	0ec2                	slli	t4,t4,0x10
80002f92:	0742                	slli	a4,a4,0x10
80002f94:	010ede93          	srli	t4,t4,0x10
80002f98:	97b6                	add	a5,a5,a3
80002f9a:	9776                	add	a4,a4,t4
80002f9c:	00f5e663          	bltu	a1,a5,80002fa8 <__umoddi3+0x31a>
80002fa0:	00e57b63          	bgeu	a0,a4,80002fb6 <__umoddi3+0x328>
80002fa4:	00f59963          	bne	a1,a5,80002fb6 <__umoddi3+0x328>
80002fa8:	40c70633          	sub	a2,a4,a2
80002fac:	00c736b3          	sltu	a3,a4,a2
80002fb0:	969a                	add	a3,a3,t1
80002fb2:	8732                	mv	a4,a2
80002fb4:	8f95                	sub	a5,a5,a3
80002fb6:	40e50733          	sub	a4,a0,a4
80002fba:	00e53533          	sltu	a0,a0,a4
80002fbe:	8d9d                	sub	a1,a1,a5
80002fc0:	8d89                	sub	a1,a1,a0
80002fc2:	01059833          	sll	a6,a1,a6
80002fc6:	01175733          	srl	a4,a4,a7
80002fca:	00e86533          	or	a0,a6,a4
80002fce:	0115d5b3          	srl	a1,a1,a7
80002fd2:	8082                	ret
80002fd4:	16f9                	addi	a3,a3,-2
80002fd6:	979a                	add	a5,a5,t1
80002fd8:	bf81                	j	80002f28 <__umoddi3+0x29a>
80002fda:	1779                	addi	a4,a4,-2
80002fdc:	959a                	add	a1,a1,t1
80002fde:	bf8d                	j	80002f50 <__umoddi3+0x2c2>

セクション .text.startup の逆アセンブル:

80002fe0 <main>:
80002fe0:	1141                	addi	sp,sp,-16
80002fe2:	c422                	sw	s0,8(sp)
80002fe4:	6405                	lui	s0,0x1
80002fe6:	80040513          	addi	a0,s0,-2048 # 800 <_start-0x7ffff800>
80002fea:	00000597          	auipc	a1,0x0
80002fee:	34658593          	addi	a1,a1,838 # 80003330 <verify_data>
80002ff2:	c606                	sw	ra,12(sp)
80002ff4:	83cff0ef          	jal	80002030 <sort>
80002ff8:	00002517          	auipc	a0,0x2
80002ffc:	33850513          	addi	a0,a0,824 # 80005330 <input_data>
80003000:	800ff0ef          	jal	80002000 <verify.constprop.0>
80003004:	c511                	beqz	a0,80003010 <main+0x30>
80003006:	40b2                	lw	ra,12(sp)
80003008:	4422                	lw	s0,8(sp)
8000300a:	4505                	li	a0,1
8000300c:	0141                	addi	sp,sp,16
8000300e:	8082                	ret
80003010:	4505                	li	a0,1
80003012:	d2eff0ef          	jal	80002540 <setStats>
80003016:	80040513          	addi	a0,s0,-2048
8000301a:	00002597          	auipc	a1,0x2
8000301e:	31658593          	addi	a1,a1,790 # 80005330 <input_data>
80003022:	80eff0ef          	jal	80002030 <sort>
80003026:	4501                	li	a0,0
80003028:	d18ff0ef          	jal	80002540 <setStats>
8000302c:	4422                	lw	s0,8(sp)
8000302e:	40b2                	lw	ra,12(sp)
80003030:	00000517          	auipc	a0,0x0
80003034:	30050513          	addi	a0,a0,768 # 80003330 <verify_data>
80003038:	0141                	addi	sp,sp,16
8000303a:	fc7fe06f          	j	80002000 <verify.constprop.0>
8000303e:	1141                	addi	sp,sp,-16
80003040:	00000517          	auipc	a0,0x0
80003044:	03850513          	addi	a0,a0,56 # 80003078 <main+0x98>
80003048:	c606                	sw	ra,12(sp)
8000304a:	d88ff0ef          	jal	800025d2 <printstr>
8000304e:	40b2                	lw	ra,12(sp)
80003050:	557d                	li	a0,-1
80003052:	0141                	addi	sp,sp,16
80003054:	8082                	ret

セクション .data の逆アセンブル:

80003330 <verify_data>:
80003330:	000a8b27          	.insn	4, 0x000a8b27
80003334:	bef4                	fsd	fa3,248(a3)
80003336:	000d                	c.nop	3
80003338:	83c4                	.insn	2, 0x83c4
8000333a:	0021                	c.nop	8
8000333c:	9b62                	add	s6,s6,s8
8000333e:	0026                	c.slli	zero,0x9
80003340:	0030356f          	jal	a0,80006b42 <input_data+0x1812>
80003344:	be92                	fsd	ft4,376(sp)
80003346:	0035                	c.nop	13
80003348:	0039e5ef          	jal	a1,800a1b4a <__global_pointer$+0x9a01a>
8000334c:	82bc                	.insn	2, 0x82bc
8000334e:	003d                	c.nop	15
80003350:	02d6                	slli	t0,t0,0x15
80003352:	0051                	c.nop	20
80003354:	d704                	sw	s1,40(a4)
80003356:	0051                	c.nop	20
80003358:	00949033          	sll	zero,s1,s1
8000335c:	1df9                	addi	s11,s11,-2
8000335e:	779600af          	.insn	4, 0x779600af
80003362:	00c2                	slli	ra,ra,0x10
80003364:	1040                	addi	s0,sp,36
80003366:	00c4                	addi	s1,sp,68
80003368:	00c56a53          	fadd.s	fs4,fa0,fa2,unknown
8000336c:	1f1d                	addi	t5,t5,-25
8000336e:	00c9                	addi	ra,ra,18
80003370:	00d3e7bb          	.insn	4, 0x00d3e7bb
80003374:	8b4c                	.insn	2, 0x8b4c
80003376:	459500d7          	.insn	4, 0x459500d7
8000337a:	00d9                	addi	ra,ra,22
8000337c:	6bd8                	flw	fa4,20(a5)
8000337e:	00fa                	slli	ra,ra,0x1e
80003380:	0125630f          	.insn	4, 0x0125630f
80003384:	ffb9                	bnez	a5,800032e2 <__clz_tab+0xee>
80003386:	013a                	slli	sp,sp,0xe
80003388:	d932                	sw	a2,176(sp)
8000338a:	0144                	addi	s1,sp,132
8000338c:	c7f5                	beqz	a5,80003478 <verify_data+0x148>
8000338e:	0151                	addi	sp,sp,20
80003390:	54ee                	lw	s1,248(sp)
80003392:	5b5b015b          	.insn	4, 0x5b5b015b
80003396:	00ad0163          	beq	s10,a0,80003398 <verify_data+0x68>
8000339a:	0174                	addi	a3,sp,140
8000339c:	fa95                	bnez	a3,800032d0 <__clz_tab+0xdc>
8000339e:	018a                	slli	gp,gp,0x2
800033a0:	30b0                	fld	fa2,96(s1)
800033a2:	0191                	addi	gp,gp,4 # 80007b34 <__global_pointer$+0x4>
800033a4:	019736cb          	fnmsub.s	fa3,fa4,fs9,ft0,rup
800033a8:	befe                	fsd	ft11,376(sp)
800033aa:	01a1                	addi	gp,gp,8 # 80007b38 <__global_pointer$+0x8>
800033ac:	9418                	.insn	2, 0x9418
800033ae:	01a4                	addi	s1,sp,200
800033b0:	2a85                	jal	80003520 <verify_data+0x1f0>
800033b2:	532401af          	.insn	4, 0x532401af
800033b6:	e9c701b7          	lui	gp,0xe9c70
800033ba:	01d8                	addi	a4,sp,196
800033bc:	01db5cd7          	.insn	4, 0x01db5cd7
800033c0:	c8a5                	beqz	s1,80003430 <verify_data+0x100>
800033c2:	01e1                	addi	gp,gp,24 # e9c70018 <__global_pointer$+0x69c684e8>
800033c4:	2134                	fld	fa3,64(a0)
800033c6:	01e2                	slli	gp,gp,0x18
800033c8:	2442                	fld	fs0,16(sp)
800033ca:	021f 2b34 0223      	.insn	6, 0x02232b34021f
800033d0:	d6fc                	sw	a5,108(a3)
800033d2:	0234                	addi	a3,sp,264
800033d4:	bdad                	j	8000324e <__clz_tab+0x5a>
800033d6:	0236                	slli	tp,tp,0xd
800033d8:	4c36                	lw	s8,76(sp)
800033da:	024d                	addi	tp,tp,19 # 13 <_start-0x7fffffed>
800033dc:	8266                	mv	tp,s9
800033de:	027c                	addi	a5,sp,268
800033e0:	31ca                	fld	ft3,176(sp)
800033e2:	0281                	addi	t0,t0,0
800033e4:	b6de                	fsd	fs7,360(sp)
800033e6:	029e                	slli	t0,t0,0x7
800033e8:	b6a6                	fsd	fs1,360(sp)
800033ea:	02cd                	addi	t0,t0,19
800033ec:	127d                	addi	tp,tp,-1 # ffffffff <__global_pointer$+0x7fff84cf>
800033ee:	02d4                	addi	a3,sp,324
800033f0:	3e02                	fld	ft8,32(sp)
800033f2:	02d4                	addi	a3,sp,324
800033f4:	02e12ea7          	fsw	fa4,61(sp)
800033f8:	4258                	lw	a4,4(a2)
800033fa:	02e8                	addi	a0,sp,332
800033fc:	03065ce3          	bge	a2,a6,80003c34 <verify_data+0x904>
80003400:	b802                	fsd	ft0,48(sp)
80003402:	0309                	addi	t1,t1,2 # 1000002 <_start-0x7efffffe>
80003404:	c325                	beqz	a4,80003464 <verify_data+0x134>
80003406:	0314                	addi	a3,sp,384
80003408:	f686                	fsw	ft1,108(sp)
8000340a:	0335                	addi	t1,t1,13
8000340c:	472e                	lw	a4,200(sp)
8000340e:	034e                	slli	t1,t1,0x13
80003410:	705c                	flw	fa5,36(s0)
80003412:	55e00377          	.insn	4, 0x55e00377
80003416:	0378                	addi	a4,sp,396
80003418:	2382                	fld	ft7,0(sp)
8000341a:	038a                	slli	t2,t2,0x2
8000341c:	b6cd                	j	80002ffe <main+0x1e>
8000341e:	b922039b          	.insn	4, 0xb922039b
80003422:	03ad                	addi	t2,t2,11
80003424:	3e1f 03b5 08ea      	.insn	6, 0x08ea03b53e1f
8000342a:	03c5                	addi	t2,t2,17
8000342c:	b410                	fsd	fa2,40(s0)
8000342e:	03dc                	addi	a5,sp,452
80003430:	ea69                	bnez	a2,80003502 <verify_data+0x1d2>
80003432:	a10703f7          	.insn	4, 0xa10703f7
80003436:	040e                	slli	s0,s0,0x3
80003438:	aaf4                	fsd	fa3,208(a3)
8000343a:	041e                	slli	s0,s0,0x7
8000343c:	6f58                	flw	fa4,28(a4)
8000343e:	042a                	slli	s0,s0,0xa
80003440:	042c2c93          	slti	s9,s8,66
80003444:	c4c2                	sw	a6,72(sp)
80003446:	0439                	addi	s0,s0,14
80003448:	82a8                	.insn	2, 0x82a8
8000344a:	e231044f          	fnmadd.d	fs0,ft2,ft3,ft8,rne
8000344e:	0456                	slli	s0,s0,0x15
80003450:	f6c6                	fsw	fa7,108(sp)
80003452:	0458                	addi	a4,sp,516
80003454:	b2da                	fsd	fs6,352(sp)
80003456:	0476                	slli	s0,s0,0x1d
80003458:	7e24                	flw	fs1,120(a2)
8000345a:	0486                	slli	s1,s1,0x1
8000345c:	86b6                	mv	a3,a3
8000345e:	0498                	addi	a4,sp,576
80003460:	49b6                	lw	s3,76(sp)
80003462:	049e                	slli	s1,s1,0x7
80003464:	80f2                	mv	ra,t3
80003466:	9c1c04ab          	.insn	4, 0x9c1c04ab
8000346a:	04c9                	addi	s1,s1,18
8000346c:	deea                	sw	s10,124(sp)
8000346e:	04ca                	slli	s1,s1,0x12
80003470:	04d2734b          	.insn	4, 0x04d2734b
80003474:	04da198b          	.insn	4, 0x04da198b
80003478:	a428                	fsd	fa0,72(s0)
8000347a:	04f0                	addi	a2,sp,588
8000347c:	d981                	beqz	a1,8000338c <verify_data+0x5c>
8000347e:	3571050f          	.insn	4, 0x3571050f
80003482:	053d                	addi	a0,a0,15
80003484:	5552                	lw	a0,52(sp)
80003486:	24a4054b          	.insn	4, 0x24a4054b
8000348a:	0554                	addi	a3,sp,644
8000348c:	415f 055e 41a4      	.insn	6, 0x41a4055e415f
80003492:	f25c056f          	jal	a0,7ffc43b6 <_start-0x3bc4a>
80003496:	057f 45bf 0585 efda 	.insn	10, 0x0588efda058545bf057f
8000349e:	0588 
800034a0:	058dfb67          	.insn	4, 0x058dfb67
800034a4:	05a5ef07          	.insn	4, 0x05a5ef07
800034a8:	1220                	addi	s0,sp,296
800034aa:	05b5                	addi	a1,a1,13
800034ac:	6e11                	lui	t3,0x4
800034ae:	05ee                	slli	a1,a1,0x1b
800034b0:	a4ed                	j	8000379a <verify_data+0x46a>
800034b2:	063c                	addi	a5,sp,776
800034b4:	0340                	addi	s0,sp,388
800034b6:	063e                	slli	a2,a2,0xf
800034b8:	091f 0648 d5d4      	.insn	6, 0xd5d40648091f
800034be:	0654                	addi	a3,sp,772
800034c0:	065a84b7          	lui	s1,0x65a8
800034c4:	06622783          	lw	a5,102(tp) # 66 <_start-0x7fffff9a>
800034c8:	2422                	fld	fs0,8(sp)
800034ca:	47c40663          	beq	s0,t3,80003936 <verify_data+0x606>
800034ce:	0670                	addi	a2,sp,780
800034d0:	3ad6                	fld	fs5,368(sp)
800034d2:	0675                	addi	a2,a2,29 # 1001d <_start-0x7ffeffe3>
800034d4:	417f 0676 895f 0679 	.insn	18, 0x864806873ee4067fc1000679895f0676417f
800034dc:	c100 067f 3ee4 0687 
800034e4:	8648 
800034e6:	06ad                	addi	a3,a3,11
800034e8:	e19d                	bnez	a1,8000350e <verify_data+0x1de>
800034ea:	06b6                	slli	a3,a3,0xd
800034ec:	06c34b8b          	.insn	4, 0x06c34b8b
800034f0:	1870                	addi	a2,sp,60
800034f2:	06c5                	addi	a3,a3,17
800034f4:	9628                	.insn	2, 0x9628
800034f6:	06ce                	slli	a3,a3,0x13
800034f8:	02e2                	slli	t0,t0,0x18
800034fa:	b7c306db          	.insn	4, 0xb7c306db
800034fe:	06f5                	addi	a3,a3,29
80003500:	3fc0                	fld	fs0,184(a5)
80003502:	06fd                	addi	a3,a3,31
80003504:	8f21                	xor	a4,a4,s0
80003506:	06fd                	addi	a3,a3,31
80003508:	f79f 0704 25d6      	.insn	6, 0x25d60704f79f
8000350e:	071c                	addi	a5,sp,896
80003510:	d1ee                	sw	s11,224(sp)
80003512:	0721                	addi	a4,a4,8
80003514:	07477a3f 075a3493 	.insn	8, 0x075a349307477a3f
8000351c:	076267bf 079f193f 	.insn	8, 0x079f193f076267bf
80003524:	afe9                	j	80003cfe <verify_data+0x9ce>
80003526:	07a1                	addi	a5,a5,8 # 10008 <_start-0x7ffefff8>
80003528:	a8fc                	fsd	fa5,208(s1)
8000352a:	154507bf 7b3807d5 	.insn	8, 0x7b3807d5154507bf
80003532:	07f9                	addi	a5,a5,30
80003534:	08039873          	csrrw	a6,0x80,t2
80003538:	2215                	jal	8000365c <verify_data+0x32c>
8000353a:	080c                	addi	a1,sp,16
8000353c:	49ca                	lw	s3,144(sp)
8000353e:	0816                	slli	a6,a6,0x5
80003540:	082b2a17          	auipc	s4,0x82b2
80003544:	9b68                	.insn	2, 0x9b68
80003546:	0836                	slli	a6,a6,0xd
80003548:	8469                	srai	s0,s0,0x1a
8000354a:	0850                	addi	a2,sp,20
8000354c:	08606c9b          	.insn	4, 0x08606c9b
80003550:	da71                	beqz	a2,80003524 <verify_data+0x1f4>
80003552:	08ad                	addi	a7,a7,11 # 100000b <_start-0x7efffff5>
80003554:	08b3d3db          	.insn	4, 0x08b3d3db
80003558:	09fd                	addi	s3,s3,31
8000355a:	08d4                	addi	a3,sp,84
8000355c:	08da5b6b          	.insn	4, 0x08da5b6b
80003560:	2c11                	jal	80003774 <verify_data+0x444>
80003562:	08e4                	addi	s1,sp,92
80003564:	08fe3757          	.insn	4, 0x08fe3757
80003568:	6d30                	flw	fa2,88(a0)
8000356a:	0906                	slli	s2,s2,0x1
8000356c:	8185                	srli	a1,a1,0x1
8000356e:	03e50913          	addi	s2,a0,62
80003572:	094a                	slli	s2,s2,0x12
80003574:	f9c1                	bnez	a1,80003504 <verify_data+0x1d4>
80003576:	f94f0953          	.insn	4, 0xf94f0953
8000357a:	89600957          	.insn	4, 0x89600957
8000357e:	099f 54b6 09a0      	.insn	6, 0x09a054b6099f
80003584:	b5b6                	fsd	fa3,232(sp)
80003586:	09bc                	addi	a5,sp,216
80003588:	09fe3077          	.insn	4, 0x09fe3077
8000358c:	4130                	lw	a2,64(a0)
8000358e:	379b0a0f          	.insn	4, 0x379b0a0f
80003592:	d3450a17          	auipc	s4,0xd3450
80003596:	0a1d                	addi	s4,s4,7 # 53453599 <_start-0x2cbaca67>
80003598:	4a15                	li	s4,5
8000359a:	0a26                	slli	s4,s4,0x9
8000359c:	2f1a                	fld	ft10,384(sp)
8000359e:	0a42                	slli	s4,s4,0x10
800035a0:	0a50ba03          	.insn	4, 0x0a50ba03
800035a4:	53d9                	li	t2,-10
800035a6:	0a5c                	addi	a5,sp,276
800035a8:	48d2                	lw	a7,20(sp)
800035aa:	0a60                	addi	s0,sp,284
800035ac:	0a6dc44f          	fnmadd.d	fs0,fs11,ft6,ft1,rmm
800035b0:	c97f 0a79 2930 0a7b 	.insn	18, 0xd0990a8e58740a7dea250a7b29300a79c97f
800035b8:	ea25 0a7d 5874 0a8e 
800035c0:	d099 
800035c2:	0aa9                	addi	s5,s5,10
800035c4:	f591                	bnez	a1,800034d0 <verify_data+0x1a0>
800035c6:	0ac2                	slli	s5,s5,0x10
800035c8:	0ac3bca3          	.insn	4, 0x0ac3bca3
800035cc:	8142                	mv	sp,a6
800035ce:	0ad2                	slli	s5,s5,0x14
800035d0:	3aae                	fld	fs5,232(sp)
800035d2:	0ae2                	slli	s5,s5,0x18
800035d4:	ba5a                	fsd	fs6,304(sp)
800035d6:	0af2                	slli	s5,s5,0x1c
800035d8:	0b0fe933          	.insn	4, 0x0b0fe933
800035dc:	eae8                	fsw	fa0,84(a3)
800035de:	0b10                	addi	a2,sp,400
800035e0:	d360                	sw	s0,100(a4)
800035e2:	0b15                	addi	s6,s6,5
800035e4:	dbe0                	sw	s0,116(a5)
800035e6:	dcd00b17          	auipc	s6,0xdcd00
800035ea:	0b18                	addi	a4,sp,400
800035ec:	e892                	fsw	ft4,80(sp)
800035ee:	0b34                	addi	a3,sp,408
800035f0:	0b5676e3          	bgeu	a2,s5,80003e9c <verify_data+0xb6c>
800035f4:	5a9a                	lw	s5,164(sp)
800035f6:	7c260b5b          	.insn	4, 0x7c260b5b
800035fa:	0b5f 4814 0b8e      	.insn	6, 0x0b8e48140b5f
80003600:	3f66                	fld	ft10,120(sp)
80003602:	0ba5                	addi	s7,s7,9
80003604:	db0a                	sw	sp,180(sp)
80003606:	0bb4                	addi	a3,sp,472
80003608:	b420                	fsd	fs0,104(s0)
8000360a:	0bcc                	addi	a1,sp,468
8000360c:	16b9                	addi	a3,a3,-18
8000360e:	0bd0                	addi	a2,sp,468
80003610:	cd60                	sw	s0,92(a0)
80003612:	0bd0                	addi	a2,sp,468
80003614:	0919                	addi	s2,s2,6
80003616:	0bed                	addi	s7,s7,27
80003618:	9f16                	add	t5,t5,t0
8000361a:	f2ea0bef          	jal	s7,7ffa3d48 <_start-0x5c2b8>
8000361e:	0c11                	addi	s8,s8,4
80003620:	0c30a657          	.insn	4, 0x0c30a657
80003624:	2cec                	fld	fa1,216(s1)
80003626:	0c38                	addi	a4,sp,536
80003628:	0c514963          	blt	sp,t0,800036fa <verify_data+0x3ca>
8000362c:	45e2                	lw	a1,24(sp)
8000362e:	0c68                	addi	a0,sp,540
80003630:	6fc0                	flw	fs0,28(a5)
80003632:	0c6c                	addi	a1,sp,540
80003634:	d928                	sw	a0,112(a0)
80003636:	0c85                	addi	s9,s9,1
80003638:	c4ff 0c8f 366e 0c92 	.insn	18, 0x75090caf65910ca390c00c92366e0c8fc4ff
80003640:	90c0 0ca3 6591 0caf 
80003648:	7509 
8000364a:	0ccc                	addi	a1,sp,596
8000364c:	ea80                	fsw	fs0,16(a3)
8000364e:	0cd0                	addi	a2,sp,596
80003650:	8aa1                	andi	a3,a3,8
80003652:	0ce6                	slli	s9,s9,0x19
80003654:	68ec                	flw	fa1,84(s1)
80003656:	0ce8                	addi	a0,sp,604
80003658:	cc9f 0cfa a7e9      	.insn	6, 0xa7e90cfacc9f
8000365e:	0d08                	addi	a0,sp,656
80003660:	3b0a                	fld	fs6,160(sp)
80003662:	0d31                	addi	s10,s10,12
80003664:	0d36494b          	.insn	4, 0x0d36494b
80003668:	88d1                	andi	s1,s1,20
8000366a:	9e8b0d43          	.insn	4, 0x9e8b0d43
8000366e:	0d6a                	slli	s10,s10,0x1a
80003670:	18cd                	addi	a7,a7,-13
80003672:	7e030d77          	.insn	4, 0x7e030d77
80003676:	85140d77          	.insn	4, 0x85140d77
8000367a:	90d40d83          	lb	s11,-1779(s0)
8000367e:	507c0d83          	lb	s11,1287(s8)
80003682:	0d86                	slli	s11,s11,0x1
80003684:	0d8789af          	.insn	4, 0x0d8789af
80003688:	0d8e43d3          	.insn	4, 0x0d8e43d3
8000368c:	05ac                	addi	a1,sp,712
8000368e:	0d95                	addi	s11,s11,5
80003690:	a911                	j	80003aa4 <verify_data+0x774>
80003692:	0da5                	addi	s11,s11,9
80003694:	1500                	addi	s0,sp,672
80003696:	0db4                	addi	a3,sp,728
80003698:	b6ca                	fsd	fs2,360(sp)
8000369a:	0dba                	slli	s11,s11,0xe
8000369c:	323a                	fld	ft4,424(sp)
8000369e:	8d110dbf a4550dc7 	.insn	8, 0xa4550dc78d110dbf
800036a6:	0dd6                	slli	s11,s11,0x15
800036a8:	27b1                	jal	80003df4 <verify_data+0xac4>
800036aa:	124f0df3          	.insn	4, 0x124f0df3
800036ae:	0e1e                	slli	t3,t3,0x7
800036b0:	0e20a51b          	.insn	4, 0x0e20a51b
800036b4:	d8e0                	sw	s0,116(s1)
800036b6:	3b240e33          	.insn	4, 0x3b240e33
800036ba:	0e38                	addi	a4,sp,792
800036bc:	f698                	fsw	fa4,40(a3)
800036be:	0e4d                	addi	t3,t3,19 # 4013 <_start-0x7fffbfed>
800036c0:	0e578ce3          	beq	a5,t0,80003fb8 <verify_data+0xc88>
800036c4:	b631                	j	800031d0 <main+0x1f0>
800036c6:	0e64                	addi	s1,sp,796
800036c8:	938a                	add	t2,t2,sp
800036ca:	0e65                	addi	t3,t3,25
800036cc:	3a1d                	jal	80003002 <main+0x22>
800036ce:	0e68                	addi	a0,sp,796
800036d0:	f848                	fsw	fa0,52(s0)
800036d2:	0e95                	addi	t4,t4,5
800036d4:	06c9                	addi	a3,a3,18
800036d6:	0e9a                	slli	t4,t4,0x6
800036d8:	83b2                	mv	t2,a2
800036da:	0e9f a14b 0ebc      	.insn	6, 0x0ebca14b0e9f
800036e0:	be14                	fsd	fa3,56(a2)
800036e2:	c3680ebf 1ec70ebf 	.insn	8, 0x1ec70ebfc3680ebf
800036ea:	0ee2                	slli	t4,t4,0x18
800036ec:	0ee70b53          	.insn	4, 0x0ee70b53
800036f0:	ab91                	j	80003c44 <verify_data+0x914>
800036f2:	0ee8                	addi	a0,sp,860
800036f4:	db66                	sw	s9,180(sp)
800036f6:	0ef1                	addi	t4,t4,28
800036f8:	cfda                	sw	s6,220(sp)
800036fa:	cd000ef3          	.insn	4, 0xcd000ef3
800036fe:	0efd                	addi	t4,t4,31
80003700:	2f3e                	fld	ft10,456(sp)
80003702:	0f22                	slli	t5,t5,0x8
80003704:	73da                	flw	ft7,180(sp)
80003706:	0f36                	slli	t5,t5,0xd
80003708:	760e                	flw	fa2,224(sp)
8000370a:	0f45                	addi	t5,t5,17
8000370c:	61f6                	flw	ft3,92(sp)
8000370e:	9eb70f4f          	.insn	4, 0x9eb70f4f
80003712:	0f5c                	addi	a5,sp,916
80003714:	0f637b73          	csrrci	s6,0xf6,6
80003718:	c1b1                	beqz	a1,8000375c <verify_data+0x42c>
8000371a:	dcbd0f7b          	.insn	4, 0xdcbd0f7b
8000371e:	5fc40f7b          	.insn	4, 0x5fc40f7b
80003722:	82b70f83          	lb	t6,-2005(a4)
80003726:	0f89                	addi	t6,t6,2
80003728:	9338                	.insn	2, 0x9338
8000372a:	0f89                	addi	t6,t6,2
8000372c:	0f8b5fbf 0f97096e 	.insn	8, 0x0f97096e0f8b5fbf
80003734:	1efe                	slli	t4,t4,0x3f
80003736:	0fd1                	addi	t6,t6,20
80003738:	c2dc                	sw	a5,4(a3)
8000373a:	0fec                	addi	a1,sp,988
8000373c:	b0dc                	fsd	fa5,160(s1)
8000373e:	0ffa                	slli	t6,t6,0x1e
80003740:	2d4e                	fld	fs10,208(sp)
80003742:	233d100b          	.insn	4, 0x233d100b
80003746:	101e                	c.slli	zero,0x27
80003748:	10244d23          	.insn	4, 0x10244d23
8000374c:	f81f 1034 4c25      	.insn	6, 0x4c251034f81f
80003752:	1060                	addi	s0,sp,44
80003754:	45f5                	li	a1,29
80003756:	108a                	slli	ra,ra,0x22
80003758:	0f29                	addi	t5,t5,10
8000375a:	1091                	addi	ra,ra,-28
8000375c:	0db2                	slli	s11,s11,0xc
8000375e:	10a5                	addi	ra,ra,-23
80003760:	8f9a                	mv	t6,t1
80003762:	10c4                	addi	s1,sp,100
80003764:	10e4ceaf          	.insn	4, 0x10e4ceaf
80003768:	8979                	andi	a0,a0,30
8000376a:	dde610f7          	.insn	4, 0xdde610f7
8000376e:	1122                	slli	sp,sp,0x28
80003770:	112b5d0f          	.insn	4, 0x112b5d0f
80003774:	43c8                	lw	a0,4(a5)
80003776:	1144                	addi	s1,sp,164
80003778:	dc36                	sw	a3,56(sp)
8000377a:	115c                	addi	a5,sp,164
8000377c:	7eec                	flw	fa1,124(a3)
8000377e:	1178                	addi	a4,sp,172
80003780:	0002                	c.slli	zero,0x0
80003782:	1189                	addi	gp,gp,-30 # 80007b12 <_end+0x7d2>
80003784:	119f8227          	.insn	4, 0x119f8227
80003788:	4fc8                	lw	a0,28(a5)
8000378a:	182611cf          	fnmadd.s	ft3,fa2,ft2,ft3,rtz
8000378e:	11da                	slli	gp,gp,0x36
80003790:	8de8                	.insn	2, 0x8de8
80003792:	11e4                	addi	s1,sp,236
80003794:	12e0                	addi	s0,sp,364
80003796:	3fa611eb          	.insn	4, 0x3fa611eb
8000379a:	11f6                	slli	gp,gp,0x3d
8000379c:	04bd                	addi	s1,s1,15 # 65a800f <_start-0x79a57ff1>
8000379e:	2b6111fb          	.insn	4, 0x2b6111fb
800037a2:	824211fb          	.insn	4, 0x824211fb
800037a6:	51f61203          	lh	tp,1311(a2)
800037aa:	121c                	addi	a5,sp,288
800037ac:	acb4                	fsd	fa3,88(s1)
800037ae:	1220                	addi	s0,sp,296
800037b0:	e474                	fsw	fa3,76(s0)
800037b2:	1221                	addi	tp,tp,-24 # ffffffe8 <__global_pointer$+0x7fff84b8>
800037b4:	321c                	fld	fa5,32(a2)
800037b6:	1225                	addi	tp,tp,-23 # ffffffe9 <__global_pointer$+0x7fff84b9>
800037b8:	671f 1235 6343      	.insn	6, 0x63431235671f
800037be:	1239                	addi	tp,tp,-18 # ffffffee <__global_pointer$+0x7fff84be>
800037c0:	c895                	beqz	s1,800037f4 <verify_data+0x4c4>
800037c2:	63be125b          	.insn	4, 0x63be125b
800037c6:	1266                	slli	tp,tp,0x39
800037c8:	6746                	flw	fa4,80(sp)
800037ca:	1268                	addi	a0,sp,300
800037cc:	c920                	sw	s0,80(a0)
800037ce:	1268                	addi	a0,sp,300
800037d0:	6408                	flw	fa0,8(s0)
800037d2:	127e                	slli	tp,tp,0x3f
800037d4:	6db5                	lui	s11,0xd
800037d6:	1744128b          	.insn	4, 0x1744128b
800037da:	12dd                	addi	t0,t0,-9
800037dc:	12f40083          	lb	ra,303(s0)
800037e0:	bfaa                	fsd	fa0,504(sp)
800037e2:	e74112ff c0ac1314 	.insn	12, 0x2441133cc0ac1314e74112ff
800037ea:	2441133c 
800037ee:	0e9b1353          	.insn	4, 0x0e9b1353
800037f2:	1364                	addi	s1,sp,428
800037f4:	136948cb          	fnmsub.d	fa7,fs2,fs6,ft2,rmm
800037f8:	4dd8                	lw	a4,28(a1)
800037fa:	1395                	addi	t2,t2,-27
800037fc:	e4b2                	fsw	fa2,72(sp)
800037fe:	139c                	addi	a5,sp,480
80003800:	db86                	sw	ra,244(sp)
80003802:	a26a13a7          	.insn	4, 0xa26a13a7
80003806:	13b2                	slli	t2,t2,0x2c
80003808:	13bf00c7          	fmsub.d	ft1,ft10,fs11,ft2,rne
8000380c:	13ccfe2f          	.insn	4, 0x13ccfe2f
80003810:	b436                	fsd	fa3,40(sp)
80003812:	13e5                	addi	t2,t2,-7
80003814:	13e702e3          	beq	a4,t5,80004138 <verify_data+0xe08>
80003818:	0138                	addi	a4,sp,136
8000381a:	13e9                	addi	t2,t2,-6
8000381c:	a794                	fsd	fa3,8(a5)
8000381e:	13fe                	slli	t2,t2,0x3f
80003820:	140a3777          	.insn	4, 0x140a3777
80003824:	98ae                	add	a7,a7,a1
80003826:	142d                	addi	s0,s0,-21
80003828:	8655                	srai	a2,a2,0x15
8000382a:	bdd61447          	.insn	4, 0xbdd61447
8000382e:	144a                	slli	s0,s0,0x32
80003830:	81a2                	mv	gp,s0
80003832:	145a                	slli	s0,s0,0x36
80003834:	145d8bd7          	.insn	4, 0x145d8bd7
80003838:	14624fa3          	.insn	4, 0x14624fa3
8000383c:	5a5e                	lw	s4,244(sp)
8000383e:	1472                	slli	s0,s0,0x3c
80003840:	14739627          	.insn	4, 0x14739627
80003844:	2e08                	fld	fa0,24(a2)
80003846:	147c                	addi	a5,sp,556
80003848:	e22a                	fsw	fa0,4(sp)
8000384a:	1488                	addi	a0,sp,608
8000384c:	2630                	fld	fa2,72(a2)
8000384e:	148e                	slli	s1,s1,0x23
80003850:	14a8aca7          	fsw	fa0,345(a7)
80003854:	108a                	slli	ra,ra,0x22
80003856:	14c0                	addi	s0,sp,612
80003858:	14d11f33          	.insn	4, 0x14d11f33
8000385c:	14df5beb          	.insn	4, 0x14df5beb
80003860:	26d6                	fld	fa3,336(sp)
80003862:	caae14f7          	.insn	4, 0xcaae14f7
80003866:	1518                	addi	a4,sp,672
80003868:	3f1e                	fld	ft10,480(sp)
8000386a:	1532                	slli	a0,a0,0x2c
8000386c:	7742                	flw	fa4,48(sp)
8000386e:	1540                	addi	s0,sp,676
80003870:	1541dfdb          	.insn	4, 0x1541dfdb
80003874:	63a5                	lui	t2,0x9
80003876:	1542                	slli	a0,a0,0x30
80003878:	1fe2                	slli	t6,t6,0x38
8000387a:	1571                	addi	a0,a0,-4
8000387c:	d1f1                	beqz	a1,80003840 <verify_data+0x510>
8000387e:	157e                	slli	a0,a0,0x3f
80003880:	18e0                	addi	s0,sp,124
80003882:	159f b440 15aa      	.insn	6, 0x15aab440159f
80003888:	15bb2fe7          	.insn	4, 0x15bb2fe7
8000388c:	a9d0                	fsd	fa2,144(a1)
8000388e:	a7d115bb          	.insn	4, 0xa7d115bb
80003892:	15c5                	addi	a1,a1,-15
80003894:	7f16                	flw	ft10,100(sp)
80003896:	15ce                	slli	a1,a1,0x33
80003898:	68b2                	flw	fa7,12(sp)
8000389a:	0f8915db          	.insn	4, 0x0f8915db
8000389e:	15ee                	slli	a1,a1,0x3b
800038a0:	15f77ee7          	.insn	4, 0x15f77ee7
800038a4:	15fcce2f          	.insn	4, 0x15fcce2f
800038a8:	12d6                	slli	t0,t0,0x35
800038aa:	1629                	addi	a2,a2,-22
800038ac:	8dc1                	or	a1,a1,s0
800038ae:	1630                	addi	a2,sp,808
800038b0:	5f2d                	li	t5,-21
800038b2:	eb5f1633          	.insn	4, 0xeb5f1633
800038b6:	fd611633          	.insn	4, 0xfd611633
800038ba:	163e                	slli	a2,a2,0x2f
800038bc:	2ff2                	fld	ft11,280(sp)
800038be:	1640                	addi	s0,sp,804
800038c0:	379a                	fld	fa5,416(sp)
800038c2:	39421667          	.insn	4, 0x39421667
800038c6:	1675                	addi	a2,a2,-3
800038c8:	bf1f 1695 42fc      	.insn	6, 0x42fc1695bf1f
800038ce:	169e                	slli	a3,a3,0x27
800038d0:	6ad2                	flw	fs5,20(sp)
800038d2:	0ad616a7          	.insn	4, 0x0ad616a7
800038d6:	534b16b7          	lui	a3,0x534b1
800038da:	16be                	slli	a3,a3,0x2f
800038dc:	d8e5                	beqz	s1,800038cc <verify_data+0x59c>
800038de:	4eab16c3          	.insn	4, 0x4eab16c3
800038e2:	098116cb          	fnmsub.s	fa3,ft2,fs8,ft1,rtz
800038e6:	1700                	addi	s0,sp,928
800038e8:	1692                	slli	a3,a3,0x24
800038ea:	170d                	addi	a4,a4,-29
800038ec:	1621                	addi	a2,a2,-24
800038ee:	1712                	slli	a4,a4,0x24
800038f0:	17155447          	.insn	4, 0x17155447
800038f4:	7b35                	lui	s6,0xfffed
800038f6:	171a                	slli	a4,a4,0x26
800038f8:	172d75a3          	.insn	4, 0x172d75a3
800038fc:	3a26                	fld	fs4,104(sp)
800038fe:	46e31733          	.insn	4, 0x46e31733
80003902:	174a                	slli	a4,a4,0x32
80003904:	1753184b          	.insn	4, 0x1753184b
80003908:	b7d5                	j	800038ec <verify_data+0x5bc>
8000390a:	1790                	addi	a2,sp,992
8000390c:	394c                	fld	fa1,176(a0)
8000390e:	17bc                	addi	a5,sp,1000
80003910:	bb4a                	fsd	fs2,432(sp)
80003912:	17bc                	addi	a5,sp,1000
80003914:	e6da                	fsw	fs6,76(sp)
80003916:	17c6                	slli	a5,a5,0x31
80003918:	ff59                	bnez	a4,800038b6 <verify_data+0x586>
8000391a:	17c9                	addi	a5,a5,-14
8000391c:	3abd                	jal	8000329a <__clz_tab+0xa6>
8000391e:	61c617cf          	fnmadd.s	fa5,fa2,ft8,fa2,rtz
80003922:	974017d7          	.insn	4, 0x974017d7
80003926:	17ed                	addi	a5,a5,-5
80003928:	eeec                	fsw	fa1,92(a3)
8000392a:	1802                	slli	a6,a6,0x20
8000392c:	10d2                	slli	ra,ra,0x34
8000392e:	1aef180b          	.insn	4, 0x1aef180b
80003932:	184e                	slli	a6,a6,0x33
80003934:	8e8d                	sub	a3,a3,a1
80003936:	188c                	addi	a1,sp,112
80003938:	c656                	sw	s5,12(sp)
8000393a:	189e                	slli	a7,a7,0x27
8000393c:	a1ce                	fsd	fs3,192(sp)
8000393e:	18d2                	slli	a7,a7,0x34
80003940:	9675                	srai	a2,a2,0x3d
80003942:	3dfe18e3          	bne	t3,t6,80004512 <verify_data+0x11e2>
80003946:	18fa                	slli	a7,a7,0x3e
80003948:	19de                	slli	s3,s3,0x37
8000394a:	b28018fb          	.insn	4, 0xb28018fb
8000394e:	1900                	addi	s0,sp,176
80003950:	4ff0                	lw	a2,92(a5)
80003952:	190a                	slli	s2,s2,0x22
80003954:	191afacb          	fnmsub.s	fs5,fs5,fa7,ft3
80003958:	ed44                	fsw	fs1,28(a0)
8000395a:	0a531927          	.insn	4, 0x0a531927
8000395e:	b1bf193b          	.insn	4, 0xb1bf193b
80003962:	194e                	slli	s2,s2,0x33
80003964:	19a2b58b          	.insn	4, 0x19a2b58b
80003968:	5cc9                	li	s9,-14
8000396a:	19c1                	addi	s3,s3,-16
8000396c:	1980                	addi	s0,sp,240
8000396e:	19c9                	addi	s3,s3,-14
80003970:	19cee96b          	.insn	4, 0x19cee96b
80003974:	59f1                	li	s3,-4
80003976:	19d5                	addi	s3,s3,-11
80003978:	4af1                	li	s5,28
8000397a:	306d19eb          	.insn	4, 0x306d19eb
8000397e:	19f1                	addi	s3,s3,-4
80003980:	f8f2                	fsw	ft8,112(sp)
80003982:	19f1                	addi	s3,s3,-4
80003984:	1886                	slli	a7,a7,0x21
80003986:	1a04                	addi	s1,sp,304
80003988:	af00                	fsd	fs0,24(a4)
8000398a:	1a05                	addi	s4,s4,-31
8000398c:	1a067347          	fmsub.d	ft6,fa2,ft0,ft3
80003990:	efe9                	bnez	a5,80003a6a <verify_data+0x73a>
80003992:	1a16                	slli	s4,s4,0x25
80003994:	34a2                	fld	fs1,40(sp)
80003996:	1a26                	slli	s4,s4,0x29
80003998:	6680                	flw	fs0,8(a3)
8000399a:	1a72                	slli	s4,s4,0x3c
8000399c:	6a3e                	flw	fs4,204(sp)
8000399e:	1a7c                	addi	a5,sp,316
800039a0:	1a9b193f 1ab845a1 	.insn	8, 0x1ab845a11a9b193f
800039a8:	c174                	sw	a3,68(a0)
800039aa:	1abe                	slli	s5,s5,0x2f
800039ac:	8f99                	sub	a5,a5,a4
800039ae:	1ae8                	addi	a0,sp,380
800039b0:	88d5                	andi	s1,s1,21
800039b2:	1afe                	slli	s5,s5,0x3f
800039b4:	fbb4                	fsw	fa3,112(a5)
800039b6:	1b14                	addi	a3,sp,432
800039b8:	2e78                	fld	fa4,216(a2)
800039ba:	1b16                	slli	s6,s6,0x25
800039bc:	1b1ae0d3          	fdiv.d	ft1,fs5,fa7,unknown
800039c0:	d252                	sw	s4,36(sp)
800039c2:	0fbf1b2b          	.insn	4, 0x0fbf1b2b
800039c6:	1b35                	addi	s6,s6,-19 # fffecfed <__global_pointer$+0x7ffe54bd>
800039c8:	fb86                	fsw	ft1,244(sp)
800039ca:	1b60                	addi	s0,sp,444
800039cc:	1b717563          	bgeu	sp,s7,80003b76 <verify_data+0x846>
800039d0:	ab66                	fsd	fs9,400(sp)
800039d2:	1b78                	addi	a4,sp,444
800039d4:	0f16                	slli	t5,t5,0x5
800039d6:	1b81                	addi	s7,s7,-32
800039d8:	1b825af3          	csrrwi	s5,0x1b8,4
800039dc:	e83e                	fsw	fa5,16(sp)
800039de:	1b94                	addi	a3,sp,496
800039e0:	a632                	fsd	fa2,264(sp)
800039e2:	1b96                	slli	s7,s7,0x25
800039e4:	1baab177          	.insn	4, 0x1baab177
800039e8:	1bb4383f 1bb928d5 	.insn	8, 0x1bb928d51bb4383f
800039f0:	0309                	addi	t1,t1,2
800039f2:	1c05                	addi	s8,s8,-31
800039f4:	84d0                	.insn	2, 0x84d0
800039f6:	1c2d                	addi	s8,s8,-21
800039f8:	1c2f74ab          	.insn	4, 0x1c2f74ab
800039fc:	4355                	li	t1,21
800039fe:	1c36                	slli	s8,s8,0x2d
80003a00:	4b00                	lw	s0,16(a4)
80003a02:	a9601c73          	csrrw	s8,0xa96,zero
80003a06:	1c74                	addi	a3,sp,572
80003a08:	b4a9                	j	80003452 <verify_data+0x122>
80003a0a:	1c88                	addi	a0,sp,624
80003a0c:	0ac5                	addi	s5,s5,17
80003a0e:	1cb4                	addi	a3,sp,632
80003a10:	12d4                	addi	a3,sp,356
80003a12:	1cb4                	addi	a3,sp,632
80003a14:	bb55                	j	800037c8 <verify_data+0x498>
80003a16:	1cc8                	addi	a0,sp,628
80003a18:	1ccf4e3b          	.insn	4, 0x1ccf4e3b
80003a1c:	000d                	c.nop	3
80003a1e:	1cf5                	addi	s9,s9,-3
80003a20:	4c05                	li	s8,1
80003a22:	1cfa                	slli	s9,s9,0x3e
80003a24:	88a1                	andi	s1,s1,8
80003a26:	1cfa                	slli	s9,s9,0x3e
80003a28:	9565                	srai	a0,a0,0x39
80003a2a:	1d14                	addi	a3,sp,688
80003a2c:	da5f 1d42 1082      	.insn	6, 0x10821d42da5f
80003a32:	71bc1d5b          	.insn	4, 0x71bc1d5b
80003a36:	97091d77          	.insn	4, 0x97091d77
80003a3a:	1d82                	slli	s11,s11,0x20
80003a3c:	daea                	sw	s10,116(sp)
80003a3e:	1dac                	addi	a1,sp,760
80003a40:	9829                	andi	s0,s0,-22
80003a42:	1db9                	addi	s11,s11,-18 # cfee <_start-0x7fff3012>
80003a44:	d75f 1dcb 2524      	.insn	6, 0x25241dcbd75f
80003a4a:	9af51dd3          	.insn	4, 0x9af51dd3
80003a4e:	1dd8                	addi	a4,sp,756
80003a50:	8a44                	.insn	2, 0x8a44
80003a52:	daf91def          	jal	s11,7ff95800 <_start-0x6a800>
80003a56:	1df0                	addi	a2,sp,764
80003a58:	6e48                	flw	fa0,28(a2)
80003a5a:	1df4                	addi	a3,sp,764
80003a5c:	c9c9                	beqz	a1,80003aee <verify_data+0x7be>
80003a5e:	1e00                	addi	s0,sp,816
80003a60:	d51d                	beqz	a0,8000398e <verify_data+0x65e>
80003a62:	1e08                	addi	a0,sp,816
80003a64:	1e300f6b          	.insn	4, 0x1e300f6b
80003a68:	25de                	fld	fa1,464(sp)
80003a6a:	1e45                	addi	t3,t3,-15
80003a6c:	8062                	c.mv	zero,s8
80003a6e:	1e46                	slli	t3,t3,0x31
80003a70:	1e48192b          	.insn	4, 0x1e48192b
80003a74:	7f46                	flw	ft10,112(sp)
80003a76:	1e58                	addi	a4,sp,820
80003a78:	1641                	addi	a2,a2,-16
80003a7a:	1e62                	slli	t3,t3,0x38
80003a7c:	47e8                	lw	a0,76(a5)
80003a7e:	1e6d                	addi	t3,t3,-5
80003a80:	932c                	.insn	2, 0x932c
80003a82:	1e6d                	addi	t3,t3,-5
80003a84:	0b6e                	slli	s6,s6,0x1b
80003a86:	1e8c                	addi	a1,sp,880
80003a88:	e911                	bnez	a0,80003a9c <verify_data+0x76c>
80003a8a:	540d1e93          	.insn	4, 0x540d1e93
80003a8e:	1e9c                	addi	a5,sp,880
80003a90:	1e9ca763          	.insn	4, 0x1e9ca763
80003a94:	49c4                	lw	s1,20(a1)
80003a96:	1ea6                	slli	t4,t4,0x29
80003a98:	f87d                	bnez	s0,80003a8e <verify_data+0x75e>
80003a9a:	1eb0                	addi	a2,sp,888
80003a9c:	98ac                	.insn	2, 0x98ac
80003a9e:	1eb8                	addi	a4,sp,888
80003aa0:	a950                	fsd	fa2,144(a0)
80003aa2:	1ebe                	slli	t4,t4,0x2f
80003aa4:	8110                	.insn	2, 0x8110
80003aa6:	1edc                	addi	a5,sp,884
80003aa8:	2d32                	fld	fs10,264(sp)
80003aaa:	1ee1                	addi	t4,t4,-8
80003aac:	4855                	li	a6,21
80003aae:	1ef2                	slli	t4,t4,0x3c
80003ab0:	1ef490c3          	.insn	4, 0x1ef490c3
80003ab4:	1ef9fd23          	.insn	4, 0x1ef9fd23
80003ab8:	9906                	add	s2,s2,ra
80003aba:	5e7e1f03          	lh	t5,1511(t3)
80003abe:	1f06                	slli	t5,t5,0x21
80003ac0:	3d39                	jal	800038de <verify_data+0x5ae>
80003ac2:	1f09                	addi	t5,t5,-30
80003ac4:	8905                	andi	a0,a0,1
80003ac6:	1f1f 5071 1f23      	.insn	6, 0x1f2350711f1f
80003acc:	1f407de7          	.insn	4, 0x1f407de7
80003ad0:	1c49                	addi	s8,s8,-14
80003ad2:	1f54                	addi	a3,sp,948
80003ad4:	0239                	addi	tp,tp,14 # e <_start-0x7ffffff2>
80003ad6:	1f79                	addi	t5,t5,-2
80003ad8:	1f8b77b7          	lui	a5,0x1f8b7
80003adc:	96fd                	srai	a3,a3,0x3f
80003ade:	1f98                	addi	a4,sp,1008
80003ae0:	b1ee                	fsd	fs11,224(sp)
80003ae2:	cd531fb7          	lui	t6,0xcd531
80003ae6:	1fbc                	addi	a5,sp,1016
80003ae8:	7b61                	lui	s6,0xffff8
80003aea:	1fc6                	slli	t6,t6,0x31
80003aec:	0dde                	slli	s11,s11,0x17
80003aee:	1fda                	slli	t6,t6,0x36
80003af0:	16f9                	addi	a3,a3,-2 # 534b0ffe <_start-0x2cb4f002>
80003af2:	1ff0                	addi	a2,sp,1020
80003af4:	adc6                	fsd	fa7,216(sp)
80003af6:	73bb1ff3          	csrrw	t6,mhpmevent27h,s6
80003afa:	201f 0c4c 2027      	.insn	6, 0x20270c4c201f
80003b00:	202edda7          	.insn	4, 0x202edda7
80003b04:	202fd7d7          	.insn	4, 0x202fd7d7
80003b08:	2c8c                	fld	fa1,24(s1)
80003b0a:	2031                	jal	80003b16 <verify_data+0x7e6>
80003b0c:	46f4                	lw	a3,76(a3)
80003b0e:	203e                	fld	ft0,456(sp)
80003b10:	8ed1                	or	a3,a3,a2
80003b12:	0db82057          	.insn	4, 0x0db82057
80003b16:	206c                	fld	fa1,192(s0)
80003b18:	7fd8                	flw	fa4,60(a5)
80003b1a:	207a                	fld	ft0,408(sp)
80003b1c:	0d30                	addi	a2,sp,664
80003b1e:	207d                	jal	80003bcc <verify_data+0x89c>
80003b20:	3aed                	jal	8000351a <verify_data+0x1ea>
80003b22:	2085                	jal	80003b82 <verify_data+0x852>
80003b24:	7fc9                	lui	t6,0xffff2
80003b26:	2090                	fld	fa2,0(s1)
80003b28:	78d4                	flw	fa3,52(s1)
80003b2a:	f31d20b3          	.insn	4, 0xf31d20b3
80003b2e:	20bc                	fld	fa5,64(s1)
80003b30:	7518                	flw	fa4,40(a0)
80003b32:	20d0                	fld	fa2,128(s1)
80003b34:	cf61                	beqz	a4,80003c0c <verify_data+0x8dc>
80003b36:	e50320fb          	.insn	4, 0xe50320fb
80003b3a:	2128                	fld	fa0,64(a0)
80003b3c:	7078                	flw	fa4,100(s0)
80003b3e:	2159                	jal	80003fc4 <verify_data+0xc94>
80003b40:	0b52                	slli	s6,s6,0x14
80003b42:	9d30216b          	.insn	4, 0x9d30216b
80003b46:	218e                	fld	ft3,192(sp)
80003b48:	81de                	mv	gp,s7
80003b4a:	03af21af          	amoadd.w.rl	gp,s10,(t5)
80003b4e:	a15d21bf f16e21d7 	.insn	8, 0xf16e21d7a15d21bf
80003b56:	21e4                	fld	fs1,192(a1)
80003b58:	21f8bbe7          	.insn	4, 0x21f8bbe7
80003b5c:	757d                	lui	a0,0xfffff
80003b5e:	2212                	fld	ft4,256(sp)
80003b60:	221bb1f3          	csrrc	gp,0x221,s7
80003b64:	27e4                	fld	fs1,200(a5)
80003b66:	223a                	fld	ft4,392(sp)
80003b68:	e330                	fsw	fa2,64(a4)
80003b6a:	2262                	fld	ft4,24(sp)
80003b6c:	226a2ea7          	fsw	ft6,573(s4)
80003b70:	9562                	add	a0,a0,s8
80003b72:	226a                	fld	ft4,152(sp)
80003b74:	227f96f7          	.insn	4, 0x227f96f7
80003b78:	810a                	mv	sp,sp
80003b7a:	2285                	jal	80003cda <verify_data+0x9aa>
80003b7c:	22992e4b          	fnmsub.d	ft8,fs2,fs1,ft4,rdn
80003b80:	aa91                	j	80003cd4 <verify_data+0x9a4>
80003b82:	229c                	fld	fa5,0(a3)
80003b84:	9608                	.insn	2, 0x9608
80003b86:	22c1                	jal	80003d46 <verify_data+0xa16>
80003b88:	fb81                	bnez	a5,80003a98 <verify_data+0x768>
80003b8a:	22e0                	fld	fs0,192(a3)
80003b8c:	ab60                	fsd	fs0,208(a4)
80003b8e:	22ea                	fld	ft5,152(sp)
80003b90:	2fa9                	jal	800042ea <verify_data+0xfba>
80003b92:	231c                	fld	fa5,0(a4)
80003b94:	39df 2335 4e2b      	.insn	6, 0x4e2b233539df
80003b9a:	2349                	jal	8000411c <verify_data+0xdec>
80003b9c:	c94a                	sw	s2,144(sp)
80003b9e:	234c                	fld	fa1,128(a4)
80003ba0:	23688f3b          	.insn	4, 0x23688f3b
80003ba4:	278e                	fld	fa5,192(sp)
80003ba6:	2374                	fld	fa3,192(a4)
80003ba8:	ed70                	fsw	fa2,92(a0)
80003baa:	2381                	jal	800040ea <verify_data+0xdba>
80003bac:	04c5                	addi	s1,s1,17
80003bae:	239c                	fld	fa5,0(a5)
80003bb0:	034d                	addi	t1,t1,19
80003bb2:	23a5                	jal	8000411a <verify_data+0xdea>
80003bb4:	6a30                	flw	fa2,80(a2)
80003bb6:	a2f223e7          	.insn	4, 0xa2f223e7
80003bba:	7ca623ef          	jal	t2,80066384 <__global_pointer$+0x5e854>
80003bbe:	e3c123f3          	csrrs	t2,0xe3c,sp
80003bc2:	23fe                	fld	ft7,472(sp)
80003bc4:	240481ab          	.insn	4, 0x240481ab
80003bc8:	37ea                	fld	fa5,184(sp)
80003bca:	491c240f          	.insn	4, 0x491c240f
80003bce:	2435                	jal	80003dfa <verify_data+0xaca>
80003bd0:	b44a                	fsd	fs2,40(sp)
80003bd2:	2439                	jal	80003de0 <verify_data+0xab0>
80003bd4:	cd3e                	sw	a5,152(sp)
80003bd6:	247e                	fld	fs0,472(sp)
80003bd8:	490d                	li	s2,3
80003bda:	249c                	fld	fa5,8(s1)
80003bdc:	3ecd                	jal	800037ce <verify_data+0x49e>
80003bde:	24a2                	fld	fs1,8(sp)
80003be0:	5cb5                	li	s9,-19
80003be2:	66c324b3          	.insn	4, 0x66c324b3
80003be6:	24d2                	fld	fs1,272(sp)
80003be8:	24d5dd8b          	.insn	4, 0x24d5dd8b
80003bec:	81fd                	srli	a1,a1,0x1f
80003bee:	24d8                	fld	fa4,136(s1)
80003bf0:	5376                	lw	t1,124(sp)
80003bf2:	24e0                	fld	fs0,200(s1)
80003bf4:	bbfa                	fsd	ft10,496(sp)
80003bf6:	3a3624eb          	.insn	4, 0x3a3624eb
80003bfa:	24ec                	fld	fa1,200(s1)
80003bfc:	05f9                	addi	a1,a1,30
80003bfe:	24f4                	fld	fa3,200(s1)
80003c00:	0b3d                	addi	s6,s6,15 # ffff800f <__global_pointer$+0x7fff04df>
80003c02:	24fc                	fld	fa5,200(s1)
80003c04:	c3bd                	beqz	a5,80003c6a <verify_data+0x93a>
80003c06:	2511                	jal	8000420a <verify_data+0xeda>
80003c08:	b685                	j	80003768 <verify_data+0x438>
80003c0a:	2514                	fld	fa3,8(a0)
80003c0c:	90ea                	add	ra,ra,s10
80003c0e:	2515                	jal	80004232 <verify_data+0xf02>
80003c10:	76c0                	flw	fs0,44(a3)
80003c12:	252c                	fld	fa1,72(a0)
80003c14:	18b0                	addi	a2,sp,120
80003c16:	2530                	fld	fa2,72(a0)
80003c18:	dc48                	sw	a0,60(s0)
80003c1a:	253a                	fld	fa0,392(sp)
80003c1c:	625f 253c d083      	.insn	6, 0xd083253c625f
80003c22:	e0d6253f 5203254f 	.insn	8, 0x5203254fe0d6253f
80003c2a:	2575                	jal	800042d6 <verify_data+0xfa6>
80003c2c:	0af0                	addi	a2,sp,348
80003c2e:	a39e2593          	slti	a1,t3,-1479
80003c32:	259c                	fld	fa5,8(a1)
80003c34:	648d                	lui	s1,0x3
80003c36:	25a2                	fld	fa1,8(sp)
80003c38:	25aa979b          	.insn	4, 0x25aa979b
80003c3c:	e378                	fsw	fa4,68(a4)
80003c3e:	25b4                	fld	fa3,72(a1)
80003c40:	25bbf907          	.insn	4, 0x25bbf907
80003c44:	7b4a                	flw	fs6,176(sp)
80003c46:	25be                	fld	fa1,456(sp)
80003c48:	ff86                	fsw	ft1,252(sp)
80003c4a:	eb4f25ef          	jal	a1,7fff62fe <_start-0x9d02>
80003c4e:	2601                	jal	80003f4e <verify_data+0xc1e>
80003c50:	a9bd                	j	800040ce <verify_data+0xd9e>
80003c52:	2609                	jal	80003f54 <verify_data+0xc24>
80003c54:	5fae                	lw	t6,232(sp)
80003c56:	2632                	fld	fa2,264(sp)
80003c58:	2540                	fld	fs0,136(a0)
80003c5a:	83a92667          	.insn	4, 0x83a92667
80003c5e:	afc1266f          	jal	a2,7ff15f5a <_start-0xea0a6>
80003c62:	78e9268b          	.insn	4, 0x78e9268b
80003c66:	26ba                	fld	fa3,392(sp)
80003c68:	0b60                	addi	s0,sp,412
80003c6a:	26c6                	fld	fa3,80(sp)
80003c6c:	a9e2                	fsd	fs8,208(sp)
80003c6e:	26d5                	jal	80004052 <verify_data+0xd22>
80003c70:	ed86                	fsw	ft1,216(sp)
80003c72:	26d8                	fld	fa4,136(a3)
80003c74:	ebc4                	fsw	fs1,20(a5)
80003c76:	26dd                	jal	8000405c <verify_data+0xd2c>
80003c78:	e848                	fsw	fa0,20(s0)
80003c7a:	26e2                	fld	fa3,24(sp)
80003c7c:	26ecc43f 26f58add 	.insn	8, 0x26f58add26ecc43f
80003c84:	2ad8                	fld	fa4,144(a3)
80003c86:	2709                	jal	80004388 <verify_data+0x1058>
80003c88:	9280                	.insn	2, 0x9280
80003c8a:	270d                	jal	800043ac <verify_data+0x107c>
80003c8c:	4fba                	lw	t6,140(sp)
80003c8e:	2711                	jal	80004392 <verify_data+0x1062>
80003c90:	53c2                	lw	t2,48(sp)
80003c92:	2728                	fld	fa0,72(a4)
80003c94:	272cdbc7          	.insn	4, 0x272cdbc7
80003c98:	ec5c                	fsw	fa5,28(s0)
80003c9a:	276a                	fld	fa4,152(sp)
80003c9c:	bfb6                	fsd	fa3,504(sp)
80003c9e:	2799                	jal	800043e4 <verify_data+0x10b4>
80003ca0:	27ac473b          	.insn	4, 0x27ac473b
80003ca4:	e2fd                	bnez	a3,80003d8a <verify_data+0xa5a>
80003ca6:	dfd027bb          	.insn	4, 0xdfd027bb
80003caa:	27f8                	fld	fa4,200(a5)
80003cac:	280b98c7          	fmsub.s	fa7,fs7,ft0,ft5,rtz
80003cb0:	d6ad                	beqz	a3,80003c1a <verify_data+0x8ea>
80003cb2:	2812                	fld	fa6,256(sp)
80003cb4:	281bbd27          	fsd	ft1,666(s7)
80003cb8:	fe11                	bnez	a2,80003bd4 <verify_data+0x8a4>
80003cba:	2828                	fld	fa0,80(s0)
80003cbc:	49a5                	li	s3,9
80003cbe:	2835                	jal	80003cfa <verify_data+0x9ca>
80003cc0:	10f8                	addi	a4,sp,108
80003cc2:	2844                	fld	fs1,144(s0)
80003cc4:	2845d05b          	.insn	4, 0x2845d05b
80003cc8:	9189                	srli	a1,a1,0x22
80003cca:	285d                	jal	80003d80 <verify_data+0xa50>
80003ccc:	2870b66f          	jal	a2,8000f752 <__global_pointer$+0x7c22>
80003cd0:	a34d                	j	80004272 <verify_data+0xf42>
80003cd2:	2880                	fld	fs0,16(s1)
80003cd4:	9bfd                	andi	a5,a5,-1
80003cd6:	288a                	fld	fa7,128(sp)
80003cd8:	c5f0                	sw	a2,76(a1)
80003cda:	28a6                	fld	fa7,72(sp)
80003cdc:	c1b4                	sw	a3,64(a1)
80003cde:	f15328bb          	.insn	4, 0xf15328bb
80003ce2:	28bd                	jal	80003d60 <verify_data+0xa30>
80003ce4:	5d55                	li	s10,-11
80003ce6:	28d4                	fld	fa3,144(s1)
80003ce8:	b431                	j	800036f4 <verify_data+0x3c4>
80003cea:	25ea28ef          	jal	a7,800a5f48 <__global_pointer$+0x9e418>
80003cee:	2901                	jal	800040fe <verify_data+0xdce>
80003cf0:	290737e7          	.insn	4, 0x290737e7
80003cf4:	6c64                	flw	fs1,92(s0)
80003cf6:	2909                	jal	80004108 <verify_data+0xdd8>
80003cf8:	292b6803          	.insn	4, 0x292b6803
80003cfc:	de5d                	beqz	a2,80003cba <verify_data+0x98a>
80003cfe:	292c                	fld	fa1,80(a0)
80003d00:	292dc637          	lui	a2,0x292dc
80003d04:	4190                	lw	a2,0(a1)
80003d06:	2931                	jal	80004122 <verify_data+0xdf2>
80003d08:	fc5d                	bnez	s0,80003cc6 <verify_data+0x996>
80003d0a:	9857294b          	fnmsub.s	fs2,fa4,ft5,fs3,rdn
80003d0e:	2959                	jal	800041a4 <verify_data+0xe74>
80003d10:	28ae                	fld	fa7,200(sp)
80003d12:	297c                	fld	fa5,208(a0)
80003d14:	297efd5b          	.insn	4, 0x297efd5b
80003d18:	f432                	fsw	fa2,40(sp)
80003d1a:	2982                	fld	fs3,0(sp)
80003d1c:	d515                	beqz	a0,80003c48 <verify_data+0x918>
80003d1e:	2995                	jal	80004192 <verify_data+0xe62>
80003d20:	daa0                	sw	s0,112(a3)
80003d22:	986b2997          	auipc	s3,0x986b2
80003d26:	2998                	fld	fa4,16(a1)
80003d28:	29a4b67b          	.insn	4, 0x29a4b67b
80003d2c:	29c439a7          	fsd	ft8,659(s0)
80003d30:	29d70e33          	.insn	4, 0x29d70e33
80003d34:	7a22                	flw	fs4,40(sp)
80003d36:	29dd                	jal	8000422c <verify_data+0xefc>
80003d38:	eae5                	bnez	a3,80003e28 <verify_data+0xaf8>
80003d3a:	29e8                	fld	fa0,208(a1)
80003d3c:	35ba                	fld	fa1,424(sp)
80003d3e:	2a0d                	jal	80003e70 <verify_data+0xb40>
80003d40:	2a12718f          	.insn	4, 0x2a12718f
80003d44:	2885                	jal	80003db4 <verify_data+0xa84>
80003d46:	2a1a                	fld	fs4,384(sp)
80003d48:	4eda                	lw	t4,148(sp)
80003d4a:	2a21                	jal	80003e62 <verify_data+0xb32>
80003d4c:	2a22a5e3          	.insn	4, 0x2a22a5e3
80003d50:	6ac2                	flw	fs5,16(sp)
80003d52:	2a4c                	fld	fa1,144(a2)
80003d54:	2a8f6b6f          	jal	s6,800f9ffc <__global_pointer$+0xf24cc>
80003d58:	bc82                	fsd	ft0,120(sp)
80003d5a:	2a95                	jal	80003ece <verify_data+0xb9e>
80003d5c:	6351                	lui	t1,0x14
80003d5e:	2aac                	fld	fa1,80(a3)
80003d60:	74f2                	flw	fs1,60(sp)
80003d62:	2aca                	fld	fs5,144(sp)
80003d64:	832c                	.insn	2, 0x832c
80003d66:	4d282aef          	jal	s5,80086238 <__global_pointer$+0x7e708>
80003d6a:	2afa                	fld	fs5,408(sp)
80003d6c:	9719                	srai	a4,a4,0x26
80003d6e:	2b01                	jal	8000427e <verify_data+0xf4e>
80003d70:	2b0b5427          	.insn	4, 0x2b0b5427
80003d74:	d0ed                	beqz	s1,80003d56 <verify_data+0xa26>
80003d76:	2b0c                	fld	fa1,16(a4)
80003d78:	261f 2b0e deec      	.insn	6, 0xdeec2b0e261f
80003d7e:	2b16                	fld	fs6,320(sp)
80003d80:	0b2a                	slli	s6,s6,0xa
80003d82:	2b1d                	jal	800042b8 <verify_data+0xf88>
80003d84:	4dbe                	lw	s11,204(sp)
80003d86:	2b26                	fld	fs6,72(sp)
80003d88:	0c12                	slli	s8,s8,0x4
80003d8a:	2b48                	fld	fa0,144(a4)
80003d8c:	2488                	fld	fa0,8(s1)
80003d8e:	1c4b2b53          	.insn	4, 0x1c4b2b53
80003d92:	2b5e                	fld	fs6,464(sp)
80003d94:	e58d                	bnez	a1,80003dbe <verify_data+0xa8e>
80003d96:	2b7a                	fld	fs6,408(sp)
80003d98:	6fa2                	flw	ft11,8(sp)
80003d9a:	4d812b7b          	.insn	4, 0x4d812b7b
80003d9e:	2b84                	fld	fs1,16(a5)
80003da0:	70c8                	flw	fa0,36(s1)
80003da2:	5d0d2b87          	flw	fs7,1488(s10)
80003da6:	2b89                	jal	800042f8 <verify_data+0xfc8>
80003da8:	d1e1                	beqz	a1,80003d68 <verify_data+0xa38>
80003daa:	6ca02b8f          	.insn	4, 0x6ca02b8f
80003dae:	d24e2b9b          	.insn	4, 0xd24e2b9b
80003db2:	2b9d                	jal	80004328 <verify_data+0xff8>
80003db4:	5d49                	li	s10,-14
80003db6:	35dc2ba7          	fsw	ft9,855(s8)
80003dba:	2ba8                	fld	fa0,80(a5)
80003dbc:	6a49                	lui	s4,0x12
80003dbe:	2be5                	jal	800043b6 <verify_data+0x1086>
80003dc0:	7d20                	flw	fs0,120(a0)
80003dc2:	a3052bf3          	csrrs	s7,0xa30,a0
80003dc6:	2bf5                	jal	800043c2 <verify_data+0x1092>
80003dc8:	64c0                	flw	fs0,12(s1)
80003dca:	58672c07          	flw	fs8,1414(a4)
80003dce:	2c15                	jal	80004002 <verify_data+0xcd2>
80003dd0:	aecc                	fsd	fa1,152(a3)
80003dd2:	f5572c23          	sw	s5,-168(a4)
80003dd6:	94b82c2b          	.insn	4, 0x94b82c2b
80003dda:	2c2d                	jal	80004014 <verify_data+0xce4>
80003ddc:	2c3cdaab          	.insn	4, 0x2c3cdaab
80003de0:	0379                	addi	t1,t1,30 # 1401e <_start-0x7ffebfe2>
80003de2:	2c52                	fld	fs8,272(sp)
80003de4:	2c54a803          	lw	a6,709(s1) # 32c5 <_start-0x7fffcd3b>
80003de8:	983d                	andi	s0,s0,-17
80003dea:	2c6a                	fld	fs8,152(sp)
80003dec:	aaad                	j	80003f66 <verify_data+0xc36>
80003dee:	5cab2c73          	csrrs	s8,0x5ca,s6
80003df2:	9f222c8f          	.insn	4, 0x9f222c8f
80003df6:	2c9d                	jal	8000406c <verify_data+0xd3c>
80003df8:	2c45                	jal	800040a8 <verify_data+0xd78>
80003dfa:	b88a2cab          	.insn	4, 0xb88a2cab
80003dfe:	2cbd                	jal	8000407c <verify_data+0xd4c>
80003e00:	2cc21eab          	.insn	4, 0x2cc21eab
80003e04:	ddc4                	sw	s1,60(a1)
80003e06:	2cd0                	fld	fa2,152(s1)
80003e08:	8849                	andi	s0,s0,18
80003e0a:	2cd8                	fld	fa4,152(s1)
80003e0c:	2ce66627          	.insn	4, 0x2ce66627
80003e10:	6b72                	flw	fs6,28(sp)
80003e12:	2cf4                	fld	fa3,216(s1)
80003e14:	e584                	fsw	fs1,8(a1)
80003e16:	2cf4                	fld	fa3,216(s1)
80003e18:	ceea                	sw	s10,92(sp)
80003e1a:	2cfe                	fld	fs9,472(sp)
80003e1c:	d921                	beqz	a0,80003d6c <verify_data+0xa3c>
80003e1e:	2d08                	fld	fa0,24(a0)
80003e20:	9006                	c.add	zero,ra
80003e22:	2d0c                	fld	fa1,24(a0)
80003e24:	2d2aea73          	csrrsi	s4,0x2d2,21
80003e28:	8c8c                	.insn	2, 0x8c8c
80003e2a:	2d2d                	jal	80004464 <verify_data+0x1134>
80003e2c:	d426                	sw	s1,40(sp)
80003e2e:	2d30                	fld	fa2,88(a0)
80003e30:	eda1                	bnez	a1,80003e88 <verify_data+0xb58>
80003e32:	2d68                	fld	fa0,216(a0)
80003e34:	2d73d15b          	.insn	4, 0x2d73d15b
80003e38:	7cb6                	flw	fs9,108(sp)
80003e3a:	fe492d97          	auipc	s11,0xfe492
80003e3e:	ddde2d97          	auipc	s11,0xddde2
80003e42:	2d9e                	fld	fs11,448(sp)
80003e44:	ac55                	j	800040f8 <verify_data+0xdc8>
80003e46:	0f762da3          	sw	s7,251(a2) # 292dc0fb <_start-0x56d23f05>
80003e4a:	ec892dbb          	.insn	4, 0xec892dbb
80003e4e:	2dc4                	fld	fs1,152(a1)
80003e50:	95c4                	.insn	2, 0x95c4
80003e52:	2dc9                	jal	80004524 <verify_data+0x11f4>
80003e54:	17e0                	addi	s0,sp,1004
80003e56:	2dd6                	fld	fs11,336(sp)
80003e58:	2deb91bf 2df3dfcb 	.insn	8, 0x2df3dfcb2deb91bf
80003e60:	2e04b247          	.insn	4, 0x2e04b247
80003e64:	9db6                	add	s11,s11,a3
80003e66:	77ef2e07          	flw	ft8,1918(t5)
80003e6a:	0dbb2e0b          	.insn	4, 0x0dbb2e0b
80003e6e:	2e16                	fld	ft8,320(sp)
80003e70:	2e56b07f 2e6a0f7c 	.insn	16, 0x2e70078a2e6c133b2e6a0f7c2e56b07f
80003e78:	2e6c133b 2e70078a 
80003e80:	26e2                	fld	fa3,24(sp)
80003e82:	2eb2                	fld	ft9,264(sp)
80003e84:	3bb4                	fld	fa3,112(a5)
80003e86:	2ed0                	fld	fa2,152(a3)
80003e88:	4040                	lw	s0,4(s0)
80003e8a:	2ed9                	jal	80004260 <verify_data+0xf30>
80003e8c:	f2c1                	bnez	a3,80003e0c <verify_data+0xadc>
80003e8e:	2edd                	jal	80004284 <verify_data+0xf54>
80003e90:	0df8                	addi	a4,sp,732
80003e92:	2ee2                	fld	ft9,24(sp)
80003e94:	2eea494b          	.insn	4, 0x2eea494b
80003e98:	def5                	beqz	a3,80003e94 <verify_data+0xb64>
80003e9a:	2ef0                	fld	fa2,216(a3)
80003e9c:	8746                	mv	a4,a7
80003e9e:	2ef5                	jal	8000429a <verify_data+0xf6a>
80003ea0:	9bd8                	.insn	2, 0x9bd8
80003ea2:	2ef6                	fld	ft9,344(sp)
80003ea4:	5b1f 2f1a 9f26      	.insn	6, 0x9f262f1a5b1f
80003eaa:	2f24                	fld	fs1,88(a4)
80003eac:	9259                	srli	a2,a2,0x36
80003eae:	2f28                	fld	fa0,88(a4)
80003eb0:	91a6                	add	gp,gp,s1
80003eb2:	ef642f2b          	.insn	4, 0xef642f2b
80003eb6:	b4642f4b          	.insn	4, 0xb4642f4b
80003eba:	2f70                	fld	fa2,216(a4)
80003ebc:	2c50                	fld	fa2,152(s0)
80003ebe:	2f82                	fld	ft11,0(sp)
80003ec0:	5026                	.insn	2, 0x5026
80003ec2:	d1cb2f97          	auipc	t6,0xd1cb2
80003ec6:	b6d42fa7          	fsw	fa3,-1153(s0)
80003eca:	2faa                	fld	ft11,136(sp)
80003ecc:	2fb80fd7          	.insn	4, 0x2fb80fd7
80003ed0:	21dc                	fld	fa5,128(a1)
80003ed2:	2fb9                	jal	80004630 <verify_data+0x1300>
80003ed4:	2fbefe13          	andi	t3,t4,763
80003ed8:	2fc79aeb          	.insn	4, 0x2fc79aeb
80003edc:	2fcade4f          	.insn	4, 0x2fcade4f
80003ee0:	b366                	fsd	fs9,416(sp)
80003ee2:	2fd8                	fld	fa4,152(a5)
80003ee4:	2ff1affb          	.insn	4, 0x2ff1affb
80003ee8:	30107333          	.insn	4, 0x30107333
80003eec:	301453e7          	.insn	4, 0x301453e7
80003ef0:	3014dbb7          	lui	s7,0x3014d
80003ef4:	94ee                	add	s1,s1,s11
80003ef6:	3041                	jal	80003776 <verify_data+0x446>
80003ef8:	86c8                	.insn	2, 0x86c8
80003efa:	304d                	jal	8000379c <verify_data+0x46c>
80003efc:	81e5                	srli	a1,a1,0x19
80003efe:	93fd304f          	fnmadd.d	ft0,fs10,ft11,fs2,rup
80003f02:	89643067          	.insn	4, 0x89643067
80003f06:	306a                	fld	ft0,184(sp)
80003f08:	2809                	jal	80003f1a <verify_data+0xbea>
80003f0a:	3401306b          	.insn	4, 0x3401306b
80003f0e:	307d                	jal	800037bc <verify_data+0x48c>
80003f10:	46b2                	lw	a3,12(sp)
80003f12:	3089                	jal	80003754 <verify_data+0x424>
80003f14:	9914                	.insn	2, 0x9914
80003f16:	3095                	jal	8000377a <verify_data+0x44a>
80003f18:	cd5f 30b8 735e      	.insn	6, 0x735e30b8cd5f
80003f1e:	30ee                	fld	ft1,248(sp)
80003f20:	d0d4                	sw	a3,36(s1)
80003f22:	30f6                	fld	ft1,376(sp)
80003f24:	6af4                	flw	fa3,84(a3)
80003f26:	3108                	fld	fa0,32(a0)
80003f28:	1d65                	addi	s10,s10,-7
80003f2a:	3116                	fld	ft2,352(sp)
80003f2c:	31529973          	csrrw	s2,0x315,t0
80003f30:	3170694b          	fnmsub.s	fs2,ft0,fs7,ft6,unknown
80003f34:	31766a3f 3181e05e 	.insn	8, 0x3181e05e31766a3f
80003f3c:	318c2ea3          	sw	s8,797(s8)
80003f40:	318c39e7          	.insn	4, 0x318c39e7
80003f44:	8c7a                	mv	s8,t5
80003f46:	3198                	fld	fa4,32(a1)
80003f48:	dfc5                	beqz	a5,80003f00 <verify_data+0xbd0>
80003f4a:	31a6                	fld	ft3,104(sp)
80003f4c:	31bc1683          	lh	a3,795(s8)
80003f50:	0fec                	addi	a1,sp,988
80003f52:	31c6                	fld	ft3,112(sp)
80003f54:	d196                	sw	t0,224(sp)
80003f56:	31cc                	fld	fa1,160(a1)
80003f58:	0a74                	addi	a3,sp,284
80003f5a:	31d9                	jal	80003c20 <verify_data+0x8f0>
80003f5c:	58ee                	lw	a7,248(sp)
80003f5e:	fa4731e3          	.insn	4, 0xfa4731e3
80003f62:	100a31e3          	.insn	4, 0x100a31e3
80003f66:	31ec                	fld	fa1,224(a1)
80003f68:	de75                	beqz	a2,80003f64 <verify_data+0xc34>
80003f6a:	3209                	jal	8000386c <verify_data+0x53c>
80003f6c:	3213004b          	fnmsub.d	ft0,ft6,ft1,ft6,rne
80003f70:	6e71                	lui	t3,0x1c
80003f72:	324a                	fld	ft4,176(sp)
80003f74:	324f49f7          	.insn	4, 0x324f49f7
80003f78:	5676                	lw	a2,124(sp)
80003f7a:	3268                	fld	fa0,224(a2)
80003f7c:	e084                	fsw	fs1,0(s1)
80003f7e:	326e                	fld	ft4,248(sp)
80003f80:	dd86                	sw	ra,248(sp)
80003f82:	3276                	fld	ft4,376(sp)
80003f84:	19a6                	slli	s3,s3,0x29
80003f86:	3280                	fld	fs0,32(a3)
80003f88:	9e1e                	add	t3,t3,t2
80003f8a:	328d                	jal	800038ec <verify_data+0x5bc>
80003f8c:	32919983          	lh	s3,809(gp) # 80007e59 <__global_pointer$+0x329>
80003f90:	2dde                	fld	fs11,464(sp)
80003f92:	32a2                	fld	ft5,40(sp)
80003f94:	24ff 32be 29b6 32c4 	.insn	14, 0x6a7432cda56532c429b632be24ff
80003f9c:	a565 32cd 6a74 
80003fa2:	32ce                	fld	ft5,240(sp)
80003fa4:	3d32                	fld	fs10,296(sp)
80003fa6:	32d5                	jal	8000398a <verify_data+0x65a>
80003fa8:	127e                	slli	tp,tp,0x3f
80003faa:	32e0                	fld	fs0,224(a3)
80003fac:	32ee431b          	.insn	4, 0x32ee431b
80003fb0:	e815                	bnez	s0,80003fe4 <verify_data+0xcb4>
80003fb2:	ffd432f7          	.insn	4, 0xffd432f7
80003fb6:	330e                	fld	ft6,224(sp)
80003fb8:	4b8a                	lw	s7,128(sp)
80003fba:	3312                	fld	ft6,288(sp)
80003fbc:	33226d3b          	.insn	4, 0x33226d3b
80003fc0:	bb69                	j	80003d5a <verify_data+0xa2a>
80003fc2:	3324                	fld	fs1,96(a4)
80003fc4:	57fc                	lw	a5,108(a5)
80003fc6:	3326                	fld	ft6,104(sp)
80003fc8:	3085                	jal	80003828 <verify_data+0x4f8>
80003fca:	3339                	jal	80003cd8 <verify_data+0x9a8>
80003fcc:	a3bc                	fsd	fa5,64(a5)
80003fce:	333c                	fld	fa5,96(a4)
80003fd0:	3348100b          	.insn	4, 0x3348100b
80003fd4:	bf5f 3378 37b1      	.insn	6, 0x37b13378bf5f
80003fda:	337a                	fld	ft6,440(sp)
80003fdc:	9944                	.insn	2, 0x9944
80003fde:	339f 69aa 33a5      	.insn	6, 0x33a569aa339f
80003fe4:	26c9                	jal	800043a6 <verify_data+0x1076>
80003fe6:	d57033ab          	.insn	4, 0xd57033ab
80003fea:	33ac                	fld	fa1,96(a5)
80003fec:	f61d                	bnez	a2,80003f1a <verify_data+0xbea>
80003fee:	33b6                	fld	ft7,360(sp)
80003ff0:	e796                	fsw	ft5,204(sp)
80003ff2:	33d8                	fld	fa4,160(a5)
80003ff4:	33f842cb          	fnmsub.d	ft5,fa6,ft11,ft6,rmm
80003ff8:	34127047          	.insn	4, 0x34127047
80003ffc:	3417d43b          	.insn	4, 0x3417d43b
80004000:	86a9                	srai	a3,a3,0xa
80004002:	341a                	fld	fs0,416(sp)
80004004:	342ec987          	.insn	4, 0x342ec987
80004008:	b01d                	j	8000382e <verify_data+0x4fe>
8000400a:	3438                	fld	fa4,104(s0)
8000400c:	c77a                	sw	t5,140(sp)
8000400e:	345f 935e 3460      	.insn	6, 0x3460935e345f
80004014:	b74e                	fsd	fs3,424(sp)
80004016:	3462                	fld	fs0,56(sp)
80004018:	47ff 346a e798 346c 	.insn	18, 0x3b97347ab34e3471e0a8346ce798346a47ff
80004020:	e0a8 3471 b34e 347a 
80004028:	3b97 
8000402a:	347e                	fld	fs0,504(sp)
8000402c:	3491fb3f 34968f93 	.insn	8, 0x34968f933491fb3f
80004034:	3499a707          	flw	fa4,841(s3) # 186b606b <_start-0x67949f95>
80004038:	5b28                	lw	a0,112(a4)
8000403a:	34cd                	jal	80003b1c <verify_data+0x7ec>
8000403c:	3644                	fld	fs1,168(a2)
8000403e:	34de                	fld	fs1,496(sp)
80004040:	6341                	lui	t1,0x10
80004042:	5cce34eb          	.insn	4, 0x5cce34eb
80004046:	6b953513          	sltiu	a0,a0,1721
8000404a:	3526                	fld	fa0,104(sp)
8000404c:	99c5                	andi	a1,a1,-15
8000404e:	2e883533          	.insn	4, 0x2e883533
80004052:	3539                	jal	80003e60 <verify_data+0xb30>
80004054:	b79f 353e 36c6      	.insn	6, 0x36c6353eb79f
8000405a:	b68b3543          	.insn	4, 0xb68b3543
8000405e:	3548                	fld	fa0,168(a0)
80004060:	1a2c                	addi	a1,sp,312
80004062:	3555                	jal	80003f06 <verify_data+0xbd6>
80004064:	a8ed                	j	8000415e <verify_data+0xe2e>
80004066:	d7583557          	.insn	4, 0xd7583557
8000406a:	3559                	jal	80003ef0 <verify_data+0xbc0>
8000406c:	3150                	fld	fa2,160(a0)
8000406e:	3561                	jal	80003ef6 <verify_data+0xbc6>
80004070:	05a2                	slli	a1,a1,0x8
80004072:	3594                	fld	fa3,40(a1)
80004074:	35ae                	fld	fa1,232(sp)
80004076:	35c0                	fld	fs0,168(a1)
80004078:	5411                	li	s0,-28
8000407a:	35e6                	fld	fa1,120(sp)
8000407c:	360e2f13          	slti	t5,t3,864
80004080:	3615d7bf 36182d7f 	.insn	8, 0x36182d7f3615d7bf
80004088:	69d9                	lui	s3,0x16
8000408a:	3632                	fld	fa2,296(sp)
8000408c:	93c9                	srli	a5,a5,0x32
8000408e:	3634                	fld	fa3,104(a2)
80004090:	d420                	sw	s0,104(s0)
80004092:	d5de3647          	.insn	4, 0xd5de3647
80004096:	3661                	jal	80003c1e <verify_data+0x8ee>
80004098:	5b94                	lw	a3,48(a5)
8000409a:	3688                	fld	fa0,40(a3)
8000409c:	42ad                	li	t0,11
8000409e:	3698                	fld	fa4,40(a3)
800040a0:	2b51                	jal	80004634 <verify_data+0x1304>
800040a2:	369a                	fld	fa3,416(sp)
800040a4:	10ae                	slli	ra,ra,0x2b
800040a6:	36b0                	fld	fa2,104(a3)
800040a8:	36bd5793          	.insn	4, 0x36bd5793
800040ac:	36d21197          	auipc	gp,0x36d21
800040b0:	181a                	slli	a6,a6,0x26
800040b2:	36ee                	fld	fa3,248(sp)
800040b4:	712a                	flw	ft2,168(sp)
800040b6:	2af736f7          	.insn	4, 0x2af736f7
800040ba:	953f370b          	.insn	4, 0x953f370b
800040be:	6219370f          	.insn	4, 0x6219370f
800040c2:	99ac371b          	.insn	4, 0x99ac371b
800040c6:	42b9372b          	.insn	4, 0x42b9372b
800040ca:	3731                	jal	80003fd6 <verify_data+0xca6>
800040cc:	b46e                	fsd	fs11,40(sp)
800040ce:	3734                	fld	fa3,104(a4)
800040d0:	f7b8                	fsw	fa4,104(a5)
800040d2:	98ff373f e5553741 	.insn	8, 0xe555374198ff373f
800040da:	3748                	fld	fa0,168(a4)
800040dc:	3752e6c7          	.insn	4, 0x3752e6c7
800040e0:	375ced43          	.insn	4, 0x375ced43
800040e4:	c88e                	sw	gp,80(sp)
800040e6:	3764                	fld	fs1,232(a4)
800040e8:	3774479b          	.insn	4, 0x3774479b
800040ec:	a8b1                	j	80004148 <verify_data+0xe18>
800040ee:	a7273793          	sltiu	a5,a4,-1422
800040f2:	37a5                	jal	8000405a <verify_data+0xd2a>
800040f4:	37a6bc03          	.insn	4, 0x37a6bc03
800040f8:	74e5                	lui	s1,0xffff9
800040fa:	37ac                	fld	fa1,104(a5)
800040fc:	66c0                	flw	fs0,12(a3)
800040fe:	37b6                	fld	fa5,360(sp)
80004100:	7574                	flw	fa3,108(a0)
80004102:	37c2                	fld	fa5,48(sp)
80004104:	37c3b8f7          	.insn	4, 0x37c3b8f7
80004108:	7da5                	lui	s11,0xfffe9
8000410a:	37c5                	jal	800040ea <verify_data+0xdba>
8000410c:	37c94eb3          	.insn	4, 0x37c94eb3
80004110:	b958                	fsd	fa4,176(a0)
80004112:	37da                	fld	fa5,432(sp)
80004114:	626c                	flw	fa1,68(a2)
80004116:	37e8                	fld	fa0,232(a5)
80004118:	8c39                	xor	s0,s0,a4
8000411a:	37e8                	fld	fa0,232(a5)
8000411c:	9834                	.insn	2, 0x9834
8000411e:	b6ea37ff b3cd381d 	.insn	16, 0x20f13842578e3834b3cd381db6ea37ff
80004126:	578e3834 20f13842 
8000412e:	384a                	fld	fa6,176(sp)
80004130:	092d                	addi	s2,s2,11
80004132:	3862                	fld	fa6,56(sp)
80004134:	38679167          	.insn	4, 0x38679167
80004138:	4d02                	lw	s10,0(sp)
8000413a:	3869                	jal	800039d4 <verify_data+0x6a4>
8000413c:	386a4a27          	.insn	4, 0x386a4a27
80004140:	cfc9                	beqz	a5,800041da <verify_data+0xeaa>
80004142:	c145388b          	.insn	4, 0xc145388b
80004146:	3890                	fld	fa2,48(s1)
80004148:	3893fc2f          	.insn	4, 0x3893fc2f
8000414c:	ffda                	fsw	fs6,252(sp)
8000414e:	389f 05d1 38b3      	.insn	6, 0x38b305d1389f
80004154:	38b93c73          	csrrc	s8,0x38b,s2
80004158:	f23d                	bnez	a2,800040be <verify_data+0xd8e>
8000415a:	38ca                	fld	fa7,176(sp)
8000415c:	7b46                	flw	fs6,112(sp)
8000415e:	023138d3          	fadd.d	fa7,ft2,ft3,rup
80004162:	a07c38db          	.insn	4, 0xa07c38db
80004166:	db9c38e3          	.insn	4, 0xdb9c38e3
8000416a:	38ea                	fld	fa7,184(sp)
8000416c:	4292                	lw	t0,4(sp)
8000416e:	3b0338eb          	.insn	4, 0x3b0338eb
80004172:	bd26390b          	.insn	4, 0xbd26390b
80004176:	3925                	jal	80003dae <verify_data+0xa7e>
80004178:	9561                	srai	a0,a0,0x38
8000417a:	392e                	fld	fs2,232(sp)
8000417c:	6cd4                	flw	fa3,28(s1)
8000417e:	c9d63947          	fmsub.s	fs2,fa2,ft9,fs9,rup
80004182:	397a                	fld	fs2,440(sp)
80004184:	35c4                	fld	fs1,168(a1)
80004186:	398c                	fld	fa1,48(a1)
80004188:	398d5073          	csrwi	0x398,26
8000418c:	399987cf          	fnmadd.s	fa5,fs3,fs9,ft7,rne
80004190:	737c                	flw	fa5,100(a4)
80004192:	eec339bf 6d6839c2 	.insn	8, 0x6d6839c2eec339bf
8000419a:	39c6                	fld	fs3,112(sp)
8000419c:	39c73b7f 39c96743 	.insn	16, 0x39f0708e39d3fdf639c9674339c73b7f
800041a4:	39d3fdf6 39f0708e 
800041ac:	6835                	lui	a6,0xd
800041ae:	3a04                	fld	fs1,48(a2)
800041b0:	493e                	lw	s2,204(sp)
800041b2:	3a06                	fld	fs4,96(sp)
800041b4:	56e2                	lw	a3,56(sp)
800041b6:	3a06                	fld	fs4,96(sp)
800041b8:	3a0a8c2b          	.insn	4, 0x3a0a8c2b
800041bc:	cef4                	sw	a3,92(a3)
800041be:	3a2c                	fld	fa1,112(a2)
800041c0:	8a86                	mv	s5,ra
800041c2:	3a2d                	jal	80003afc <verify_data+0x7cc>
800041c4:	c658                	sw	a4,12(a2)
800041c6:	3a42                	fld	fs4,48(sp)
800041c8:	3a49aebb          	.insn	4, 0x3a49aebb
800041cc:	de5c                	sw	a5,60(a2)
800041ce:	3a4e                	fld	fs4,240(sp)
800041d0:	56ec                	lw	a1,108(a3)
800041d2:	3a74                	fld	fa3,240(a2)
800041d4:	c985                	beqz	a1,80004204 <verify_data+0xed4>
800041d6:	3a76                	fld	fs4,376(sp)
800041d8:	3a980e8b          	.insn	4, 0x3a980e8b
800041dc:	3aba90eb          	.insn	4, 0x3aba90eb
800041e0:	3ac8d43b          	.insn	4, 0x3ac8d43b
800041e4:	0afe                	slli	s5,s5,0x1f
800041e6:	3ae0                	fld	fs0,240(a3)
800041e8:	4361                	li	t1,24
800041ea:	3aea                	fld	fs5,184(sp)
800041ec:	3b13e5b7          	lui	a1,0x3b13e
800041f0:	cef1                	beqz	a3,800042cc <verify_data+0xf9c>
800041f2:	3b1e                	fld	fs6,480(sp)
800041f4:	fafd                	bnez	a3,800041ea <verify_data+0xeba>
800041f6:	3b26                	fld	fs6,104(sp)
800041f8:	fdc5                	bnez	a1,800041b0 <verify_data+0xe80>
800041fa:	fc5c3b37          	lui	s6,0xfc5c3
800041fe:	af763b3b          	.insn	4, 0xaf763b3b
80004202:	ed023b43          	.insn	4, 0xed023b43
80004206:	3b76                	fld	fs6,376(sp)
80004208:	7cce                	flw	fs9,240(sp)
8000420a:	3b8a                	fld	fs7,160(sp)
8000420c:	07e4                	addi	s1,sp,972
8000420e:	d0de3b8f          	.insn	4, 0xd0de3b8f
80004212:	3b90                	fld	fa2,48(a5)
80004214:	3b99408f          	.insn	4, 0x3b99408f
80004218:	3eb0                	fld	fa2,120(a3)
8000421a:	3c06                	fld	fs8,96(sp)
8000421c:	e4c1                	bnez	s1,800042a4 <verify_data+0xf74>
8000421e:	3c39                	jal	80003c3c <verify_data+0x90c>
80004220:	02ec                	addi	a1,sp,332
80004222:	3c49                	jal	80003cb4 <verify_data+0x984>
80004224:	de19                	beqz	a2,80004142 <verify_data+0xe12>
80004226:	3c49                	jal	80003cb8 <verify_data+0x988>
80004228:	bdbd                	j	800040a6 <verify_data+0xd76>
8000422a:	3a763c4b          	fnmsub.d	fs8,fa2,ft7,ft7,rup
8000422e:	e86b3c5b          	.insn	4, 0xe86b3c5b
80004232:	3c6e                	fld	fs8,248(sp)
80004234:	1752                	slli	a4,a4,0x34
80004236:	3c96                	fld	fs9,352(sp)
80004238:	3c985217          	auipc	tp,0x3c985
8000423c:	8b6a                	mv	s6,s10
8000423e:	3ccc                	fld	fa1,184(s1)
80004240:	71b9                	lui	gp,0xfffee
80004242:	a1413cdb          	.insn	4, 0xa1413cdb
80004246:	0d013cf7          	.insn	4, 0x0d013cf7
8000424a:	3d1a                	fld	fs10,416(sp)
8000424c:	bfe5                	j	80004244 <verify_data+0xf14>
8000424e:	3d2c                	fld	fa1,120(a0)
80004250:	54be                	lw	s1,236(sp)
80004252:	3d2d                	jal	8000408c <verify_data+0xd5c>
80004254:	5ae1                	li	s5,-8
80004256:	3d42                	fld	fs10,48(sp)
80004258:	3d4262f7          	.insn	4, 0x3d4262f7
8000425c:	1d74                	addi	a3,sp,700
8000425e:	3d4e                	fld	fs10,240(sp)
80004260:	8d0c                	.insn	2, 0x8d0c
80004262:	3d52                	fld	fs10,304(sp)
80004264:	56d6                	lw	a3,116(sp)
80004266:	3d54                	fld	fa3,184(a0)
80004268:	fb3a                	fsw	fa4,180(sp)
8000426a:	742a3d57          	.insn	4, 0x742a3d57
8000426e:	3d5a                	fld	fs10,432(sp)
80004270:	00fc                	addi	a5,sp,76
80004272:	3d62                	fld	fs10,56(sp)
80004274:	592a                	lw	s2,168(sp)
80004276:	3d7d                	jal	80004134 <verify_data+0xe04>
80004278:	7fc4                	flw	fs1,60(a5)
8000427a:	3d8e                	fld	fs11,224(sp)
8000427c:	3d9105a3          	sb	s9,971(sp)
80004280:	38e6                	fld	fa7,120(sp)
80004282:	3da0                	fld	fs0,120(a1)
80004284:	ffa0                	fsw	fs0,120(a5)
80004286:	3db1                	jal	800040e2 <verify_data+0xdb2>
80004288:	3dbf7153          	.insn	4, 0x3dbf7153
8000428c:	50ad                	li	ra,-21
8000428e:	e9283dd7          	.insn	4, 0xe9283dd7
80004292:	3dde                	fld	fs11,496(sp)
80004294:	4c2e                	lw	s8,200(sp)
80004296:	b7773deb          	.insn	4, 0xb7773deb
8000429a:	0a4d3e27          	fsd	ft4,188(s10)
8000429e:	3e2a                	fld	ft8,168(sp)
800042a0:	f67f                	.insn	2, 0xf67f
800042a2:	3e38                	fld	fa4,120(a2)
800042a4:	3e3b8743          	.insn	4, 0x3e3b8743
800042a8:	3e5303f7          	.insn	4, 0x3e5303f7
800042ac:	79d1                	lui	s3,0xffff4
800042ae:	17143e53          	.insn	4, 0x17143e53
800042b2:	3e6d                	jal	80003e6c <verify_data+0xb3c>
800042b4:	99ec                	.insn	2, 0x99ec
800042b6:	3e85                	jal	80003e26 <verify_data+0xaf6>
800042b8:	b8b0                	fsd	fa2,112(s1)
800042ba:	3e8d                	jal	80003e2c <verify_data+0xafc>
800042bc:	6ce8                	flw	fa0,92(s1)
800042be:	8b753e9b          	.insn	4, 0x8b753e9b
800042c2:	3e9d                	jal	80003e38 <verify_data+0xb08>
800042c4:	ccad                	beqz	s1,8000433e <verify_data+0x100e>
800042c6:	c5723ea7          	fsd	fs7,-931(tp) # bc988e95 <__global_pointer$+0x3c981365>
800042ca:	99263ed3          	.insn	4, 0x99263ed3
800042ce:	3f00                	fld	fs0,56(a4)
800042d0:	227f 3f1a 1b75 3f1e 	.insn	14, 0x204c3f4ac5ee3f1e1b753f1a227f
800042d8:	c5ee 3f4a 204c 
800042de:	3f66                	fld	ft10,120(sp)
800042e0:	7168                	flw	fa0,100(a0)
800042e2:	d17c3f67          	.insn	4, 0xd17c3f67
800042e6:	e53c3f67          	.insn	4, 0xe53c3f67
800042ea:	3f68                	fld	fa0,248(a4)
800042ec:	b11e                	fsd	ft7,160(sp)
800042ee:	3f7c                	fld	fa5,248(a4)
800042f0:	f425                	bnez	s0,80004258 <verify_data+0xf28>
800042f2:	3f81                	jal	80004242 <verify_data+0xf12>
800042f4:	156e                	slli	a0,a0,0x3b
800042f6:	3f8a                	fld	ft11,160(sp)
800042f8:	3f95e34b          	.insn	4, 0x3f95e34b
800042fc:	f67d                	bnez	a2,800042ea <verify_data+0xfba>
800042fe:	3fa4                	fld	fs1,120(a5)
80004300:	5aa8                	lw	a0,112(a3)
80004302:	3fb1                	jal	8000425e <verify_data+0xf2e>
80004304:	91b1                	srli	a1,a1,0x2c
80004306:	3fb4                	fld	fa3,120(a5)
80004308:	83ba                	mv	t2,a4
8000430a:	3fbe                	fld	ft11,488(sp)
8000430c:	4afd                	li	s5,31
8000430e:	fa463fff 12294001 	.insn	16, 0x7e40401ed5c8400712294001fa463fff
80004316:	d5c84007 7e40401e 
8000431e:	4025                	c.li	zero,9
80004320:	4043fd5b          	.insn	4, 0x4043fd5b
80004324:	405d5a9b          	.insn	4, 0x405d5a9b
80004328:	a050                	fsd	fa2,128(s0)
8000432a:	4085                	li	ra,1
8000432c:	345c                	fld	fa5,168(s0)
8000432e:	7651408b          	.insn	4, 0x7651408b
80004332:	c4ff408b          	.insn	4, 0xc4ff408b
80004336:	40b0                	lw	a2,64(s1)
80004338:	4885                	li	a7,1
8000433a:	40cd                	li	ra,19
8000433c:	0d2d                	addi	s10,s10,11
8000433e:	40ce                	lw	ra,208(sp)
80004340:	24f2                	fld	fs1,280(sp)
80004342:	40ce                	lw	ra,208(sp)
80004344:	cc41                	beqz	s0,800043dc <verify_data+0x10ac>
80004346:	40d2                	lw	ra,20(sp)
80004348:	a17a                	fsd	ft10,128(sp)
8000434a:	40d5                	li	ra,21
8000434c:	0dea                	slli	s11,s11,0x1a
8000434e:	a95e40ef          	jal	7ffe8de2 <_start-0x1721e>
80004352:	ad3840f3          	.insn	4, 0xad3840f3
80004356:	40f9                	li	ra,30
80004358:	f865                	bnez	s0,80004348 <verify_data+0x1018>
8000435a:	40fd                	li	ra,31
8000435c:	40fed847          	fmsub.s	fa6,ft9,fa5,fs0,unknown
80004360:	411c6f63          	bltu	s8,a7,8000477e <verify_data+0x144e>
80004364:	41240a87          	.insn	4, 0x41240a87
80004368:	6f6a                	flw	ft10,152(sp)
8000436a:	4139                	li	sp,14
8000436c:	3ab2                	fld	fs5,296(sp)
8000436e:	413d                	li	sp,15
80004370:	88ae                	mv	a7,a1
80004372:	414a                	lw	sp,144(sp)
80004374:	58f0                	lw	a2,116(s1)
80004376:	418e                	lw	gp,192(sp)
80004378:	4ba0                	lw	s0,80(a5)
8000437a:	4191                	li	gp,4
8000437c:	07d4                	addi	a3,sp,964
8000437e:	4192                	lw	gp,4(sp)
80004380:	41aaf2ef          	jal	t0,800b379a <__global_pointer$+0xabc6a>
80004384:	2be4                	fld	fs1,208(a5)
80004386:	41ae                	lw	gp,200(sp)
80004388:	a764                	fsd	fs1,200(a4)
8000438a:	41b5                	li	gp,13
8000438c:	65ff 41b8 a514 41be 	.insn	22, 0xa0e2423bc726422f299741f694ba41bea51441b865ff
80004394:	94ba 41f6 2997 422f 
8000439c:	c726 423b a0e2 
800043a2:	4248                	lw	a0,4(a2)
800043a4:	f095                	bnez	s1,800042c8 <verify_data+0xf98>
800043a6:	4252                	lw	tp,20(sp)
800043a8:	9e80                	.insn	2, 0x9e80
800043aa:	4261                	li	tp,24
800043ac:	8d86                	mv	s11,ra
800043ae:	42d0                	lw	a2,4(a3)
800043b0:	42d7b4a3          	.insn	4, 0x42d7b4a3
800043b4:	42dd5013          	srai	zero,s10,0x2d
800043b8:	42dfc0af          	.insn	4, 0x42dfc0af
800043bc:	1664                	addi	s1,sp,812
800043be:	42ec                	lw	a1,68(a3)
800043c0:	aca1                	j	80004618 <verify_data+0x12e8>
800043c2:	42f4                	lw	a3,68(a3)
800043c4:	1936                	slli	s2,s2,0x2d
800043c6:	42f8                	lw	a4,68(a3)
800043c8:	430fbce7          	.insn	4, 0x430fbce7
800043cc:	b1f5                	j	800040b8 <verify_data+0xd88>
800043ce:	431a                	lw	t1,132(sp)
800043d0:	aba4                	fsd	fs1,80(a5)
800043d2:	431d                	li	t1,7
800043d4:	4d99                	li	s11,6
800043d6:	8fd1432f          	.insn	4, 0x8fd1432f
800043da:	433a                	lw	t1,140(sp)
800043dc:	9488                	.insn	2, 0x9488
800043de:	4349                	li	t1,18
800043e0:	6781                	.insn	2, 0x6781
800043e2:	c7ab4367          	.insn	4, 0xc7ab4367
800043e6:	0f3a4373          	.insn	4, 0x0f3a4373
800043ea:	4382                	lw	t2,0(sp)
800043ec:	7015                	c.lui	zero,0xfffe5
800043ee:	19f2438f          	.insn	4, 0x19f2438f
800043f2:	4396                	lw	t2,68(sp)
800043f4:	4adc                	lw	a5,20(a3)
800043f6:	439a                	lw	t2,132(sp)
800043f8:	d65f 43b2 0354      	.insn	6, 0x035443b2d65f
800043fe:	43ba                	lw	t2,140(sp)
80004400:	6d74                	flw	fa3,92(a0)
80004402:	0be443bb          	.insn	4, 0x0be443bb
80004406:	43cd                	li	t2,19
80004408:	43e409b7          	lui	s3,0x43e40
8000440c:	3234                	fld	fa3,96(a2)
8000440e:	43e6                	lw	t2,88(sp)
80004410:	247f 43f3 22f9 43fe 	.insn	14, 0x99ca44235c1243fe22f943f3247f
80004418:	5c12 4423 99ca 
8000441e:	4428                	lw	a0,72(s0)
80004420:	d032                	sw	a2,32(sp)
80004422:	442d                	li	s0,11
80004424:	5118                	lw	a4,32(a0)
80004426:	4430                	lw	a2,72(s0)
80004428:	463a                	lw	a2,140(sp)
8000442a:	443a                	lw	s0,140(sp)
8000442c:	44630ba3          	sb	t1,1111(t1) # 10457 <_start-0x7ffefba9>
80004430:	ef61                	bnez	a4,80004508 <verify_data+0x11d8>
80004432:	4469                	li	s0,26
80004434:	4477c207          	.insn	4, 0x4477c207
80004438:	1402                	slli	s0,s0,0x20
8000443a:	447e                	lw	s0,220(sp)
8000443c:	82a8                	.insn	2, 0x82a8
8000443e:	3cf24497          	auipc	s1,0x3cf24
80004442:	79ab44af          	.insn	4, 0x79ab44af
80004446:	44b0                	lw	a2,72(s1)
80004448:	7ed5                	lui	t4,0xffff5
8000444a:	44d5                	li	s1,21
8000444c:	e886                	fsw	ft1,80(sp)
8000444e:	44de                	lw	s1,212(sp)
80004450:	44e034f3          	csrrc	s1,0x44e,zero
80004454:	be30                	fsd	fa2,120(a2)
80004456:	980f44f3          	.insn	4, 0x980f44f3
8000445a:	4500                	lw	s0,8(a0)
8000445c:	3ef5                	jal	80004058 <verify_data+0xd28>
8000445e:	451f 4e25 4520      	.insn	6, 0x45204e25451f
80004464:	a5a0                	fsd	fs0,72(a1)
80004466:	4522                	lw	a0,8(sp)
80004468:	bf66                	fsd	fs9,440(sp)
8000446a:	4524                	lw	s1,72(a0)
8000446c:	452708a7          	.insn	4, 0x452708a7
80004470:	45288ea3          	sb	s2,1117(a7)
80004474:	452947fb          	.insn	4, 0x452947fb
80004478:	6738                	flw	fa4,72(a4)
8000447a:	452c                	lw	a1,72(a0)
8000447c:	4f90                	lw	a2,24(a5)
8000447e:	453c                	lw	a5,72(a0)
80004480:	14c2                	slli	s1,s1,0x30
80004482:	454d                	li	a0,19
80004484:	4f41                	li	t5,16
80004486:	39da4577          	.insn	4, 0x39da4577
8000448a:	2dac4583          	lbu	a1,730(s8)
8000448e:	4592                	lw	a1,4(sp)
80004490:	45a55e33          	.insn	4, 0x45a55e33
80004494:	8575                	srai	a0,a0,0x1d
80004496:	45b2                	lw	a1,12(sp)
80004498:	91ea                	add	gp,gp,s10
8000449a:	45c4                	lw	s1,12(a1)
8000449c:	601e                	flw	ft0,196(sp)
8000449e:	45c8                	lw	a0,12(a1)
800044a0:	d378                	sw	a4,100(a4)
800044a2:	45cc                	lw	a1,12(a1)
800044a4:	45da2b4b          	.insn	4, 0x45da2b4b
800044a8:	45dfbae3          	.insn	4, 0x45dfbae3
800044ac:	60d8                	flw	fa4,4(s1)
800044ae:	22c245f7          	.insn	4, 0x22c245f7
800044b2:	45f8                	lw	a4,76(a1)
800044b4:	c688                	sw	a0,8(a3)
800044b6:	4602                	lw	a2,0(sp)
800044b8:	2449                	jal	8000473a <verify_data+0x140a>
800044ba:	4609                	li	a2,2
800044bc:	952d                	srai	a0,a0,0x2b
800044be:	4616                	lw	a2,68(sp)
800044c0:	2b82                	fld	fs7,0(sp)
800044c2:	4638                	lw	a4,72(a2)
800044c4:	d58c                	sw	a1,40(a1)
800044c6:	463a                	lw	a2,140(sp)
800044c8:	20ae                	fld	ft1,200(sp)
800044ca:	464e                	lw	a2,208(sp)
800044cc:	5558                	lw	a4,44(a0)
800044ce:	4656                	lw	a2,84(sp)
800044d0:	465d649b          	.insn	4, 0x465d649b
800044d4:	8db4                	.insn	2, 0x8db4
800044d6:	3a7a4667          	.insn	4, 0x3a7a4667
800044da:	468a                	lw	a3,128(sp)
800044dc:	fa54                	fsw	fa3,52(a2)
800044de:	469a                	lw	a3,132(sp)
800044e0:	42ff 46ae 9d13 46d0 	.insn	18, 0xa1b846e0db7846dadd1346d09d1346ae42ff
800044e8:	dd13 46da db78 46e0 
800044f0:	a1b8 
800044f2:	8a9e46e3          	blt	t3,s1,80003d9e <verify_data+0xa6e>
800044f6:	6c8346fb          	.insn	4, 0x6c8346fb
800044fa:	46fe                	lw	a3,220(sp)
800044fc:	0e38                	addi	a4,sp,792
800044fe:	4705                	li	a4,1
80004500:	dae5                	beqz	a3,800044f0 <verify_data+0x11c0>
80004502:	470e                	lw	a4,192(sp)
80004504:	9f7d                	.insn	2, 0x9f7d
80004506:	d0aa472b          	.insn	4, 0xd0aa472b
8000450a:	4735                	li	a4,13
8000450c:	47c5                	li	a5,17
8000450e:	ead3476b          	.insn	4, 0xead3476b
80004512:	1b49476b          	.insn	4, 0x1b49476b
80004516:	4775                	li	a4,29
80004518:	229c                	fld	fa5,0(a3)
8000451a:	477c                	lw	a5,76(a4)
8000451c:	4797b60f          	.insn	4, 0x4797b60f
80004520:	479820a3          	sw	s9,1121(a6) # d461 <_start-0x7fff2b9f>
80004524:	ddb4                	sw	a3,120(a1)
80004526:	479f 3740 47a5      	.insn	6, 0x47a53740479f
8000452c:	8ad5                	andi	a3,a3,21
8000452e:	155447a7          	.insn	4, 0x155447a7
80004532:	47ba                	lw	a5,140(sp)
80004534:	0524                	addi	s1,sp,648
80004536:	47c2                	lw	a5,16(sp)
80004538:	b8f5                	j	80003e34 <verify_data+0xb04>
8000453a:	47d2                	lw	a5,20(sp)
8000453c:	d05f 47da 8286      	.insn	6, 0x828647dad05f
80004542:	47e0                	lw	s0,76(a5)
80004544:	b732                	fsd	fa2,424(sp)
80004546:	47e6                	lw	a5,88(sp)
80004548:	481bd9f3          	csrrwi	s3,0x481,23
8000454c:	0125                	addi	sp,sp,9
8000454e:	481f 3db3 4847      	.insn	6, 0x48473db3481f
80004554:	8551                	srai	a0,a0,0x14
80004556:	484c                	lw	a1,20(s0)
80004558:	f4ee                	fsw	fs11,104(sp)
8000455a:	4861                	li	a6,24
8000455c:	adb0                	fsd	fa2,88(a1)
8000455e:	486a                	lw	a6,152(sp)
80004560:	6559                	lui	a0,0x16
80004562:	486c                	lw	a1,84(s0)
80004564:	0341                	addi	t1,t1,16
80004566:	486d                	li	a6,27
80004568:	4881f2b7          	lui	t0,0x4881f
8000456c:	36f5                	jal	80004158 <verify_data+0xe28>
8000456e:	4896                	lw	a7,68(sp)
80004570:	2d61                	jal	80004c08 <verify_data+0x18d8>
80004572:	48a1                	li	a7,8
80004574:	48bfb5ef          	jal	a1,801001fe <__global_pointer$+0xf86ce>
80004578:	b06d                	j	80003e22 <verify_data+0xaf2>
8000457a:	48c5                	li	a7,17
8000457c:	a2c4                	fsd	fs1,128(a3)
8000457e:	48c8                	lw	a0,20(s1)
80004580:	48d2104f          	fnmadd.s	ft0,ft4,fa3,fs1,rtz
80004584:	48deb2b3          	.insn	4, 0x48deb2b3
80004588:	c11e                	sw	t2,128(sp)
8000458a:	48ec                	lw	a1,84(s1)
8000458c:	48ee3bd3          	.insn	4, 0x48ee3bd3
80004590:	662c                	flw	fa1,72(a2)
80004592:	48ee                	lw	a7,216(sp)
80004594:	493e456f          	jal	a0,800e9226 <__global_pointer$+0xe16f6>
80004598:	2b3c                	fld	fa5,80(a4)
8000459a:	44f24957          	.insn	4, 0x44f24957
8000459e:	4961                	li	s2,24
800045a0:	d92d                	beqz	a0,80004512 <verify_data+0x11e2>
800045a2:	4961                	li	s2,24
800045a4:	49635f53          	.insn	4, 0x49635f53
800045a8:	523d                	li	tp,-17
800045aa:	4969                	li	s2,26
800045ac:	ccf5                	beqz	s1,800046a8 <verify_data+0x1378>
800045ae:	496d                	li	s2,27
800045b0:	49777d6b          	.insn	4, 0x49777d6b
800045b4:	f754                	fsw	fa3,44(a4)
800045b6:	497d                	li	s2,31
800045b8:	6fb9                	lui	t6,0xe
800045ba:	497e                	lw	s2,220(sp)
800045bc:	c139                	beqz	a0,80004602 <verify_data+0x12d2>
800045be:	c342498f          	.insn	4, 0xc342498f
800045c2:	cba1499b          	.insn	4, 0xcba1499b
800045c6:	49b049e3          	bgtz	s11,80005258 <verify_data+0x1f28>
800045ca:	49ed                	li	s3,27
800045cc:	4a41b0ab          	.insn	4, 0x4a41b0ab
800045d0:	4a5ba023          	sw	t0,1184(s7) # 3014d4a0 <_start-0x4feb2b60>
800045d4:	8c9f 4a73 0635      	.insn	6, 0x06354a738c9f
800045da:	4a75                	li	s4,29
800045dc:	fd96                	fsw	ft5,248(sp)
800045de:	4a86                	lw	s5,64(sp)
800045e0:	ca59                	beqz	a2,80004676 <verify_data+0x1346>
800045e2:	4ad5                	li	s5,21
800045e4:	4699                	li	a3,6
800045e6:	4add                	li	s5,23
800045e8:	5c10                	lw	a2,56(s0)
800045ea:	4adf bad6 4ae2      	.insn	6, 0x4ae2bad64adf
800045f0:	0a4e                	slli	s4,s4,0x13
800045f2:	4af4                	lw	a3,84(a3)
800045f4:	4b27318b          	.insn	4, 0x4b27318b
800045f8:	af6d                	j	80004db2 <verify_data+0x1a82>
800045fa:	4b3e                	lw	s6,204(sp)
800045fc:	4b8786af          	.insn	4, 0x4b8786af
80004600:	3372                	fld	ft6,312(sp)
80004602:	4bae                	lw	s7,200(sp)
80004604:	91ec                	.insn	2, 0x91ec
80004606:	d9bb4bc7          	fmsub.s	fs7,fs6,fs11,fs11,rmm
8000460a:	058c4be3          	blt	s8,s8,80004e60 <verify_data+0x1b30>
8000460e:	9b834bef          	jal	s7,7ff387c6 <_start-0xc783a>
80004612:	4bf2                	lw	s7,28(sp)
80004614:	5c1f 4bf6 040c      	.insn	6, 0x040c4bf65c1f
8000461a:	4c04                	lw	s1,24(s0)
8000461c:	97d2                	add	a5,a5,s4
8000461e:	4c06                	lw	s8,64(sp)
80004620:	58c2                	lw	a7,48(sp)
80004622:	4c11                	li	s8,4
80004624:	8cce                	mv	s9,s3
80004626:	4c2d                	li	s8,11
80004628:	4c38983f 4c38dab4 	.insn	8, 0x4c38dab44c38983f
80004630:	4c3ceec7          	.insn	4, 0x4c3ceec7
80004634:	f69e                	fsw	ft7,108(sp)
80004636:	4c4a                	lw	s8,144(sp)
80004638:	465f 4c61 7db2      	.insn	6, 0x7db24c61465f
8000463e:	e8004c9b          	.insn	4, 0xe8004c9b
80004642:	4cb5                	li	s9,13
80004644:	acda                	fsd	fs6,88(sp)
80004646:	4cb8                	lw	a4,88(s1)
80004648:	4cc2bb0b          	.insn	4, 0x4cc2bb0b
8000464c:	c236                	sw	a3,4(sp)
8000464e:	47684ccf          	.insn	4, 0x47684ccf
80004652:	4cd9                	li	s9,22
80004654:	4ced7143          	.insn	4, 0x4ced7143
80004658:	a049                	j	800046da <verify_data+0x13aa>
8000465a:	4cf2                	lw	s9,28(sp)
8000465c:	7b64                	flw	fs1,116(a4)
8000465e:	2ba04cf3          	.insn	4, 0x2ba04cf3
80004662:	4cf4                	lw	a3,92(s1)
80004664:	cad2                	sw	s4,84(sp)
80004666:	4cf9                	li	s9,30
80004668:	1e4c                	addi	a1,sp,820
8000466a:	aadb4d03          	lbu	s10,-1363(s6) # fc5c2aad <__global_pointer$+0x7c5baf7d>
8000466e:	4d08                	lw	a0,24(a0)
80004670:	4d130333          	.insn	4, 0x4d130333
80004674:	345f 4d2e 799b      	.insn	6, 0x799b4d2e345f
8000467a:	4d4c                	lw	a1,28(a0)
8000467c:	f848                	fsw	fa0,52(s0)
8000467e:	4d60                	lw	s0,92(a0)
80004680:	5bb8                	lw	a4,112(a5)
80004682:	1a904d77          	.insn	4, 0x1a904d77
80004686:	4d9f fe51 4da5      	.insn	6, 0x4da5fe514d9f
8000468c:	6f29                	lui	t5,0xa
8000468e:	4db5                	li	s11,13
80004690:	cec0                	sw	s0,28(a3)
80004692:	4dc9                	li	s11,18
80004694:	4e03cf67          	.insn	4, 0x4e03cf67
80004698:	b8a4                	fsd	fs1,112(s1)
8000469a:	82044e17          	auipc	t3,0x82044
8000469e:	4e34                	lw	a3,88(a2)
800046a0:	b850                	fsd	fa2,176(s0)
800046a2:	4e3a                	lw	t3,140(sp)
800046a4:	4e448da7          	.insn	4, 0x4e448da7
800046a8:	4e4c9107          	.insn	4, 0x4e4c9107
800046ac:	1808                	addi	a0,sp,48
800046ae:	4e50                	lw	a2,28(a2)
800046b0:	6961                	lui	s2,0x18
800046b2:	4e72                	lw	t3,28(sp)
800046b4:	0276                	slli	tp,tp,0x1d
800046b6:	4e81                	li	t4,0
800046b8:	e729                	bnez	a4,80004702 <verify_data+0x13d2>
800046ba:	4e82                	lw	t4,0(sp)
800046bc:	94d2                	add	s1,s1,s4
800046be:	d2144e8f          	.insn	4, 0xd2144e8f
800046c2:	4e9c                	lw	a5,24(a3)
800046c4:	4eaa874f          	.insn	4, 0x4eaa874f
800046c8:	8f85                	sub	a5,a5,s1
800046ca:	4eca                	lw	t4,144(sp)
800046cc:	687e                	flw	fa6,220(sp)
800046ce:	4ed0                	lw	a2,28(a3)
800046d0:	4ed6bee3          	.insn	4, 0x4ed6bee3
800046d4:	9124                	.insn	2, 0x9124
800046d6:	85ea4ee7          	.insn	4, 0x85ea4ee7
800046da:	4eec                	lw	a1,92(a3)
800046dc:	aeb6                	fsd	fa3,344(sp)
800046de:	4ef5                	li	t4,29
800046e0:	4efa053b          	.insn	4, 0x4efa053b
800046e4:	2d0a                	fld	fs10,128(sp)
800046e6:	6b084efb          	.insn	4, 0x6b084efb
800046ea:	4f09                	li	t5,2
800046ec:	d49f 4f2b 2e2c      	.insn	6, 0x2e2c4f2bd49f
800046f2:	4f35                	li	t5,13
800046f4:	4c14                	lw	a3,24(s0)
800046f6:	82e34f5b          	.insn	4, 0x82e34f5b
800046fa:	4f5e                	lw	t5,212(sp)
800046fc:	7e0c                	flw	fa1,56(a2)
800046fe:	4f6a                	lw	t5,152(sp)
80004700:	d6f6                	sw	t4,108(sp)
80004702:	2e644f6b          	.insn	4, 0x2e644f6b
80004706:	4f6e                	lw	t5,216(sp)
80004708:	4f730137          	lui	sp,0x4f730
8000470c:	0661                	addi	a2,a2,24
8000470e:	4f80                	lw	s0,24(a5)
80004710:	4e44                	lw	s1,28(a2)
80004712:	4f90                	lw	a2,24(a5)
80004714:	177e                	slli	a4,a4,0x3f
80004716:	4f96                	lw	t6,68(sp)
80004718:	08d9                	addi	a7,a7,22
8000471a:	6eff4f97          	auipc	t6,0x6eff4
8000471e:	4f9c                	lw	a5,24(a5)
80004720:	9f10                	.insn	2, 0x9f10
80004722:	4f9f 6481 4fa3      	.insn	6, 0x4fa364814f9f
80004728:	94c6                	add	s1,s1,a7
8000472a:	4fa9                	li	t6,10
8000472c:	3271                	jal	800040b8 <verify_data+0xd88>
8000472e:	a3944fb7          	lui	t6,0xa3944
80004732:	4fc1                	li	t6,16
80004734:	fda0                	fsw	fs0,120(a1)
80004736:	44314fd3          	.insn	4, 0x44314fd3
8000473a:	4fed                	li	t6,27
8000473c:	b9ad                	j	800043b6 <verify_data+0x1086>
8000473e:	501d                	c.li	zero,-25
80004740:	495f 502b d8ac      	.insn	6, 0xd8ac502b495f
80004746:	5030                	lw	a2,96(s0)
80004748:	503866b3          	.insn	4, 0x503866b3
8000474c:	259f 503a ed35      	.insn	6, 0xed35503a259f
80004752:	504d                	c.li	zero,-13
80004754:	5c0d                	li	s8,-29
80004756:	505e                	.insn	2, 0x505e
80004758:	8da5                	xor	a1,a1,s1
8000475a:	505e                	.insn	2, 0x505e
8000475c:	5615                	li	a2,-27
8000475e:	5081                	li	ra,-32
80004760:	9ad6                	add	s5,s5,s5
80004762:	50a2                	lw	ra,40(sp)
80004764:	5896                	lw	a7,100(sp)
80004766:	636650a7          	.insn	4, 0x636650a7
8000476a:	50b4                	lw	a3,96(s1)
8000476c:	fc05                	bnez	s0,800046a4 <verify_data+0x1374>
8000476e:	50c4                	lw	s1,36(s1)
80004770:	a0ae                	fsd	fa1,64(sp)
80004772:	50c9                	li	ra,-14
80004774:	50dfdaef          	jal	s5,80102480 <__global_pointer$+0xfa950>
80004778:	67d5                	lui	a5,0x15
8000477a:	511f 6762 5120      	.insn	6, 0x51206762511f
80004780:	b562                	fsd	fs8,168(sp)
80004782:	5162                	lw	sp,56(sp)
80004784:	eb98                	fsw	fa4,16(a5)
80004786:	5185                	li	gp,-31
80004788:	518d9d7b          	.insn	4, 0x518d9d7b
8000478c:	9932                	add	s2,s2,a2
8000478e:	51b0                	lw	a2,96(a1)
80004790:	a63a                	fsd	fa4,264(sp)
80004792:	51c9                	li	gp,-14
80004794:	3fa1                	jal	800046ec <verify_data+0x13bc>
80004796:	51e5                	li	gp,-7
80004798:	7c82                	flw	fs9,32(sp)
8000479a:	049e51e7          	.insn	4, 0x049e51e7
8000479e:	51fc                	lw	a5,100(a1)
800047a0:	8b7a                	mv	s6,t5
800047a2:	5222                	lw	tp,40(sp)
800047a4:	5235d287          	.insn	4, 0x5235d287
800047a8:	e641                	bnez	a2,80004830 <verify_data+0x1500>
800047aa:	5238                	lw	a4,96(a2)
800047ac:	10ed                	addi	ra,ra,-5
800047ae:	5241                	li	tp,-16
800047b0:	34f5                	jal	8000429c <verify_data+0xf6c>
800047b2:	5266                	lw	tp,120(sp)
800047b4:	52670823          	sb	t1,1328(a4)
800047b8:	52680fd7          	.insn	4, 0x52680fd7
800047bc:	4906                	lw	s2,64(sp)
800047be:	526d                	li	tp,-5
800047c0:	9a3e                	add	s4,s4,a5
800047c2:	adf35273          	csrrwi	tp,0xadf,6
800047c6:	5278                	lw	a4,100(a2)
800047c8:	5282f6af          	.insn	4, 0x5282f6af
800047cc:	b9a9                	j	80004426 <verify_data+0x10f6>
800047ce:	9ede5297          	auipc	t0,0x9ede5
800047d2:	52a0                	lw	s0,96(a3)
800047d4:	47ea                	lw	a5,152(sp)
800047d6:	52a2                	lw	t0,40(sp)
800047d8:	8c68                	.insn	2, 0x8c68
800047da:	52ac                	lw	a1,96(a3)
800047dc:	2390                	fld	fa2,0(a5)
800047de:	52b9                	li	t0,-18
800047e0:	cb54                	sw	a3,20(a4)
800047e2:	52c6                	lw	t0,112(sp)
800047e4:	52d6793b          	.insn	4, 0x52d6793b
800047e8:	52d9061b          	.insn	4, 0x52d9061b
800047ec:	52da5463          	bge	s4,a3,80004d14 <verify_data+0x19e4>
800047f0:	e6d4                	fsw	fa3,12(a3)
800047f2:	52dd                	li	t0,-9
800047f4:	6649                	lui	a2,0x12
800047f6:	52de                	lw	t0,244(sp)
800047f8:	02a1                	addi	t0,t0,8 # 1ede97d6 <_start-0x6121682a>
800047fa:	52e1                	li	t0,-8
800047fc:	bc78                	fsd	fa4,248(s0)
800047fe:	70bb52e3          	bge	s6,a1,80005702 <input_data+0x3d2>
80004802:	52ea                	lw	t0,184(sp)
80004804:	9892                	add	a7,a7,tp
80004806:	52f5                	li	t0,-3
80004808:	b766                	fsd	fs9,424(sp)
8000480a:	52fa                	lw	t0,188(sp)
8000480c:	5324eef7          	.insn	4, 0x5324eef7
80004810:	5328610f          	.insn	4, 0x5328610f
80004814:	6e6c                	flw	fa1,92(a2)
80004816:	532a                	lw	t1,168(sp)
80004818:	5f7c                	lw	a5,124(a4)
8000481a:	50f6533f 167d536d 	.insn	8, 0x167d536d50f6533f
80004822:	5370                	lw	a2,100(a4)
80004824:	537361cf          	fnmadd.d	ft3,ft6,fs7,fa0,unknown
80004828:	53807c37          	lui	s8,0x53807
8000482c:	538275d3          	.insn	4, 0x538275d3
80004830:	8780                	.insn	2, 0x8780
80004832:	5390                	lw	a2,32(a5)
80004834:	099e                	slli	s3,s3,0x7
80004836:	539c                	lw	a5,32(a5)
80004838:	53a33aef          	jal	s5,80037d72 <__global_pointer$+0x30242>
8000483c:	da66                	sw	s9,52(sp)
8000483e:	70b553ab          	.insn	4, 0x70b553ab
80004842:	53ba                	lw	t2,172(sp)
80004844:	53c8cb9b          	.insn	4, 0x53c8cb9b
80004848:	53ca3e2f          	.insn	4, 0x53ca3e2f
8000484c:	8d40                	.insn	2, 0x8d40
8000484e:	53de                	lw	t2,244(sp)
80004850:	53f8a88b          	.insn	4, 0x53f8a88b
80004854:	a9d0                	fsd	fa2,144(a1)
80004856:	a88853fb          	.insn	4, 0xa88853fb
8000485a:	5431                	li	s0,-20
8000485c:	ce4c                	sw	a1,28(a2)
8000485e:	5445                	li	s0,-15
80004860:	148d                	addi	s1,s1,-29 # bcf28421 <__global_pointer$+0x3cf208f1>
80004862:	544a                	lw	s0,176(sp)
80004864:	6075                	c.lui	zero,0x1d
80004866:	544a                	lw	s0,176(sp)
80004868:	2416                	fld	fs0,320(sp)
8000486a:	545d                	li	s0,-9
8000486c:	0c00                	addi	s0,sp,528
8000486e:	547c                	lw	a5,108(s0)
80004870:	e13c                	fsw	fa5,64(a0)
80004872:	547e                	lw	s0,252(sp)
80004874:	d742                	sw	a6,172(sp)
80004876:	af9c54af          	.insn	4, 0xaf9c54af
8000487a:	54ec                	lw	a1,108(s1)
8000487c:	a2b4                	fsd	fa3,64(a3)
8000487e:	54ed                	li	s1,-5
80004880:	6adf 5506 fc8e      	.insn	6, 0xfc8e55066adf
80004886:	5515                	li	a0,-27
80004888:	f601                	bnez	a2,80004790 <verify_data+0x1460>
8000488a:	5520                	lw	s0,104(a0)
8000488c:	9b08                	.insn	2, 0x9b08
8000488e:	5548                	lw	a0,44(a0)
80004890:	5552d8af          	.insn	4, 0x5552d8af
80004894:	5557c007          	.insn	4, 0x5557c007
80004898:	5579cfa7          	.insn	4, 0x5579cfa7
8000489c:	5582c697          	auipc	a3,0x5582c
800048a0:	7b2e                	flw	fs6,232(sp)
800048a2:	5595                	li	a1,-27
800048a4:	1f9c                	addi	a5,sp,1008
800048a6:	55a9                	li	a1,-22
800048a8:	e12a                	fsw	fa0,128(sp)
800048aa:	55d6                	lw	a1,116(sp)
800048ac:	4c62                	lw	s8,24(sp)
800048ae:	55f0                	lw	a2,108(a1)
800048b0:	56126e87          	.insn	4, 0x56126e87
800048b4:	ddb0                	sw	a2,120(a1)
800048b6:	5612                	lw	a2,36(sp)
800048b8:	657f 5624 35e2 5625 	.insn	22, 0xdc38564cd7805646a03f562654c2562535e25624657f
800048c0:	54c2 5626 a03f 5646 
800048c8:	d780 564c dc38 
800048ce:	567a                	lw	a2,188(sp)
800048d0:	5680bd3f 56834290 	.insn	8, 0x568342905680bd3f
800048d8:	17e6                	slli	a5,a5,0x39
800048da:	56a1                	li	a3,-24
800048dc:	56be5ff3          	csrrwi	t6,0x56b,28
800048e0:	16b2                	slli	a3,a3,0x2c
800048e2:	56c5                	li	a3,-15
800048e4:	263e                	fld	fa2,456(sp)
800048e6:	56df 1c4d 56f8      	.insn	6, 0x56f81c4d56df
800048ec:	b0b9                	j	8000413a <verify_data+0xe0a>
800048ee:	56f8                	lw	a4,108(a3)
800048f0:	3468                	fld	fa0,232(s0)
800048f2:	56fe                	lw	a3,252(sp)
800048f4:	0bc1                	addi	s7,s7,16
800048f6:	5700                	lw	s0,40(a4)
800048f8:	4838                	lw	a4,80(s0)
800048fa:	02115727          	.insn	4, 0x02115727
800048fe:	572c                	lw	a1,104(a4)
80004900:	3a00                	fld	fs0,48(a2)
80004902:	5730                	lw	a2,104(a4)
80004904:	6a81                	.insn	2, 0x6a81
80004906:	5732                	lw	a4,44(sp)
80004908:	5737b9e3          	.insn	4, 0x5737b9e3
8000490c:	08ff 576b c149 576b 	.insn	10, 0x6483576bc149576b08ff
80004914:	6483 
80004916:	5776                	lw	a4,124(sp)
80004918:	5511                	li	a0,-28
8000491a:	c65d5787          	.insn	4, 0xc65d5787
8000491e:	57a2                	lw	a5,40(sp)
80004920:	b06e                	fsd	fs11,32(sp)
80004922:	b82b57af          	.insn	4, 0xb82b57af
80004926:	57b4                	lw	a3,104(a5)
80004928:	ceb2                	sw	a2,92(sp)
8000492a:	57b6                	lw	a5,108(sp)
8000492c:	973c                	.insn	2, 0x973c
8000492e:	57c5                	li	a5,-15
80004930:	57cebc73          	csrrc	s8,0x57c,t4
80004934:	6a2e                	flw	fs4,200(sp)
80004936:	73e657d7          	.insn	4, 0x73e657d7
8000493a:	57f4                	lw	a3,108(a5)
8000493c:	2e9a                	fld	ft9,384(sp)
8000493e:	f556583b          	.insn	4, 0xf556583b
80004942:	b0c8583b          	.insn	4, 0xb0c8583b
80004946:	583d                	li	a6,-17
80004948:	86a0                	.insn	2, 0x86a0
8000494a:	5864                	lw	s1,116(s0)
8000494c:	9850                	.insn	2, 0x9850
8000494e:	588e                	lw	a7,224(sp)
80004950:	a0ea                	fsd	fs10,64(sp)
80004952:	4ae3589b          	.insn	4, 0x4ae3589b
80004956:	01ab58ab          	.insn	4, 0x01ab58ab
8000495a:	236f58cb          	fnmsub.d	fa7,ft10,fs6,ft4,unknown
8000495e:	58e6                	lw	a7,120(sp)
80004960:	3434                	fld	fa3,104(s0)
80004962:	917d58ef          	jal	a7,7ffda278 <_start-0x25d88>
80004966:	58f5                	li	a7,-3
80004968:	592c584b          	fnmsub.s	fa6,fs8,fs2,fa1,unknown
8000496c:	62d6                	flw	ft5,84(sp)
8000496e:	ca9b592f          	.insn	4, 0xca9b592f
80004972:	5944                	lw	s1,52(a0)
80004974:	8add                	andi	a3,a3,23
80004976:	5948                	lw	a0,52(a0)
80004978:	1fe2                	slli	t6,t6,0x38
8000497a:	5952                	lw	s2,52(sp)
8000497c:	5969bfbf 597a35f0 	.insn	8, 0x597a35f05969bfbf
80004984:	c412                	sw	tp,8(sp)
80004986:	598a                	lw	s3,160(sp)
80004988:	09c4                	addi	s1,sp,212
8000498a:	598e                	lw	s3,224(sp)
8000498c:	359a                	fld	fa1,416(sp)
8000498e:	930e598f          	.insn	4, 0x930e598f
80004992:	59a5                	li	s3,-23
80004994:	d140                	sw	s0,36(a0)
80004996:	59b4                	lw	a3,112(a1)
80004998:	59bbba97          	auipc	s5,0x59bbb
8000499c:	ad26                	fsd	fs1,152(sp)
8000499e:	59ce                	lw	s3,240(sp)
800049a0:	9a45                	andi	a2,a2,-15
800049a2:	59d9                	li	s3,-10
800049a4:	0492                	slli	s1,s1,0x4
800049a6:	59ed                	li	s3,-5
800049a8:	ce14                	sw	a3,24(a2)
800049aa:	5a02                	lw	s4,32(sp)
800049ac:	5c31                	li	s8,-20
800049ae:	5a21                	li	s4,-24
800049b0:	ca46                	sw	a7,20(sp)
800049b2:	5a21                	li	s4,-24
800049b4:	7271                	lui	tp,0xffffc
800049b6:	5a32                	lw	s4,44(sp)
800049b8:	0f8e                	slli	t6,t6,0x3
800049ba:	5a42                	lw	s4,48(sp)
800049bc:	5a46b2c3          	fmadd.d	ft5,fa3,ft4,fa1,rup
800049c0:	e44c                	fsw	fa1,12(s0)
800049c2:	5a49                	li	s4,-14
800049c4:	11fa                	slli	gp,gp,0x3e
800049c6:	5a51                	li	s4,-12
800049c8:	2220                	fld	fs0,64(a2)
800049ca:	5a55                	li	s4,-11
800049cc:	50ec                	lw	a1,100(s1)
800049ce:	5d345a5b          	.insn	4, 0x5d345a5b
800049d2:	5a8a                	lw	s5,160(sp)
800049d4:	8bfd                	andi	a5,a5,31
800049d6:	e4a25aa3          	.insn	4, 0xe4a25aa3
800049da:	5aa6                	lw	s5,104(sp)
800049dc:	5aadf643          	fmadd.d	fa2,fs11,fa0,fa1
800049e0:	b38c                	fsd	fa1,32(a5)
800049e2:	5abc                	lw	a5,112(a3)
800049e4:	7ebd                	lui	t4,0xfffef
800049e6:	5ad6                	lw	s5,116(sp)
800049e8:	e652                	fsw	fs4,12(sp)
800049ea:	5add                	li	s5,-9
800049ec:	8a1a                	mv	s4,t1
800049ee:	5aec                	lw	a1,116(a3)
800049f0:	8572                	mv	a0,t3
800049f2:	5b04                	lw	s1,48(a4)
800049f4:	5b13e84b          	fnmsub.d	fa6,ft7,fa7,fa1,unknown
800049f8:	5b668c23          	sb	s6,1464(a3) # d5830e54 <__global_pointer$+0x55829324>
800049fc:	4e8e                	lw	t4,192(sp)
800049fe:	085b5b67          	.insn	4, 0x085b5b67
80004a02:	5b74                	lw	a3,116(a4)
80004a04:	c33a                	sw	a4,132(sp)
80004a06:	5b90                	lw	a2,48(a5)
80004a08:	c554                	sw	a3,12(a0)
80004a0a:	13985ba3          	.insn	4, 0x13985ba3
80004a0e:	5bad                	li	s7,-21
80004a10:	fea1                	bnez	a3,80004968 <verify_data+0x1638>
80004a12:	5bb1                	li	s7,-20
80004a14:	5bc3d43b          	.insn	4, 0x5bc3d43b
80004a18:	5bdbb757          	.insn	4, 0x5bdbb757
80004a1c:	d285                	beqz	a3,8000493c <verify_data+0x160c>
80004a1e:	20625bdb          	.insn	4, 0x20625bdb
80004a22:	5be2                	lw	s7,56(sp)
80004a24:	4fe1                	li	t6,24
80004a26:	5c1f f7b7 5c26      	.insn	6, 0x5c26f7b75c1f
80004a2c:	ae74                	fsd	fa3,216(a2)
80004a2e:	754a5c27          	.insn	4, 0x754a5c27
80004a32:	96b35c3f e1405c4d 	.insn	8, 0xe1405c4d96b35c3f
80004a3a:	5c50                	lw	a2,60(s0)
80004a3c:	4f7e                	lw	t5,220(sp)
80004a3e:	8f185c63          	bge	a6,a7,80003b36 <verify_data+0x806>
80004a42:	5c65                	li	s8,-7
80004a44:	5c6b23e3          	.insn	4, 0x5c6b23e3
80004a48:	21b4                	fld	fa3,64(a1)
80004a4a:	5c6e                	lw	s8,248(sp)
80004a4c:	5c7c7ae7          	.insn	4, 0x5c7c7ae7
80004a50:	4274                	lw	a3,68(a2)
80004a52:	5c99                	li	s9,-26
80004a54:	c924                	sw	s1,80(a0)
80004a56:	5ca1                	li	s9,-24
80004a58:	6251                	lui	tp,0x14
80004a5a:	5cb4                	lw	a3,120(s1)
80004a5c:	7dfd                	lui	s11,0xfffff
80004a5e:	5cb9                	li	s9,-18
80004a60:	ecf0                	fsw	fa2,92(s1)
80004a62:	5ce0                	lw	s0,124(s1)
80004a64:	cf1d                	beqz	a4,80004aa2 <verify_data+0x1772>
80004a66:	e2f05ce7          	.insn	4, 0xe2f05ce7
80004a6a:	5cfd                	li	s9,-1
80004a6c:	5d0e34db          	.insn	4, 0x5d0e34db
80004a70:	cf00                	sw	s0,24(a4)
80004a72:	5d0e                	lw	s10,224(sp)
80004a74:	6bb9                	lui	s7,0xe
80004a76:	5d11                	li	s10,-28
80004a78:	5d161ea7          	.insn	4, 0x5d161ea7
80004a7c:	5d347033          	.insn	4, 0x5d347033
80004a80:	5d39ae3b          	.insn	4, 0x5d39ae3b
80004a84:	52b6                	lw	t0,108(sp)
80004a86:	5d51                	li	s10,-12
80004a88:	5d52b08f          	.insn	4, 0x5d52b08f
80004a8c:	acbd                	j	80004d0a <verify_data+0x19da>
80004a8e:	5d64                	lw	s1,124(a0)
80004a90:	791e                	flw	fs2,228(sp)
80004a92:	5d78                	lw	a4,124(a0)
80004a94:	d049                	beqz	s0,80004a16 <verify_data+0x16e6>
80004a96:	861e5d7b          	.insn	4, 0x861e5d7b
80004a9a:	5cf85d83          	lhu	s11,1487(a6)
80004a9e:	5d8c                	lw	a1,56(a1)
80004aa0:	2534                	fld	fa3,72(a0)
80004aa2:	5d9e                	lw	s11,228(sp)
80004aa4:	af35                	j	800051e0 <verify_data+0x1eb0>
80004aa6:	5dac                	lw	a1,120(a1)
80004aa8:	5db6107f 5de66704 	.insn	12, 0x5dffa3b25de667045db6107f
80004ab0:	5dffa3b2 
80004ab4:	b1aa                	fsd	fa0,224(sp)
80004ab6:	5e0d                	li	t3,-29
80004ab8:	b1a2                	fsd	fs0,224(sp)
80004aba:	5e28                	lw	a0,120(a2)
80004abc:	1801                	addi	a6,a6,-32
80004abe:	5e3d                	li	t3,-17
80004ac0:	f449                	bnez	s0,80004a4a <verify_data+0x171a>
80004ac2:	5e3d                	li	t3,-17
80004ac4:	5f29                	li	t5,-22
80004ac6:	5e48                	lw	a0,60(a2)
80004ac8:	2640                	fld	fs0,136(a2)
80004aca:	5e70                	lw	a2,124(a2)
80004acc:	f286                	fsw	ft1,100(sp)
80004ace:	5e79                	li	t3,-2
80004ad0:	58ce                	lw	a7,240(sp)
80004ad2:	5eaa                	lw	t4,168(sp)
80004ad4:	5eb1deab          	.insn	4, 0x5eb1deab
80004ad8:	2f60                	fld	fs0,216(a4)
80004ada:	5eb9                	li	t4,-18
80004adc:	859f 5ecc 3d98      	.insn	6, 0x3d985ecc859f
80004ae2:	5ed1                	li	t4,-12
80004ae4:	babe                	fsd	fa5,368(sp)
80004ae6:	5ef8                	lw	a4,124(a3)
80004ae8:	5f000727          	.insn	4, 0x5f000727
80004aec:	fee2                	fsw	fs8,124(sp)
80004aee:	ae285f0b          	.insn	4, 0xae285f0b
80004af2:	5f21                	li	t5,-24
80004af4:	5f2d8e87          	.insn	4, 0x5f2d8e87
80004af8:	0230                	addi	a2,sp,264
80004afa:	5f38                	lw	a4,120(a4)
80004afc:	3635                	jal	80004628 <verify_data+0x12f8>
80004afe:	5f46                	lw	t5,112(sp)
80004b00:	5f5770ab          	.insn	4, 0x5f5770ab
80004b04:	2df2                	fld	fs11,280(sp)
80004b06:	5f5c                	lw	a5,60(a4)
80004b08:	6aa2                	flw	fs5,8(sp)
80004b0a:	5f5e                	lw	t5,244(sp)
80004b0c:	9731                	srai	a4,a4,0x2c
80004b0e:	5f65                	li	t5,-7
80004b10:	5ea0                	lw	s0,120(a3)
80004b12:	183e5f6f          	jal	t5,800ea494 <__global_pointer$+0xe2964>
80004b16:	5f71                	li	t5,-4
80004b18:	bf85                	j	80004a88 <verify_data+0x1758>
80004b1a:	5f76                	lw	t5,124(sp)
80004b1c:	796a                	flw	fs2,184(sp)
80004b1e:	5f84                	lw	s1,56(a5)
80004b20:	3495                	jal	80004584 <verify_data+0x1254>
80004b22:	5f89                	li	t6,-30
80004b24:	5f8b586b          	.insn	4, 0x5f8b586b
80004b28:	5ed6                	lw	t4,116(sp)
80004b2a:	5f92                	lw	t6,36(sp)
80004b2c:	25c2                	fld	fa1,16(sp)
80004b2e:	5fa0                	lw	s0,120(a5)
80004b30:	8e1a                	mv	t3,t1
80004b32:	5fa0                	lw	s0,120(a5)
80004b34:	5faed877          	.insn	4, 0x5faed877
80004b38:	5faffcaf          	.insn	4, 0x5faffcaf
80004b3c:	fdc5                	bnez	a1,80004af4 <verify_data+0x17c4>
80004b3e:	beb65fcb          	.insn	4, 0xbeb65fcb
80004b42:	5fd0                	lw	a2,60(a5)
80004b44:	7672                	flw	fa2,60(sp)
80004b46:	5fd2                	lw	t6,52(sp)
80004b48:	378e                	fld	fa5,224(sp)
80004b4a:	f9555fd3          	.insn	4, 0xf9555fd3
80004b4e:	5ff5                	li	t6,-3
80004b50:	5ffa6057          	.insn	4, 0x5ffa6057
80004b54:	e246                	fsw	fa7,4(sp)
80004b56:	5ffe                	lw	t6,252(sp)
80004b58:	8c4e                	mv	s8,s3
80004b5a:	600d                	c.lui	zero,0x3
80004b5c:	6f54                	flw	fa3,28(a4)
80004b5e:	600e                	flw	ft0,192(sp)
80004b60:	4a40                	lw	s0,20(a2)
80004b62:	6010                	flw	fa2,0(s0)
80004b64:	3b49                	jal	800048f6 <verify_data+0x15c6>
80004b66:	601e                	flw	ft0,196(sp)
80004b68:	601e79bb          	.insn	4, 0x601e79bb
80004b6c:	9910                	.insn	2, 0x9910
80004b6e:	f51e603f 804f6064 	.insn	8, 0x804f6064f51e603f
80004b76:	6076                	flw	ft0,92(sp)
80004b78:	1c78                	addi	a4,sp,572
80004b7a:	6089                	lui	ra,0x2
80004b7c:	c63a                	sw	a4,12(sp)
80004b7e:	6089                	lui	ra,0x2
80004b80:	d200                	sw	s0,32(a2)
80004b82:	7ef86097          	auipc	ra,0x7ef86
80004b86:	540c609b          	.insn	4, 0x540c609b
80004b8a:	60b8                	flw	fa4,64(s1)
80004b8c:	52a1                	li	t0,-24
80004b8e:	60b9                	lui	ra,0xe
80004b90:	3d99                	jal	800049e6 <verify_data+0x16b6>
80004b92:	60d6                	flw	ft1,84(sp)
80004b94:	7a9e                	flw	fs5,228(sp)
80004b96:	60ff 3a28 610f 407d 	.insn	22, 0x612c4ec4612686e061223bea610f407d610f3a2860ff
80004b9e:	610f 3bea 6122 86e0 
80004ba6:	6126 4ec4 612c 
80004bac:	6133ac8b          	.insn	4, 0x6133ac8b
80004bb0:	4569                	li	a0,26
80004bb2:	613d                	addi	sp,sp,480
80004bb4:	5b08                	lw	a0,48(a4)
80004bb6:	6145                	addi	sp,sp,48
80004bb8:	6ca9                	lui	s9,0xa
80004bba:	615d                	addi	sp,sp,432
80004bbc:	a80d                	j	80004bee <verify_data+0x18be>
80004bbe:	a6ab616b          	.insn	4, 0xa6ab616b
80004bc2:	6182                	flw	ft3,0(sp)
80004bc4:	7cc8                	flw	fa0,60(s1)
80004bc6:	6186                	flw	ft3,64(sp)
80004bc8:	8322                	mv	t1,s0
80004bca:	6190                	flw	fa2,0(a1)
80004bcc:	f3c1                	bnez	a5,80004b4c <verify_data+0x181c>
80004bce:	61ce                	flw	ft3,208(sp)
80004bd0:	19ad                	addi	s3,s3,-21 # 43e3ffeb <_start-0x3c1c0015>
80004bd2:	61e4                	flw	fs1,68(a1)
80004bd4:	6d64                	flw	fs1,92(a0)
80004bd6:	61ec                	flw	fa1,68(a1)
80004bd8:	52ca                	lw	t0,176(sp)
80004bda:	61fd                	lui	gp,0x1f
80004bdc:	d948                	sw	a0,52(a0)
80004bde:	6202                	flw	ft4,0(sp)
80004be0:	800e                	c.mv	zero,gp
80004be2:	b61d621b          	.insn	4, 0xb61d621b
80004be6:	6226                	flw	ft4,72(sp)
80004be8:	4380                	lw	s0,0(a5)
80004bea:	fe036243          	.insn	4, 0xfe036243
80004bee:	624e                	flw	ft4,208(sp)
80004bf0:	b9e0                	fsd	fs0,240(a1)
80004bf2:	bb78624f          	fnmadd.d	ft4,fa6,fs7,fs7,unknown
80004bf6:	6266                	flw	ft4,88(sp)
80004bf8:	2af9                	jal	80004dd6 <verify_data+0x1aa6>
80004bfa:	6279                	lui	tp,0x1e
80004bfc:	628bd913          	.insn	4, 0x628bd913
80004c00:	62a986eb          	.insn	4, 0x62a986eb
80004c04:	9932                	add	s2,s2,a2
80004c06:	62bc                	flw	fa5,64(a3)
80004c08:	62c3d607          	.insn	4, 0x62c3d607
80004c0c:	a545                	j	800052ac <verify_data+0x1f7c>
80004c0e:	8bab62d3          	.insn	4, 0x8bab62d3
80004c12:	6d6f62e3          	bltu	t5,s6,80005ad6 <input_data+0x7a6>
80004c16:	62e4                	flw	fs1,68(a3)
80004c18:	f09c                	fsw	fa5,32(s1)
80004c1a:	e6d262fb          	.insn	4, 0xe6d262fb
80004c1e:	6320                	flw	fs0,64(a4)
80004c20:	632cf297          	auipc	t0,0x632cf
80004c24:	d69d                	beqz	a3,80004b52 <verify_data+0x1822>
80004c26:	463a634b          	.insn	4, 0x463a634b
80004c2a:	634e                	flw	ft6,208(sp)
80004c2c:	f658                	fsw	fa4,44(a2)
80004c2e:	635d                	lui	t1,0x17
80004c30:	c3dd                	beqz	a5,80004cd6 <verify_data+0x19a6>
80004c32:	6366                	flw	ft6,88(sp)
80004c34:	a131                	j	80005040 <verify_data+0x1d10>
80004c36:	c12363ab          	.insn	4, 0xc12363ab
80004c3a:	63bc                	flw	fa5,64(a5)
80004c3c:	e759                	bnez	a4,80004cca <verify_data+0x199a>
80004c3e:	0cb163c7          	.insn	4, 0x0cb163c7
80004c42:	032663db          	.insn	4, 0x032663db
80004c46:	63de                	flw	ft7,212(sp)
80004c48:	da45                	beqz	a2,80004bf8 <verify_data+0x18c8>
80004c4a:	036f63fb          	.insn	4, 0x036f63fb
80004c4e:	748b6413          	ori	s0,s6,1864
80004c52:	6418                	flw	fa4,8(s0)
80004c54:	5eb2                	lw	t4,44(sp)
80004c56:	641f 9a25 6426      	.insn	6, 0x64269a25641f
80004c5c:	4216                	lw	tp,68(sp)
80004c5e:	3fdd6427          	.insn	4, 0x3fdd6427
80004c62:	f9ef643f 83b4644b 	.insn	8, 0x83b4644bf9ef643f
80004c6a:	645e                	flw	fs0,212(sp)
80004c6c:	1629                	addi	a2,a2,-22 # 11fea <_start-0x7ffee016>
80004c6e:	6460                	flw	fs0,76(s0)
80004c70:	6941                	lui	s2,0x10
80004c72:	6474                	flw	fa3,76(s0)
80004c74:	7cc8                	flw	fa0,60(s1)
80004c76:	647c                	flw	fa5,76(s0)
80004c78:	9cdc                	.insn	2, 0x9cdc
80004c7a:	6481                	.insn	2, 0x6481
80004c7c:	a0ff 6485 071f 6487 	.insn	14, 0xf0a06495d2ea6487071f6485a0ff
80004c84:	d2ea 6495 f0a0 
80004c8a:	c97d649b          	.insn	4, 0xc97d649b
80004c8e:	64a6                	flw	fs1,72(sp)
80004c90:	8b6a                	mv	s6,s10
80004c92:	64ba                	flw	fs1,140(sp)
80004c94:	e9f0                	fsw	fa2,84(a1)
80004c96:	64bd                	lui	s1,0xf
80004c98:	0924                	addi	s1,sp,152
80004c9a:	64d2                	flw	fs1,20(sp)
80004c9c:	ef6e                	fsw	fs11,156(sp)
80004c9e:	64d4                	flw	fa3,12(s1)
80004ca0:	938e                	add	t2,t2,gp
80004ca2:	650a                	flw	fa0,128(sp)
80004ca4:	1121                	addi	sp,sp,-24 # 4f72ffe8 <_start-0x308d0018>
80004ca6:	6511                	lui	a0,0x4
80004ca8:	a2b8                	fsd	fa4,64(a3)
80004caa:	6530                	flw	fa2,72(a0)
80004cac:	f2a1                	bnez	a3,80004bec <verify_data+0x18bc>
80004cae:	6578                	flw	fa4,76(a0)
80004cb0:	8ac2                	mv	s5,a6
80004cb2:	6599                	lui	a1,0x6
80004cb4:	65a60287          	.insn	4, 0x65a60287
80004cb8:	0f15                	addi	t5,t5,5 # a005 <_start-0x7fff5ffb>
80004cba:	65ae                	flw	fa1,200(sp)
80004cbc:	8f02                	jr	t5
80004cbe:	0e4c65b7          	lui	a1,0xe4c6
80004cc2:	65ce                	flw	fa1,208(sp)
80004cc4:	a371                	j	80005250 <verify_data+0x1f20>
80004cc6:	ef3e65cf          	.insn	4, 0xef3e65cf
80004cca:	924f65cf          	fnmadd.d	fa1,ft10,ft4,fs2,unknown
80004cce:	65dd                	lui	a1,0x17
80004cd0:	eb55                	bnez	a4,80004d84 <verify_data+0x1a54>
80004cd2:	d54865e7          	.insn	4, 0xd54865e7
80004cd6:	65e9                	lui	a1,0x1a
80004cd8:	31f2                	fld	ft3,312(sp)
80004cda:	65f1                	lui	a1,0x1c
80004cdc:	660479c3          	.insn	4, 0x660479c3
80004ce0:	c086                	sw	ra,64(sp)
80004ce2:	6606                	flw	fa2,64(sp)
80004ce4:	66076677          	.insn	4, 0x66076677
80004ce8:	77b2                	flw	fa5,44(sp)
80004cea:	27536607          	.insn	4, 0x27536607
80004cee:	436d660f          	.insn	4, 0x436d660f
80004cf2:	6610                	flw	fa2,8(a2)
80004cf4:	661d2f27          	fsw	ft1,1662(s10)
80004cf8:	8e36                	mv	t3,a3
80004cfa:	6621                	lui	a2,0x8
80004cfc:	12f4                	addi	a3,sp,364
80004cfe:	662e                	flw	fa2,200(sp)
80004d00:	160e                	slli	a2,a2,0x23
80004d02:	663d                	lui	a2,0xf
80004d04:	9be5                	andi	a5,a5,-7
80004d06:	663e                	flw	fa2,204(sp)
80004d08:	663ef68b          	.insn	4, 0x663ef68b
80004d0c:	192a                	slli	s2,s2,0x2a
80004d0e:	6655                	lui	a2,0x15
80004d10:	02a2                	slli	t0,t0,0x8
80004d12:	6676                	flw	fa2,92(sp)
80004d14:	667e9cb3          	.insn	4, 0x667e9cb3
80004d18:	66a01657          	.insn	4, 0x66a01657
80004d1c:	152e                	slli	a0,a0,0x2b
80004d1e:	66b5                	lui	a3,0xd
80004d20:	ac6e                	fsd	fs11,24(sp)
80004d22:	66d9                	lui	a3,0x16
80004d24:	bcfc                	fsd	fa5,248(s1)
80004d26:	d44c66ef          	jal	a3,7ffcb26a <_start-0x34d96>
80004d2a:	66f8                	flw	fa4,76(a3)
80004d2c:	ca7a                	sw	t5,20(sp)
80004d2e:	6722                	flw	fa4,8(sp)
80004d30:	b5d9                	j	80004bf6 <verify_data+0x18c6>
80004d32:	6728                	flw	fa0,72(a4)
80004d34:	72c2                	flw	ft5,48(sp)
80004d36:	a6b0673b          	.insn	4, 0xa6b0673b
80004d3a:	673c                	flw	fa5,72(a4)
80004d3c:	1266                	slli	tp,tp,0x39
80004d3e:	6751                	lui	a4,0x14
80004d40:	79cd                	lui	s3,0xffff3
80004d42:	675a                	flw	fa4,148(sp)
80004d44:	6796bc67          	.insn	4, 0x6796bc67
80004d48:	2ace                	fld	fs5,208(sp)
80004d4a:	679d                	lui	a5,0x7
80004d4c:	67b7ceef          	jal	t4,80081bc6 <__global_pointer$+0x7a096>
80004d50:	2ddd                	jal	80005446 <input_data+0x116>
80004d52:	67c2                	flw	fa5,16(sp)
80004d54:	3ffd                	jal	80004d52 <verify_data+0x1a22>
80004d56:	67c2                	flw	fa5,16(sp)
80004d58:	67d54dcb          	.insn	4, 0x67d54dcb
80004d5c:	6f8c                	flw	fa1,24(a5)
80004d5e:	5d2467db          	.insn	4, 0x5d2467db
80004d62:	6806                	flw	fa6,64(sp)
80004d64:	96cd                	srai	a3,a3,0x33
80004d66:	6808                	flw	fa0,16(s0)
80004d68:	680ae06b          	.insn	4, 0x680ae06b
80004d6c:	68160343          	fmadd.s	ft6,fa2,ft1,fa3,rne
80004d70:	1e9a                	slli	t4,t4,0x26
80004d72:	6819                	lui	a6,0x6
80004d74:	a664                	fsd	fs1,200(a2)
80004d76:	681f 3f29 682e      	.insn	6, 0x682e3f29681f
80004d7c:	778c                	flw	fa1,40(a5)
80004d7e:	684e                	flw	fa6,208(sp)
80004d80:	e6c8                	fsw	fa0,12(a3)
80004d82:	6851                	lui	a6,0x14
80004d84:	a4ba                	fsd	fa4,72(sp)
80004d86:	6855                	lui	a6,0x15
80004d88:	685d77c3          	fmadd.s	fa5,fs10,ft5,fa3
80004d8c:	686ebe97          	auipc	t4,0x686eb
80004d90:	42d6                	lw	t0,84(sp)
80004d92:	6872                	flw	fa6,28(sp)
80004d94:	86aa                	mv	a3,a0
80004d96:	6876                	flw	fa6,92(sp)
80004d98:	9209                	srli	a2,a2,0x22
80004d9a:	687e                	flw	fa6,220(sp)
80004d9c:	6892be83          	.insn	4, 0x6892be83
80004da0:	4cb0                	lw	a2,88(s1)
80004da2:	689e                	flw	fa7,196(sp)
80004da4:	1f5a                	slli	t5,t5,0x36
80004da6:	68ba                	flw	fa7,140(sp)
80004da8:	6041                	c.lui	zero,0x10
80004daa:	68d4                	flw	fa3,20(s1)
80004dac:	68f47697          	auipc	a3,0x68f47
80004db0:	24b9                	jal	80004ffe <verify_data+0x1cce>
80004db2:	3a4f68fb          	.insn	4, 0x3a4f68fb
80004db6:	6921                	lui	s2,0x8
80004db8:	29f1                	jal	80005294 <verify_data+0x1f64>
80004dba:	2dd1692b          	.insn	4, 0x2dd1692b
80004dbe:	6939                	lui	s2,0xe
80004dc0:	6e7e                	flw	ft8,220(sp)
80004dc2:	6940                	flw	fs0,20(a0)
80004dc4:	1426                	slli	s0,s0,0x29
80004dc6:	6958                	flw	fa4,20(a0)
80004dc8:	ac82                	fsd	ft0,88(sp)
80004dca:	696d                	lui	s2,0x1b
80004dcc:	a53a                	fsd	fa4,136(sp)
80004dce:	b03a6987          	.insn	4, 0xb03a6987
80004dd2:	6998                	flw	fa4,16(a1)
80004dd4:	6b32                	flw	fs6,12(sp)
80004dd6:	699d                	lui	s3,0x7
80004dd8:	2da4                	fld	fs1,88(a1)
80004dda:	69aa                	flw	fs3,136(sp)
80004ddc:	69c06c73          	csrrsi	s8,0x69c,0
80004de0:	0ac0                	addi	s0,sp,340
80004de2:	404869c7          	fmsub.s	fs3,fa6,ft4,fs0,unknown
80004de6:	69c9                	lui	s3,0x12
80004de8:	679c                	flw	fa5,8(a5)
80004dea:	69d1                	lui	s3,0x14
80004dec:	a229                	j	80004ef6 <verify_data+0x1bc6>
80004dee:	69d5                	lui	s3,0x15
80004df0:	a2f9                	j	80004fbe <verify_data+0x1c8e>
80004df2:	69d8                	flw	fa4,20(a1)
80004df4:	cf72                	sw	t3,156(sp)
80004df6:	69e2                	flw	fs3,24(sp)
80004df8:	bb2a                	fsd	fa0,432(sp)
80004dfa:	6e2669e7          	.insn	4, 0x6e2669e7
80004dfe:	6a02                	flw	fs4,0(sp)
80004e00:	7850                	flw	fa2,52(s0)
80004e02:	809e6a2b          	.insn	4, 0x809e6a2b
80004e06:	6a35                	lui	s4,0xd
80004e08:	fa95                	bnez	a3,80004d3c <verify_data+0x1a0c>
80004e0a:	6a49                	lui	s4,0x12
80004e0c:	cfe1                	beqz	a5,80004ee4 <verify_data+0x1bb4>
80004e0e:	6a54                	flw	fa3,20(a2)
80004e10:	182e                	slli	a6,a6,0x2b
80004e12:	6a60                	flw	fs0,84(a2)
80004e14:	9f9f 6a88 6f2a      	.insn	6, 0x6f2a6a889f9f
80004e1a:	6a89                	lui	s5,0x2
80004e1c:	6a98a6bb          	.insn	4, 0x6a98a6bb
80004e20:	bdbc                	fsd	fa5,120(a1)
80004e22:	6ab9                	lui	s5,0xe
80004e24:	4a64                	lw	s1,84(a2)
80004e26:	ec2c6adb          	.insn	4, 0xec2c6adb
80004e2a:	6ae1                	lui	s5,0x18
80004e2c:	6a98                	flw	fa4,16(a3)
80004e2e:	6aea                	flw	fs5,152(sp)
80004e30:	d36e                	sw	s11,164(sp)
80004e32:	6b25                	lui	s6,0x9
80004e34:	c5fc                	sw	a5,76(a1)
80004e36:	6b3d                	lui	s6,0xf
80004e38:	a94d                	j	800052ea <verify_data+0x1fba>
80004e3a:	6b4c                	flw	fa1,20(a4)
80004e3c:	6b51cb4f          	fnmadd.d	fs6,ft3,fs5,fa3,rmm
80004e40:	6b6b5947          	fmsub.d	fs2,fs6,fs6,fa3,unknown
80004e44:	56e2                	lw	a3,56(sp)
80004e46:	6b6d                	lui	s6,0x1b
80004e48:	6522                	flw	fa0,8(sp)
80004e4a:	6b7a                	flw	fs6,156(sp)
80004e4c:	5071                	c.li	zero,-4
80004e4e:	6ba6                	flw	fs7,72(sp)
80004e50:	f150                	fsw	fa2,36(a0)
80004e52:	6bb5                	lui	s7,0xd
80004e54:	6bb744cb          	fnmsub.d	fs1,fa4,fs11,fa3,rmm
80004e58:	845e                	mv	s0,s7
80004e5a:	02a06bc7          	fmsub.d	fs7,ft0,fa0,ft0,unknown
80004e5e:	f0ee6bf3          	csrrsi	s7,0xf0e,28
80004e62:	6c34                	flw	fa3,88(s0)
80004e64:	6c47c04b          	.insn	4, 0x6c47c04b
80004e68:	9a26                	add	s4,s4,s1
80004e6a:	4a886c4f          	fnmadd.d	fs8,fa6,fs0,fs1,unknown
80004e6e:	6c7f 9de8 6c91 cb9d 	.insn	22, 0x6ca995026ca2da286c9dc8546c92cb9d6c919de86c7f
80004e76:	6c92 c854 6c9d da28 
80004e7e:	6ca2 9502 6ca9 
80004e84:	8e32                	mv	t3,a2
80004e86:	6cdf 2228 6ce0      	.insn	6, 0x6ce022286cdf
80004e8c:	6ce3fc13          	andi	s8,t2,1742
80004e90:	c129                	beqz	a0,80004ed2 <verify_data+0x1ba2>
80004e92:	a8146cef          	jal	s9,7ff4b912 <_start-0xb46ee>
80004e96:	6d49                	lui	s10,0x12
80004e98:	929f 6d4a 14f7      	.insn	6, 0x14f76d4a929f
80004e9e:	82826d53          	.insn	4, 0x82826d53
80004ea2:	6d54                	flw	fa3,28(a0)
80004ea4:	6d54fafb          	.insn	4, 0x6d54fafb
80004ea8:	7909                	lui	s2,0xfffe2
80004eaa:	6d55                	lui	s10,0x15
80004eac:	8b9f 6d56 a105      	.insn	6, 0xa1056d568b9f
80004eb2:	6d5d                	lui	s10,0x17
80004eb4:	fa38                	fsw	fa4,112(a2)
80004eb6:	6d62                	flw	fs10,24(sp)
80004eb8:	003e                	c.slli	zero,0xf
80004eba:	6d6d                	lui	s10,0x1b
80004ebc:	ccb2                	sw	a2,88(sp)
80004ebe:	6d6e                	flw	fs10,216(sp)
80004ec0:	f5ee                	fsw	fs11,232(sp)
80004ec2:	6d70                	flw	fa2,92(a0)
80004ec4:	ac1f 6d82 fbd7      	.insn	6, 0xfbd76d82ac1f
80004eca:	6d90                	flw	fa2,24(a1)
80004ecc:	6d9de20f          	.insn	4, 0x6d9de20f
80004ed0:	6db9d8c7          	.insn	4, 0x6db9d8c7
80004ed4:	f7a0                	fsw	fs0,104(a5)
80004ed6:	6e10                	flw	fa2,24(a2)
80004ed8:	6e24d8eb          	.insn	4, 0x6e24d8eb
80004edc:	a2ea                	fsd	fs10,320(sp)
80004ede:	6e30                	flw	fa2,88(a2)
80004ee0:	6e3d0eeb          	.insn	4, 0x6e3d0eeb
80004ee4:	6e3f8a0b          	.insn	4, 0x6e3f8a0b
80004ee8:	d051                	beqz	s0,80004e6c <verify_data+0x1b3c>
80004eea:	0dc06e3f 89186e66 	.insn	8, 0x89186e660dc06e3f
80004ef2:	6e96                	flw	ft9,68(sp)
80004ef4:	8f2e                	mv	t5,a1
80004ef6:	6ec8                	flw	fa0,28(a3)
80004ef8:	1281                	addi	t0,t0,-32 # e32d3c00 <__global_pointer$+0x632cc0d0>
80004efa:	6ecd                	lui	t4,0x13
80004efc:	82f5                	srli	a3,a3,0x1d
80004efe:	6ed8                	flw	fa4,28(a3)
80004f00:	fea4                	fsw	fs1,120(a3)
80004f02:	28036ee3          	bltu	t1,zero,8000599e <input_data+0x66e>
80004f06:	6eea                	flw	ft9,152(sp)
80004f08:	3c64                	fld	fs1,248(s0)
80004f0a:	6f09                	lui	t5,0x2
80004f0c:	ec4e                	fsw	fs3,24(sp)
80004f0e:	6f28                	flw	fa0,88(a4)
80004f10:	6f3a5657          	.insn	4, 0x6f3a5657
80004f14:	bc8d                	j	80004986 <verify_data+0x1656>
80004f16:	6f59                	lui	t5,0x16
80004f18:	d541                	beqz	a0,80004ea0 <verify_data+0x1b70>
80004f1a:	b5926f5b          	.insn	4, 0xb5926f5b
80004f1e:	6f6a                	flw	ft10,152(sp)
80004f20:	6f793433          	.insn	4, 0x6f793433
80004f24:	0ec2                	slli	t4,t4,0x10
80004f26:	1d7a6f83          	.insn	4, 0x1d7a6f83
80004f2a:	6f86                	flw	ft11,64(sp)
80004f2c:	a3d2                	fsd	fs4,448(sp)
80004f2e:	73bb6f8f          	.insn	4, 0x73bb6f8f
80004f32:	6fb1                	lui	t6,0xc
80004f34:	6fb360db          	.insn	4, 0x6fb360db
80004f38:	6fc00817          	auipc	a6,0x6fc00
80004f3c:	6241                	lui	tp,0x10
80004f3e:	6fd5                	lui	t6,0x15
80004f40:	e188                	fsw	fa0,0(a1)
80004f42:	a4ac6ff3          	csrrsi	t6,0xa4a,24
80004f46:	6ff6                	flw	ft11,92(sp)
80004f48:	7008f7cb          	fnmsub.s	fa5,fa7,ft0,fa4
80004f4c:	e7fa                	fsw	ft10,204(sp)
80004f4e:	7015                	c.lui	zero,0xfffe5
80004f50:	701755cb          	fnmsub.s	fa1,fa4,ft1,fa4,unknown
80004f54:	a7de                	fsd	fs7,456(sp)
80004f56:	7021                	c.lui	zero,0xfffe8
80004f58:	e0a1                	bnez	s1,80004f98 <verify_data+0x1c68>
80004f5a:	703e                	flw	ft0,236(sp)
80004f5c:	8c1c                	.insn	2, 0x8c1c
80004f5e:	ed6c704b          	.insn	4, 0xed6c704b
80004f62:	706e                	flw	ft0,248(sp)
80004f64:	70b4af37          	lui	t5,0x70b4a
80004f68:	6f0e                	flw	ft10,192(sp)
80004f6a:	70b5                	lui	ra,0xfffed
80004f6c:	fc69                	bnez	s0,80004f46 <verify_data+0x1c16>
80004f6e:	2dc170bf 482e70c4 	.insn	8, 0x482e70c42dc170bf
80004f76:	584070cb          	fnmsub.s	ft1,ft0,ft4,fa1
80004f7a:	70d6                	flw	ft1,116(sp)
80004f7c:	3381                	jal	80004cbc <verify_data+0x198c>
80004f7e:	7111                	addi	sp,sp,-256
80004f80:	711c785b          	.insn	4, 0x711c785b
80004f84:	c500                	sw	s0,8(a0)
80004f86:	711f 12ec 712a      	.insn	6, 0x712a12ec711f
80004f8c:	71422f0f          	.insn	4, 0x71422f0f
80004f90:	71490dbf 7157291f 	.insn	8, 0x7157291f71490dbf
80004f98:	df4c                	sw	a1,60(a4)
80004f9a:	7165                	addi	sp,sp,-400
80004f9c:	4d82                	lw	s11,0(sp)
80004f9e:	74f47167          	.insn	4, 0x74f47167
80004fa2:	7180                	flw	fs0,32(a1)
80004fa4:	94e1                	srai	s1,s1,0x38
80004fa6:	7184                	flw	fs1,32(a1)
80004fa8:	88e1                	andi	s1,s1,24
80004faa:	7185                	lui	gp,0xfffe1
80004fac:	7f30                	flw	fa2,120(a4)
80004fae:	7188                	flw	fa0,32(a1)
80004fb0:	420c                	lw	a1,0(a2)
80004fb2:	7190                	flw	fa2,32(a1)
80004fb4:	86fc                	.insn	2, 0x86fc
80004fb6:	71a0                	flw	fs0,96(a1)
80004fb8:	9e52                	add	t3,t3,s4
80004fba:	71b6                	flw	ft3,108(sp)
80004fbc:	328d                	jal	8000491e <verify_data+0x15ee>
80004fbe:	6c2a71bb          	.insn	4, 0x6c2a71bb
80004fc2:	364471d3          	.insn	4, 0x364471d3
80004fc6:	ceae71e7          	.insn	4, 0xceae71e7
80004fca:	887a71f7          	.insn	4, 0x887a71f7
80004fce:	720d                	lui	tp,0xfffe3
80004fd0:	ee24                	fsw	fs1,88(a2)
80004fd2:	720e                	flw	ft4,224(sp)
80004fd4:	32b5                	jal	80004940 <verify_data+0x1610>
80004fd6:	7214                	flw	fa3,32(a2)
80004fd8:	7220fd73          	csrrci	s10,minstretcfgh,1
80004fdc:	adc9                	j	800056ae <input_data+0x37e>
80004fde:	7221                	lui	tp,0xfffe8
80004fe0:	3950                	fld	fa2,176(a0)
80004fe2:	06f2722b          	.insn	4, 0x06f2722b
80004fe6:	723d                	lui	tp,0xfffef
80004fe8:	c58d                	beqz	a1,80005012 <verify_data+0x1ce2>
80004fea:	a9257257          	.insn	4, 0xa9257257
80004fee:	1f647273          	csrrci	tp,0x1f6,8
80004ff2:	5fea72b7          	lui	t0,0x5fea7
80004ff6:	496172d7          	.insn	4, 0x496172d7
80004ffa:	72e1                	lui	t0,0xffff8
80004ffc:	ac02                	fsd	ft0,24(sp)
80004ffe:	58a272ef          	jal	t0,8002c588 <__global_pointer$+0x24a58>
80005002:	90f072f3          	csrrci	t0,0x90f,0
80005006:	e6287313          	andi	t1,a6,-414
8000500a:	7316                	flw	ft6,100(sp)
8000500c:	0655                	addi	a2,a2,21 # 15015 <_start-0x7ffeafeb>
8000500e:	731d                	lui	t1,0xfffe7
80005010:	4038                	lw	a4,64(s0)
80005012:	7320                	flw	fs0,96(a4)
80005014:	a425                	j	8000523c <verify_data+0x1f0c>
80005016:	7329                	lui	t1,0xfffea
80005018:	5cd4                	lw	a3,60(s1)
8000501a:	53ad733f e6707345 	.insn	8, 0xe670734553ad733f
80005022:	7359                	lui	t1,0xffff6
80005024:	736f35b7          	lui	a1,0x736f3
80005028:	73877afb          	.insn	4, 0x73877afb
8000502c:	739d378b          	.insn	4, 0x739d378b
80005030:	eeb2                	fsw	fa2,92(sp)
80005032:	73c1                	lui	t2,0xffff0
80005034:	ee10                	fsw	fa2,24(a2)
80005036:	73d1                	lui	t2,0xffff4
80005038:	73d9c2c7          	fmsub.d	ft5,fs3,ft9,fa4,rmm
8000503c:	73e9750b          	.insn	4, 0x73e9750b
80005040:	0760                	addi	s0,sp,908
80005042:	73f0                	flw	fa2,100(a5)
80005044:	aae2                	fsd	fs8,336(sp)
80005046:	73fd                	lui	t2,0xfffff
80005048:	fa75                	bnez	a2,8000503c <verify_data+0x1d0c>
8000504a:	741d                	lui	s0,0xfffe7
8000504c:	1086                	slli	ra,ra,0x21
8000504e:	7439                	lui	s0,0xfffee
80005050:	8909                	andi	a0,a0,2
80005052:	743c                	flw	fa5,104(s0)
80005054:	744d6397          	auipc	t2,0x744d6
80005058:	dd6a                	sw	s10,184(sp)
8000505a:	b729745b          	.insn	4, 0xb729745b
8000505e:	745e                	flw	fs0,244(sp)
80005060:	7465                	lui	s0,0xffff9
80005062:	7465                	lui	s0,0xffff9
80005064:	4bc0                	lw	s0,20(a5)
80005066:	7398746f          	jal	s0,8008cf9e <__global_pointer$+0x8546e>
8000506a:	7476                	flw	fs0,124(sp)
8000506c:	748d9613          	.insn	4, 0x748d9613
80005070:	8ffa                	mv	t6,t5
80005072:	74b0                	flw	fa2,104(s1)
80005074:	d7c8                	sw	a0,44(a5)
80005076:	74b2                	flw	fs1,44(sp)
80005078:	74bac3d7          	.insn	4, 0x74bac3d7
8000507c:	5bd8                	lw	a4,52(a5)
8000507e:	6dec74c7          	.insn	4, 0x6dec74c7
80005082:	74c8                	flw	fa0,44(s1)
80005084:	f214                	fsw	fa3,32(a2)
80005086:	5c8374eb          	.insn	4, 0x5c8374eb
8000508a:	74ec                	flw	fa1,108(s1)
8000508c:	43cd                	li	t2,19
8000508e:	74fc                	flw	fa5,108(s1)
80005090:	d010                	sw	a2,32(s0)
80005092:	7501                	lui	a0,0xfffe0
80005094:	ff5d                	bnez	a4,80005052 <verify_data+0x1d22>
80005096:	7524                	flw	fs1,104(a0)
80005098:	91ec                	.insn	2, 0x91ec
8000509a:	752c                	flw	fa1,104(a0)
8000509c:	cea2                	sw	s0,92(sp)
8000509e:	7548                	flw	fa0,44(a0)
800050a0:	7556939b          	.insn	4, 0x7556939b
800050a4:	ce81                	beqz	a3,800050bc <verify_data+0x1d8c>
800050a6:	7556                	flw	fa0,116(sp)
800050a8:	ae6e                	fsd	fs11,280(sp)
800050aa:	fa5f7567          	.insn	4, 0xfa5f7567
800050ae:	76de7577          	.insn	4, 0x76de7577
800050b2:	7582                	flw	fa1,32(sp)
800050b4:	10d0                	addi	a2,sp,100
800050b6:	7585                	lui	a1,0xfffe1
800050b8:	d4b4                	sw	a3,104(s1)
800050ba:	803b75e3          	bgeu	s6,gp,800048c4 <verify_data+0x1594>
800050be:	7612                	flw	fa2,36(sp)
800050c0:	01e6                	slli	gp,gp,0x19
800050c2:	f891761b          	.insn	4, 0xf891761b
800050c6:	a0507637          	lui	a2,0xa0507
800050ca:	c41b7643          	.insn	4, 0xc41b7643
800050ce:	5c327643          	.insn	4, 0x5c327643
800050d2:	765e                	flw	fa2,244(sp)
800050d4:	039c                	addi	a5,sp,448
800050d6:	766e                	flw	fa2,248(sp)
800050d8:	66c4                	flw	fs1,12(a3)
800050da:	7691                	lui	a3,0xfffe4
800050dc:	76c9de3b          	.insn	4, 0x76c9de3b
800050e0:	76e02b87          	flw	fs7,1902(zero) # 76e <_start-0x7ffff892>
800050e4:	770d9d97          	auipc	s11,0x770d9
800050e8:	b4d1                	j	80004bac <verify_data+0x187c>
800050ea:	7745                	lui	a4,0xffff1
800050ec:	8a60                	.insn	2, 0x8a60
800050ee:	7761                	lui	a4,0xffff8
800050f0:	c005                	beqz	s0,80005110 <verify_data+0x1de0>
800050f2:	777c                	flw	fa5,108(a4)
800050f4:	5dbc                	lw	a5,120(a1)
800050f6:	777e                	flw	fa4,252(sp)
800050f8:	3159                	jal	80004d7e <verify_data+0x1a4e>
800050fa:	7782                	flw	fa5,32(sp)
800050fc:	d711                	beqz	a4,80005008 <verify_data+0x1cd8>
800050fe:	56c3778b          	.insn	4, 0x56c3778b
80005102:	778e                	flw	fa5,224(sp)
80005104:	0736                	slli	a4,a4,0xd
80005106:	7796                	flw	fa5,100(sp)
80005108:	779e33eb          	.insn	4, 0x779e33eb
8000510c:	a4f9                	j	800053da <input_data+0xaa>
8000510e:	77c2                	flw	fa5,48(sp)
80005110:	8b1a                	mv	s6,t1
80005112:	77d6                	flw	fa5,116(sp)
80005114:	0db6                	slli	s11,s11,0xd
80005116:	77ea                	flw	fa5,184(sp)
80005118:	96b1                	srai	a3,a3,0x2c
8000511a:	780c                	flw	fa1,48(s0)
8000511c:	2c8c                	fld	fa1,24(s1)
8000511e:	780d                	lui	a6,0xfffe3
80005120:	78276307          	.insn	4, 0x78276307
80005124:	3012                	fld	ft0,288(sp)
80005126:	782c                	flw	fa1,112(s0)
80005128:	d041                	beqz	s0,800050a8 <verify_data+0x1d78>
8000512a:	7830                	flw	fa2,112(s0)
8000512c:	783be667          	.insn	4, 0x783be667
80005130:	5ebc                	lw	a5,120(a3)
80005132:	784d                	lui	a6,0xffff3
80005134:	b865                	j	800049ec <verify_data+0x16bc>
80005136:	7889                	lui	a7,0xfffe2
80005138:	1f55                	addi	t5,t5,-11 # 70b49ff5 <_start-0xf4b600b>
8000513a:	7894                	flw	fa3,48(s1)
8000513c:	23fa                	fld	ft7,408(sp)
8000513e:	789c                	flw	fa5,48(s1)
80005140:	d08a                	sw	sp,96(sp)
80005142:	78b0                	flw	fa2,112(s1)
80005144:	5dae                	lw	s11,232(sp)
80005146:	78d8                	flw	fa4,52(s1)
80005148:	fd24                	fsw	fs1,120(a0)
8000514a:	78dd                	lui	a7,0xffff7
8000514c:	35aa                	fld	fa1,168(sp)
8000514e:	78de                	flw	fa7,244(sp)
80005150:	7171                	addi	sp,sp,-176
80005152:	78df 9a07 78e2      	.insn	6, 0x78e29a0778df
80005158:	78f220af          	.insn	4, 0x78f220af
8000515c:	f786                	fsw	ft1,236(sp)
8000515e:	78fd                	lui	a7,0xfffff
80005160:	2c44                	fld	fs1,152(s0)
80005162:	792d                	lui	s2,0xfffeb
80005164:	c459                	beqz	s0,800051f2 <verify_data+0x1ec2>
80005166:	7939                	lui	s2,0xfffee
80005168:	1798                	addi	a4,sp,992
8000516a:	7948                	flw	fa0,52(a0)
8000516c:	d530                	sw	a2,104(a0)
8000516e:	574d795b          	.insn	4, 0x574d795b
80005172:	7966                	flw	fs2,120(sp)
80005174:	ee36                	fsw	fa3,28(sp)
80005176:	796c                	flw	fa1,116(a0)
80005178:	89e9                	andi	a1,a1,26
8000517a:	de277987          	.insn	4, 0xde277987
8000517e:	7988                	flw	fa0,48(a1)
80005180:	79b5933b          	.insn	4, 0x79b5933b
80005184:	79c39977          	.insn	4, 0x79c39977
80005188:	35d0                	fld	fa2,168(a1)
8000518a:	79d5                	lui	s3,0xffff5
8000518c:	79ea714f          	fnmadd.s	ft2,fs4,ft10,fa5
80005190:	c122                	sw	s0,128(sp)
80005192:	79f0                	flw	fa2,116(a1)
80005194:	135a                	slli	t1,t1,0x36
80005196:	79ff                	.insn	2, 0x79ff
80005198:	7a02d7ff 7a0e7c57 	.insn	20, 0x7a2bec617a1a8d0d7a1523997a0e7c577a02d7ff
800051a0:	7a152399 7a1a8d0d 
800051a8:	7a2bec61 
800051ac:	f0f9                	bnez	s1,80005172 <verify_data+0x1e42>
800051ae:	0e127a53          	.insn	4, 0x0e127a53
800051b2:	7a54                	flw	fa3,52(a2)
800051b4:	7a54488b          	.insn	4, 0x7a54488b
800051b8:	039a                	slli	t2,t2,0x6
800051ba:	7a6c                	flw	fa1,116(a2)
800051bc:	cbd4                	sw	a3,20(a5)
800051be:	7a70                	flw	fa2,116(a2)
800051c0:	c442                	sw	a6,8(sp)
800051c2:	7a88                	flw	fa0,48(a3)
800051c4:	e546                	fsw	fa7,136(sp)
800051c6:	939c7ad7          	.insn	4, 0x939c7ad7
800051ca:	7ada                	flw	fs5,180(sp)
800051cc:	7afd1cd3          	.insn	4, 0x7afd1cd3
800051d0:	5c90                	lw	a2,56(s1)
800051d2:	7b08                	flw	fa0,48(a4)
800051d4:	d916                	sw	t0,176(sp)
800051d6:	7b0a                	flw	fs6,160(sp)
800051d8:	7b2b5f8b          	.insn	4, 0x7b2b5f8b
800051dc:	de31                	beqz	a2,80005138 <verify_data+0x1e08>
800051de:	7b31                	lui	s6,0xfffec
800051e0:	7b35733f 7b3b8ae9 	.insn	8, 0x7b3b8ae97b35733f
800051e8:	69d2                	flw	fs3,20(sp)
800051ea:	7b48                	flw	fa0,52(a4)
800051ec:	84c1                	srai	s1,s1,0x10
800051ee:	7b4e                	flw	fs6,240(sp)
800051f0:	26e9                	jal	800055ba <input_data+0x28a>
800051f2:	7b55                	lui	s6,0xffff5
800051f4:	d215                	beqz	a2,80005118 <verify_data+0x1de8>
800051f6:	7b68                	flw	fa0,116(a4)
800051f8:	7b86eff3          	csrrsi	t6,0x7b8,13
800051fc:	d676                	sw	t4,44(sp)
800051fe:	7b96                	flw	fs7,100(sp)
80005200:	8d3a                	mv	s10,a4
80005202:	678e7bab          	.insn	4, 0x678e7bab
80005206:	7bac                	flw	fa1,112(a5)
80005208:	7bc697fb          	.insn	4, 0x7bc697fb
8000520c:	b108                	fsd	fa0,32(a0)
8000520e:	7bd6                	flw	fs7,116(sp)
80005210:	7be3d2d7          	.insn	4, 0x7be3d2d7
80005214:	8a2c                	.insn	2, 0x8a2c
80005216:	7bf2                	flw	fs7,60(sp)
80005218:	80f5                	srli	s1,s1,0x1d
8000521a:	7c05                	lui	s8,0xfffe1
8000521c:	da01                	beqz	a2,8000512c <verify_data+0x1dfc>
8000521e:	7c11                	lui	s8,0xfffe4
80005220:	67a4                	flw	fs1,72(a5)
80005222:	7c24                	flw	fs1,120(s0)
80005224:	7c45df3b          	.insn	4, 0x7c45df3b
80005228:	8234                	.insn	2, 0x8234
8000522a:	2dab7c4b          	.insn	4, 0x2dab7c4b
8000522e:	27d67c6f          	jal	s8,8006ccaa <__global_pointer$+0x6517a>
80005232:	7c7d                	lui	s8,0xfffff
80005234:	5be8                	lw	a0,116(a5)
80005236:	7c80                	flw	fs0,56(s1)
80005238:	ee66                	fsw	fs9,28(sp)
8000523a:	7c82                	flw	fs9,32(sp)
8000523c:	7c9296e3          	bne	t0,s1,80006208 <input_data+0xed8>
80005240:	7c93425b          	.insn	4, 0x7c93425b
80005244:	29ad                	jal	800056be <input_data+0x38e>
80005246:	91207c9b          	.insn	4, 0x91207c9b
8000524a:	4ee17c9b          	.insn	4, 0x4ee17c9b
8000524e:	7c9d                	lui	s9,0xfffe7
80005250:	ae2c                	fsd	fa1,88(a2)
80005252:	da267cab          	.insn	4, 0xda267cab
80005256:	35837cc7          	.insn	4, 0x35837cc7
8000525a:	7cd1                	lui	s9,0xffff4
8000525c:	5531                	li	a0,-20
8000525e:	7cd2                	flw	fs9,52(sp)
80005260:	ed64                	fsw	fs1,92(a0)
80005262:	7cd8                	flw	fa4,60(s1)
80005264:	172d                	addi	a4,a4,-21 # ffff7feb <__global_pointer$+0x7fff04bb>
80005266:	7cdd                	lui	s9,0xffff7
80005268:	8ed0                	.insn	2, 0x8ed0
8000526a:	7cfe                	flw	fs9,252(sp)
8000526c:	7d199933          	.insn	4, 0x7d199933
80005270:	0d94                	addi	a3,sp,720
80005272:	d9767d33          	.insn	4, 0xd9767d33
80005276:	7d5c                	flw	fa5,60(a0)
80005278:	a826                	fsd	fs1,16(sp)
8000527a:	7d7c                	flw	fa5,124(a0)
8000527c:	7dc1                	lui	s11,0xffff0
8000527e:	7d81                	lui	s11,0xfffe0
80005280:	b7c8                	fsd	fa0,168(a5)
80005282:	7d82                	flw	fs11,32(sp)
80005284:	2f96                	fld	ft11,320(sp)
80005286:	7d84                	flw	fs1,56(a1)
80005288:	3b66                	fld	fs6,120(sp)
8000528a:	7dac                	flw	fa1,120(a1)
8000528c:	97d6                	add	a5,a5,s5
8000528e:	7db5                	lui	s11,0xfffed
80005290:	7dbce1f7          	.insn	4, 0x7dbce1f7
80005294:	c751                	beqz	a4,80005320 <verify_data+0x1ff0>
80005296:	7dc1                	lui	s11,0xffff0
80005298:	7558                	flw	fa4,44(a0)
8000529a:	7df8                	flw	fa4,124(a1)
8000529c:	7e0a0b8f          	.insn	4, 0x7e0a0b8f
800052a0:	7e1723f7          	.insn	4, 0x7e1723f7
800052a4:	287c                	fld	fa5,208(s0)
800052a6:	48c77e27          	.insn	4, 0x48c77e27
800052aa:	7e3c                	flw	fa5,120(a2)
800052ac:	3888                	fld	fa0,48(s1)
800052ae:	7e41                	lui	t3,0xffff0
800052b0:	b8ee                	fsd	fs11,112(sp)
800052b2:	7e44                	flw	fs1,60(a2)
800052b4:	69c4                	flw	fs1,20(a1)
800052b6:	7e4a                	flw	ft8,176(sp)
800052b8:	a6bd                	j	80005626 <input_data+0x2f6>
800052ba:	7e4a                	flw	ft8,176(sp)
800052bc:	de88                	sw	a0,56(a3)
800052be:	282b7e53          	.insn	4, 0x282b7e53
800052c2:	7e7f                	.insn	2, 0x7e7f
800052c4:	2a5f 7e88 3314      	.insn	6, 0x33147e882a5f
800052ca:	7e90                	flw	fa2,56(a3)
800052cc:	1b69                	addi	s6,s6,-6 # ffff4ffa <__global_pointer$+0x7ffed4ca>
800052ce:	7ea5                	lui	t4,0xfffe9
800052d0:	8eb9                	xor	a3,a3,a4
800052d2:	a1f87eb7          	lui	t4,0xa1f87
800052d6:	7eb8                	flw	fa4,120(a3)
800052d8:	8b3e                	mv	s6,a5
800052da:	7ec6                	flw	ft9,112(sp)
800052dc:	7ec6e397          	auipc	t2,0x7ec6e
800052e0:	e55e                	fsw	fs7,136(sp)
800052e2:	50687ed7          	.insn	4, 0x50687ed7
800052e6:	cc317ee3          	bgeu	sp,gp,80004fc2 <verify_data+0x1c92>
800052ea:	7eed                	lui	t4,0xffffb
800052ec:	2954                	fld	fa3,144(a0)
800052ee:	7ef4                	flw	fa3,124(a3)
800052f0:	7ef912b7          	lui	t0,0x7ef91
800052f4:	a5cd                	j	800059d6 <input_data+0x6a6>
800052f6:	7f02                	flw	ft10,32(sp)
800052f8:	1831                	addi	a6,a6,-20 # ffff2fec <__global_pointer$+0x7ffeb4bc>
800052fa:	7f10                	flw	fa2,56(a4)
800052fc:	a605                	j	8000561c <input_data+0x2ec>
800052fe:	7f10                	flw	fa2,56(a4)
80005300:	0434                	addi	a3,sp,520
80005302:	7f24                	flw	fs1,120(a4)
80005304:	c95e                	sw	s7,144(sp)
80005306:	731f7f4b          	fnmsub.d	ft10,ft10,fa7,fa4
8000530a:	7f8d                	lui	t6,0xfffe3
8000530c:	3385                	jal	8000506c <verify_data+0x1d3c>
8000530e:	58997f8f          	.insn	4, 0x58997f8f
80005312:	7f99                	lui	t6,0xfffe6
80005314:	1715                	addi	a4,a4,-27
80005316:	7fa6                	flw	ft11,104(sp)
80005318:	c8f2                	sw	t3,80(sp)
8000531a:	7fb1                	lui	t6,0xfffec
8000531c:	8976                	mv	s2,t4
8000531e:	7fc0                	flw	fs0,60(a5)
80005320:	d2d0                	sw	a2,36(a3)
80005322:	7fc0                	flw	fs0,60(a5)
80005324:	7fca5d7f 7fdb3900 	.insn	20, 0x3a2ccef4055424a47fe84e467fdb39007fca5d7f
8000532c:	7fe84e46  
80005334:	 

80005330 <input_data>:
80005330:	24a4                	fld	fs1,72(s1)
80005332:	0554                	addi	a3,sp,644
80005334:	cef4                	sw	a3,92(a3)
80005336:	3a2c                	fld	fa1,112(a2)
80005338:	4a64                	lw	s1,84(a2)
8000533a:	97196adb          	.insn	4, 0x97196adb
8000533e:	2b01                	jal	8000584e <input_data+0x51e>
80005340:	f4ee                	fsw	fs11,104(sp)
80005342:	4861                	li	a6,24
80005344:	0039e5ef          	jal	a1,800a3b46 <__global_pointer$+0x9c016>
80005348:	eeec                	fsw	fa1,92(a3)
8000534a:	1802                	slli	a6,a6,0x20
8000534c:	8b3e                	mv	s6,a5
8000534e:	7ec6                	flw	ft9,112(sp)
80005350:	4a40                	lw	s0,20(a2)
80005352:	6010                	flw	fa2,0(s0)
80005354:	0df8                	addi	a4,sp,732
80005356:	2ee2                	fld	ft9,24(sp)
80005358:	6b72                	flw	fs6,28(sp)
8000535a:	2cf4                	fld	fa3,216(s1)
8000535c:	49635f53          	.insn	4, 0x49635f53
80005360:	8979                	andi	a0,a0,30
80005362:	9b6810f7          	.insn	4, 0x9b6810f7
80005366:	0836                	slli	a6,a6,0xd
80005368:	79b5933b          	.insn	4, 0x79b5933b
8000536c:	db86                	sw	ra,244(sp)
8000536e:	ca5913a7          	.insn	4, 0xca5913a7
80005372:	4ad5                	li	s5,21
80005374:	28d5                	jal	80005468 <input_data+0x138>
80005376:	1bb9                	addi	s7,s7,-18 # cfee <_start-0x7fff3012>
80005378:	72c2                	flw	ft5,48(sp)
8000537a:	04bd673b          	.insn	4, 0x04bd673b
8000537e:	9f1011fb          	.insn	4, 0x9f1011fb
80005382:	4f9f 88d5 1afe      	.insn	6, 0x1afe88d54f9f
80005388:	8b4c                	.insn	2, 0x8b4c
8000538a:	d92d00d7          	.insn	4, 0xd92d00d7
8000538e:	4961                	li	s2,24
80005390:	8a60                	.insn	2, 0x8a60
80005392:	7761                	lui	a4,0xffff8
80005394:	d1e1                	beqz	a1,80005354 <input_data+0x24>
80005396:	ee242b8f          	.insn	4, 0xee242b8f
8000539a:	720e                	flw	ft4,224(sp)
8000539c:	040c                	addi	a1,sp,512
8000539e:	4c04                	lw	s1,24(s0)
800053a0:	6e71                	lui	t3,0x1c
800053a2:	324a                	fld	ft4,176(sp)
800053a4:	0655                	addi	a2,a2,21 # a0507015 <__global_pointer$+0x204ff4e5>
800053a6:	731d                	lui	t1,0xfffe7
800053a8:	917d                	srli	a0,a0,0x3f
800053aa:	58f5                	li	a7,-3
800053ac:	da5f 1d42 de31      	.insn	6, 0xde311d42da5f
800053b2:	7b31                	lui	s6,0xfffec
800053b4:	fa95                	bnez	a3,800052e8 <verify_data+0x1fb8>
800053b6:	018a                	slli	gp,gp,0x2
800053b8:	d8e0                	sw	s0,116(s1)
800053ba:	12ec0e33          	.insn	4, 0x12ec0e33
800053be:	712a                	flw	ft2,168(sp)
800053c0:	db66                	sw	s9,180(sp)
800053c2:	0ef1                	addi	t4,t4,28 # ffffb01c <__global_pointer$+0x7fff34ec>
800053c4:	3b49                	jal	80005156 <verify_data+0x1e26>
800053c6:	601e                	flw	ft0,196(sp)
800053c8:	2601eb4f          	.insn	4, 0x2601eb4f
800053cc:	cb54                	sw	a3,20(a4)
800053ce:	52c6                	lw	t0,112(sp)
800053d0:	2b51                	jal	80005964 <input_data+0x634>
800053d2:	369a                	fld	fa3,416(sp)
800053d4:	d5c8                	sw	a0,44(a1)
800053d6:	401e                	.insn	2, 0x401e
800053d8:	10f8                	addi	a4,sp,108
800053da:	2844                	fld	fs1,144(s0)
800053dc:	8c39                	xor	s0,s0,a4
800053de:	37e8                	fld	fa0,232(a5)
800053e0:	0c00                	addi	s0,sp,528
800053e2:	547c                	lw	a5,108(s0)
800053e4:	0492                	slli	s1,s1,0x4
800053e6:	59ed                	li	s3,-5
800053e8:	632cf297          	auipc	t0,0x632cf
800053ec:	1e9a                	slli	t4,t4,0x26
800053ee:	6819                	lui	a6,0x6
800053f0:	b431                	j	80004dfc <verify_data+0x1acc>
800053f2:	e1f728ef          	jal	a7,7ff78210 <_start-0x87df0>
800053f6:	7dbc                	flw	fa5,120(a1)
800053f8:	3468                	fld	fa0,232(s0)
800053fa:	56fe                	lw	a3,252(sp)
800053fc:	2441                	jal	8000567c <input_data+0x34c>
800053fe:	a7de1353          	.insn	4, 0xa7de1353
80005402:	7021                	c.lui	zero,0xfffe8
80005404:	62d6                	flw	ft5,84(sp)
80005406:	86c8592f          	.insn	4, 0x86c8592f
8000540a:	304d                	jal	80004cac <verify_data+0x197c>
8000540c:	8551                	srai	a0,a0,0x14
8000540e:	484c                	lw	a1,20(s0)
80005410:	8b6a                	mv	s6,s10
80005412:	3ccc                	fld	fa1,184(s1)
80005414:	fb81                	bnez	a5,80005324 <verify_data+0x1ff4>
80005416:	22e0                	fld	fs0,192(a3)
80005418:	783be667          	.insn	4, 0x783be667
8000541c:	2128e503          	.insn	4, 0x2128e503
80005420:	bf66                	fsd	fs9,440(sp)
80005422:	4524                	lw	s1,72(a0)
80005424:	52ea70bb          	.insn	4, 0x52ea70bb
80005428:	662c                	flw	fa1,72(a2)
8000542a:	48ee                	lw	a7,216(sp)
8000542c:	6f6a                	flw	ft10,152(sp)
8000542e:	4139                	li	sp,14
80005430:	af00                	fsd	fs0,24(a4)
80005432:	1a05                	addi	s4,s4,-31 # 11fe1 <_start-0x7ffee01f>
80005434:	0b5676e3          	bgeu	a2,s5,80005ce0 <input_data+0x9b0>
80005438:	7ca6                	flw	fs9,104(sp)
8000543a:	727123f3          	csrrs	t2,mhpmevent7h,sp
8000543e:	5a32                	lw	s4,44(sp)
80005440:	5b08                	lw	a0,48(a4)
80005442:	6145                	addi	sp,sp,48
80005444:	e12a                	fsw	fa0,128(sp)
80005446:	55d6                	lw	a1,116(sp)
80005448:	6f29                	lui	t5,0xa
8000544a:	4db5                	li	s11,13
8000544c:	301453e7          	.insn	4, 0x301453e7
80005450:	4ba0                	lw	s0,80(a5)
80005452:	4191                	li	gp,4
80005454:	42ff 46ae 148d 544a 	.insn	18, 0x058c1900b280780c96b1544a148d46ae42ff
8000545c:	96b1 780c b280 1900 
80005464:	058c 
80005466:	c97f4bef          	jal	s7,7fffa0fc <_start-0x5f04>
8000546a:	0a79                	addi	s4,s4,30
8000546c:	c11e                	sw	t2,128(sp)
8000546e:	48ec                	lw	a1,84(s1)
80005470:	27e4                	fld	fs1,200(a5)
80005472:	223a                	fld	ft4,392(sp)
80005474:	135a                	slli	t1,t1,0x36
80005476:	79ff                	.insn	2, 0x79ff
80005478:	1082                	slli	ra,ra,0x20
8000547a:	16571d5b          	.insn	4, 0x16571d5b
8000547e:	66a0                	flw	fs0,72(a3)
80005480:	0c12                	slli	s8,s8,0x4
80005482:	2b48                	fld	fa0,144(a4)
80005484:	5c10                	lw	a2,56(s0)
80005486:	4adf f786 78fd      	.insn	6, 0x78fdf7864adf
8000548c:	34f5                	jal	80004f78 <verify_data+0x1c48>
8000548e:	5266                	lw	tp,120(sp)
80005490:	739d378b          	.insn	4, 0x739d378b
80005494:	9259                	srli	a2,a2,0x36
80005496:	2f28                	fld	fa0,88(a4)
80005498:	1ef9fd23          	.insn	4, 0x1ef9fd23
8000549c:	ccad                	beqz	s1,80005516 <input_data+0x1e6>
8000549e:	43cd3ea7          	fsd	ft8,1085(s10) # 1b43d <_start-0x7ffe4bc3>
800054a2:	74fc                	flw	fa5,108(s1)
800054a4:	2a22a5e3          	.insn	4, 0x2a22a5e3
800054a8:	cf72                	sw	t3,156(sp)
800054aa:	69e2                	flw	fs3,24(sp)
800054ac:	281bbd27          	fsd	ft1,666(s7)
800054b0:	778e56c3          	.insn	4, 0x778e56c3
800054b4:	4bf29b83          	lh	s7,1215(t0) # e32d48a7 <__global_pointer$+0x632ccd77>
800054b8:	de88                	sw	a0,56(a3)
800054ba:	0fec7e53          	.insn	4, 0x0fec7e53
800054be:	31c6                	fld	ft3,112(sp)
800054c0:	191afacb          	fnmsub.s	fs5,fs5,fa7,ft3
800054c4:	8575                	srai	a0,a0,0x1d
800054c6:	45b2                	lw	a1,12(sp)
800054c8:	5c90                	lw	a2,56(s1)
800054ca:	7b08                	flw	fa0,48(a4)
800054cc:	5f7c                	lw	a5,124(a4)
800054ce:	2d61533f 7dc148a1 	.insn	8, 0x7dc148a12d61533f
800054d6:	7d81                	lui	s11,0xfffe0
800054d8:	e584                	fsw	fs1,8(a1)
800054da:	2cf4                	fld	fa3,216(s1)
800054dc:	7fca5d7f 532a6e6c 	.insn	20, 0x0a264a155431a8886855a4ba532a6e6c7fca5d7f
800054e4:	6855a4ba 5431a888 
800054ec:	0a264a15 
800054f0:	3a26                	fld	fs4,104(sp)
800054f2:	45a11733          	.insn	4, 0x45a11733
800054f6:	1ab8                	addi	a4,sp,376
800054f8:	0e578ce3          	beq	a5,t0,80005df0 <input_data+0xac0>
800054fc:	4e46                	lw	t3,80(sp)
800054fe:	7fe8                	flw	fa0,124(a5)
80005500:	f7a0                	fsw	fs0,104(a5)
80005502:	6e10                	flw	fa2,24(a2)
80005504:	6366                	flw	ft6,88(sp)
80005506:	50b4                	lw	a3,96(s1)
80005508:	08606c9b          	.insn	4, 0x08606c9b
8000550c:	cb9d                	beqz	a5,80005542 <input_data+0x212>
8000550e:	6c92                	flw	fs9,4(sp)
80005510:	05f9                	addi	a1,a1,30 # fffe101e <__global_pointer$+0x7ffd94ee>
80005512:	24f4                	fld	fa3,200(s1)
80005514:	0f8e                	slli	t6,t6,0x3
80005516:	5a42                	lw	s4,48(sp)
80005518:	2cc21eab          	.insn	4, 0x2cc21eab
8000551c:	d2d0                	sw	a2,36(a3)
8000551e:	7fc0                	flw	fs0,60(a5)
80005520:	321c                	fld	fa5,32(a2)
80005522:	1225                	addi	tp,tp,-23 # fffeefe9 <__global_pointer$+0x7ffe74b9>
80005524:	0d30                	addi	a2,sp,664
80005526:	207d                	jal	800055d4 <input_data+0x2a4>
80005528:	aae2                	fsd	fs8,336(sp)
8000552a:	73fd                	lui	t2,0xfffff
8000552c:	1398                	addi	a4,sp,480
8000552e:	5bad                	li	s7,-21
80005530:	7f30                	flw	fa2,120(a4)
80005532:	7188                	flw	fa0,32(a1)
80005534:	6219                	lui	tp,0x6
80005536:	a15d371b          	.insn	4, 0xa15d371b
8000553a:	b79f21d7          	.insn	4, 0xb79f21d7
8000553e:	353e                	fld	fa0,488(sp)
80005540:	cba1                	beqz	a5,80005590 <input_data+0x260>
80005542:	980f49e3          	bltz	t5,80004ed4 <verify_data+0x1ba4>
80005546:	4500                	lw	s0,8(a0)
80005548:	2f96                	fld	ft11,320(sp)
8000554a:	7d84                	flw	fs1,56(a1)
8000554c:	59bbba97          	auipc	s5,0x59bbb
80005550:	7cc8                	flw	fa0,60(s1)
80005552:	6186                	flw	ft3,64(sp)
80005554:	00949033          	sll	zero,s1,s1
80005558:	2d32                	fld	fs10,264(sp)
8000555a:	1ee1                	addi	t4,t4,-8
8000555c:	7168                	flw	fa0,100(a0)
8000555e:	fb3a3f67          	.insn	4, 0xfb3a3f67
80005562:	ea803d57          	.insn	4, 0xea803d57
80005566:	0cd0                	addi	a2,sp,596
80005568:	fa46                	fsw	fa7,52(sp)
8000556a:	4001                	c.li	zero,0
8000556c:	1281                	addi	t0,t0,-32
8000556e:	6ecd                	lui	t4,0x13
80005570:	69aa                	flw	fs3,136(sp)
80005572:	33a5                	jal	800052da <verify_data+0x1faa>
80005574:	58e6236f          	jal	t1,80067b02 <__global_pointer$+0x5ffd2>
80005578:	a960                	fsd	fs0,208(a0)
8000557a:	1c74                	addi	a3,sp,572
8000557c:	3150                	fld	fa2,160(a0)
8000557e:	3561                	jal	80005406 <input_data+0xd6>
80005580:	a07c                	fsd	fa5,192(s0)
80005582:	a9bd38e3          	.insn	4, 0xa9bd38e3
80005586:	2609                	jal	80005888 <input_data+0x558>
80005588:	8f18                	.insn	2, 0x8f18
8000558a:	5c65                	li	s8,-7
8000558c:	3ecd                	jal	8000517e <verify_data+0x1e4e>
8000558e:	24a2                	fld	fs1,8(sp)
80005590:	17e6                	slli	a5,a5,0x39
80005592:	56a1                	li	a3,-24
80005594:	4e44                	lw	s1,28(a2)
80005596:	4f90                	lw	a2,24(a5)
80005598:	28bdf153          	.insn	4, 0x28bdf153
8000559c:	4130                	lw	a2,64(a0)
8000559e:	0ac50a0f          	.insn	4, 0x0ac50a0f
800055a2:	1cb4                	addi	a3,sp,632
800055a4:	9006                	c.add	zero,ra
800055a6:	2d0c                	fld	fa1,24(a0)
800055a8:	3012                	fld	ft0,288(sp)
800055aa:	782c                	flw	fa1,112(s0)
800055ac:	14c2                	slli	s1,s1,0x30
800055ae:	454d                	li	a0,19
800055b0:	bbfa                	fsd	ft10,496(sp)
800055b2:	664924eb          	.insn	4, 0x664924eb
800055b6:	52de                	lw	t0,244(sp)
800055b8:	61f6                	flw	ft3,92(sp)
800055ba:	a7d10f4f          	.insn	4, 0xa7d10f4f
800055be:	15c5                	addi	a1,a1,-15
800055c0:	687e                	flw	fa6,220(sp)
800055c2:	4ed0                	lw	a2,28(a3)
800055c4:	4adc                	lw	a5,20(a3)
800055c6:	439a                	lw	t2,132(sp)
800055c8:	fe51                	bnez	a2,80005564 <input_data+0x234>
800055ca:	4da5                	li	s11,9
800055cc:	c3bd                	beqz	a5,80005632 <input_data+0x302>
800055ce:	2511                	jal	80005bd2 <input_data+0x8a2>
800055d0:	100a                	c.slli	zero,0x22
800055d2:	31ec                	fld	fa1,224(a1)
800055d4:	66076677          	.insn	4, 0x66076677
800055d8:	ceea                	sw	s10,92(sp)
800055da:	2cfe                	fld	fs9,472(sp)
800055dc:	152e                	slli	a0,a0,0x2b
800055de:	66b5                	lui	a3,0xd
800055e0:	de5c                	sw	a5,60(a2)
800055e2:	3a4e                	fld	fs4,240(sp)
800055e4:	e140                	fsw	fs0,4(a0)
800055e6:	5c50                	lw	a2,60(s0)
800055e8:	034d                	addi	t1,t1,19 # fffe7013 <__global_pointer$+0x7ffdf4e3>
800055ea:	23a5                	jal	80005b52 <input_data+0x822>
800055ec:	4569                	li	a0,26
800055ee:	613d                	addi	sp,sp,480
800055f0:	9f26                	add	t5,t5,s1
800055f2:	2f24                	fld	fs1,88(a4)
800055f4:	796a                	flw	fs2,184(sp)
800055f6:	5f84                	lw	s1,56(a5)
800055f8:	2df3dfcb          	.insn	4, 0x2df3dfcb
800055fc:	16b9                	addi	a3,a3,-18 # cfee <_start-0x7fff3012>
800055fe:	0bd0                	addi	a2,sp,468
80005600:	4699                	li	a3,6
80005602:	4add                	li	s5,23
80005604:	a1f8                	fsd	fa4,192(a1)
80005606:	7eb8                	flw	fa4,120(a3)
80005608:	2215                	jal	8000572c <input_data+0x3fc>
8000560a:	080c                	addi	a1,sp,16
8000560c:	9608                	.insn	2, 0x9608
8000560e:	22c1                	jal	800057ce <input_data+0x49e>
80005610:	3888                	fld	fa0,48(s1)
80005612:	7e41                	lui	t3,0xffff0
80005614:	8b9f 6d56 d570      	.insn	6, 0xd5706d568b9f
8000561a:	33ac                	fld	fa1,96(a5)
8000561c:	938e                	add	t2,t2,gp
8000561e:	650a                	flw	fa0,128(sp)
80005620:	983d                	andi	s0,s0,-17
80005622:	2c6a                	fld	fs8,152(sp)
80005624:	99ca                	add	s3,s3,s2
80005626:	4428                	lw	a0,72(s0)
80005628:	f095                	bnez	s1,8000554c <input_data+0x21c>
8000562a:	4252                	lw	tp,20(sp)
8000562c:	b4a9                	j	80005076 <verify_data+0x1d46>
8000562e:	1c88                	addi	a0,sp,624
80005630:	8ad5                	andi	a3,a3,21
80005632:	e5b747a7          	.insn	4, 0xe5b747a7
80005636:	b7293b13          	sltiu	s6,s2,-1166
8000563a:	745e                	flw	fs0,244(sp)
8000563c:	1ef490c3          	.insn	4, 0x1ef490c3
80005640:	f658                	fsw	fa4,44(a2)
80005642:	635d                	lui	t1,0x17
80005644:	2deb91bf 20b378d4 	.insn	8, 0x20b378d42deb91bf
8000564c:	2a8f6b6f          	jal	s6,800fb8f4 <__global_pointer$+0xf3dc4>
80005650:	e759                	bnez	a4,800056de <input_data+0x3ae>
80005652:	ceb263c7          	.insn	4, 0xceb263c7
80005656:	57b6                	lw	a5,108(sp)
80005658:	e800                	fsw	fs0,16(s0)
8000565a:	4cb5                	li	s9,13
8000565c:	3d98                	fld	fa4,56(a1)
8000565e:	5ed1                	li	t4,-12
80005660:	6746                	flw	fa4,80(sp)
80005662:	1268                	addi	a0,sp,300
80005664:	9561                	srai	a0,a0,0x38
80005666:	392e                	fld	fs2,232(sp)
80005668:	e231                	bnez	a2,800056ac <input_data+0x37c>
8000566a:	0456                	slli	s0,s0,0x15
8000566c:	dfd0                	sw	a2,60(a5)
8000566e:	27f8                	fld	fa4,200(a5)
80005670:	2d4e                	fld	fs10,208(sp)
80005672:	3635100b          	.insn	4, 0x3635100b
80005676:	5f46                	lw	t5,112(sp)
80005678:	23fa                	fld	ft7,408(sp)
8000567a:	789c                	flw	fa5,48(s1)
8000567c:	47c5                	li	a5,17
8000567e:	33eb476b          	.insn	4, 0x33eb476b
80005682:	779e                	flw	fa5,228(sp)
80005684:	00fc                	addi	a5,sp,76
80005686:	3d62                	fld	fs10,56(sp)
80005688:	02a2                	slli	t0,t0,0x8
8000568a:	6676                	flw	fa2,92(sp)
8000568c:	476bead3          	.insn	4, 0x476bead3
80005690:	46dadd13          	.insn	4, 0x46dadd13
80005694:	66c4                	flw	fs1,12(a3)
80005696:	7691                	lui	a3,0xfffe4
80005698:	e555                	bnez	a0,80005744 <input_data+0x414>
8000569a:	3748                	fld	fa0,168(a4)
8000569c:	77b2                	flw	fa5,44(sp)
8000569e:	eef76607          	.insn	4, 0xeef76607
800056a2:	5324                	lw	s1,96(a4)
800056a4:	17e0                	addi	s0,sp,1004
800056a6:	2dd6                	fld	fs11,336(sp)
800056a8:	7a02d7ff 722b3950 	.insn	20, 0x028131ca5557c00724e05376722b39507a02d7ff
800056b0:	24e05376 5557c007 
800056b8:	028131ca 
800056bc:	94ba                	add	s1,s1,a4
800056be:	41f6                	lw	gp,92(sp)
800056c0:	2422                	fld	fs0,8(sp)
800056c2:	229c0663          	beq	s8,s1,800058ee <input_data+0x5be>
800056c6:	477c                	lw	a5,76(a4)
800056c8:	0b0fe933          	.insn	4, 0x0b0fe933
800056cc:	6f793433          	.insn	4, 0x6f793433
800056d0:	2cec                	fld	fa1,216(s1)
800056d2:	0c38                	addi	a4,sp,536
800056d4:	7909                	lui	s2,0xfffe2
800056d6:	6d55                	lui	s10,0x15
800056d8:	cfc9                	beqz	a5,80005772 <input_data+0x442>
800056da:	9167388b          	.insn	4, 0x9167388b
800056de:	af6d3867          	.insn	4, 0xaf6d3867
800056e2:	4b3e                	lw	s6,204(sp)
800056e4:	1545                	addi	a0,a0,-15 # fffdfff1 <__global_pointer$+0x7ffd84c1>
800056e6:	07d5                	addi	a5,a5,21 # 7015 <_start-0x7fff8feb>
800056e8:	8f85                	sub	a5,a5,s1
800056ea:	4eca                	lw	t4,144(sp)
800056ec:	b0b9                	j	80004f3a <verify_data+0x1c0a>
800056ee:	56f8                	lw	a4,108(a3)
800056f0:	d0d4                	sw	a3,36(s1)
800056f2:	30f6                	fld	ft1,376(sp)
800056f4:	6a74                	flw	fa3,84(a2)
800056f6:	32ce                	fld	ft5,240(sp)
800056f8:	e3c1                	bnez	a5,80005778 <input_data+0x448>
800056fa:	23fe                	fld	ft7,472(sp)
800056fc:	ffb9                	bnez	a5,8000565a <input_data+0x32a>
800056fe:	013a                	slli	sp,sp,0xe
80005700:	6796bc67          	.insn	4, 0x6796bc67
80005704:	bdad                	j	8000557e <input_data+0x24e>
80005706:	0236                	slli	tp,tp,0xd
80005708:	27d6                	fld	fa5,336(sp)
8000570a:	7c7d                	lui	s8,0xfffff
8000570c:	68b2                	flw	fa7,12(sp)
8000570e:	24b915db          	.insn	4, 0x24b915db
80005712:	e0d668fb          	.insn	4, 0xe0d668fb
80005716:	f557254f          	.insn	4, 0xf557254f
8000571a:	cd5f2c2b          	.insn	4, 0xcd5f2c2b
8000571e:	30b8                	fld	fa4,96(s1)
80005720:	6d68                	flw	fa0,92(a0)
80005722:	39c6                	fld	fs3,112(sp)
80005724:	44b079ab          	.insn	4, 0x44b079ab
80005728:	2be4                	fld	fs1,208(a5)
8000572a:	41ae                	lw	gp,200(sp)
8000572c:	3abd                	jal	800050aa <verify_data+0x1d7a>
8000572e:	678e17cf          	.insn	4, 0x678e17cf
80005732:	7bac                	flw	fa1,112(a5)
80005734:	76de                	flw	fa3,244(sp)
80005736:	7582                	flw	fa1,32(sp)
80005738:	2c8f5cab          	.insn	4, 0x2c8f5cab
8000573c:	452947fb          	.insn	4, 0x452947fb
80005740:	2ace                	fld	fs5,208(sp)
80005742:	679d                	lui	a5,0x7
80005744:	7558                	flw	fa4,44(a0)
80005746:	7df8                	flw	fa4,124(a1)
80005748:	3381                	jal	80005488 <input_data+0x158>
8000574a:	7111                	addi	sp,sp,-256
8000574c:	328d                	jal	800050ae <verify_data+0x1d7e>
8000574e:	34f371bb          	.insn	4, 0x34f371bb
80005752:	44e0                	lw	s0,76(s1)
80005754:	f79f 0704 1798      	.insn	6, 0x17980704f79f
8000575a:	7948                	flw	fa0,52(a0)
8000575c:	6961                	lui	s2,0x18
8000575e:	4e72                	lw	t3,28(sp)
80005760:	9a45                	andi	a2,a2,-15
80005762:	59d9                	li	s3,-10
80005764:	79ea714f          	fnmadd.s	ft2,fs4,ft10,fa5
80005768:	ddde                	sw	s7,248(sp)
8000576a:	2d9e                	fld	fs11,448(sp)
8000576c:	592a                	lw	s2,168(sp)
8000576e:	3d7d                	jal	8000562c <input_data+0x2fc>
80005770:	b06d                	j	8000501a <verify_data+0x1cea>
80005772:	48c5                	li	a7,17
80005774:	136948cb          	fnmsub.d	fa7,fs2,fs6,ft2,rmm
80005778:	06f2                	slli	a3,a3,0x1c
8000577a:	723d                	lui	tp,0xfffef
8000577c:	6bd8                	flw	fa4,20(a5)
8000577e:	00fa                	slli	ra,ra,0x1e
80005780:	3e02                	fld	ft8,32(sp)
80005782:	02d4                	addi	a3,sp,324
80005784:	10ed                	addi	ra,ra,-5 # fffecffb <__global_pointer$+0x7ffe54cb>
80005786:	5241                	li	tp,-16
80005788:	a2c4                	fsd	fs1,128(a3)
8000578a:	48c8                	lw	a0,20(s1)
8000578c:	4d28                	lw	a0,88(a0)
8000578e:	2afa                	fld	fs5,408(sp)
80005790:	5552d8af          	.insn	4, 0x5552d8af
80005794:	5cf8                	lw	a4,124(s1)
80005796:	5d8c                	lw	a1,56(a1)
80005798:	93c9                	srli	a5,a5,0x32
8000579a:	3634                	fld	fa3,104(a2)
8000579c:	0c30a657          	.insn	4, 0x0c30a657
800057a0:	37a6bc03          	.insn	4, 0x37a6bc03
800057a4:	5d52b08f          	.insn	4, 0x5d52b08f
800057a8:	145d8bd7          	.insn	4, 0x145d8bd7
800057ac:	a2f2                	fsd	ft8,320(sp)
800057ae:	02d623ef          	jal	t2,80067fda <__global_pointer$+0x604aa>
800057b2:	0051                	c.nop	20
800057b4:	2dde                	fld	fs11,464(sp)
800057b6:	32a2                	fld	ft5,40(sp)
800057b8:	0ac3bca3          	.insn	4, 0x0ac3bca3
800057bc:	b0c8                	fsd	fa0,160(s1)
800057be:	583d                	li	a6,-17
800057c0:	1fbccd53          	.insn	4, 0x1fbccd53
800057c4:	74bac3d7          	.insn	4, 0x74bac3d7
800057c8:	d5d4                	sw	a3,44(a1)
800057ca:	0654                	addi	a3,sp,772
800057cc:	0d01                	addi	s10,s10,0 # 15000 <_start-0x7ffeb000>
800057ce:	3d1a                	fld	fs10,416(sp)
800057d0:	7da5                	lui	s11,0xfffe9
800057d2:	37c5                	jal	800057b2 <input_data+0x482>
800057d4:	686ebe97          	auipc	t4,0x686eb
800057d8:	8ac2                	mv	s5,a6
800057da:	6599                	lui	a1,0x6
800057dc:	d049                	beqz	s0,8000575e <input_data+0x42e>
800057de:	d5415d7b          	.insn	4, 0xd5415d7b
800057e2:	bbe76f5b          	.insn	4, 0xbbe76f5b
800057e6:	21f8                	fld	fa4,192(a1)
800057e8:	79d1                	lui	s3,0xffff4
800057ea:	4c253e53          	.insn	4, 0x4c253e53
800057ee:	1060                	addi	s0,sp,44
800057f0:	5cce                	lw	s9,240(sp)
800057f2:	25de3513          	sltiu	a0,t3,605
800057f6:	1e45                	addi	t3,t3,-15 # fffefff1 <__global_pointer$+0x7ffe84c1>
800057f8:	ef64                	fsw	fs1,92(a4)
800057fa:	ab662f4b          	fnmsub.d	ft10,fa2,fs6,fs5,rdn
800057fe:	1b78                	addi	a4,sp,444
80005800:	20ae                	fld	ft1,200(sp)
80005802:	464e                	lw	a2,208(sp)
80005804:	172d75a3          	.insn	4, 0x172d75a3
80005808:	9e80                	.insn	2, 0x9e80
8000580a:	4261                	li	tp,24
8000580c:	00d3e7bb          	.insn	4, 0x00d3e7bb
80005810:	6c2a                	flw	fs8,136(sp)
80005812:	a05071d3          	.insn	4, 0xa05071d3
80005816:	4085                	li	ra,1
80005818:	08ff 576b 465f 4c61 	.insn	10, 0xcd3e4c61465f576b08ff
80005820:	cd3e 
80005822:	247e                	fld	fs0,472(sp)
80005824:	2ff2                	fld	ft11,280(sp)
80005826:	1640                	addi	s0,sp,804
80005828:	f16e                	fsw	fs11,160(sp)
8000582a:	21e4                	fld	fs1,192(a1)
8000582c:	5278adf3          	csrrs	s11,0x527,a7
80005830:	4afd                	li	s5,31
80005832:	aaad3fff d0832c73 	.insn	16, 0x58a24cd94768253fd0832c73aaad3fff
8000583a:	4768253f 58a24cd9 
80005842:	09fd72f3          	csrrci	t0,0x9f,26
80005846:	08d4                	addi	a3,sp,84
80005848:	e83e                	fsw	fa5,16(sp)
8000584a:	1b94                	addi	a3,sp,496
8000584c:	6ce3fc13          	andi	s8,t2,1742
80005850:	af35                	j	80005f8c <input_data+0xc5c>
80005852:	5dac                	lw	a1,120(a1)
80005854:	2416                	fld	fs0,320(sp)
80005856:	545d                	li	s0,-9
80005858:	2e9a                	fld	ft9,384(sp)
8000585a:	82e3583b          	.insn	4, 0x82e3583b
8000585e:	4f5e                	lw	t5,212(sp)
80005860:	202fd7d7          	.insn	4, 0x202fd7d7
80005864:	096e                	slli	s2,s2,0x1b
80005866:	e9f00f97          	auipc	t6,0xe9f00
8000586a:	64bd                	lui	s1,0xf
8000586c:	10e4ceaf          	.insn	4, 0x10e4ceaf
80005870:	d0aa                	sw	a0,96(sp)
80005872:	4735                	li	a4,13
80005874:	7850                	flw	fa2,52(s0)
80005876:	78e96a2b          	.insn	4, 0x78e96a2b
8000587a:	26ba                	fld	fa3,392(sp)
8000587c:	5579cfa7          	.insn	4, 0x5579cfa7
80005880:	d65f 43b2 a8b1      	.insn	6, 0xa8b143b2d65f
80005886:	601e3793          	sltiu	a5,t3,1537
8000588a:	45c8                	lw	a0,12(a1)
8000588c:	99ec                	.insn	2, 0x99ec
8000588e:	3e85                	jal	800053fe <input_data+0xce>
80005890:	fc5d                	bnez	s0,8000584e <input_data+0x51e>
80005892:	d200294b          	fnmsub.d	fs2,ft0,ft0,fs10,rdn
80005896:	574d6097          	auipc	ra,0x574d6
8000589a:	7966                	flw	fs2,120(sp)
8000589c:	233d                	jal	80005dca <input_data+0xa9a>
8000589e:	101e                	c.slli	zero,0x27
800058a0:	24d5dd8b          	.insn	4, 0x24d5dd8b
800058a4:	ed35                	bnez	a0,80005920 <input_data+0x5f0>
800058a6:	504d                	c.li	zero,-13
800058a8:	b03a                	fsd	fa4,32(sp)
800058aa:	6998                	flw	fa4,16(a1)
800058ac:	01d8e9c7          	fmsub.s	fs3,fa7,ft9,ft0,unknown
800058b0:	4fba                	lw	t6,140(sp)
800058b2:	2711                	jal	80005fb6 <input_data+0xc86>
800058b4:	54ee                	lw	s1,248(sp)
800058b6:	1121015b          	.insn	4, 0x1121015b
800058ba:	6511                	lui	a0,0x4
800058bc:	f61d                	bnez	a2,800057ea <input_data+0x4ba>
800058be:	33b6                	fld	ft7,360(sp)
800058c0:	a3b2                	fsd	fa2,448(sp)
800058c2:	05ac5dff 1cd30d95 	.insn	20, 0x60412ef69bd85a21ca467afd1cd30d9505ac5dff
800058ca:	ca467afd 9bd85a21 
800058d2:	60412ef6 
800058d6:	68d4                	flw	fa3,20(s1)
800058d8:	4274                	lw	a3,68(a2)
800058da:	5c99                	li	s9,-26
800058dc:	7b86eff3          	csrrsi	t6,0x7b8,13
800058e0:	e378                	fsw	fa4,68(a4)
800058e2:	25b4                	fld	fa3,72(a1)
800058e4:	34127047          	.insn	4, 0x34127047
800058e8:	8ed0                	.insn	2, 0x8ed0
800058ea:	7cfe                	flw	fs9,252(sp)
800058ec:	7008f7cb          	fnmsub.s	fa5,fa7,ft0,fa4
800058f0:	70b5                	lui	ra,0xfffed
800058f2:	53ba                	lw	t2,172(sp)
800058f4:	6db9d8c7          	.insn	4, 0x6db9d8c7
800058f8:	f955                	bnez	a0,800058ac <input_data+0x57c>
800058fa:	5ff5                	li	t6,-3
800058fc:	dbe0                	sw	s0,116(a5)
800058fe:	db0a0b17          	auipc	s6,0xdb0a0
80005902:	0bb4                	addi	a3,sp,472
80005904:	a8fc                	fsd	fa5,208(s1)
80005906:	46b207bf d7423089 	.insn	8, 0xd742308946b207bf
8000590e:	507c54af          	.insn	4, 0x507c54af
80005912:	0d86                	slli	s11,s11,0x1
80005914:	7b2e                	flw	fs6,232(sp)
80005916:	5595                	li	a1,-27
80005918:	3b0a                	fld	fs6,160(sp)
8000591a:	0d31                	addi	s10,s10,12
8000591c:	e4b2                	fsw	fa2,72(sp)
8000591e:	139c                	addi	a5,sp,480
80005920:	735e                	flw	ft6,244(sp)
80005922:	30ee                	fld	ft1,248(sp)
80005924:	0f8b5fbf 538275d3 	.insn	8, 0x538275d30f8b5fbf
8000592c:	366e                	fld	fa2,248(sp)
8000592e:	0c92                	slli	s9,s9,0x4
80005930:	0ac0                	addi	s0,sp,340
80005932:	364469c7          	.insn	4, 0x364469c7
80005936:	34de                	fld	fs1,496(sp)
80005938:	f150                	fsw	fa2,36(a0)
8000593a:	6bb5                	lui	s7,0xd
8000593c:	1e48192b          	.insn	4, 0x1e48192b
80005940:	0f76                	slli	t5,t5,0x1d
80005942:	36cb2dbb          	.insn	4, 0x36cb2dbb
80005946:	bfaa0197          	auipc	gp,0xbfaa0
8000594a:	d42012ff 3fc03647 	.insn	12, 0x8d3a06fd3fc03647d42012ff
80005952:	8d3a06fd 
80005956:	3fa67bab          	.insn	4, 0x3fa67bab
8000595a:	11f6                	slli	gp,gp,0x3d
8000595c:	1bb4383f 7a6c039a 	.insn	8, 0x7a6c039a1bb4383f
80005964:	08d9                	addi	a7,a7,22 # fffff016 <__global_pointer$+0x7fff74e6>
80005966:	a3054f97          	auipc	t6,0xa3054
8000596a:	2bf5                	jal	80005f66 <input_data+0xc36>
8000596c:	2e56b07f 44630ba3 	.insn	16, 0x610f407d761b01e644630ba32e56b07f
80005974:	761b01e6 610f407d 
8000597c:	c554                	sw	a3,12(a0)
8000597e:	b4a35ba3          	.insn	4, 0xb4a35ba3
80005982:	b76642d7          	.insn	4, 0xb76642d7
80005986:	52fa                	lw	t0,188(sp)
80005988:	6b51cb4f          	fnmadd.d	fs6,ft3,fs5,fa3,rmm
8000598c:	2540                	fld	fs0,136(a0)
8000598e:	d9bb2667          	.insn	4, 0xd9bb2667
80005992:	86fc4be3          	blt	s8,a5,80005208 <verify_data+0x1ed8>
80005996:	71a0                	flw	fs0,96(a1)
80005998:	2a85                	jal	80005b08 <input_data+0x7d8>
8000599a:	648301af          	.insn	4, 0x648301af
8000599e:	5776                	lw	a4,124(sp)
800059a0:	5f2d                	li	t5,-21
800059a2:	80f21633          	.insn	4, 0x80f21633
800059a6:	49ca04ab          	.insn	4, 0x49ca04ab
800059aa:	0816                	slli	a6,a6,0x5
800059ac:	c5ee                	sw	s11,200(sp)
800059ae:	3f4a                	fld	ft10,176(sp)
800059b0:	5fc4                	lw	s1,60(a5)
800059b2:	fa540f83          	lb	t6,-91(s0) # ffff8fa5 <__global_pointer$+0x7fff1475>
800059b6:	469a                	lw	a3,132(sp)
800059b8:	dde6                	sw	s9,248(sp)
800059ba:	1122                	slli	sp,sp,0x28
800059bc:	7ed5                	lui	t4,0xffff5
800059be:	44d5                	li	s1,21
800059c0:	86e0                	.insn	2, 0x86e0
800059c2:	6126                	flw	ft2,72(sp)
800059c4:	7c45df3b          	.insn	4, 0x7c45df3b
800059c8:	b6d4                	fsd	fa3,168(a3)
800059ca:	2faa                	fld	ft11,136(sp)
800059cc:	52670823          	sb	t1,1328(a4) # ffff8530 <__global_pointer$+0x7fff0a00>
800059d0:	c122                	sw	s0,128(sp)
800059d2:	79f0                	flw	fa2,116(a1)
800059d4:	37a5a727          	fsw	fs10,878(a1) # 636e <_start-0x7fff9c92>
800059d8:	d981                	beqz	a1,800058e8 <input_data+0x5b8>
800059da:	2e88050f          	.insn	4, 0x2e88050f
800059de:	3539                	jal	800057ec <input_data+0x4bc>
800059e0:	0db2                	slli	s11,s11,0xc
800059e2:	10a5                	addi	ra,ra,-23 # fffecfe9 <__global_pointer$+0x7ffe54b9>
800059e4:	ed86                	fsw	ft1,216(sp)
800059e6:	26d8                	fld	fa4,136(a3)
800059e8:	3b24                	fld	fs1,112(a4)
800059ea:	0e38                	addi	a4,sp,792
800059ec:	b3cd                	j	800057ce <input_data+0x49e>
800059ee:	3834                	fld	fa3,112(s0)
800059f0:	da28                	sw	a0,112(a2)
800059f2:	6ca2                	flw	fs9,8(sp)
800059f4:	d051                	beqz	s0,80005978 <input_data+0x648>
800059f6:	98346e3f 734737ff 	.insn	8, 0x734737ff98346e3f
800059fe:	1a06                	slli	s4,s4,0x21
80005a00:	f31d                	bnez	a4,80005926 <input_data+0x5f6>
80005a02:	20bc                	fld	fa5,64(s1)
80005a04:	56d6                	lw	a3,116(sp)
80005a06:	3d54                	fld	fa3,184(a0)
80005a08:	810a                	mv	sp,sp
80005a0a:	2285                	jal	80005b6a <input_data+0x83a>
80005a0c:	1b69                	addi	s6,s6,-6 # 5b0a58f8 <_start-0x24f5a708>
80005a0e:	7ea5                	lui	t4,0xfffe9
80005a10:	b34e                	fsd	fs3,416(sp)
80005a12:	347a                	fld	fs0,440(sp)
80005a14:	4290                	lw	a2,0(a3)
80005a16:	56155683          	lhu	a3,1377(a0) # 4561 <_start-0x7fffba9f>
80005a1a:	5081                	li	ra,-32
80005a1c:	ae74                	fsd	fa3,216(a2)
80005a1e:	bb695c27          	.insn	4, 0xbb695c27
80005a22:	3324                	fld	fs1,96(a4)
80005a24:	cc31                	beqz	s0,80005a80 <input_data+0x750>
80005a26:	7eed                	lui	t4,0xffffb
80005a28:	8db4                	.insn	2, 0x8db4
80005a2a:	1c4b4667          	.insn	4, 0x1c4b4667
80005a2e:	2b5e                	fld	fs6,464(sp)
80005a30:	1c78                	addi	a4,sp,572
80005a32:	6089                	lui	ra,0x2
80005a34:	39c2eec3          	fmadd.s	ft9,ft5,ft8,ft7,unknown
80005a38:	48473db3          	.insn	4, 0x48473db3
80005a3c:	6762                	flw	fa4,24(sp)
80005a3e:	5120                	lw	s0,96(a0)
80005a40:	15f77ee7          	.insn	4, 0x15f77ee7
80005a44:	13e702e3          	beq	a4,t5,80006368 <input_data+0x1038>
80005a48:	8266                	mv	tp,s9
80005a4a:	027c                	addi	a5,sp,268
80005a4c:	e6d4                	fsw	fa3,12(a3)
80005a4e:	52dd                	li	t0,-9
80005a50:	5d347033          	.insn	4, 0x5d347033
80005a54:	3a0a8c2b          	.insn	4, 0x3a0a8c2b
80005a58:	4043fd5b          	.insn	4, 0x4043fd5b
80005a5c:	36bd5793          	.insn	4, 0x36bd5793
80005a60:	a131                	j	80005e6c <input_data+0xb3c>
80005a62:	3ab263ab          	.insn	4, 0x3ab263ab
80005a66:	413d                	li	sp,15
80005a68:	058545bf 7eb78eb9 	.insn	8, 0x7eb78eb9058545bf
80005a70:	7ef8                	flw	fa4,124(a3)
80005a72:	42ad609b          	.insn	4, 0x42ad609b
80005a76:	3698                	fld	fa4,40(a3)
80005a78:	0a6dc44f          	fnmadd.d	fs0,fs11,ft6,ft1,rmm
80005a7c:	befe                	fsd	ft11,376(sp)
80005a7e:	01a1                	addi	gp,gp,8 # 3faa594e <_start-0x4055a6b2>
80005a80:	306d                	jal	8000532a <verify_data+0x1ffa>
80005a82:	19f1                	addi	s3,s3,-4 # ffff3ffc <__global_pointer$+0x7ffec4cc>
80005a84:	4c2e                	lw	s8,200(sp)
80005a86:	14f73deb          	.insn	4, 0x14f73deb
80005a8a:	63436d53          	.insn	4, 0x63436d53
80005a8e:	1239                	addi	tp,tp,-18 # fffeefee <__global_pointer$+0x7ffe74be>
80005a90:	a26a                	fsd	fs10,256(sp)
80005a92:	13b2                	slli	t2,t2,0x2c
80005a94:	5d0d                	li	s10,-29
80005a96:	2b89                	jal	80005fe8 <input_data+0xcb8>
80005a98:	a80d                	j	80005aca <input_data+0x79a>
80005a9a:	004b616b          	.insn	4, 0x004b616b
80005a9e:	ec893213          	sltiu	tp,s2,-312
80005aa2:	2dc4                	fld	fs1,152(a1)
80005aa4:	3ee4                	fld	fs1,248(a3)
80005aa6:	fd240687          	.insn	4, 0xfd240687
80005aaa:	78dd                	lui	a7,0xffff7
80005aac:	0f89                	addi	t6,t6,2 # 23059968 <_start-0x5cfa6698>
80005aae:	15ee                	slli	a1,a1,0x3b
80005ab0:	f891                	bnez	s1,800059c4 <input_data+0x694>
80005ab2:	03337637          	lui	a2,0x3337
80005ab6:	718f4d13          	xori	s10,t5,1816
80005aba:	2a12                	fld	fs4,256(sp)
80005abc:	8514                	.insn	2, 0x8514
80005abe:	f67d0d83          	lb	s11,-153(s10)
80005ac2:	3fa4                	fld	fs1,120(a5)
80005ac4:	67a4                	flw	fs1,72(a5)
80005ac6:	7c24                	flw	fs1,120(s0)
80005ac8:	38b93c73          	csrrc	s8,0x38b,s2
80005acc:	0f8982b7          	lui	t0,0xf898
80005ad0:	c726                	sw	s1,140(sp)
80005ad2:	fc69423b          	.insn	4, 0xfc69423b
80005ad6:	d28770bf ea255235 	.insn	8, 0xea255235d28770bf
80005ade:	0a7d                	addi	s4,s4,31
80005ae0:	278e                	fld	fa5,192(sp)
80005ae2:	2374                	fld	fa3,192(a4)
80005ae4:	0ec2                	slli	t4,t4,0x10
80005ae6:	8b6a6f83          	.insn	4, 0x8b6a6f83
80005aea:	64ba                	flw	fs1,140(sp)
80005aec:	a049                	j	80005b6e <input_data+0x83e>
80005aee:	4cf2                	lw	s9,28(sp)
80005af0:	06c9                	addi	a3,a3,18 # fffe4012 <__global_pointer$+0x7ffdc4e2>
80005af2:	0e9a                	slli	t4,t4,0x6
80005af4:	4d4c799b          	.insn	4, 0x4d4c799b
80005af8:	02a0                	addi	s0,sp,328
80005afa:	73bb6bf3          	csrrsi	s7,mhpmevent27h,22
80005afe:	6fb1                	lui	t6,0xc
80005b00:	1086                	slli	ra,ra,0x21
80005b02:	7439                	lui	s0,0xfffee
80005b04:	9e52                	add	t3,t3,s4
80005b06:	71b6                	flw	ft3,108(sp)
80005b08:	23494e2b          	.insn	4, 0x23494e2b
80005b0c:	b850                	fsd	fa2,176(s0)
80005b0e:	4e3a                	lw	t3,140(sp)
80005b10:	1641                	addi	a2,a2,-16 # 3336ff0 <_start-0x7ccc9010>
80005b12:	1e62                	slli	t3,t3,0x38
80005b14:	e796                	fsw	ft5,204(sp)
80005b16:	33d8                	fld	fa4,160(a5)
80005b18:	c4c2                	sw	a6,72(sp)
80005b1a:	0439                	addi	s0,s0,14 # fffee00e <__global_pointer$+0x7ffe64de>
80005b1c:	c9c9                	beqz	a1,80005bae <input_data+0x87e>
80005b1e:	1e00                	addi	s0,sp,816
80005b20:	a0ff 6485 586b 5f8b 	.insn	14, 0xc7ab486aadb05f8b586b6485a0ff
80005b28:	adb0 486a c7ab 
80005b2e:	95c44373          	.insn	4, 0x95c44373
80005b32:	2dc9                	jal	80006204 <input_data+0xed4>
80005b34:	c94a                	sw	s2,144(sp)
80005b36:	234c                	fld	fa1,128(a4)
80005b38:	d44c                	sw	a1,44(s0)
80005b3a:	66f8                	flw	fa4,76(a3)
80005b3c:	3893fc2f          	.insn	4, 0x3893fc2f
80005b40:	68f47697          	auipc	a3,0x68f47
80005b44:	9565                	srai	a0,a0,0x39
80005b46:	1d14                	addi	a3,sp,688
80005b48:	9910                	.insn	2, 0x9910
80005b4a:	804f603f 6a306076 	.insn	8, 0x6a306076804f603f
80005b52:	9a0723e7          	.insn	4, 0x9a0723e7
80005b56:	78e2                	flw	fa7,56(sp)
80005b58:	ba5a                	fsd	fs6,304(sp)
80005b5a:	0af2                	slli	s5,s5,0x1c
80005b5c:	cf00                	sw	s0,24(a4)
80005b5e:	5d0e                	lw	s10,224(sp)
80005b60:	3ac8d43b          	.insn	4, 0x3ac8d43b
80005b64:	8a1a                	mv	s4,t1
80005b66:	5aec                	lw	a1,116(a3)
80005b68:	3a49aebb          	.insn	4, 0x3a49aebb
80005b6c:	1980                	addi	s0,sp,240
80005b6e:	19c9                	addi	s3,s3,-14
80005b70:	5b13e84b          	fnmsub.d	fa6,ft7,fa7,fa1,unknown
80005b74:	06f5b7c3          	.insn	4, 0x06f5b7c3
80005b78:	0afe                	slli	s5,s5,0x1f
80005b7a:	3ae0                	fld	fs0,240(a3)
80005b7c:	4ec4                	lw	s1,28(a3)
80005b7e:	612c                	flw	fa1,64(a0)
80005b80:	415f 055e 9628      	.insn	6, 0x9628055e415f
80005b86:	06ce                	slli	a3,a3,0x13
80005b88:	0db8                	addi	a4,sp,728
80005b8a:	206c                	fld	fa1,192(s0)
80005b8c:	e815                	bnez	s0,80005bc0 <input_data+0x890>
80005b8e:	280932f7          	.insn	4, 0x280932f7
80005b92:	5552306b          	.insn	4, 0x5552306b
80005b96:	0a87054b          	fnmsub.d	fa0,fa4,fs0,ft1,rne
80005b9a:	4124                	lw	s1,64(a0)
80005b9c:	acb4                	fsd	fa3,88(s1)
80005b9e:	1220                	addi	s0,sp,296
80005ba0:	d140                	sw	s0,36(a0)
80005ba2:	59b4                	lw	a3,112(a1)
80005ba4:	1a2c                	addi	a1,sp,312
80005ba6:	3555                	jal	80005a4a <input_data+0x71a>
80005ba8:	6e3d0eeb          	.insn	4, 0x6e3d0eeb
80005bac:	beb6                	fsd	fa3,376(sp)
80005bae:	5fd0                	lw	a2,60(a5)
80005bb0:	7fc4                	flw	fs1,60(a5)
80005bb2:	3d8e                	fld	fs11,224(sp)
80005bb4:	1c2f74ab          	.insn	4, 0x1c2f74ab
80005bb8:	babe                	fsd	fa5,368(sp)
80005bba:	5ef8                	lw	a4,124(a3)
80005bbc:	3d4262f7          	.insn	4, 0x3d4262f7
80005bc0:	1229                	addi	tp,tp,-22 # ffffffea <__global_pointer$+0x7fff84ba>
80005bc2:	d6074007          	.insn	4, 0xd6074007
80005bc6:	e65262c3          	.insn	4, 0xe65262c3
80005bca:	5add                	li	s5,-9
80005bcc:	1621                	addi	a2,a2,-24
80005bce:	1712                	slli	a4,a4,0x24
80005bd0:	06622783          	lw	a5,102(tp) # 66 <_start-0x7fffff9a>
80005bd4:	e928                	fsw	fa0,80(a0)
80005bd6:	3dde                	fld	fs11,496(sp)
80005bd8:	5026                	.insn	2, 0x5026
80005bda:	a0ea2f97          	auipc	t6,0xa0ea2
80005bde:	a4ac589b          	.insn	4, 0xa4ac589b
80005be2:	6ff6                	flw	ft11,92(sp)
80005be4:	cf1d                	beqz	a4,80005c22 <input_data+0x8f2>
80005be6:	2c445ce7          	.insn	4, 0x2c445ce7
80005bea:	792d                	lui	s2,0xfffeb
80005bec:	fd61                	bnez	a0,80005bc4 <input_data+0x894>
80005bee:	163e                	slli	a2,a2,0x2f
80005bf0:	0434                	addi	a3,sp,520
80005bf2:	7f24                	flw	fs1,120(a4)
80005bf4:	61c6                	flw	ft3,80(sp)
80005bf6:	0f3a17d7          	.insn	4, 0x0f3a17d7
80005bfa:	4382                	lw	t2,0(sp)
80005bfc:	ff5d                	bnez	a4,80005bba <input_data+0x88a>
80005bfe:	7524                	flw	fs1,104(a0)
80005c00:	5c7c7ae7          	.insn	4, 0x5c7c7ae7
80005c04:	be92                	fsd	ft4,376(sp)
80005c06:	0035                	c.nop	13
80005c08:	37c94eb3          	.insn	4, 0x37c94eb3
80005c0c:	d215                	beqz	a2,80005b30 <input_data+0x800>
80005c0e:	7b68                	flw	fa0,116(a4)
80005c10:	9af5                	andi	a3,a3,-3
80005c12:	1dd8                	addi	a4,sp,756
80005c14:	7b61                	lui	s6,0xffff8
80005c16:	1fc6                	slli	t6,t6,0x31
80005c18:	91b1                	srli	a1,a1,0x2c
80005c1a:	3fb4                	fld	fa3,120(a5)
80005c1c:	7cce                	flw	fs9,240(sp)
80005c1e:	3b8a                	fld	fs7,160(sp)
80005c20:	5969bfbf 2e70078a 	.insn	8, 0x2e70078a5969bfbf
80005c28:	ea69                	bnez	a2,80005cfa <input_data+0x9ca>
80005c2a:	c0af03f7          	.insn	4, 0xc0af03f7
80005c2e:	42df 2c45 2cab      	.insn	6, 0x2cab2c4542df
80005c34:	daf9                	beqz	a3,80005c0a <input_data+0x8da>
80005c36:	1df0                	addi	a2,sp,764
80005c38:	201f73bb          	.insn	4, 0x201f73bb
80005c3c:	c1b1                	beqz	a1,80005c80 <input_data+0x950>
80005c3e:	66270f7b          	.insn	4, 0x66270f7b
80005c42:	2ce6                	fld	fs9,88(sp)
80005c44:	3571                	jal	80005ad0 <input_data+0x7a0>
80005c46:	053d                	addi	a0,a0,15
80005c48:	0c4c                	addi	a1,sp,532
80005c4a:	0cb12027          	fsw	fa1,192(sp)
80005c4e:	f75463db          	.insn	4, 0xf75463db
80005c52:	497d                	li	s2,31
80005c54:	4ff0                	lw	a2,92(a5)
80005c56:	190a                	slli	s2,s2,0x22
80005c58:	6941                	lui	s2,0x10
80005c5a:	6474                	flw	fa3,76(s0)
80005c5c:	14a8aca7          	fsw	fa0,345(a7) # ffff7159 <__global_pointer$+0x7ffef629>
80005c60:	5ffa6057          	.insn	4, 0x5ffa6057
80005c64:	0230                	addi	a2,sp,264
80005c66:	5f38                	lw	a4,120(a4)
80005c68:	405d5a9b          	.insn	4, 0x405d5a9b
80005c6c:	20f1                	jal	80005d38 <input_data+0xa08>
80005c6e:	384a                	fld	fa6,176(sp)
80005c70:	a53a                	fsd	fa4,136(sp)
80005c72:	fe496987          	.insn	4, 0xfe496987
80005c76:	bb2a2d97          	auipc	s11,0xbb2a2
80005c7a:	26c969e7          	.insn	4, 0x26c969e7
80005c7e:	7f1633ab          	.insn	4, 0x7f1633ab
80005c82:	15ce                	slli	a1,a1,0x33
80005c84:	e474                	fsw	fa3,76(s0)
80005c86:	1221                	addi	tp,tp,-24 # ffffffe8 <__global_pointer$+0x7fff84b8>
80005c88:	2630                	fld	fa2,72(a2)
80005c8a:	148e                	slli	s1,s1,0x23
80005c8c:	67d5                	lui	a5,0x15
80005c8e:	511f dc38 567a      	.insn	6, 0x567adc38511f
80005c94:	90ea                	add	ra,ra,s10
80005c96:	2515                	jal	800062ba <input_data+0xf8a>
80005c98:	042c2c93          	slti	s9,s8,66
80005c9c:	3fdd                	jal	80005c92 <input_data+0x962>
80005c9e:	f8f2643f 25ea19f1 	.insn	8, 0x25ea19f1f8f2643f
80005ca6:	2901                	jal	800060b6 <input_data+0xd86>
80005ca8:	63be                	flw	ft7,204(sp)
80005caa:	1266                	slli	tp,tp,0x39
80005cac:	eb98                	fsw	fa4,16(a5)
80005cae:	5185                	li	gp,-31
80005cb0:	6d54fafb          	.insn	4, 0x6d54fafb
80005cb4:	73da                	flw	ft7,180(sp)
80005cb6:	0f36                	slli	t5,t5,0xd
80005cb8:	4814                	lw	a3,16(s0)
80005cba:	0b8e                	slli	s7,s7,0x3
80005cbc:	929f 6d4a 9983      	.insn	6, 0x99836d4a929f
80005cc2:	3291                	jal	80005606 <input_data+0x2d6>
80005cc4:	8185                	srli	a1,a1,0x1
80005cc6:	8d110913          	addi	s2,sp,-1839
80005cca:	be830dc7          	.insn	4, 0xbe830dc7
80005cce:	6892                	flw	fa7,4(sp)
80005cd0:	6d90fbd7          	.insn	4, 0x6d90fbd7
80005cd4:	31bc1683          	lh	a3,795(s8) # fffff31b <__global_pointer$+0x7fff77eb>
80005cd8:	1500                	addi	s0,sp,672
80005cda:	0db4                	addi	a3,sp,728
80005cdc:	f0f9                	bnez	s1,80005ca2 <input_data+0x972>
80005cde:	98ae7a53          	.insn	4, 0x98ae7a53
80005ce2:	142d                	addi	s0,s0,-21
80005ce4:	49b6                	lw	s3,76(sp)
80005ce6:	049e                	slli	s1,s1,0x7
80005ce8:	00c56a53          	fadd.s	fs4,fa0,fa2,unknown
80005cec:	2b34                	fld	fa3,80(a4)
80005cee:	800e0223          	sb	zero,-2044(t3)
80005cf2:	35f0621b          	.insn	4, 0x35f0621b
80005cf6:	597a                	lw	s2,188(sp)
80005cf8:	34a2                	fld	fs1,40(sp)
80005cfa:	1a26                	slli	s4,s4,0x29
80005cfc:	592c584b          	fnmsub.s	fa6,fs8,fs2,fa1,unknown
80005d00:	19de                	slli	s3,s3,0x37
80005d02:	16b218fb          	.insn	4, 0x16b218fb
80005d06:	56c5                	li	a3,-15
80005d08:	c342                	sw	a6,132(sp)
80005d0a:	acda499b          	.insn	4, 0xacda499b
80005d0e:	4cb8                	lw	a4,88(s1)
80005d10:	0309                	addi	t1,t1,2 # 17002 <_start-0x7ffe8ffe>
80005d12:	1c05                	addi	s8,s8,-31
80005d14:	71422f0f          	.insn	4, 0x71422f0f
80005d18:	6781                	.insn	2, 0x6781
80005d1a:	2da44367          	.insn	4, 0x2da44367
80005d1e:	69aa                	flw	fs3,136(sp)
80005d20:	16be534b          	.insn	4, 0x16be534b
80005d24:	5faffcaf          	.insn	4, 0x5faffcaf
80005d28:	f87d                	bnez	s0,80005d1e <input_data+0x9ee>
80005d2a:	1eb0                	addi	a2,sp,888
80005d2c:	af76                	fsd	ft9,408(sp)
80005d2e:	359a3b43          	.insn	4, 0x359a3b43
80005d32:	58f0598f          	.insn	4, 0x58f0598f
80005d36:	418e                	lw	gp,192(sp)
80005d38:	7a9e                	flw	fs5,228(sp)
80005d3a:	60ff c207 4477 5d34 	.insn	22, 0x36ee181a065a84b7386a4a275a8a5d344477c20760ff
80005d42:	5a8a 4a27 386a 84b7 
80005d4a:	065a 181a 36ee 
80005d50:	8142                	mv	sp,a6
80005d52:	0ad2                	slli	s5,s5,0x14
80005d54:	6704                	flw	fs1,8(a4)
80005d56:	5de6                	lw	s11,120(sp)
80005d58:	667e9cb3          	.insn	4, 0x667e9cb3
80005d5c:	5d161ea7          	.insn	4, 0x5d161ea7
80005d60:	a925                	j	80006198 <input_data+0xe68>
80005d62:	ce147273          	csrrci	tp,0xce1,8
80005d66:	5a02                	lw	s4,32(sp)
80005d68:	65ff 41b8 952d 4616 	.insn	22, 0x192a3f1e1b750b15d3602fd8b3664616952d41b865ff
80005d70:	b366 2fd8 d360 0b15 
80005d78:	1b75 3f1e 192a 
80005d7e:	6655                	lui	a2,0x15
80005d80:	2134                	fld	fa3,64(a0)
80005d82:	01e2                	slli	gp,gp,0x18
80005d84:	a632                	fsd	fa2,264(sp)
80005d86:	1b96                	slli	s7,s7,0x25
80005d88:	6eff 4f9c b6a6 02cd 	.insn	22, 0xafe90d4388d1536d50f60aa9d09902cdb6a64f9c6eff
80005d90:	d099 0aa9 50f6 536d 
80005d98:	88d1 0d43 afe9 
80005d9e:	07a1                	addi	a5,a5,8 # 15008 <_start-0x7ffeaff8>
80005da0:	ef3e                	fsw	fa5,156(sp)
80005da2:	953f65cf          	.insn	4, 0x953f65cf
80005da6:	803b370f          	.insn	4, 0x803b370f
80005daa:	7612                	flw	fa2,36(sp)
80005dac:	ce4c                	sw	a1,28(a2)
80005dae:	5445                	li	s0,-15
80005db0:	52680fd7          	.insn	4, 0x52680fd7
80005db4:	45e2                	lw	a1,24(sp)
80005db6:	0c68                	addi	a0,sp,540
80005db8:	482e                	lw	a6,200(sp)
80005dba:	ae2c70cb          	.insn	4, 0xae2c70cb
80005dbe:	ec2c7cab          	.insn	4, 0xec2c7cab
80005dc2:	6ae1                	lui	s5,0x18
80005dc4:	e13c                	fsw	fa5,64(a0)
80005dc6:	547e                	lw	s0,252(sp)
80005dc8:	a950                	fsd	fa2,144(a0)
80005dca:	1ebe                	slli	t4,t4,0x2f
80005dcc:	7bc697fb          	.insn	4, 0x7bc697fb
80005dd0:	fdc5                	bnez	a1,80005d88 <input_data+0xa58>
80005dd2:	4d993b37          	lui	s6,0x4d993
80005dd6:	83b2432f          	.insn	4, 0x83b2432f
80005dda:	0e9f 9873 0803      	.insn	6, 0x080398730e9f
80005de0:	b732                	fsd	fa2,424(sp)
80005de2:	47e6                	lw	a5,88(sp)
80005de4:	b9ad                	j	80005a5e <input_data+0x72e>
80005de6:	501d                	c.li	zero,-25
80005de8:	3234                	fld	fa3,96(a2)
80005dea:	43e6                	lw	t2,88(sp)
80005dec:	a9e2                	fsd	fs8,208(sp)
80005dee:	26d5                	jal	800061d2 <input_data+0xea2>
80005df0:	c7f5                	beqz	a5,80005edc <input_data+0xbac>
80005df2:	0151                	addi	sp,sp,20
80005df4:	c33a                	sw	a4,132(sp)
80005df6:	5b90                	lw	a2,48(a5)
80005df8:	8976                	mv	s2,t4
80005dfa:	7fc0                	flw	fs0,60(a5)
80005dfc:	e0a8                	fsw	fa0,64(s1)
80005dfe:	3471                	jal	8000588a <input_data+0x55a>
80005e00:	73e9750b          	.insn	4, 0x73e9750b
80005e04:	25d6                	fld	fa1,336(sp)
80005e06:	071c                	addi	a5,sp,896
80005e08:	8c7a                	mv	s8,t5
80005e0a:	3198                	fld	fa4,32(a1)
80005e0c:	acbd                	j	8000608a <input_data+0xd5a>
80005e0e:	5d64                	lw	s1,124(a0)
80005e10:	b01d                	j	80005636 <input_data+0x306>
80005e12:	3438                	fld	fa4,104(s0)
80005e14:	53c2                	lw	t2,48(sp)
80005e16:	2728                	fld	fa0,72(a4)
80005e18:	90d4                	.insn	2, 0x90d4
80005e1a:	626c0d83          	lb	s11,1574(s8)
80005e1e:	37e8                	fld	fa0,232(a5)
80005e20:	3740                	fld	fs0,168(a4)
80005e22:	47a5                	li	a5,9
80005e24:	73877afb          	.insn	4, 0x73877afb
80005e28:	2c8c                	fld	fa1,24(s1)
80005e2a:	780d                	lui	a6,0xfffe3
80005e2c:	5c1f 4bf6 a764      	.insn	6, 0xa7644bf65c1f
80005e32:	41b5                	li	gp,13
80005e34:	9850                	.insn	2, 0x9850
80005e36:	588e                	lw	a7,224(sp)
80005e38:	e798                	fsw	fa4,8(a5)
80005e3a:	346c                	fld	fa1,232(s0)
80005e3c:	660f2753          	.insn	4, 0x660f2753
80005e40:	0b60                	addi	s0,sp,412
80005e42:	26c6                	fld	fa3,80(sp)
80005e44:	5aa8                	lw	a0,112(a3)
80005e46:	3fb1                	jal	80005da2 <input_data+0xa72>
80005e48:	4af1                	li	s5,28
80005e4a:	4eab19eb          	.insn	4, 0x4eab19eb
80005e4e:	119716cb          	fnmsub.s	fa3,fa4,fs9,ft2,rtz
80005e52:	36d2                	fld	fa3,304(sp)
80005e54:	b865                	j	8000570c <input_data+0x3dc>
80005e56:	7889                	lui	a7,0xfffe2
80005e58:	4eaa874f          	.insn	4, 0x4eaa874f
80005e5c:	731f 7f8d b247      	.insn	6, 0xb2477f8d731f
80005e62:	2e04                	fld	fs1,24(a2)
80005e64:	38e6                	fld	fa7,120(sp)
80005e66:	3da0                	fld	fs0,120(a1)
80005e68:	8d86                	mv	s11,ra
80005e6a:	42d0                	lw	a2,4(a3)
80005e6c:	8655                	srai	a2,a2,0x15
80005e6e:	b06e1447          	fmsub.s	fs0,ft8,ft6,fs6,rtz
80005e72:	142657af          	.insn	4, 0x142657af
80005e76:	6958                	flw	fa4,20(a0)
80005e78:	127d                	addi	tp,tp,-1 # ffffffff <__global_pointer$+0x7fff84cf>
80005e7a:	02d4                	addi	a3,sp,324
80005e7c:	1808                	addi	a0,sp,48
80005e7e:	4e50                	lw	a2,28(a2)
80005e80:	ff59                	bnez	a4,80005e1e <input_data+0xaee>
80005e82:	17c9                	addi	a5,a5,-14
80005e84:	6a81                	.insn	2, 0x6a81
80005e86:	5732                	lw	a4,44(sp)
80005e88:	280b98c7          	fmsub.s	fa7,fs7,ft0,ft5,rtz
80005e8c:	c8a5                	beqz	s1,80005efc <input_data+0xbcc>
80005e8e:	01e1                	addi	gp,gp,24 # 80007b48 <__global_pointer$+0x18>
80005e90:	b6ca                	fsd	fs2,360(sp)
80005e92:	0dba                	slli	s11,s11,0xe
80005e94:	f698                	fsw	fa4,40(a3)
80005e96:	0e4d                	addi	t3,t3,19
80005e98:	39df 2335 12f4      	.insn	6, 0x12f4233539df
80005e9e:	662e                	flw	fa2,200(sp)
80005ea0:	dfc5                	beqz	a5,80005e58 <input_data+0xb28>
80005ea2:	31a6                	fld	ft3,104(sp)
80005ea4:	bb4a                	fsd	fs2,432(sp)
80005ea6:	17bc                	addi	a5,sp,1000
80005ea8:	8905                	andi	a0,a0,1
80005eaa:	1f1f bef4 000d      	.insn	6, 0x000dbef41f1f
80005eb0:	3e5303f7          	.insn	4, 0x3e5303f7
80005eb4:	4fe1                	li	t6,24
80005eb6:	5c1f 89af 0d87      	.insn	6, 0x0d8789af5c1f
80005ebc:	6fc0                	flw	fs0,28(a5)
80005ebe:	0c6c                	addi	a1,sp,540
80005ec0:	09c4                	addi	s1,sp,212
80005ec2:	598e                	lw	s3,224(sp)
80005ec4:	8c4e                	mv	s8,s3
80005ec6:	600d                	c.lui	zero,0x3
80005ec8:	53ad                	li	t2,-21
80005eca:	7345                	lui	t1,0xffff1
80005ecc:	5eb1deab          	.insn	4, 0x5eb1deab
80005ed0:	62a986eb          	.insn	4, 0x62a986eb
80005ed4:	778c                	flw	fa1,40(a5)
80005ed6:	684e                	flw	fa6,208(sp)
80005ed8:	9ede                	add	t4,t4,s7
80005eda:	52a0                	lw	s0,96(a3)
80005edc:	7574                	flw	fa3,108(a0)
80005ede:	37c2                	fld	fa5,48(sp)
80005ee0:	53d9                	li	t2,-10
80005ee2:	0a5c                	addi	a5,sp,276
80005ee4:	7a22                	flw	fs4,40(sp)
80005ee6:	29dd                	jal	800063dc <input_data+0x10ac>
80005ee8:	108a                	slli	ra,ra,0x22
80005eea:	14c0                	addi	s0,sp,612
80005eec:	04da198b          	.insn	4, 0x04da198b
80005ef0:	342ec987          	.insn	4, 0x342ec987
80005ef4:	f6c6                	fsw	fa7,108(sp)
80005ef6:	0458                	addi	a4,sp,516
80005ef8:	c459                	beqz	s0,80005f86 <input_data+0xc56>
80005efa:	7939                	lui	s2,0xfffee
80005efc:	1a90                	addi	a2,sp,368
80005efe:	4d9f b410 03dc      	.insn	6, 0x03dcb4104d9f
80005f04:	8b1a                	mv	s6,t1
80005f06:	77d6                	flw	fa5,116(sp)
80005f08:	2af9                	jal	800060e6 <input_data+0xdb6>
80005f0a:	6279                	lui	tp,0x1e
80005f0c:	55e0                	lw	s0,108(a1)
80005f0e:	0378                	addi	a4,sp,396
80005f10:	a3d2                	fsd	fs4,448(sp)
80005f12:	5a9a6f8f          	.insn	4, 0x5a9a6f8f
80005f16:	f8480b5b          	.insn	4, 0xf8480b5b
80005f1a:	0e95                	addi	t4,t4,5 # ffffb005 <__global_pointer$+0x7fff34d5>
80005f1c:	c145                	beqz	a0,80005fbc <input_data+0xc8c>
80005f1e:	3890                	fld	fa2,48(s1)
80005f20:	e741                	bnez	a4,80005fa8 <input_data+0xc78>
80005f22:	1314                	addi	a3,sp,416
80005f24:	e58d                	bnez	a1,80005f4e <input_data+0xc1e>
80005f26:	2b7a                	fld	fs6,408(sp)
80005f28:	7b38                	flw	fa4,112(a4)
80005f2a:	07f9                	addi	a5,a5,30
80005f2c:	aecc                	fsd	fa1,152(a3)
80005f2e:	17442c23          	sw	s4,376(s0)
80005f32:	12dd                	addi	t0,t0,-9 # f897ff7 <_start-0x70768009>
80005f34:	0e38                	addi	a4,sp,792
80005f36:	4705                	li	a4,1
80005f38:	6b6b5947          	fmsub.d	fs2,fs6,fs6,fa3,unknown
80005f3c:	3bb4                	fld	fa3,112(a5)
80005f3e:	2ed0                	fld	fa2,152(a3)
80005f40:	6c47c04b          	.insn	4, 0x6c47c04b
80005f44:	0e12                	slli	t3,t3,0x4
80005f46:	7a54                	flw	fa3,52(a2)
80005f48:	3774479b          	.insn	4, 0x3774479b
80005f4c:	7c82                	flw	fs9,32(sp)
80005f4e:	51f651e7          	.insn	4, 0x51f651e7
80005f52:	121c                	addi	a5,sp,288
80005f54:	3d32                	fld	fs10,296(sp)
80005f56:	32d5                	jal	8000593a <input_data+0x60a>
80005f58:	fbb4                	fsw	fa3,112(a5)
80005f5a:	1b14                	addi	a3,sp,432
80005f5c:	1831                	addi	a6,a6,-20 # fffe2fec <__global_pointer$+0x7ffdb4bc>
80005f5e:	7f10                	flw	fa2,56(a4)
80005f60:	1f5a                	slli	t5,t5,0x36
80005f62:	68ba                	flw	fa7,140(sp)
80005f64:	adc6                	fsd	fa7,216(sp)
80005f66:	2dd11ff3          	csrrw	t6,0x2dd,sp
80005f6a:	6939                	lui	s2,0xe
80005f6c:	2488                	fld	fa0,8(s1)
80005f6e:	d9f32b53          	.insn	4, 0xd9f32b53
80005f72:	bdbc481b          	.insn	4, 0xbdbc481b
80005f76:	6ab9                	lui	s5,0xe
80005f78:	26e2                	fld	fa3,24(sp)
80005f7a:	2eb2                	fld	ft9,264(sp)
80005f7c:	7cd13583          	.insn	4, 0x7cd13583
80005f80:	9124                	.insn	2, 0x9124
80005f82:	e0844ee7          	.insn	4, 0xe0844ee7
80005f86:	326e                	fld	ft4,248(sp)
80005f88:	f425                	bnez	s0,80005ef0 <input_data+0xbc0>
80005f8a:	3f81                	jal	80005eda <input_data+0xbaa>
80005f8c:	221bb1f3          	csrrc	gp,0x221,s7
80005f90:	680ae06b          	.insn	4, 0x680ae06b
80005f94:	02ec                	addi	a1,sp,332
80005f96:	3c49                	jal	80005a28 <input_data+0x6f8>
80005f98:	fa5f 7577 9f22      	.insn	6, 0x9f227577fa5f
80005f9e:	2c9d                	jal	80006214 <input_data+0xee4>
80005fa0:	14739627          	.insn	4, 0x14739627
80005fa4:	0b2a                	slli	s6,s6,0xa
80005fa6:	2b1d                	jal	800064dc <input_data+0x11ac>
80005fa8:	42b9                	li	t0,14
80005faa:	3731                	jal	80005eb6 <input_data+0xb86>
80005fac:	35ae                	fld	fa1,232(sp)
80005fae:	35c0                	fld	fs0,168(a1)
80005fb0:	bcfc                	fsd	fa5,248(s1)
80005fb2:	16f966ef          	jal	a3,8009c920 <__global_pointer$+0x94df0>
80005fb6:	1ff0                	addi	a2,sp,1020
80005fb8:	7b35                	lui	s6,0xfffed
80005fba:	171a                	slli	a4,a4,0x26
80005fbc:	1baab177          	.insn	4, 0x1baab177
80005fc0:	91ea                	add	gp,gp,s10
80005fc2:	45c4                	lw	s1,12(a1)
80005fc4:	39da                	fld	fs3,432(sp)
80005fc6:	44cb4583          	lbu	a1,1100(s6) # fffed44c <__global_pointer$+0x7ffe591c>
80005fca:	eeb26bb7          	lui	s7,0xeeb26
80005fce:	73c1                	lui	t2,0xffff0
80005fd0:	3aba90eb          	.insn	4, 0x3aba90eb
80005fd4:	518d9d7b          	.insn	4, 0x518d9d7b
80005fd8:	0924                	addi	s1,sp,152
80005fda:	64d2                	flw	fs1,20(sp)
80005fdc:	861e                	mv	a2,t2
80005fde:	62415d83          	lhu	s11,1572(sp)
80005fe2:	6fd5                	lui	t6,0x15
80005fe4:	0635                	addi	a2,a2,13 # 1500d <_start-0x7ffeaff3>
80005fe6:	4a75                	li	s4,29
80005fe8:	31f2                	fld	ft3,312(sp)
80005fea:	65f1                	lui	a1,0x1c
80005fec:	69213a4f          	fnmadd.s	fs4,ft2,fs2,fa3,rup
80005ff0:	1266                	slli	tp,tp,0x39
80005ff2:	6751                	lui	a4,0x14
80005ff4:	ddb0                	sw	a2,120(a1)
80005ff6:	5612                	lw	a2,36(sp)
80005ff8:	3bea                	fld	fs7,184(sp)
80005ffa:	6122                	flw	ft2,8(sp)
80005ffc:	a826                	fsd	fs1,16(sp)
80005ffe:	7d7c                	flw	fa5,124(a0)
80006000:	0d6a9e8b          	.insn	4, 0x0d6a9e8b
80006004:	05a2                	slli	a1,a1,0x8
80006006:	3594                	fld	fa3,40(a1)
80006008:	bf5f 3378 4c62      	.insn	6, 0x4c623378bf5f
8000600e:	55f0                	lw	a2,108(a1)
80006010:	7fc9                	lui	t6,0xffff2
80006012:	2090                	fld	fa2,0(s1)
80006014:	d4b4                	sw	a3,104(s1)
80006016:	287c75e3          	bgeu	s8,t2,80006aa0 <input_data+0x1770>
8000601a:	104f7e27          	.insn	4, 0x104f7e27
8000601e:	48d2                	lw	a7,20(sp)
80006020:	7eec                	flw	fa1,124(a3)
80006022:	1178                	addi	a4,sp,172
80006024:	bf85                	j	80005f94 <input_data+0xc64>
80006026:	5f76                	lw	t5,124(sp)
80006028:	791e                	flw	fs2,228(sp)
8000602a:	5d78                	lw	a4,124(a0)
8000602c:	af9c                	fsd	fa5,24(a5)
8000602e:	54ec                	lw	a1,108(s1)
80006030:	bad6                	fsd	fs5,368(sp)
80006032:	4ae2                	lw	s5,24(sp)
80006034:	4fc8                	lw	a0,28(a5)
80006036:	0e4c11cf          	.insn	4, 0x0e4c11cf
8000603a:	65ce                	flw	fa1,208(sp)
8000603c:	3170694b          	fnmsub.s	fs2,ft0,fs7,ft6,unknown
80006040:	6b95                	lui	s7,0x5
80006042:	3526                	fld	fa0,104(sp)
80006044:	76e02b87          	flw	fs7,1902(zero) # 76e <_start-0x7ffff892>
80006048:	0354                	addi	a3,sp,388
8000604a:	43ba                	lw	t2,140(sp)
8000604c:	8dc1                	or	a1,a1,s0
8000604e:	1630                	addi	a2,sp,808
80006050:	8bfd                	andi	a5,a5,31
80006052:	0e8b5aa3          	.insn	4, 0x0e8b5aa3
80006056:	3a98                	fld	fa4,48(a3)
80006058:	46fe6c83          	.insn	4, 0x46fe6c83
8000605c:	9bfd                	andi	a5,a5,-1
8000605e:	288a                	fld	fa7,128(sp)
80006060:	3401                	jal	80005a60 <input_data+0x730>
80006062:	307d                	jal	80005910 <input_data+0x5e0>
80006064:	b7d5                	j	80006048 <input_data+0xd18>
80006066:	1790                	addi	a2,sp,992
80006068:	4380                	lw	s0,0(a5)
8000606a:	bfe56243          	.insn	4, 0xbfe56243
8000606e:	3d2c                	fld	fa1,120(a0)
80006070:	0d94                	addi	a3,sp,720
80006072:	ed447d33          	.insn	4, 0xed447d33
80006076:	7f461927          	.insn	4, 0x7f461927
8000607a:	1e58                	addi	a4,sp,820
8000607c:	a3bc                	fsd	fa5,64(a5)
8000607e:	333c                	fld	fa5,96(a4)
80006080:	ee36                	fsw	fa3,28(sp)
80006082:	796c                	flw	fa1,116(a0)
80006084:	d758                	sw	a4,44(a4)
80006086:	3559                	jal	80005f0c <input_data+0xbdc>
80006088:	71bc                	flw	fa5,96(a1)
8000608a:	a6b01d77          	.insn	4, 0xa6b01d77
8000608e:	673c                	flw	fa5,72(a4)
80006090:	3f1e                	fld	ft10,480(sp)
80006092:	1532                	slli	a0,a0,0x2c
80006094:	1715                	addi	a4,a4,-27 # 13fe5 <_start-0x7ffec01b>
80006096:	7fa6                	flw	ft11,104(sp)
80006098:	24f2                	fld	fs1,280(sp)
8000609a:	40ce                	lw	ra,208(sp)
8000609c:	aa91                	j	800061f0 <input_data+0xec0>
8000609e:	229c                	fld	fa5,0(a3)
800060a0:	0d777e03          	.insn	4, 0x0d777e03
800060a4:	1801                	addi	a6,a6,-32
800060a6:	5e3d                	li	t3,-17
800060a8:	11fa                	slli	gp,gp,0x3e
800060aa:	5a51                	li	s4,-12
800060ac:	5944ca9b          	.insn	4, 0x5944ca9b
800060b0:	c086                	sw	ra,64(sp)
800060b2:	6606                	flw	fa2,64(sp)
800060b4:	4048                	lw	a0,4(s0)
800060b6:	69c9                	lui	s3,0x12
800060b8:	2b61                	jal	80006650 <input_data+0x1320>
800060ba:	6d7411fb          	.insn	4, 0x6d7411fb
800060be:	c43f43bb          	.insn	4, 0xc43f43bb
800060c2:	26ec                	fld	fa1,200(a3)
800060c4:	c100                	sw	s0,0(a0)
800060c6:	067f d548 65e9 4431 	.insn	10, 0x4fed443165e9d548067f
800060ce:	4fed 
800060d0:	b562                	fsd	fs8,168(sp)
800060d2:	5162                	lw	sp,56(sp)
800060d4:	e886                	fsw	ft1,80(sp)
800060d6:	44de                	lw	s1,212(sp)
800060d8:	0524                	addi	s1,sp,648
800060da:	47c2                	lw	a5,16(sp)
800060dc:	e892                	fsw	ft4,80(sp)
800060de:	0b34                	addi	a3,sp,408
800060e0:	760e                	flw	fa2,224(sp)
800060e2:	0f45                	addi	t5,t5,17 # a011 <_start-0x7fff5fef>
800060e4:	25bbf907          	.insn	4, 0x25bbf907
800060e8:	0125630f          	.insn	4, 0x0125630f
800060ec:	ec4e                	fsw	fs3,24(sp)
800060ee:	6f28                	flw	fa0,88(a4)
800060f0:	d032                	sw	a2,32(sp)
800060f2:	442d                	li	s0,11
800060f4:	0e20a51b          	.insn	4, 0x0e20a51b
800060f8:	e6c8                	fsw	fa0,12(a3)
800060fa:	6851                	lui	a6,0x14
800060fc:	4b8a                	lw	s7,128(sp)
800060fe:	3312                	fld	ft6,288(sp)
80006100:	9c1c                	.insn	2, 0x9c1c
80006102:	04c9                	addi	s1,s1,18 # f012 <_start-0x7fff0fee>
80006104:	6418748b          	.insn	4, 0x6418748b
80006108:	0a4e                	slli	s4,s4,0x13
8000610a:	4af4                	lw	a3,84(a3)
8000610c:	52da5463          	bge	s4,a3,80006634 <input_data+0x1304>
80006110:	859f 5ecc 7333      	.insn	6, 0x73335ecc859f
80006116:	3010                	fld	fa2,32(s0)
80006118:	4c14                	lw	a3,24(s0)
8000611a:	35aa4f5b          	.insn	4, 0x35aa4f5b
8000611e:	78de                	flw	fa7,244(sp)
80006120:	b9e0                	fsd	fs0,240(a1)
80006122:	ac02624f          	.insn	4, 0xac02624f
80006126:	5ae172ef          	jal	t0,8001d6d4 <__global_pointer$+0x15ba4>
8000612a:	3d42                	fld	fs10,48(sp)
8000612c:	4b8786af          	.insn	4, 0x4b8786af
80006130:	076267bf 05b51220 	.insn	8, 0x05b51220076267bf
80006138:	e546                	fsw	fa7,136(sp)
8000613a:	3a367ad7          	.insn	4, 0x3a367ad7
8000613e:	24ec                	fld	fa1,200(s1)
80006140:	9cdc                	.insn	2, 0x9cdc
80006142:	6481                	.insn	2, 0x6481
80006144:	9a26                	add	s4,s4,s1
80006146:	a6bd6c4f          	.insn	4, 0xa6bd6c4f
8000614a:	7e4a                	flw	ft8,176(sp)
8000614c:	5f2d8e87          	.insn	4, 0x5f2d8e87
80006150:	a94d                	j	80006602 <input_data+0x12d2>
80006152:	6b4c                	flw	fa1,20(a4)
80006154:	6591                	lui	a1,0x4
80006156:	ec5c0caf          	.insn	4, 0xec5c0caf
8000615a:	276a                	fld	fa4,152(sp)
8000615c:	aca1                	j	800063b4 <input_data+0x1084>
8000615e:	42f4                	lw	a3,68(a3)
80006160:	08b3d3db          	.insn	4, 0x08b3d3db
80006164:	0231                	addi	tp,tp,12 # 1e00c <_start-0x7ffe1ff4>
80006166:	6b3238db          	.insn	4, 0x6b3238db
8000616a:	699d                	lui	s3,0x7
8000616c:	c88e                	sw	gp,80(sp)
8000616e:	3764                	fld	fs1,232(a4)
80006170:	c8f2                	sw	t3,80(sp)
80006172:	7fb1                	lui	t6,0xfffec
80006174:	1541dfdb          	.insn	4, 0x1541dfdb
80006178:	e246                	fsw	fa7,4(sp)
8000617a:	5ffe                	lw	t6,252(sp)
8000617c:	b4d1                	j	80005c40 <input_data+0x910>
8000617e:	7745                	lui	a4,0xffff1
80006180:	15fcce2f          	.insn	4, 0x15fcce2f
80006184:	3e1f 03b5 a229      	.insn	6, 0xa22903b53e1f
8000618a:	69d5                	lui	s3,0x15
8000618c:	fafd                	bnez	a3,80006182 <input_data+0xe52>
8000618e:	3b26                	fld	fs6,104(sp)
80006190:	6481                	.insn	2, 0x6481
80006192:	f4324fa3          	.insn	4, 0xf4324fa3
80006196:	2982                	fld	fs3,0(sp)
80006198:	b436                	fsd	fa3,40(sp)
8000619a:	13e5                	addi	t2,t2,-7 # fffefff9 <__global_pointer$+0x7ffe84c9>
8000619c:	ab60                	fsd	fs0,208(a4)
8000619e:	22ea                	fld	ft5,152(sp)
800061a0:	a2f9                	j	8000636e <input_data+0x103e>
800061a2:	69d8                	flw	fa4,20(a1)
800061a4:	94ee                	add	s1,s1,s11
800061a6:	3041                	jal	80005a26 <input_data+0x6f6>
800061a8:	058dfb67          	.insn	4, 0x058dfb67
800061ac:	35dc                	fld	fa5,168(a1)
800061ae:	2ba8                	fld	fa0,80(a5)
800061b0:	3434                	fld	fa3,104(s0)
800061b2:	90f058ef          	jal	a7,7ff0bac0 <_start-0xf4540>
800061b6:	48d27313          	andi	t1,tp,1165
800061ba:	0a60                	addi	s0,sp,284
800061bc:	bdd6                	fsd	fs5,248(sp)
800061be:	144a                	slli	s0,s0,0x32
800061c0:	8062                	c.mv	zero,s8
800061c2:	1e46                	slli	t3,t3,0x31
800061c4:	18e0                	addi	s0,sp,124
800061c6:	159f fdc5 5fcb      	.insn	6, 0x5fcbfdc5159f
800061cc:	7b46                	flw	fs6,112(sp)
800061ce:	2df238d3          	.insn	4, 0x2df238d3
800061d2:	5f5c                	lw	a5,60(a4)
800061d4:	a1ce                	fsd	fs3,192(sp)
800061d6:	18d2                	slli	a7,a7,0x34
800061d8:	757d                	lui	a0,0xfffff
800061da:	2212                	fld	ft4,256(sp)
800061dc:	50dfdaef          	jal	s5,80103ee8 <__global_pointer$+0xfc3b8>
800061e0:	c2dc                	sw	a5,4(a3)
800061e2:	0fec                	addi	a1,sp,988
800061e4:	0db6                	slli	s11,s11,0xd
800061e6:	77ea                	flw	fa5,184(sp)
800061e8:	5db6107f 231c2fa9 	.insn	12, 0x78b0d08a231c2fa95db6107f
800061f0:	78b0d08a 
800061f4:	9a25                	andi	a2,a2,-23
800061f6:	6426                	flw	fs0,72(sp)
800061f8:	5b94                	lw	a3,48(a5)
800061fa:	3688                	fld	fa0,40(a3)
800061fc:	e6da                	fsw	fs6,76(sp)
800061fe:	17c6                	slli	a5,a5,0x31
80006200:	b464                	fsd	fs1,232(s0)
80006202:	2f70                	fld	fa2,216(a4)
80006204:	d6f6                	sw	t4,108(sp)
80006206:	6c644f6b          	.insn	4, 0x6c644f6b
8000620a:	2909                	jal	8000661c <input_data+0x12ec>
8000620c:	25755203          	lhu	tp,599(a0) # fffff257 <__global_pointer$+0x7fff7727>
80006210:	227f96f7          	.insn	4, 0x227f96f7
80006214:	0736                	slli	a4,a4,0xd
80006216:	7796                	flw	fa5,100(sp)
80006218:	2dac                	fld	fa1,88(a1)
8000621a:	4592                	lw	a1,4(sp)
8000621c:	140a3777          	.insn	4, 0x140a3777
80006220:	f3c1                	bnez	a5,800061a0 <input_data+0xe70>
80006222:	61ce                	flw	ft3,208(sp)
80006224:	6e26                	flw	ft8,72(sp)
80006226:	6a02                	flw	fs4,0(sp)
80006228:	f51e                	fsw	ft7,168(sp)
8000622a:	6064                	flw	fs1,68(s0)
8000622c:	7c26                	flw	fs8,104(sp)
8000622e:	0b5f 939b 7556      	.insn	6, 0x7556939b0b5f
80006234:	2a5f 7e88 5cd7      	.insn	6, 0x5cd77e882a5f
8000623a:	589601db          	.insn	4, 0x589601db
8000623e:	83c450a7          	.insn	4, 0x83c450a7
80006242:	0021                	c.nop	8
80006244:	5328610f          	.insn	4, 0x5328610f
80006248:	fa75                	bnez	a2,8000623c <input_data+0xf0c>
8000624a:	741d                	lui	s0,0xfffe7
8000624c:	aaf4                	fsd	fa3,208(a3)
8000624e:	041e                	slli	s0,s0,0x7
80006250:	3385                	jal	80005fb0 <input_data+0xc80>
80006252:	9b627f8f          	.insn	4, 0x9b627f8f
80006256:	0026                	c.slli	zero,0x9
80006258:	2ddd                	jal	8000694e <input_data+0x161e>
8000625a:	67c2                	flw	fa5,16(sp)
8000625c:	183e                	slli	a6,a6,0x2f
8000625e:	5f71                	li	t5,-4
80006260:	8286                	mv	t0,ra
80006262:	47e0                	lw	s0,76(a5)
80006264:	57fc                	lw	a5,108(a5)
80006266:	3326                	fld	ft6,104(sp)
80006268:	e188                	fsw	fa0,0(a1)
8000626a:	cea26ff3          	csrrsi	t6,0xcea,4
8000626e:	7548                	flw	fa0,44(a0)
80006270:	29ad                	jal	800066ea <input_data+0x13ba>
80006272:	f2a17c9b          	.insn	4, 0xf2a17c9b
80006276:	6578                	flw	fa4,76(a0)
80006278:	b685                	j	80005dd8 <input_data+0xaa8>
8000627a:	2514                	fld	fa3,8(a0)
8000627c:	dae5                	beqz	a3,8000626c <input_data+0xf3c>
8000627e:	470e                	lw	a4,192(sp)
80006280:	88ae                	mv	a7,a1
80006282:	414a                	lw	sp,144(sp)
80006284:	7e1723f7          	.insn	4, 0x7e1723f7
80006288:	4797b60f          	.insn	4, 0x4797b60f
8000628c:	22f9                	jal	8000645a <input_data+0x112a>
8000628e:	43fe                	lw	t2,220(sp)
80006290:	8234                	.insn	2, 0x8234
80006292:	7b647c4b          	fnmsub.d	fs8,fs0,fs6,fa5
80006296:	42cb4cf3          	.insn	4, 0x42cb4cf3
8000629a:	33f8                	fld	fa4,224(a5)
8000629c:	37b1                	jal	800061e8 <input_data+0xeb8>
8000629e:	337a                	fld	ft6,440(sp)
800062a0:	4a41b0ab          	.insn	4, 0x4a41b0ab
800062a4:	5511                	li	a0,-28
800062a6:	a39e5787          	.insn	4, 0xa39e5787
800062aa:	259c                	fld	fa5,8(a1)
800062ac:	4f90                	lw	a2,24(a5)
800062ae:	453c                	lw	a5,72(a0)
800062b0:	202edda7          	.insn	4, 0x202edda7
800062b4:	ee10                	fsw	fa2,24(a2)
800062b6:	73d1                	lui	t2,0xffff4
800062b8:	2228                	fld	fa0,64(a2)
800062ba:	6ce0                	flw	fs0,92(s1)
800062bc:	dcbd                	beqz	s1,8000623a <input_data+0xf0a>
800062be:	45f50f7b          	.insn	4, 0x45f50f7b
800062c2:	108a                	slli	ra,ra,0x22
800062c4:	5899                	li	a7,-26
800062c6:	7f99                	lui	t6,0xfffe6
800062c8:	56e2                	lw	a3,56(sp)
800062ca:	3a06                	fld	fs4,96(sp)
800062cc:	42dd5013          	srai	zero,s10,0x2d
800062d0:	5bc3d43b          	.insn	4, 0x5bc3d43b
800062d4:	3271                	jal	80005c60 <input_data+0x930>
800062d6:	dcd04fb7          	lui	t6,0xdcd04
800062da:	0b18                	addi	a4,sp,400
800062dc:	bb55                	j	80006090 <input_data+0xd60>
800062de:	1cc8                	addi	a0,sp,628
800062e0:	1c4d                	addi	s8,s8,-13
800062e2:	56f8                	lw	a4,108(a3)
800062e4:	1f64                	addi	s1,sp,956
800062e6:	46e372b7          	lui	t0,0x46e37
800062ea:	174a                	slli	a4,a4,0x32
800062ec:	247f 43f3 8110 1edc 	.insn	14, 0xd0ed692b29f11edc811043f3247f
800062f4:	29f1 692b d0ed 
800062fa:	2b0c                	fld	fa1,16(a4)
800062fc:	53807c37          	lui	s8,0x53807
80006300:	8f02                	jr	t5
80006302:	4c0565b7          	lui	a1,0x4c056
80006306:	1cfa                	slli	s9,s9,0x3e
80006308:	e641                	bnez	a2,80006390 <input_data+0x1060>
8000630a:	5238                	lw	a4,96(a2)
8000630c:	0c514963          	blt	sp,t0,800063de <input_data+0x10ae>
80006310:	0030356f          	jal	a0,80009b12 <__global_pointer$+0x1fe2>
80006314:	81de                	mv	gp,s7
80006316:	37e721af          	.insn	4, 0x37e721af
8000631a:	3bd32907          	flw	fs2,957(t1) # ffff13bd <__global_pointer$+0x7ffe988d>
8000631e:	48ee                	lw	a7,216(sp)
80006320:	7e7f282b          	.insn	4, 0x7e7f282b
80006324:	e911                	bnez	a0,80006338 <input_data+0x1008>
80006326:	bc781e93          	.insn	4, 0xbc781e93
8000632a:	f81f52e3          	bge	t5,ra,800062ae <input_data+0xf7e>
8000632e:	1034                	addi	a3,sp,40
80006330:	540c                	lw	a1,40(s0)
80006332:	60b8                	flw	fa4,64(s1)
80006334:	4e448da7          	.insn	4, 0x4e448da7
80006338:	939c                	.insn	2, 0x939c
8000633a:	7ada                	flw	fs5,180(sp)
8000633c:	8e8d                	sub	a3,a3,a1
8000633e:	188c                	addi	a1,sp,112
80006340:	efe9                	bnez	a5,8000641a <input_data+0x10ea>
80006342:	1a16                	slli	s4,s4,0x25
80006344:	1e9ca763          	.insn	4, 0x1e9ca763
80006348:	671f 1235 2f27      	.insn	6, 0x2f271235671f
8000634e:	661d                	lui	a2,0x7
80006350:	17155447          	.insn	4, 0x17155447
80006354:	291f 7157 83a9      	.insn	6, 0x83a97157291f
8000635a:	ccf5266f          	jal	a2,7ff59028 <_start-0xa6fd8>
8000635e:	496d                	li	s2,27
80006360:	63a5                	lui	t2,0x9
80006362:	1542                	slli	a0,a0,0x30
80006364:	a455                	j	80006608 <input_data+0x12d8>
80006366:	0dd6                	slli	s11,s11,0x15
80006368:	8322                	mv	t1,s0
8000636a:	6190                	flw	fa2,0(a1)
8000636c:	8242                	mv	tp,a6
8000636e:	ed641203          	lh	tp,-298(s0) # fffe6ed6 <__global_pointer$+0x7ffdf3a6>
80006372:	7cd8                	flw	fa4,60(s1)
80006374:	a2b8                	fsd	fa4,64(a3)
80006376:	6530                	flw	fa2,72(a0)
80006378:	02a1                	addi	t0,t0,8 # 46e37008 <_start-0x391c8ff8>
8000637a:	52e1                	li	t0,-8
8000637c:	a814                	fsd	fa3,16(s0)
8000637e:	6d49                	lui	s10,0x12
80006380:	1554                	addi	a3,sp,676
80006382:	47ba                	lw	a5,140(sp)
80006384:	b802                	fsd	ft0,48(sp)
80006386:	0309                	addi	t1,t1,2
80006388:	7e0c                	flw	fa1,56(a2)
8000638a:	4f6a                	lw	t5,152(sp)
8000638c:	5a46b2c3          	fmadd.d	ft5,fa3,ft4,fa1,rup
80006390:	69d9                	lui	s3,0x16
80006392:	3632                	fld	fa2,296(sp)
80006394:	adc9                	j	80006a66 <input_data+0x1736>
80006396:	7221                	lui	tp,0xfffe8
80006398:	0b52                	slli	s6,s6,0x14
8000639a:	05a3216b          	.insn	4, 0x05a3216b
8000639e:	3d91                	jal	800061f2 <input_data+0xec2>
800063a0:	4881f2b7          	lui	t0,0x4881f
800063a4:	06c34b8b          	.insn	4, 0x06c34b8b
800063a8:	4f41                	li	t5,16
800063aa:	0fd74577          	.insn	4, 0x0fd74577
800063ae:	2fb8                	fld	fa4,88(a5)
800063b0:	227f 3f1a 5cc9 19c1 	.insn	14, 0x24497f10a60519c15cc93f1a227f
800063b8:	a605 7f10 2449 
800063be:	4609                	li	a2,2
800063c0:	3495                	jal	80005e24 <input_data+0xaf4>
800063c2:	5f89                	li	t6,-30
800063c4:	b74e                	fsd	fs3,424(sp)
800063c6:	3462                	fld	fs0,56(sp)
800063c8:	1a9b193f 0f5c9eb7 	.insn	8, 0x0f5c9eb71a9b193f
800063d0:	21dc                	fld	fa5,128(a1)
800063d2:	2fb9                	jal	80006b30 <input_data+0x1800>
800063d4:	2390                	fld	fa2,0(a5)
800063d6:	52b9                	li	t0,-18
800063d8:	5dbc                	lw	a5,120(a1)
800063da:	777e                	flw	fa4,252(sp)
800063dc:	07e4                	addi	s1,sp,972
800063de:	f6013b8f          	.insn	4, 0xf6013b8f
800063e2:	5520                	lw	s0,104(a0)
800063e4:	2930                	fld	fa2,80(a0)
800063e6:	b2da0a7b          	.insn	4, 0xb2da0a7b
800063ea:	0476                	slli	s0,s0,0x1d
800063ec:	0af0                	addi	a2,sp,348
800063ee:	ef612593          	slti	a1,sp,-266
800063f2:	4469                	li	s0,26
800063f4:	e19d                	bnez	a1,8000641a <input_data+0x10ea>
800063f6:	06b6                	slli	a3,a3,0xd
800063f8:	1d74                	addi	a3,sp,700
800063fa:	3d4e                	fld	fs10,240(sp)
800063fc:	2dc1                	jal	80006acc <input_data+0x179c>
800063fe:	70c4                	flw	fs1,36(s1)
80006400:	7398                	flw	fa4,32(a5)
80006402:	7476                	flw	fs0,124(sp)
80006404:	12d4                	addi	a3,sp,356
80006406:	1cb4                	addi	a3,sp,632
80006408:	1886                	slli	a7,a7,0x21
8000640a:	1a04                	addi	s1,sp,304
8000640c:	5ea0                	lw	s0,120(a3)
8000640e:	82a85f6f          	jal	t5,7ff8b438 <_start-0x74bc8>
80006412:	f449044f          	.insn	4, 0xf449044f
80006416:	5e3d                	li	t3,-17
80006418:	1b717563          	bgeu	sp,s7,800065c2 <input_data+0x1292>
8000641c:	88e1                	andi	s1,s1,24
8000641e:	7185                	lui	gp,0xfffe1
80006420:	f2c1                	bnez	a3,800063a0 <input_data+0x1070>
80006422:	2edd                	jal	80006818 <input_data+0x14e8>
80006424:	1fe2                	slli	t6,t6,0x38
80006426:	1571                	addi	a0,a0,-4
80006428:	c58d                	beqz	a1,80006452 <input_data+0x1122>
8000642a:	82bc7257          	.insn	4, 0x82bc7257
8000642e:	003d                	c.nop	15
80006430:	5eb2                	lw	t4,44(sp)
80006432:	641f 5118 4430      	.insn	6, 0x44305118641f
80006438:	4838                	lw	a4,80(s0)
8000643a:	c6375727          	.insn	4, 0xc6375727
8000643e:	292d                	jal	80006878 <input_data+0x1548>
80006440:	50ec                	lw	a1,100(s1)
80006442:	b4405a5b          	.insn	4, 0xb4405a5b
80006446:	15aa                	slli	a1,a1,0x2a
80006448:	f556                	fsw	fs5,168(sp)
8000644a:	8743583b          	.insn	4, 0x8743583b
8000644e:	d5303e3b          	.insn	4, 0xd5303e3b
80006452:	a7e9795b          	.insn	4, 0xa7e9795b
80006456:	0d08                	addi	a0,sp,656
80006458:	e05e                	fsw	fs7,0(sp)
8000645a:	3181                	jal	8000609a <input_data+0xd6a>
8000645c:	d8e5                	beqz	s1,8000644c <input_data+0x111c>
8000645e:	3ad616c3          	fmadd.d	fa3,fa2,fa3,ft7,rtz
80006462:	0675                	addi	a2,a2,29 # 701d <_start-0x7fff8fe3>
80006464:	f25c                	fsw	fa5,36(a2)
80006466:	057f cc9f 0cfa b38c 	.insn	10, 0x5abcb38c0cfacc9f057f
8000646e:	5abc 
80006470:	71b9                	lui	gp,0xfffee
80006472:	8d403cdb          	.insn	4, 0x8d403cdb
80006476:	53de                	lw	t2,244(sp)
80006478:	33226d3b          	.insn	4, 0x33226d3b
8000647c:	ce81                	beqz	a3,80006494 <input_data+0x1164>
8000647e:	7556                	flw	fa0,116(sp)
80006480:	0bc1                	addi	s7,s7,16 # 5010 <_start-0x7fffaff0>
80006482:	5700                	lw	s0,40(a4)
80006484:	495f 502b 6ac2      	.insn	6, 0x6ac2502b495f
8000648a:	2a4c                	fld	fa1,144(a2)
8000648c:	5e7e                	lw	t3,252(sp)
8000648e:	1f06                	slli	t5,t5,0x21
80006490:	8d0d                	sub	a0,a0,a1
80006492:	7a1a                	flw	fs4,164(sp)
80006494:	ac82                	fsd	ft0,88(sp)
80006496:	696d                	lui	s2,0x1b
80006498:	3c6ee86b          	.insn	4, 0x3c6ee86b
8000649c:	eb55                	bnez	a4,80006550 <input_data+0x1220>
8000649e:	54be65e7          	.insn	4, 0x54be65e7
800064a2:	3d2d                	jal	800062dc <input_data+0xfac>
800064a4:	8b7a                	mv	s6,t5
800064a6:	5222                	lw	tp,40(sp)
800064a8:	e2f0                	fsw	fa2,68(a3)
800064aa:	5cfd                	li	s9,-1
800064ac:	8ed1                	or	a3,a3,a2
800064ae:	085b2057          	.insn	4, 0x085b2057
800064b2:	5b74                	lw	a3,116(a4)
800064b4:	0239                	addi	tp,tp,14 # fffe800e <__global_pointer$+0x7ffe04de>
800064b6:	1f79                	addi	t5,t5,-2
800064b8:	78276307          	.insn	4, 0x78276307
800064bc:	13640e9b          	.insn	4, 0x13640e9b
800064c0:	0be4                	addi	s1,sp,476
800064c2:	43cd                	li	t2,19
800064c4:	8c1c                	.insn	2, 0x8c1c
800064c6:	1d7a704b          	.insn	4, 0x1d7a704b
800064ca:	6f86                	flw	ft11,64(sp)
800064cc:	6351                	lui	t1,0x14
800064ce:	2aac                	fld	fa1,80(a3)
800064d0:	09fe3077          	.insn	4, 0x09fe3077
800064d4:	1e4c                	addi	a1,sp,820
800064d6:	bae34d03          	lbu	s10,-1106(t1) # 13bae <_start-0x7ffec452>
800064da:	45df 5ebc 784d      	.insn	6, 0x784d5ebc45df
800064e0:	744d6397          	auipc	t2,0x744d6
800064e4:	463a                	lw	a2,140(sp)
800064e6:	634e                	flw	ft6,208(sp)
800064e8:	a105                	j	80006908 <input_data+0x15d8>
800064ea:	6d5d                	lui	s10,0x17
800064ec:	32ee431b          	.insn	4, 0x32ee431b
800064f0:	c920                	sw	s0,80(a0)
800064f2:	1268                	addi	a0,sp,300
800064f4:	6e48                	flw	fa0,28(a2)
800064f6:	1df4                	addi	a3,sp,764
800064f8:	b7c8                	fsd	fa0,168(a5)
800064fa:	7d82                	flw	fs11,32(sp)
800064fc:	3d99                	jal	80006352 <input_data+0x1022>
800064fe:	60d6                	flw	ft1,84(sp)
80006500:	49c4                	lw	s1,20(a1)
80006502:	1ea6                	slli	t4,t4,0x29
80006504:	8a86                	mv	s5,ra
80006506:	3a2d                	jal	80005e40 <input_data+0xb10>
80006508:	0d8e43d3          	.insn	4, 0x0d8e43d3
8000650c:	d5de                	sw	s7,232(sp)
8000650e:	3661                	jal	80006096 <input_data+0xd66>
80006510:	4040                	lw	s0,4(s0)
80006512:	2ed9                	jal	800068e8 <input_data+0x15b8>
80006514:	8f99                	sub	a5,a5,a4
80006516:	1ae8                	addi	a0,sp,380
80006518:	90c0                	.insn	2, 0x90c0
8000651a:	84c10ca3          	sb	a2,-1959(sp)
8000651e:	7b4e                	flw	fs6,240(sp)
80006520:	8f21                	xor	a4,a4,s0
80006522:	06fd                	addi	a3,a3,31 # e8f4cb5f <__global_pointer$+0x68f4502f>
80006524:	736f35b7          	lui	a1,0x736f3
80006528:	c4ff 0c8f c41b 7643 	.insn	18, 0xd94853fba9d03862092d7643c41b0c8fc4ff
80006530:	092d 3862 a9d0 53fb 
80006538:	d948 
8000653a:	6202                	flw	ft4,0(sp)
8000653c:	43e409b7          	lui	s3,0x43e40
80006540:	2870b66f          	jal	a2,80011fc6 <__global_pointer$+0xa496>
80006544:	4c3ceec7          	.insn	4, 0x4c3ceec7
80006548:	4dbe                	lw	s11,204(sp)
8000654a:	2b26                	fld	fs6,72(sp)
8000654c:	3f66                	fld	ft10,120(sp)
8000654e:	0ba5                	addi	s7,s7,9
80006550:	1fe2                	slli	t6,t6,0x38
80006552:	5952                	lw	s2,52(sp)
80006554:	d0de                	sw	s7,96(sp)
80006556:	3b90                	fld	fa2,48(a5)
80006558:	d69d                	beqz	a3,80006486 <input_data+0x1156>
8000655a:	6a2e634b          	fnmsub.d	ft6,ft8,ft2,fa3,unknown
8000655e:	6bb957d7          	.insn	4, 0x6bb957d7
80006562:	5d11                	li	s10,-28
80006564:	6d30                	flw	fa2,88(a0)
80006566:	0906                	slli	s2,s2,0x1
80006568:	daa0                	sw	s0,112(a3)
8000656a:	52a12997          	auipc	s3,0x52a12
8000656e:	60b9                	lui	ra,0xe
80006570:	b44a                	fsd	fs2,40(sp)
80006572:	2439                	jal	80006780 <input_data+0x1450>
80006574:	6f58                	flw	fa4,28(a4)
80006576:	042a                	slli	s0,s0,0xa
80006578:	3cf2                	fld	fs9,312(sp)
8000657a:	204c44af          	.insn	4, 0x204c44af
8000657e:	3f66                	fld	ft10,120(sp)
80006580:	a394                	fsd	fa3,0(a5)
80006582:	4fc1                	li	t6,16
80006584:	472e                	lw	a4,200(sp)
80006586:	034e                	slli	t1,t1,0x13
80006588:	8cce                	mv	s9,s3
8000658a:	4c2d                	li	s8,11
8000658c:	31e3fa47          	fmsub.s	fs4,ft7,ft10,ft6
80006590:	7220fd73          	csrrci	s10,minstretcfgh,1
80006594:	b8b0                	fsd	fa2,112(s1)
80006596:	3e8d                	jal	80006108 <input_data+0xdd8>
80006598:	54b6                	lw	s1,108(sp)
8000659a:	09a0                	addi	s0,sp,216
8000659c:	deea                	sw	s10,124(sp)
8000659e:	04ca                	slli	s1,s1,0x12
800065a0:	625f 253c 47ff      	.insn	6, 0x47ff253c625f
800065a6:	346a                	fld	fs0,184(sp)
800065a8:	3f95e34b          	.insn	4, 0x3f95e34b
800065ac:	049e                	slli	s1,s1,0x7
800065ae:	51fc                	lw	a5,100(a1)
800065b0:	5d0e34db          	.insn	4, 0x5d0e34db
800065b4:	2382                	fld	ft7,0(sp)
800065b6:	038a                	slli	t2,t2,0x2
800065b8:	399987cf          	fnmadd.s	fa5,fs3,fs9,ft7,rne
800065bc:	35d0                	fld	fa2,168(a1)
800065be:	79d5                	lui	s3,0xffff5
800065c0:	2b82                	fld	fs7,0(sp)
800065c2:	4638                	lw	a4,72(a2)
800065c4:	4e25                	li	t3,9
800065c6:	4520                	lw	s0,72(a0)
800065c8:	dc36                	sw	a3,56(sp)
800065ca:	115c                	addi	a5,sp,164
800065cc:	0a50ba03          	.insn	4, 0x0a50ba03
800065d0:	b9a9                	j	8000622a <input_data+0xefa>
800065d2:	ebc45297          	auipc	t0,0xebc45
800065d6:	26dd                	jal	800069bc <input_data+0x168c>
800065d8:	56e2                	lw	a3,56(sp)
800065da:	6b6d                	lui	s6,0x1b
800065dc:	7dfd                	lui	s11,0xfffff
800065de:	5cb9                	li	s9,-18
800065e0:	18b0                	addi	a2,sp,120
800065e2:	2530                	fld	fa2,72(a0)
800065e4:	b1a2                	fsd	fs0,224(sp)
800065e6:	5e28                	lw	a0,120(a2)
800065e8:	624efe03          	.insn	4, 0x624efe03
800065ec:	10244d23          	.insn	4, 0x10244d23
800065f0:	14df5beb          	.insn	4, 0x14df5beb
800065f4:	46d09d13          	.insn	4, 0x46d09d13
800065f8:	3548b68b          	.insn	4, 0x3548b68b
800065fc:	0dde                	slli	s11,s11,0x17
800065fe:	1fda                	slli	t6,t6,0x36
80006600:	9926                	add	s2,s2,s1
80006602:	3f00                	fld	fs0,56(a4)
80006604:	323a                	fld	ft4,424(sp)
80006606:	48c70dbf 133b7e3c 	.insn	8, 0x133b7e3c48c70dbf
8000660e:	2e6c                	fld	fa1,216(a2)
80006610:	cfda                	sw	s6,220(sp)
80006612:	a4ed0ef3          	.insn	4, 0xa4ed0ef3
80006616:	063c                	addi	a5,sp,776
80006618:	d49f 4f2b b592      	.insn	6, 0xb5924f2bd49f
8000661e:	6f6a                	flw	ft10,152(sp)
80006620:	6e24d8eb          	.insn	4, 0x6e24d8eb
80006624:	6db5                	lui	s11,0xd
80006626:	0f6b128b          	.insn	4, 0x0f6b128b
8000662a:	1e30                	addi	a2,sp,824
8000662c:	845e                	mv	s0,s7
8000662e:	491c6bc7          	fmsub.s	fs7,fs8,fa7,fs1,unknown
80006632:	2435                	jal	8000685e <input_data+0x152e>
80006634:	ecf0                	fsw	fa2,92(s1)
80006636:	5ce0                	lw	s0,124(s1)
80006638:	493e456f          	jal	a0,800eb2ca <__global_pointer$+0xe379a>
8000663c:	832c                	.insn	2, 0x832c
8000663e:	d0102aef          	jal	s5,7ff0933e <_start-0xf6cc2>
80006642:	7501                	lui	a0,0xfffe0
80006644:	de19                	beqz	a2,80006562 <input_data+0x1232>
80006646:	3c49                	jal	800060d8 <input_data+0xda8>
80006648:	b8f5                	j	80005f44 <input_data+0xc14>
8000664a:	47d2                	lw	a5,20(sp)
8000664c:	21bf03af          	.insn	4, 0x21bf03af
80006650:	3dfe                	fld	fs11,504(sp)
80006652:	18fa                	slli	a7,a7,0x3e
80006654:	7d20                	flw	fs0,120(a0)
80006656:	99062bf3          	csrrs	s7,0x990,a2
8000665a:	ceef1f03          	lh	t5,-786(t5)
8000665e:	f9ef67b7          	lui	a5,0xf9ef6
80006662:	5ff3644b          	.insn	4, 0x5ff3644b
80006666:	56be                	lw	a3,236(sp)
80006668:	69c4                	flw	fs1,20(a1)
8000666a:	7e4a                	flw	ft8,176(sp)
8000666c:	6fa2                	flw	ft11,8(sp)
8000666e:	52b62b7b          	.insn	4, 0x52b62b7b
80006672:	5d51                	li	s10,-12
80006674:	261f 2b0e 5867      	.insn	6, 0x58672b0e261f
8000667a:	2c15                	jal	800068ae <input_data+0x157e>
8000667c:	34968f93          	addi	t6,a3,841
80006680:	b46e                	fsd	fs11,40(sp)
80006682:	3734                	fld	fa3,104(a4)
80006684:	3b99408f          	.insn	4, 0x3b99408f
80006688:	94d2                	add	s1,s1,s4
8000668a:	7a3f4e8f          	.insn	4, 0x7a3f4e8f
8000668e:	6ca90747          	.insn	4, 0x6ca90747
80006692:	615d                	addi	sp,sp,432
80006694:	3372                	fld	ft6,312(sp)
80006696:	4bae                	lw	s7,200(sp)
80006698:	6ad2                	flw	fs5,20(sp)
8000669a:	f67f16a7          	.insn	4, 0xf67f16a7
8000669e:	3e38                	fld	fa4,120(a2)
800066a0:	27ac473b          	.insn	4, 0x27ac473b
800066a4:	3417d43b          	.insn	4, 0x3417d43b
800066a8:	74f2                	flw	fs1,60(sp)
800066aa:	2aca                	fld	fs5,144(sp)
800066ac:	c95e                	sw	s7,144(sp)
800066ae:	eda17f4b          	.insn	4, 0xeda17f4b
800066b2:	2d68                	fld	fa0,216(a0)
800066b4:	25c2                	fld	fa1,16(sp)
800066b6:	5fa0                	lw	s0,120(a5)
800066b8:	e2fd                	bnez	a3,8000679e <input_data+0x146e>
800066ba:	540d27bb          	.insn	4, 0x540d27bb
800066be:	1e9c                	addi	a5,sp,880
800066c0:	930e                	add	t1,t1,gp
800066c2:	59a5                	li	s3,-23
800066c4:	9488                	.insn	2, 0x9488
800066c6:	4349                	li	t1,18
800066c8:	6e11                	lui	t3,0x4
800066ca:	05ee                	slli	a1,a1,0x1b
800066cc:	deec                	sw	a1,124(a3)
800066ce:	2b16                	fld	fs6,320(sp)
800066d0:	1714                	addi	a3,sp,928
800066d2:	3e6d                	jal	8000628c <input_data+0xf5c>
800066d4:	7518                	flw	fa4,40(a0)
800066d6:	20d0                	fld	fa2,128(s1)
800066d8:	345c                	fld	fa5,168(s0)
800066da:	43c8408b          	.insn	4, 0x43c8408b
800066de:	1144                	addi	s1,sp,164
800066e0:	68ec                	flw	fa1,84(s1)
800066e2:	0ce8                	addi	a0,sp,604
800066e4:	c688                	sw	a0,8(a3)
800066e6:	4602                	lw	a2,0(sp)
800066e8:	5676                	lw	a2,124(sp)
800066ea:	3268                	fld	fa0,224(a2)
800066ec:	c924                	sw	s1,80(a0)
800066ee:	5ca1                	li	s9,-24
800066f0:	9562                	add	a0,a0,s8
800066f2:	226a                	fld	ft4,152(sp)
800066f4:	5b1f 2f1a d05b      	.insn	6, 0xd05b2f1a5b1f
800066fa:	2845                	jal	800067aa <input_data+0x147a>
800066fc:	78f220af          	.insn	4, 0x78f220af
80006700:	8960                	.insn	2, 0x8960
80006702:	099f a911 0da5      	.insn	6, 0x0da5a911099f
80006708:	2c54a803          	lw	a6,709(s1)
8000670c:	9ad6                	add	s5,s5,s5
8000670e:	50a2                	lw	ra,40(sp)
80006710:	3314                	fld	fa3,32(a4)
80006712:	7e90                	flw	fa2,56(a3)
80006714:	a565                	j	80006dbc <input_data+0x1a8c>
80006716:	32cd                	jal	800060f8 <input_data+0xdc8>
80006718:	2ba0                	fld	fs0,80(a5)
8000671a:	4cf4                	lw	a3,92(s1)
8000671c:	c174                	sw	a3,68(a0)
8000671e:	1abe                	slli	s5,s5,0x2f
80006720:	4bc0                	lw	s0,20(a5)
80006722:	2af7746f          	jal	s0,8007e1d0 <__global_pointer$+0x766a0>
80006726:	9973370b          	.insn	4, 0x9973370b
8000672a:	3152                	fld	ft2,304(sp)
8000672c:	aba4                	fsd	fs1,80(a5)
8000672e:	431d                	li	t1,7
80006730:	b420                	fsd	fs0,104(s0)
80006732:	0bcc                	addi	a1,sp,468
80006734:	8f9a                	mv	t6,t1
80006736:	10c4                	addi	s1,sp,100
80006738:	45da2b4b          	.insn	4, 0x45da2b4b
8000673c:	7cb6                	flw	fs9,108(sp)
8000673e:	ed702d97          	auipc	s11,0xed702
80006742:	2381                	jal	80006c82 <input_data+0x1952>
80006744:	2954                	fld	fa3,144(a0)
80006746:	7ef4                	flw	fa3,124(a3)
80006748:	1f9c                	addi	a5,sp,1008
8000674a:	55a9                	li	a1,-22
8000674c:	5646a03f 2d08d921 	.insn	8, 0x2d08d9215646a03f
80006754:	a5cd                	j	80006e36 <input_data+0x1b06>
80006756:	7f02                	flw	ft10,32(sp)
80006758:	fa38                	fsw	fa4,112(a2)
8000675a:	6d62                	flw	fs10,24(sp)
8000675c:	754a                	flw	fa0,176(sp)
8000675e:	89185c3f 35c46e96 	.insn	8, 0x35c46e9689185c3f
80006766:	398c                	fld	fa1,48(a1)
80006768:	d6ad                	beqz	a3,800066d2 <input_data+0x13a2>
8000676a:	2812                	fld	fa6,256(sp)
8000676c:	3aae                	fld	fs5,232(sp)
8000676e:	0ae2                	slli	s5,s5,0x18
80006770:	8aa1                	andi	a3,a3,8
80006772:	0ce6                	slli	s9,s9,0x19
80006774:	aeb6                	fsd	fa3,344(sp)
80006776:	4ef5                	li	t4,29
80006778:	463a                	lw	a2,140(sp)
8000677a:	443a                	lw	s0,140(sp)
8000677c:	2e78                	fld	fa4,216(a2)
8000677e:	1b16                	slli	s6,s6,0x25
80006780:	48bfb5ef          	jal	a1,8010240a <__global_pointer$+0xfa8da>
80006784:	e4a2                	fsw	fs0,72(sp)
80006786:	5aa6                	lw	s5,104(sp)
80006788:	d36e                	sw	s11,164(sp)
8000678a:	6b25                	lui	s6,0x9
8000678c:	f286                	fsw	ft1,100(sp)
8000678e:	5e79                	li	t3,-2
80006790:	2c50                	fld	fa2,152(s0)
80006792:	2f82                	fld	ft11,0(sp)
80006794:	9de8                	.insn	2, 0x9de8
80006796:	6c91                	lui	s9,0x4
80006798:	e55e                	fsw	fs7,136(sp)
8000679a:	68357ed7          	.insn	4, 0x68357ed7
8000679e:	3a04                	fld	fs1,48(a2)
800067a0:	cef1                	beqz	a3,8000687c <input_data+0x154c>
800067a2:	3b1e                	fld	fs6,480(sp)
800067a4:	a34d                	j	80006d46 <input_data+0x1a16>
800067a6:	2880                	fld	fs0,16(s1)
800067a8:	74ec5c83          	lhu	s9,1870(s8) # 5380774e <_start-0x2c7f88b2>
800067ac:	5531                	li	a0,-20
800067ae:	7cd2                	flw	fs9,52(sp)
800067b0:	1753184b          	.insn	4, 0x1753184b
800067b4:	8e1a                	mv	t3,t1
800067b6:	5fa0                	lw	s0,120(a5)
800067b8:	e330                	fsw	fa2,64(a4)
800067ba:	2262                	fld	ft4,24(sp)
800067bc:	436d                	li	t1,27
800067be:	6610                	flw	fa2,8(a2)
800067c0:	e22a                	fsw	fa0,4(sp)
800067c2:	1488                	addi	a0,sp,608
800067c4:	1664                	addi	s1,sp,812
800067c6:	42ec                	lw	a1,68(a3)
800067c8:	62e38bab          	.insn	4, 0x62e38bab
800067cc:	2e2c                	fld	fa1,88(a2)
800067ce:	4f35                	li	t5,13
800067d0:	4258                	lw	a4,4(a2)
800067d2:	02e8                	addi	a0,sp,332
800067d4:	c368                	sw	a0,68(a4)
800067d6:	f5ee0ebf ae3b6d70 	.insn	8, 0xae3b6d70f5ee0ebf
800067de:	5d39                	li	s10,-18
800067e0:	47ea                	lw	a5,152(sp)
800067e2:	52a2                	lw	t0,40(sp)
800067e4:	000d                	c.nop	3
800067e6:	1cf5                	addi	s9,s9,-3 # 3ffd <_start-0x7fffc003>
800067e8:	d6fc                	sw	a5,108(a3)
800067ea:	0234                	addi	a3,sp,264
800067ec:	7742                	flw	fa4,48(sp)
800067ee:	1540                	addi	s0,sp,676
800067f0:	0326                	slli	t1,t1,0x9
800067f2:	63de                	flw	ft7,212(sp)
800067f4:	19a2b58b          	.insn	4, 0x19a2b58b
800067f8:	5bd8                	lw	a4,52(a5)
800067fa:	182e74c7          	fmsub.s	fs1,ft8,ft2,ft3
800067fe:	6a60                	flw	fs0,84(a2)
80006800:	6d9de20f          	.insn	4, 0x6d9de20f
80006804:	ae28                	fsd	fa0,88(a2)
80006806:	5f21                	li	t5,-24
80006808:	119f8227          	.insn	4, 0x119f8227
8000680c:	10d2                	slli	ra,ra,0x34
8000680e:	0b8f180b          	.insn	4, 0x0b8f180b
80006812:	7e0a                	flw	ft8,160(sp)
80006814:	2220                	fld	fs0,64(a2)
80006816:	5a55                	li	s4,-11
80006818:	2062                	fld	ft0,24(sp)
8000681a:	5be2                	lw	s7,56(sp)
8000681c:	56126e87          	.insn	4, 0x56126e87
80006820:	0341                	addi	t1,t1,16
80006822:	486d                	li	a6,27
80006824:	f0a0                	fsw	fs0,96(s1)
80006826:	f7b7649b          	.insn	4, 0xf7b7649b
8000682a:	5c26                	lw	s8,104(sp)
8000682c:	420c                	lw	a1,0(a2)
8000682e:	7190                	flw	fa2,32(a1)
80006830:	7fd8                	flw	fa4,60(a5)
80006832:	207a                	fld	ft0,408(sp)
80006834:	26e9                	jal	80006bfe <input_data+0x18ce>
80006836:	7b55                	lui	s6,0xffff5
80006838:	c97d                	beqz	a0,8000692e <input_data+0x15fe>
8000683a:	64a6                	flw	fs1,72(sp)
8000683c:	6075                	c.lui	zero,0x1d
8000683e:	544a                	lw	s0,176(sp)
80006840:	13ccfe2f          	.insn	4, 0x13ccfe2f
80006844:	25aa979b          	.insn	4, 0x25aa979b
80006848:	193b0a53          	fdiv.s	fs4,fs6,fs3,rne
8000684c:	4f730137          	lui	sp,0x4f730
80006850:	3aed                	jal	8000624a <input_data+0xf1a>
80006852:	2085                	jal	800068b2 <input_data+0x1582>
80006854:	6408                	flw	fa0,8(s0)
80006856:	127e                	slli	tp,tp,0x3f
80006858:	6cd4                	flw	fa3,28(s1)
8000685a:	eb5f3947          	fmsub.d	fs2,ft10,fs5,ft9,rup
8000685e:	5cd41633          	.insn	4, 0x5cd41633
80006862:	79c3733f 1df96604 	.insn	8, 0x1df9660479c3733f
8000686a:	03e500af          	.insn	4, 0x03e500af
8000686e:	094a                	slli	s2,s2,0x12
80006870:	29c439a7          	fsd	ft8,659(s0)
80006874:	263e                	fld	fa2,456(sp)
80006876:	56df 2d0a 4efb      	.insn	6, 0x4efb2d0a56df
8000687c:	2f1a                	fld	ft10,384(sp)
8000687e:	0a42                	slli	s4,s4,0x10
80006880:	bfb6                	fsd	fa3,504(sp)
80006882:	2799                	jal	80006fc8 <input_data+0x1c98>
80006884:	65a60287          	.insn	4, 0x65a60287
80006888:	3942                	fld	fs2,48(sp)
8000688a:	1675                	addi	a2,a2,-3
8000688c:	973c                	.insn	2, 0x973c
8000688e:	57c5                	li	a5,-15
80006890:	2e08                	fld	fa0,24(a2)
80006892:	147c                	addi	a5,sp,556
80006894:	9932                	add	s2,s2,a2
80006896:	51b0                	lw	a2,96(a1)
80006898:	1efe                	slli	t4,t4,0x3f
8000689a:	0fd1                	addi	t6,t6,20 # dcd04014 <__global_pointer$+0x5ccfc4e4>
8000689c:	8a2c                	.insn	2, 0x8a2c
8000689e:	7bf2                	flw	fs7,60(sp)
800068a0:	6522                	flw	fa0,8(sp)
800068a2:	6b7a                	flw	fs6,156(sp)
800068a4:	4855                	li	a6,21
800068a6:	1ef2                	slli	t4,t4,0x3c
800068a8:	fea1                	bnez	a3,80006800 <input_data+0x14d0>
800068aa:	5bb1                	li	s7,-20
800068ac:	4038                	lw	a4,64(s0)
800068ae:	7320                	flw	fs0,96(a4)
800068b0:	3a7a                	fld	fs4,440(sp)
800068b2:	468a                	lw	a3,128(sp)
800068b4:	58cb01ab          	.insn	4, 0x58cb01ab
800068b8:	9709                	srai	a4,a4,0x22
800068ba:	1d82                	slli	s11,s11,0x20
800068bc:	2fbefe13          	andi	t3,t4,763
800068c0:	5874                	lw	a3,116(s0)
800068c2:	0a8e                	slli	s5,s5,0x3
800068c4:	4d08aadb          	.insn	4, 0x4d08aadb
800068c8:	8da5                	xor	a1,a1,s1
800068ca:	505e                	.insn	2, 0x505e
800068cc:	5c6b23e3          	.insn	4, 0x5c6b23e3
800068d0:	d515                	beqz	a0,800067fc <input_data+0x14cc>
800068d2:	2995                	jal	80006d46 <input_data+0x1a16>
800068d4:	ffd4                	fsw	fa3,60(a5)
800068d6:	330e                	fld	ft6,224(sp)
800068d8:	76c9de3b          	.insn	4, 0x76c9de3b
800068dc:	db78                	sw	a4,116(a4)
800068de:	46e0                	lw	s0,76(a3)
800068e0:	0d36494b          	.insn	4, 0x0d36494b
800068e4:	0957f94f          	fnmadd.s	fs2,fa5,fs5,ft1
800068e8:	4c36                	lw	s8,76(sp)
800068ea:	024d                	addi	tp,tp,19 # 13 <_start-0x7fffffed>
800068ec:	379a                	fld	fa5,416(sp)
800068ee:	d2d71667          	.insn	4, 0xd2d71667
800068f2:	d9767be3          	bgeu	a2,s7,80006688 <input_data+0x1358>
800068f6:	7d5c                	flw	fa5,60(a0)
800068f8:	14624fa3          	.insn	4, 0x14624fa3
800068fc:	29a4b67b          	.insn	4, 0x29a4b67b
80006900:	0ad6                	slli	s5,s5,0x15
80006902:	20a316b7          	lui	a3,0x20a31
80006906:	4798                	lw	a4,8(a5)
80006908:	97d2                	add	a5,a5,s4
8000690a:	4c06                	lw	s8,64(sp)
8000690c:	394c                	fld	fa1,176(a0)
8000690e:	17bc                	addi	a5,sp,1000
80006910:	2fc79aeb          	.insn	4, 0x2fc79aeb
80006914:	cc41                	beqz	s0,800069ac <input_data+0x167c>
80006916:	40d2                	lw	ra,20(sp)
80006918:	dd86                	sw	ra,248(sp)
8000691a:	3276                	fld	ft4,376(sp)
8000691c:	a2ea                	fsd	fs10,320(sp)
8000691e:	6e30                	flw	fa2,88(a2)
80006920:	4cc2bb0b          	.insn	4, 0x4cc2bb0b
80006924:	537361cf          	fnmadd.d	ft3,ft6,fs7,fa0,unknown
80006928:	5ed6                	lw	t4,116(sp)
8000692a:	5f92                	lw	t6,36(sp)
8000692c:	6fb9                	lui	t6,0xe
8000692e:	497e                	lw	s2,220(sp)
80006930:	81e5                	srli	a1,a1,0x19
80006932:	6803304f          	fnmadd.s	ft0,ft6,ft0,fa3,rup
80006936:	fea4292b          	.insn	4, 0xfea4292b
8000693a:	b88a6ee3          	bltu	s4,s0,800064d6 <input_data+0x11a6>
8000693e:	2cbd                	jal	80006bbc <input_data+0x188c>
80006940:	91ec                	.insn	2, 0x91ec
80006942:	100b4bc7          	fmsub.s	fs7,fs6,ft0,ft2,rmm
80006946:	3348                	fld	fa0,160(a4)
80006948:	a1b8                	fsd	fa4,64(a1)
8000694a:	32b546e3          	blt	a0,a1,80007476 <_end+0x136>
8000694e:	7214                	flw	fa3,32(a2)
80006950:	4d02                	lw	s10,0(sp)
80006952:	3869                	jal	800061ec <input_data+0xebc>
80006954:	f0ee                	fsw	fs11,96(sp)
80006956:	6c34                	flw	fa3,88(s0)
80006958:	0379                	addi	t1,t1,30
8000695a:	2c52                	fld	fs8,272(sp)
8000695c:	df4c                	sw	a1,60(a4)
8000695e:	7165                	addi	sp,sp,-400
80006960:	58c2                	lw	a7,48(sp)
80006962:	4c11                	li	s8,4
80006964:	d711                	beqz	a4,80006870 <input_data+0x1540>
80006966:	dc48778b          	.insn	4, 0xdc48778b
8000696a:	253a                	fld	fa0,392(sp)
8000696c:	3b66                	fld	fs6,120(sp)
8000696e:	7dac                	flw	fa1,120(a1)
80006970:	dd6a                	sw	s10,184(sp)
80006972:	c9d6745b          	.insn	4, 0xc9d6745b
80006976:	397a                	fld	fs2,440(sp)
80006978:	d378                	sw	a4,100(a4)
8000697a:	45cc                	lw	a1,12(a1)
8000697c:	7ec6e397          	auipc	t2,0x7ec6e
80006980:	8964                	.insn	2, 0x8964
80006982:	306a                	fld	ft0,184(sp)
80006984:	895f 0679 56ec      	.insn	6, 0x56ec0679895f
8000698a:	3a74                	fld	fa3,240(a2)
8000698c:	bc82                	fsd	ft0,120(sp)
8000698e:	2a95                	jal	80006b02 <input_data+0x17d2>
80006990:	6413036f          	jal	t1,800377d0 <__global_pointer$+0x2fca0>
80006994:	e670                	fsw	fa2,76(a2)
80006996:	7359                	lui	t1,0xffff6
80006998:	0e1e124f          	.insn	4, 0x0e1e124f
8000699c:	d285                	beqz	a3,800068bc <input_data+0x158c>
8000699e:	156e5bdb          	.insn	4, 0x156e5bdb
800069a2:	3f8a                	fld	ft11,160(sp)
800069a4:	7672                	flw	fa2,60(sp)
800069a6:	5fd2                	lw	t6,52(sp)
800069a8:	5fea                	lw	t6,184(sp)
800069aa:	429272d7          	.insn	4, 0x429272d7
800069ae:	79cd38eb          	.insn	4, 0x79cd38eb
800069b2:	675a                	flw	fa4,148(sp)
800069b4:	4595                	li	a1,5
800069b6:	00d9                	addi	ra,ra,22 # e016 <_start-0x7fff1fea>
800069b8:	ad26                	fsd	fs1,152(sp)
800069ba:	59ce                	lw	s3,240(sp)
800069bc:	9e1e                	add	t3,t3,t2
800069be:	328d                	jal	80006320 <input_data+0xff0>
800069c0:	d58c                	sw	a1,40(a1)
800069c2:	463a                	lw	a2,140(sp)
800069c4:	490d                	li	s2,3
800069c6:	249c                	fld	fa5,8(s1)
800069c8:	6ca0                	flw	fs0,88(s1)
800069ca:	5c312b9b          	.insn	4, 0x5c312b9b
800069ce:	5a21                	li	s4,-24
800069d0:	08ea                	slli	a7,a7,0x1a
800069d2:	03c5                	addi	t2,t2,17 # fec7498d <__global_pointer$+0x7ec6ce5d>
800069d4:	737c                	flw	fa5,100(a4)
800069d6:	cfe139bf 099e6a54 	.insn	8, 0x099e6a54cfe139bf
800069de:	539c                	lw	a5,32(a5)
800069e0:	a0ae                	fsd	fa1,64(sp)
800069e2:	50c9                	li	ra,-14
800069e4:	62e46d6f          	jal	s10,8004d012 <__global_pointer$+0x454e2>
800069e8:	22c2                	fld	ft5,16(sp)
800069ea:	45f8                	lw	a4,76(a1)
800069ec:	0a4d                	addi	s4,s4,19
800069ee:	3e2a                	fld	ft8,168(sp)
800069f0:	d214                	sw	a3,32(a2)
800069f2:	4e9c                	lw	a5,24(a3)
800069f4:	1402                	slli	s0,s0,0x20
800069f6:	447e                	lw	s0,220(sp)
800069f8:	7c93425b          	.insn	4, 0x7c93425b
800069fc:	ddb4                	sw	a3,120(a1)
800069fe:	479f 0b53 0ee7      	.insn	6, 0x0ee70b53479f
80006a04:	ffa0                	fsw	fs0,120(a5)
80006a06:	3db1                	jal	80006862 <input_data+0x1532>
80006a08:	49a5                	li	s3,9
80006a0a:	2835                	jal	80006a46 <input_data+0x1716>
80006a0c:	f865                	bnez	s0,800069fc <input_data+0x16cc>
80006a0e:	40fd                	li	ra,31
80006a10:	73d9c2c7          	fmsub.d	ft5,fs3,ft9,fa4,rmm
80006a14:	74e5                	lui	s1,0xffff9
80006a16:	37ac                	fld	fa1,104(a5)
80006a18:	7c6f2dab          	.insn	4, 0x7c6f2dab
80006a1c:	64c0                	flw	fs0,12(s1)
80006a1e:	cec02c07          	flw	fs8,-788(zero) # fffffcec <__global_pointer$+0x7fff81bc>
80006a22:	4dc9                	li	s11,18
80006a24:	41a4                	lw	s1,64(a1)
80006a26:	a371056f          	jal	a0,7ff1745c <_start-0xe8ba4>
80006a2a:	7cc865cf          	.insn	4, 0x7cc865cf
80006a2e:	647c                	flw	fa5,76(s0)
80006a30:	15bb2fe7          	.insn	4, 0x15bb2fe7
80006a34:	6eea2803          	lw	a6,1774(s4)
80006a38:	4961                	li	s2,24
80006a3a:	72e1                	lui	t0,0xffff8
80006a3c:	360e2f13          	slti	t5,t3,864
80006a40:	40fed847          	fmsub.s	fa6,ft9,fa5,fs0,unknown
80006a44:	99c5                	andi	a1,a1,-15
80006a46:	ae6e3533          	.insn	4, 0xae6e3533
80006a4a:	60db7567          	.insn	4, 0x60db7567
80006a4e:	98ff6fb3          	.insn	4, 0x98ff6fb3
80006a52:	3741                	jal	800069d2 <input_data+0x16a2>
80006a54:	a5a0                	fsd	fs0,72(a1)
80006a56:	4522                	lw	a0,8(sp)
80006a58:	70c8                	flw	fa0,36(s1)
80006a5a:	1f332b87          	flw	fs7,499(t1) # ffff61f3 <__global_pointer$+0x7ffee6c3>
80006a5e:	14d1                	addi	s1,s1,-12 # ffff8ff4 <__global_pointer$+0x7fff14c4>
80006a60:	12f40083          	lb	ra,303(s0)
80006a64:	18cd                	addi	a7,a7,-13 # fffe1ff3 <__global_pointer$+0x7ffda4c3>
80006a66:	4e3b0d77          	.insn	4, 0x4e3b0d77
80006a6a:	71531ccf          	fnmadd.s	fs9,ft6,fs5,fa4,rtz
80006a6e:	938a3dbf f69e0e65 	.insn	8, 0xf69e0e65938a3dbf
80006a76:	4c4a                	lw	s8,144(sp)
80006a78:	4a5ba023          	sw	t0,1184(s7)
80006a7c:	be14                	fsd	fa3,56(a2)
80006a7e:	6a980ebf 88496aea 	.insn	8, 0x88496aea6a980ebf
80006a86:	2cd8                	fld	fa4,152(s1)
80006a88:	112b5d0f          	.insn	4, 0x112b5d0f
80006a8c:	d676                	sw	t4,44(sp)
80006a8e:	7b96                	flw	fs7,100(sp)
80006a90:	7988de27          	.insn	4, 0x7988de27
80006a94:	24d266c3          	.insn	4, 0x24d266c3
80006a98:	59f1                	li	s3,-4
80006a9a:	19d5                	addi	s3,s3,-11 # ffff4ff5 <__global_pointer$+0x7ffed4c5>
80006a9c:	d75f 1dcb 8b75      	.insn	6, 0x8b751dcbd75f
80006aa2:	3e9d                	jal	80006618 <input_data+0x12e8>
80006aa4:	13bf00c7          	fmsub.d	ft1,ft10,fs11,ft2,rne
80006aa8:	24ff 32be 345f 4d2e 	.insn	14, 0x3ef5663e9be54d2e345f32be24ff
80006ab0:	9be5 663e 3ef5 
80006ab6:	451f 742a 3d5a      	.insn	6, 0x3d5a742a451f
80006abc:	5dae                	lw	s11,232(sp)
80006abe:	78d8                	flw	fa4,52(s1)
80006ac0:	628bd913          	.insn	4, 0x628bd913
80006ac4:	6fc00817          	auipc	a6,0x6fc00
80006ac8:	c139                	beqz	a0,80006b0e <input_data+0x17de>
80006aca:	9338498f          	.insn	4, 0x9338498f
80006ace:	0f89                	addi	t6,t6,2 # e002 <_start-0x7fff1ffe>
80006ad0:	3e27b777          	.insn	4, 0x3e27b777
80006ad4:	8780                	.insn	2, 0x8780
80006ad6:	5390                	lw	a2,32(a5)
80006ad8:	4d81                	li	s11,0
80006ada:	2b84                	fld	fs1,16(a5)
80006adc:	96cd                	srai	a3,a3,0x33
80006ade:	6808                	flw	fa0,16(s0)
80006ae0:	21b4                	fld	fa3,64(a1)
80006ae2:	5c6e                	lw	s8,248(sp)
80006ae4:	378e                	fld	fa5,224(sp)
80006ae6:	67435fd3          	.insn	4, 0x67435fd3
80006aea:	39c9                	jal	800067bc <input_data+0x148c>
80006aec:	0f7c                	addi	a5,sp,924
80006aee:	2e6a                	fld	ft8,152(sp)
80006af0:	6e7e                	flw	ft8,220(sp)
80006af2:	6940                	flw	fs0,20(a0)
80006af4:	d24e                	sw	s3,36(sp)
80006af6:	2b9d                	jal	8000706c <input_data+0x1d3c>
80006af8:	6aa2                	flw	fs5,8(sp)
80006afa:	5f5e                	lw	t5,244(sp)
80006afc:	8ffa                	mv	t6,t5
80006afe:	74b0                	flw	fa2,104(s1)
80006b00:	000a8b27          	.insn	4, 0x000a8b27
80006b04:	6a3e                	flw	fs4,204(sp)
80006b06:	1a7c                	addi	a5,sp,316
80006b08:	4c38983f 4969523d 	.insn	8, 0x4969523d4c38983f
80006b10:	04c5                	addi	s1,s1,17
80006b12:	239c                	fld	fa5,0(a5)
80006b14:	0d2d                	addi	s10,s10,11 # 1700b <_start-0x7ffe8ff5>
80006b16:	40ce                	lw	ra,208(sp)
80006b18:	0f637b73          	csrrci	s6,0xf6,6
80006b1c:	da26                	sw	s1,52(sp)
80006b1e:	3a007cc7          	fmsub.d	fs9,ft0,ft0,ft7
80006b22:	5730                	lw	a2,104(a4)
80006b24:	7b35733f 610f3a28 	.insn	8, 0x610f3a287b35733f
80006b2c:	2d73d15b          	.insn	4, 0x2d73d15b
80006b30:	9f7d                	.insn	2, 0x9f7d
80006b32:	5c0d472b          	.insn	4, 0x5c0d472b
80006b36:	505e                	.insn	2, 0x505e
80006b38:	c854                	sw	a3,20(s0)
80006b3a:	6c9d                	lui	s9,0x7
80006b3c:	8e32                	mv	t3,a2
80006b3e:	6cdf a0e2 4248      	.insn	6, 0x4248a0e26cdf
80006b44:	5be8                	lw	a0,116(a5)
80006b46:	7c80                	flw	fs0,56(s1)
80006b48:	9914                	.insn	2, 0x9914
80006b4a:	3095                	jal	800063ae <input_data+0x107e>
80006b4c:	d7c8                	sw	a0,44(a5)
80006b4e:	74b2                	flw	fs1,44(sp)
80006b50:	4885                	li	a7,1
80006b52:	40cd                	li	ra,19
80006b54:	3491fb3f 73f00760 	.insn	8, 0x73f007603491fb3f
80006b5c:	9932                	add	s2,s2,a2
80006b5e:	62bc                	flw	fa5,64(a3)
80006b60:	1f8b77b7          	lui	a5,0x1f8b7
80006b64:	082b2a17          	auipc	s4,0x82b2
80006b68:	5071                	c.li	zero,-4
80006b6a:	55cb1f23          	sh	t3,1374(s6) # ffff555e <__global_pointer$+0x7ffeda2e>
80006b6e:	19a67017          	auipc	zero,0x19a67
80006b72:	3280                	fld	fs0,32(a3)
80006b74:	29b6                	fld	fs3,328(sp)
80006b76:	32c4                	fld	fs1,160(a3)
80006b78:	99ac                	.insn	2, 0x99ac
80006b7a:	50ad372b          	.insn	4, 0x50ad372b
80006b7e:	5af33dd7          	.insn	4, 0x5af33dd7
80006b82:	1b82                	slli	s7,s7,0x20
80006b84:	2e64                	fld	fs1,216(a2)
80006b86:	4f6e                	lw	t5,216(sp)
80006b88:	1c49                	addi	s8,s8,-14
80006b8a:	1f54                	addi	a3,sp,948
80006b8c:	52d6793b          	.insn	4, 0x52d6793b
80006b90:	8fd1                	or	a5,a5,a2
80006b92:	433a                	lw	t1,140(sp)
80006b94:	1b49                	addi	s6,s6,-14
80006b96:	4775                	li	a4,29
80006b98:	3085                	jal	800063f8 <input_data+0x10c8>
80006b9a:	3339                	jal	800068a8 <input_data+0x1578>
80006b9c:	4eda                	lw	t4,148(sp)
80006b9e:	2a21                	jal	80006cb6 <input_data+0x1986>
80006ba0:	12d6                	slli	t0,t0,0x35
80006ba2:	1629                	addi	a2,a2,-22
80006ba4:	da71                	beqz	a2,80006b78 <input_data+0x1848>
80006ba6:	08ad                	addi	a7,a7,11
80006ba8:	9280                	.insn	2, 0x9280
80006baa:	270d                	jal	800072cc <input_data+0x1f9c>
80006bac:	71490dbf 4f800661 	.insn	8, 0x4f80066171490dbf
80006bb4:	41aaf2ef          	jal	t0,800b5fce <__global_pointer$+0xae49e>
80006bb8:	dab4                	sw	a3,112(a3)
80006bba:	4c38                	lw	a4,88(s0)
80006bbc:	7c9296e3          	bne	t0,s1,80007b88 <__global_pointer$+0x58>
80006bc0:	82a8                	.insn	2, 0x82a8
80006bc2:	1f1d4497          	auipc	s1,0x1f1d4
80006bc6:	00c9                	addi	ra,ra,18
80006bc8:	c412                	sw	tp,8(sp)
80006bca:	598a                	lw	s3,160(sp)
80006bcc:	a514                	fsd	fa3,8(a0)
80006bce:	41be                	lw	gp,204(sp)
80006bd0:	5a5e                	lw	s4,244(sp)
80006bd2:	1472                	slli	s0,s0,0x3c
80006bd4:	c500                	sw	s0,8(a0)
80006bd6:	711f 79bb 601e      	.insn	6, 0x601e79bb711f
80006bdc:	0125                	addi	sp,sp,9 # 4f730009 <_start-0x308cfff7>
80006bde:	481f 3ffd 67c2      	.insn	6, 0x67c23ffd481f
80006be4:	52ca                	lw	t0,176(sp)
80006be6:	61fd                	lui	gp,0x1f
80006be8:	c658                	sw	a4,12(a2)
80006bea:	3a42                	fld	fs4,48(sp)
80006bec:	8746                	mv	a4,a7
80006bee:	2ef5                	jal	80006fea <input_data+0x1cba>
80006bf0:	b5b6                	fsd	fa3,232(sp)
80006bf2:	09bc                	addi	a5,sp,216
80006bf4:	a17a                	fsd	ft10,128(sp)
80006bf6:	40d5                	li	ra,21
80006bf8:	9f16                	add	t5,t5,t0
80006bfa:	ef6e0bef          	jal	s7,7ffe72f0 <_start-0x18d10>
80006bfe:	64d4                	flw	fa3,12(s1)
80006c00:	d1f1                	beqz	a1,80006bc4 <input_data+0x1894>
80006c02:	157e                	slli	a0,a0,0x3f
80006c04:	9f9f 6a88 2442      	.insn	6, 0x24426a889f9f
80006c0a:	021f 6af4 3108      	.insn	6, 0x31086af4021f
80006c10:	8282                	jr	t0
80006c12:	6d54                	flw	fa3,28(a0)
80006c14:	a63a                	fsd	fa4,264(sp)
80006c16:	51c9                	li	gp,-14
80006c18:	d17c                	sw	a5,100(a0)
80006c1a:	493e3f67          	.insn	4, 0x493e3f67
80006c1e:	3a06                	fld	fs4,96(sp)
80006c20:	2998986b          	.insn	4, 0x2998986b
80006c24:	f9c1                	bnez	a1,80006bb4 <input_data+0x1884>
80006c26:	379b0953          	.insn	4, 0x379b0953
80006c2a:	f5910a17          	auipc	s4,0xf5910
80006c2e:	0ac2                	slli	s5,s5,0x10
80006c30:	8648                	.insn	2, 0x8648
80006c32:	06ad                	addi	a3,a3,11 # 20a3100b <_start-0x5f5ceff5>
80006c34:	079f193f 0e683a1d 	.insn	8, 0x0e683a1d079f193f
80006c3c:	c005                	beqz	s0,80006c5c <input_data+0x192c>
80006c3e:	777c                	flw	fa5,108(a4)
80006c40:	01635b5b          	.insn	4, 0x01635b5b
80006c44:	770d9d97          	auipc	s11,0x770d9
80006c48:	6a49                	lui	s4,0x12
80006c4a:	2be5                	jal	80007242 <input_data+0x1f12>
80006c4c:	039c                	addi	a5,sp,448
80006c4e:	766e                	flw	fa2,248(sp)
80006c50:	2534                	fld	fa3,72(a0)
80006c52:	5d9e                	lw	s11,228(sp)
80006c54:	8ae9                	andi	a3,a3,26
80006c56:	b9e37b3b          	.insn	4, 0xb9e37b3b
80006c5a:	5b6b5737          	lui	a4,0x5b6b5
80006c5e:	08da                	slli	a7,a7,0x16
80006c60:	81fd                	srli	a1,a1,0x1f
80006c62:	24d8                	fld	fa4,136(s1)
80006c64:	160e                	slli	a2,a2,0x23
80006c66:	663d                	lui	a2,0xf
80006c68:	7b2b5f8b          	.insn	4, 0x7b2b5f8b
80006c6c:	b8ee                	fsd	fs11,112(sp)
80006c6e:	7e44                	flw	fs1,60(a2)
80006c70:	cd60                	sw	s0,92(a0)
80006c72:	0bd0                	addi	a2,sp,468
80006c74:	003e                	c.slli	zero,0xf
80006c76:	6d6d                	lui	s10,0x1b
80006c78:	503866b3          	.insn	4, 0x503866b3
80006c7c:	4d82                	lw	s11,0(sp)
80006c7e:	f2147167          	.insn	4, 0xf2147167
80006c82:	cad274eb          	.insn	4, 0xcad274eb
80006c86:	4cf9                	li	s9,30
80006c88:	4efa053b          	.insn	4, 0x4efa053b
80006c8c:	58ee                	lw	a7,248(sp)
80006c8e:	8a0b31e3          	.insn	4, 0x8a0b31e3
80006c92:	25246e3f 70ab1dd3 	.insn	8, 0x70ab1dd325246e3f
80006c9a:	0f155f57          	.insn	4, 0x0f155f57
80006c9e:	65ae                	flw	fa1,200(sp)
80006ca0:	9731                	srai	a4,a4,0x2c
80006ca2:	5f65                	li	t5,-7
80006ca4:	1692                	slli	a3,a3,0x24
80006ca6:	170d                	addi	a4,a4,-29 # 5b6b4fe3 <_start-0x2494b01d>
80006ca8:	8d0c                	.insn	2, 0x8d0c
80006caa:	3d52                	fld	fs10,304(sp)
80006cac:	e6d2                	fsw	fs4,76(sp)
80006cae:	6320                	flw	fs0,64(a4)
80006cb0:	4ed6bee3          	.insn	4, 0x4ed6bee3
80006cb4:	86a0                	.insn	2, 0x86a0
80006cb6:	5864                	lw	s1,116(s0)
80006cb8:	411c6f63          	bltu	s8,a7,800070d6 <input_data+0x1da6>
80006cbc:	c3dd                	beqz	a5,80006d62 <input_data+0x1a32>
80006cbe:	6366                	flw	ft6,88(sp)
80006cc0:	91ec                	.insn	2, 0x91ec
80006cc2:	752c                	flw	fa1,104(a0)
80006cc4:	e53c                	fsw	fa5,72(a0)
80006cc6:	3f68                	fld	fa0,248(a4)
80006cc8:	67d54dcb          	.insn	4, 0x67d54dcb
80006ccc:	8de8                	.insn	2, 0x8de8
80006cce:	11e4                	addi	s1,sp,236
80006cd0:	0b3d                	addi	s6,s6,15
80006cd2:	24fc                	fld	fa5,200(s1)
80006cd4:	d51d                	beqz	a0,80006c02 <input_data+0x18d2>
80006cd6:	1e08                	addi	a0,sp,816
80006cd8:	172d                	addi	a4,a4,-21
80006cda:	7cdd                	lui	s9,0xffff7
80006cdc:	3752e6c7          	.insn	4, 0x3752e6c7
80006ce0:	0f29                	addi	t5,t5,10
80006ce2:	1091                	addi	ra,ra,-28
80006ce4:	da45                	beqz	a2,80006c94 <input_data+0x1964>
80006ce6:	8c9f63fb          	.insn	4, 0x8c9f63fb
80006cea:	d1cb4a73          	.insn	4, 0xd1cb4a73
80006cee:	55582fa7          	fsw	fs5,1375(a6) # efc07023 <__global_pointer$+0x6fbff4f3>
80006cf2:	4656                	lw	a2,84(sp)
80006cf4:	02e12ea7          	fsw	fa4,61(sp)
80006cf8:	6f3a5657          	.insn	4, 0x6f3a5657
80006cfc:	53ca3e2f          	.insn	4, 0x53ca3e2f
80006d00:	c751                	beqz	a4,80006d8c <input_data+0x1a5c>
80006d02:	7dc1                	lui	s11,0xffff0
80006d04:	fee2                	fsw	fs8,124(sp)
80006d06:	2e4b5f0b          	.insn	4, 0x2e4b5f0b
80006d0a:	2299                	jal	80006e50 <input_data+0x1b20>
80006d0c:	86aa                	mv	a3,a0
80006d0e:	6876                	flw	fa6,92(sp)
80006d10:	fda0                	fsw	fs0,120(a1)
80006d12:	712a4fd3          	.insn	4, 0x712a4fd3
80006d16:	da6636f7          	.insn	4, 0xda6636f7
80006d1a:	182653ab          	.insn	4, 0x182653ab
80006d1e:	11da                	slli	gp,gp,0x36
80006d20:	259f 503a f848      	.insn	6, 0xf848503a259f
80006d26:	4d60                	lw	s0,92(a0)
80006d28:	5068                	lw	a0,100(s0)
80006d2a:	91897ee3          	bgeu	s2,s8,80006646 <input_data+0x1316>
80006d2e:	285d                	jal	80006de4 <input_data+0x1ab4>
80006d30:	318c39e7          	.insn	4, 0x318c39e7
80006d34:	94b8                	.insn	2, 0x94b8
80006d36:	2c2d                	jal	80006f70 <input_data+0x1c40>
80006d38:	297efd5b          	.insn	4, 0x297efd5b
80006d3c:	ceae                	sw	a1,92(sp)
80006d3e:	175271f7          	.insn	4, 0x175271f7
80006d42:	3c96                	fld	fs9,352(sp)
80006d44:	c5f0                	sw	a2,76(a1)
80006d46:	28a6                	fld	fa7,72(sp)
80006d48:	caae                	sw	a1,84(sp)
80006d4a:	1518                	addi	a4,sp,672
80006d4c:	7078                	flw	fa4,100(s0)
80006d4e:	2159                	jal	800071d4 <input_data+0x1ea4>
80006d50:	98ac                	.insn	2, 0x98ac
80006d52:	1eb8                	addi	a4,sp,888
80006d54:	0dc0                	addi	s0,sp,724
80006d56:	6e66                	flw	ft8,88(sp)
80006d58:	184e1aef          	jal	s5,800e7edc <__global_pointer$+0xe03ac>
80006d5c:	93fd                	srli	a5,a5,0x3f
80006d5e:	82f53067          	.insn	4, 0x82f53067
80006d62:	6ed8                	flw	fa4,28(a3)
80006d64:	07d4                	addi	a3,sp,964
80006d66:	4192                	lw	gp,4(sp)
80006d68:	9829                	andi	s0,s0,-22
80006d6a:	1db9                	addi	s11,s11,-18 # fffeffee <__global_pointer$+0x7ffe84be>
80006d6c:	8add                	andi	a3,a3,23
80006d6e:	26f5                	jal	8000715a <input_data+0x1e2a>
80006d70:	ac55                	j	80007024 <input_data+0x1cf4>
80006d72:	37572da3          	sw	s5,891(a4)
80006d76:	08fe                	slli	a7,a7,0x1f
80006d78:	4dd8                	lw	a4,28(a1)
80006d7a:	1395                	addi	t2,t2,-27
80006d7c:	86b6                	mv	a3,a3
80006d7e:	0498                	addi	a4,sp,576
80006d80:	679c                	flw	fa5,8(a5)
80006d82:	69d1                	lui	s3,0x14
80006d84:	ccb2                	sw	a2,88(sp)
80006d86:	6d6e                	flw	fs10,216(sp)
80006d88:	2885                	jal	80006df8 <input_data+0x1ac8>
80006d8a:	2a1a                	fld	fs4,384(sp)
80006d8c:	49b0                	lw	a2,80(a1)
80006d8e:	49ed                	li	s3,27
80006d90:	de75                	beqz	a2,80006d8c <input_data+0x1a5c>
80006d92:	3209                	jal	80006694 <input_data+0x1364>
80006d94:	c572                	sw	t3,136(sp)
80006d96:	95023ed3          	.insn	4, 0x95023ed3
80006d9a:	6ca9                	lui	s9,0xa
80006d9c:	29d70e33          	.insn	4, 0x29d70e33
80006da0:	a428                	fsd	fa0,72(s0)
80006da2:	04f0                	addi	a2,sp,588
80006da4:	e848                	fsw	fa0,20(s0)
80006da6:	26e2                	fld	fa3,24(sp)
80006da8:	9944                	.insn	2, 0x9944
80006daa:	339f f7b8 373f      	.insn	6, 0x373ff7b8339f
80006db0:	6b08                	flw	fa0,16(a4)
80006db2:	4f09                	li	t5,2
80006db4:	3f29                	jal	80006cce <input_data+0x199e>
80006db6:	682e                	flw	fa6,200(sp)
80006db8:	60d8                	flw	fa4,4(s1)
80006dba:	7ebd45f7          	.insn	4, 0x7ebd45f7
80006dbe:	5ad6                	lw	s5,116(sp)
80006dc0:	6680                	flw	fs0,8(a3)
80006dc2:	1a72                	slli	s4,s4,0x3c
80006dc4:	d196                	sw	t0,224(sp)
80006dc6:	31cc                	fld	fa1,160(a1)
80006dc8:	d704                	sw	s1,40(a4)
80006dca:	0051                	c.nop	20
80006dcc:	69d2                	flw	fs3,20(sp)
80006dce:	7b48                	flw	fa0,52(a4)
80006dd0:	83b4                	.insn	2, 0x83b4
80006dd2:	645e                	flw	fs0,212(sp)
80006dd4:	80f5                	srli	s1,s1,0x1d
80006dd6:	7c05                	lui	s8,0xfffe1
80006dd8:	887a                	mv	a6,t5
80006dda:	720d                	lui	tp,0xfffe3
80006ddc:	05d1                	addi	a1,a1,20 # 736f3014 <_start-0xc90cfec>
80006dde:	42d638b3          	.insn	4, 0x42d638b3
80006de2:	6872                	flw	fa6,28(sp)
80006de4:	091f 0648 a6bb      	.insn	6, 0xa6bb0648091f
80006dea:	6a98                	flw	fa4,16(a3)
80006dec:	6f2a                	flw	ft10,136(sp)
80006dee:	6a89                	lui	s5,0x2
80006df0:	9b08                	.insn	2, 0x9b08
80006df2:	5548                	lw	a0,44(a0)
80006df4:	46f4                	lw	a3,76(a3)
80006df6:	203e                	fld	ft0,456(sp)
80006df8:	3499a707          	flw	fa4,841(s3) # 14349 <_start-0x7ffebcb7>
80006dfc:	de5d                	beqz	a2,80006dba <input_data+0x1a8a>
80006dfe:	292c                	fld	fa1,80(a0)
80006e00:	f2ea                	fsw	fs10,100(sp)
80006e02:	0c11                	addi	s8,s8,4 # fffe1004 <__global_pointer$+0x7ffd94d4>
80006e04:	5f000727          	.insn	4, 0x5f000727
80006e08:	96fd                	srai	a3,a3,0x3f
80006e0a:	1f98                	addi	a4,sp,1008
80006e0c:	0981                	addi	s3,s3,0
80006e0e:	1700                	addi	s0,sp,928
80006e10:	3615d7bf 1695bf1f 	.insn	8, 0x1695bf1f3615d7bf
80006e18:	1b1ae0d3          	fdiv.d	ft1,fs5,fa7,unknown
80006e1c:	cd00                	sw	s0,24(a0)
80006e1e:	0efd                	addi	t4,t4,31
80006e20:	5680bd3f 431ab1f5 	.insn	8, 0x431ab1f55680bd3f
80006e28:	d932                	sw	a2,176(sp)
80006e2a:	0144                	addi	s1,sp,132
80006e2c:	6d64                	flw	fs1,92(a0)
80006e2e:	61ec                	flw	fa1,68(a1)
80006e30:	2ff1affb          	.insn	4, 0x2ff1affb
80006e34:	2399                	jal	8000737a <_end+0x3a>
80006e36:	7a15                	lui	s4,0xfffe5
80006e38:	10ae                	slli	ra,ra,0x2b
80006e3a:	36b0                	fld	fa2,104(a3)
80006e3c:	e44c                	fsw	fa1,12(s0)
80006e3e:	5a49                	li	s4,-14
80006e40:	8469                	srai	s0,s0,0x1a
80006e42:	0850                	addi	a2,sp,20
80006e44:	5c12                	lw	s8,36(sp)
80006e46:	02e24423          	.insn	4, 0x02e24423
80006e4a:	ca7a06db          	.insn	4, 0xca7a06db
80006e4e:	6722                	flw	fa4,8(sp)
80006e50:	6133ac8b          	.insn	4, 0x6133ac8b
80006e54:	03065ce3          	bge	a2,a6,8000768c <_end+0x34c>
80006e58:	5d24                	lw	s1,120(a0)
80006e5a:	6806                	flw	fa6,64(sp)
80006e5c:	4e4c9107          	.insn	4, 0x4e4c9107
80006e60:	7e40                	flw	fs0,60(a2)
80006e62:	4025                	c.li	zero,9
80006e64:	4a88                	lw	a0,16(a3)
80006e66:	6c7f b6ea 381d dbb7 	.insn	22, 0x2a0d35ba6d82ac1f2b0b54273014dbb7381db6ea6c7f
80006e6e:	3014 5427 2b0b ac1f 
80006e76:	6d82 35ba 2a0d 
80006e7c:	ee66                	fsw	fs9,28(sp)
80006e7e:	7c82                	flw	fs9,32(sp)
80006e80:	932c                	.insn	2, 0x932c
80006e82:	1e6d                	addi	t3,t3,-5 # 3ffb <_start-0x7fffc005>
80006e84:	c325                	beqz	a4,80006ee4 <input_data+0x1bb4>
80006e86:	0314                	addi	a3,sp,384
80006e88:	36c6                	fld	fa3,112(sp)
80006e8a:	3fa13543          	.insn	4, 0x3fa13543
80006e8e:	51e5                	li	gp,-7
80006e90:	3eb0                	fld	fa2,120(a3)
80006e92:	3c06                	fld	fs8,96(sp)
80006e94:	5d55                	li	s10,-11
80006e96:	28d4                	fld	fa3,144(s1)
80006e98:	57b4b82b          	.insn	4, 0x57b4b82b
80006e9c:	6251                	lui	tp,0x14
80006e9e:	5cb4                	lw	a3,120(s1)
80006ea0:	6559                	lui	a0,0x16
80006ea2:	486c                	lw	a1,84(s0)
80006ea4:	a2b4                	fsd	fa3,64(a3)
80006ea6:	54ed                	li	s1,-5
80006ea8:	272cdbc7          	.insn	4, 0x272cdbc7
80006eac:	9892                	add	a7,a7,tp
80006eae:	52f5                	li	t0,-3
80006eb0:	398d5073          	csrwi	0x398,26
80006eb4:	240481ab          	.insn	4, 0x240481ab
80006eb8:	7db2                	flw	fs11,44(sp)
80006eba:	81a24c9b          	.insn	4, 0x81a24c9b
80006ebe:	145a                	slli	s0,s0,0x36
80006ec0:	0002                	c.slli	zero,0x0
80006ec2:	1189                	addi	gp,gp,-30 # 1efe2 <_start-0x7ffe101e>
80006ec4:	7b4a                	flw	fs6,176(sp)
80006ec6:	25be                	fld	fa1,456(sp)
80006ec8:	711c785b          	.insn	4, 0x711c785b
80006ecc:	74f4                	flw	fa3,108(s1)
80006ece:	7180                	flw	fs0,32(a1)
80006ed0:	1d65                	addi	s10,s10,-7 # 1aff9 <_start-0x7ffe5007>
80006ed2:	3116                	fld	ft2,352(sp)
80006ed4:	b1aa                	fsd	fa0,224(sp)
80006ed6:	5e0d                	li	t3,-29
80006ed8:	d041                	beqz	s0,80006e58 <input_data+0x1b28>
80006eda:	7830                	flw	fa2,112(s0)
80006edc:	3c64                	fld	fs1,248(s0)
80006ede:	6f09                	lui	t5,0x2
80006ee0:	226a2ea7          	fsw	ft6,573(s4) # fffe523d <__global_pointer$+0x7ffdd70d>
80006ee4:	3a76                	fld	fs4,376(sp)
80006ee6:	a14b3c5b          	.insn	4, 0xa14b3c5b
80006eea:	0ebc                	addi	a5,sp,856
80006eec:	ff86                	fsw	ft1,252(sp)
80006eee:	746525ef          	jal	a1,80059634 <__global_pointer$+0x51b04>
80006ef2:	7465                	lui	s0,0xffff9
80006ef4:	d780                	sw	s0,40(a5)
80006ef6:	564c                	lw	a1,44(a2)
80006ef8:	47c4                	lw	s1,12(a5)
80006efa:	0670                	addi	a2,sp,780
80006efc:	3c985217          	auipc	tp,0x3c985
80006f00:	7a0e7c57          	.insn	4, 0x7a0e7c57
80006f04:	578e                	lw	a5,224(sp)
80006f06:	3842                	fld	fa6,48(sp)
80006f08:	def5                	beqz	a3,80006f04 <input_data+0x1bd4>
80006f0a:	2ef0                	fld	fa2,216(a3)
80006f0c:	7796                	flw	fa5,100(sp)
80006f0e:	00c2                	slli	ra,ra,0x10
80006f10:	127e                	slli	tp,tp,0x3f
80006f12:	32e0                	fld	fs0,224(a3)
80006f14:	0138                	addi	a4,sp,136
80006f16:	13e9                	addi	t2,t2,-6
80006f18:	cf61                	beqz	a4,80006ff0 <input_data+0x1cc0>
80006f1a:	0dea20fb          	.insn	4, 0x0dea20fb
80006f1e:	daea40ef          	jal	7ffab4cc <_start-0x54b34>
80006f22:	1dac                	addi	a1,sp,760
80006f24:	89e9                	andi	a1,a1,26
80006f26:	c6977987          	.insn	4, 0xc6977987
80006f2a:	5582                	lw	a1,32(sp)
80006f2c:	4ced7143          	.insn	4, 0x4ced7143
80006f30:	7e24                	flw	fs1,120(a2)
80006f32:	0486                	slli	s1,s1,0x1
80006f34:	390b3b03          	.insn	4, 0x390b3b03
80006f38:	7ef912b7          	lui	t0,0x7ef91
80006f3c:	4b00                	lw	s0,16(a4)
80006f3e:	f23d1c73          	csrrw	s8,0xf23,s10
80006f42:	38ca                	fld	fa7,176(sp)
80006f44:	071f 6487 fb86      	.insn	6, 0xfb866487071f
80006f4a:	1b60                	addi	s0,sp,444
80006f4c:	ddc4                	sw	s1,60(a1)
80006f4e:	2cd0                	fld	fa2,152(s1)
80006f50:	0a74                	addi	a3,sp,284
80006f52:	31d9                	jal	80006c18 <input_data+0x18e8>
80006f54:	7171                	addi	sp,sp,-176
80006f56:	78df 5324 01b7      	.insn	6, 0x01b7532478df
80006f5c:	c0ac                	sw	a1,64(s1)
80006f5e:	133c                	addi	a5,sp,424
80006f60:	177e                	slli	a4,a4,0x3f
80006f62:	4f96                	lw	t6,68(sp)
80006f64:	2eea494b          	.insn	4, 0x2eea494b
80006f68:	1870                	addi	a2,sp,60
80006f6a:	06c5                	addi	a3,a3,17
80006f6c:	db9c                	sw	a5,48(a5)
80006f6e:	38ea                	fld	fa7,184(sp)
80006f70:	0276                	slli	tp,tp,0x1d
80006f72:	4e81                	li	t4,0
80006f74:	5bb8                	lw	a4,112(a5)
80006f76:	a4f94d77          	.insn	4, 0xa4f94d77
80006f7a:	77c2                	flw	fa5,48(sp)
80006f7c:	5c4d96b3          	.insn	4, 0x5c4d96b3
80006f80:	ec61                	bnez	s0,80007058 <input_data+0x1d28>
80006f82:	5d497a2b          	.insn	4, 0x5d497a2b
80006f86:	809e2ba7          	fsw	fs1,-2025(t3)
80006f8a:	6a35                	lui	s4,0xd
80006f8c:	4ee1                	li	t4,24
80006f8e:	7c9d                	lui	s9,0xfffe7
80006f90:	fc5c                	fsw	fa5,60(s0)
80006f92:	6dec3b3b          	.insn	4, 0x6dec3b3b
80006f96:	74c8                	flw	fa0,44(s1)
80006f98:	94c6                	add	s1,s1,a7
80006f9a:	4fa9                	li	t6,10
80006f9c:	4190                	lw	a2,0(a1)
80006f9e:	2931                	jal	800073ba <_end+0x7a>
80006fa0:	a664                	fsd	fs1,200(a2)
80006fa2:	681f b8f7 37c3      	.insn	6, 0x37c3b8f7681f
80006fa8:	1936                	slli	s2,s2,0x2d
80006faa:	42f8                	lw	a4,68(a3)
80006fac:	417f 0676 54c2 5626 	.insn	18, 0xa6ab075a34930a1dd345562654c20676417f
80006fb4:	d345 0a1d 3493 075a 
80006fbc:	a6ab 
80006fbe:	6182                	flw	ft3,0(sp)
80006fc0:	fe11                	bnez	a2,80006edc <input_data+0x1bac>
80006fc2:	2828                	fld	fa0,80(s0)
80006fc4:	79c39977          	.insn	4, 0x79c39977
80006fc8:	2d2aea73          	csrrsi	s4,0x2d2,21
80006fcc:	0b6e                	slli	s6,s6,0x1b
80006fce:	1e8c                	addi	a1,sp,880
80006fd0:	d1ee                	sw	s11,224(sp)
80006fd2:	0721                	addi	a4,a4,8
80006fd4:	705c                	flw	fa5,36(s0)
80006fd6:	91200377          	.insn	4, 0x91200377
80006fda:	88a17c9b          	.insn	4, 0x88a17c9b
80006fde:	1cfa                	slli	s9,s9,0x3e
80006fe0:	c63a                	sw	a4,12(sp)
80006fe2:	6089                	lui	ra,0x2
80006fe4:	19cee96b          	.insn	4, 0x19cee96b
80006fe8:	a8ed                	j	800070e2 <input_data+0x1db2>
80006fea:	42fc3557          	.insn	4, 0x42fc3557
80006fee:	169e                	slli	a3,a3,0x27
80006ff0:	6f0e                	flw	ft10,192(sp)
80006ff2:	70b5                	lui	ra,0xfffed
80006ff4:	ed6c                	fsw	fa1,92(a0)
80006ff6:	706e                	flw	ft0,248(sp)
80006ff8:	8f2e                	mv	t5,a1
80006ffa:	6ec8                	flw	fa0,28(a3)
80006ffc:	39c73b7f 49572b3c 	.insn	16, 0x14f726d670b4af3749572b3c39c73b7f
80007004:	70b4af37 14f726d6 
8000700c:	7509                	lui	a0,0xfffe2
8000700e:	0ccc                	addi	a1,sp,596
80007010:	4f7e                	lw	t5,220(sp)
80007012:	c8955c63          	bge	a0,s1,800064aa <input_data+0x117a>
80007016:	30b0125b          	.insn	4, 0x30b0125b
8000701a:	0191                	addi	gp,gp,4 # 80007b34 <__global_pointer$+0x4>
8000701c:	040ea107          	flw	ft2,64(t4)
80007020:	9a3e                	add	s4,s4,a5
80007022:	03435273          	csrrwi	tp,0x34,6
80007026:	6816                	flw	fa6,68(sp)
80007028:	ad38                	fsd	fa4,88(a0)
8000702a:	40f9                	li	ra,30
8000702c:	a545                	j	800076cc <_end+0x38c>
8000702e:	da0162d3          	.insn	4, 0xda0162d3
80007032:	7c11                	lui	s8,0xfffe4
80007034:	7015                	c.lui	zero,0xfffe5
80007036:	4216438f          	.insn	4, 0x4216438f
8000703a:	6ce86427          	.insn	4, 0x6ce86427
8000703e:	50713e9b          	.insn	4, 0x50713e9b
80007042:	6ba6                	flw	fs7,72(sp)
80007044:	8e36                	mv	t3,a3
80007046:	6621                	lui	a2,0x8
80007048:	3d39                	jal	80006e66 <input_data+0x1b36>
8000704a:	1f09                	addi	t5,t5,-30 # 1fe2 <_start-0x7fffe01e>
8000704c:	9675                	srai	a2,a2,0x3d
8000704e:	fc0518e3          	bnez	a0,8000701e <input_data+0x1cee>
80007052:	50c4                	lw	s1,36(s1)
80007054:	648d                	lui	s1,0x3
80007056:	25a2                	fld	fa1,8(sp)
80007058:	6f8c                	flw	fa1,24(a5)
8000705a:	b10867db          	.insn	4, 0xb10867db
8000705e:	7bd6                	flw	fs7,116(sp)
80007060:	65dd924f          	.insn	4, 0x65dd924f
80007064:	23688f3b          	.insn	4, 0x23688f3b
80007068:	b958                	fsd	fa4,176(a0)
8000706a:	37da                	fld	fa5,432(sp)
8000706c:	2c3cdaab          	.insn	4, 0x2c3cdaab
80007070:	94e1                	srai	s1,s1,0x38
80007072:	7184                	flw	fs1,32(a1)
80007074:	6341                	lui	t1,0x10
80007076:	c23634eb          	.insn	4, 0xc23634eb
8000707a:	b1bf4ccf          	fnmadd.s	fs9,ft10,fs11,fs6,rmm
8000707e:	194e                	slli	s2,s2,0x33
80007080:	8add                	andi	a3,a3,23
80007082:	5948                	lw	a0,52(a0)
80007084:	31766a3f 5282f6af 	.insn	8, 0x5282f6af31766a3f
8000708c:	ab91                	j	800075e0 <_end+0x2a0>
8000708e:	0ee8                	addi	a0,sp,860
80007090:	0919                	addi	s2,s2,6 # 1b006 <_start-0x7ffe4ffa>
80007092:	0bed                	addi	s7,s7,27
80007094:	29599857          	.insn	4, 0x29599857
80007098:	8572                	mv	a0,t3
8000709a:	5b04                	lw	s1,48(a4)
8000709c:	0211                	addi	tp,tp,4 # bc98bf00 <__global_pointer$+0x3c9843d0>
8000709e:	572c                	lw	a1,104(a4)
800070a0:	d2ea                	sw	s10,100(sp)
800070a2:	6495                	lui	s1,0x5
800070a4:	be30                	fsd	fa2,120(a2)
800070a6:	b63144f3          	.insn	4, 0xb63144f3
800070aa:	0e64                	addi	s1,sp,796
800070ac:	8a9e                	mv	s5,t2
800070ae:	fd9646fb          	.insn	4, 0xfd9646fb
800070b2:	4a86                	lw	s5,64(sp)
800070b4:	d916                	sw	t0,176(sp)
800070b6:	7b0a                	flw	fs6,160(sp)
800070b8:	9418                	.insn	2, 0x9418
800070ba:	01a4                	addi	s1,sp,200
800070bc:	e7fa                	fsw	ft10,204(sp)
800070be:	7015                	c.lui	zero,0xfffe5
800070c0:	a050                	fsd	fa2,128(s0)
800070c2:	03407643          	fmadd.d	fa2,ft0,fs4,ft0
800070c6:	063e                	slli	a2,a2,0xf
800070c8:	85ea                	mv	a1,s10
800070ca:	4eec                	lw	a1,92(a3)
800070cc:	a95e                	fsd	fs7,144(sp)
800070ce:	3aef40f3          	.insn	4, 0x3aef40f3
800070d2:	e62853a3          	.insn	4, 0xe62853a3
800070d6:	7316                	flw	ft6,100(sp)
800070d8:	2e160dbb          	.insn	4, 0x2e160dbb
800070dc:	452708a7          	.insn	4, 0x452708a7
800070e0:	9d30                	.insn	2, 0x9d30
800070e2:	218e                	fld	ft3,192(sp)
800070e4:	b11e                	fsd	ft7,160(sp)
800070e6:	3f7c                	fld	fa5,248(a4)
800070e8:	8a44                	.insn	2, 0x8a44
800070ea:	19ad1def          	jal	s11,800d8284 <__global_pointer$+0xd0754>
800070ee:	61e4                	flw	fs1,68(a1)
800070f0:	b8a4                	fsd	fs1,112(s1)
800070f2:	b5d94e17          	auipc	t3,0xb5d94
800070f6:	6728                	flw	fa0,72(a4)
800070f8:	73e6                	flw	ft7,120(sp)
800070fa:	57f4                	lw	a3,108(a5)
800070fc:	5cb5                	li	s9,-19
800070fe:	673824b3          	.insn	4, 0x673824b3
80007102:	452c                	lw	a1,72(a0)
80007104:	375ced43          	.insn	4, 0x375ced43
80007108:	2f3e                	fld	ft10,456(sp)
8000710a:	0f22                	slli	t5,t5,0x8
8000710c:	c5fc                	sw	a5,76(a1)
8000710e:	6b3d                	lui	s6,0xf
80007110:	d05f 47da c656      	.insn	6, 0xc65647dad05f
80007116:	189e                	slli	a7,a7,0x27
80007118:	2f60                	fld	fs0,216(a4)
8000711a:	5eb9                	li	t4,-18
8000711c:	69c06c73          	csrrsi	s8,0x69c,0
80007120:	b6de                	fsd	fs7,360(sp)
80007122:	029e                	slli	t0,t0,0x7
80007124:	63bcc123          	.insn	4, 0x63bcc123
80007128:	c1b4                	sw	a3,64(a1)
8000712a:	318b28bb          	.insn	4, 0x318b28bb
8000712e:	99334b27          	.insn	4, 0x99334b27
80007132:	7d19                	lui	s10,0xfffe6
80007134:	2e0b77ef          	jal	a5,800be414 <__global_pointer$+0xb68e4>
80007138:	49777d6b          	.insn	4, 0x49777d6b
8000713c:	d426                	sw	s1,40(sp)
8000713e:	2d30                	fld	fa2,88(a0)
80007140:	318c2ea3          	sw	s8,797(s8) # fffe431d <__global_pointer$+0x7ffdc7ed>
80007144:	5faed877          	.insn	4, 0x5faed877
80007148:	f09c                	fsw	fa5,32(s1)
8000714a:	00ad62fb          	.insn	4, 0x00ad62fb
8000714e:	0174                	addi	a3,sp,140
80007150:	6adf 5506 6f54      	.insn	6, 0x6f5455066adf
80007156:	600e                	flw	ft0,192(sp)
80007158:	c4ff 40b0 1040 00c4 	.insn	18, 0x3644345fc77a1b2bd25200c4104040b0c4ff
80007160:	d252 1b2b c77a 345f 
80007168:	3644 
8000716a:	490671e7          	.insn	4, 0x490671e7
8000716e:	526d                	li	tp,-5
80007170:	8909                	andi	a0,a0,2
80007172:	743c                	flw	fa5,104(s0)
80007174:	ffda                	fsw	fs6,252(sp)
80007176:	389f 5411 35e6      	.insn	6, 0x35e65411389f
8000717c:	91a6                	add	gp,gp,s1
8000717e:	26402f2b          	.insn	4, 0x26402f2b
80007182:	5e70                	lw	a2,124(a2)
80007184:	d928                	sw	a0,112(a0)
80007186:	0c85                	addi	s9,s9,1 # fffe7001 <__global_pointer$+0x7ffdf4d1>
80007188:	422f2997          	auipc	s3,0x422f2
8000718c:	a9d0                	fsd	fa2,144(a1)
8000718e:	f68615bb          	.insn	4, 0xf68615bb
80007192:	0335                	addi	t1,t1,13 # 1000d <_start-0x7ffefff3>
80007194:	9db6                	add	s11,s11,a3
80007196:	84d02e07          	flw	ft8,-1971(zero) # fffff84d <__global_pointer$+0x7fff7d1d>
8000719a:	1c2d                	addi	s8,s8,-21
8000719c:	19f2                	slli	s3,s3,0x3c
8000719e:	4396                	lw	t2,68(sp)
800071a0:	663ef68b          	.insn	4, 0x663ef68b
800071a4:	657f 5624 b757 5bdb 	.insn	22, 0x4ae370d6584039f0708e08e42c115bdbb7575624657f
800071ac:	2c11 08e4 708e 39f0 
800071b4:	5840 70d6 4ae3 
800071ba:	5fae58ab          	.insn	4, 0x5fae58ab
800071be:	2632                	fld	fa2,264(sp)
800071c0:	c65d                	beqz	a2,8000726e <input_data+0x1f3e>
800071c2:	57a2                	lw	a5,40(sp)
800071c4:	afc1                	j	80007994 <_end+0x654>
800071c6:	4361268b          	.insn	4, 0x4361268b
800071ca:	3aea                	fld	fs5,184(sp)
800071cc:	eae5                	bnez	a3,800072bc <input_data+0x1f8c>
800071ce:	29e8                	fld	fa0,208(a1)
800071d0:	9209                	srli	a2,a2,0x22
800071d2:	687e                	flw	fa6,220(sp)
800071d4:	5c32                	lw	s8,44(sp)
800071d6:	765e                	flw	fa2,244(sp)
800071d8:	28ae                	fld	fa7,200(sp)
800071da:	297c                	fld	fa5,208(a0)
800071dc:	fa95                	bnez	a3,80007110 <input_data+0x1de0>
800071de:	6a49                	lui	s4,0x12
800071e0:	e729                	bnez	a4,8000722a <input_data+0x1efa>
800071e2:	4e82                	lw	t4,0(sp)
800071e4:	4cb0                	lw	a2,88(s1)
800071e6:	689e                	flw	fa7,196(sp)
800071e8:	b1ee                	fsd	fs11,224(sp)
800071ea:	83ba1fb7          	lui	t6,0x83ba1
800071ee:	3fbe                	fld	ft11,488(sp)
800071f0:	0ee21ec7          	.insn	4, 0x0ee21ec7
800071f4:	1f407de7          	.insn	4, 0x1f407de7
800071f8:	8c8c                	.insn	2, 0x8c8c
800071fa:	2d2d                	jal	80007834 <_end+0x4f4>
800071fc:	97d6                	add	a5,a5,s5
800071fe:	7db5                	lui	s11,0xfffed
80007200:	37ea                	fld	fa5,184(sp)
80007202:	10d0240f          	.insn	4, 0x10d0240f
80007206:	7585                	lui	a1,0xfffe1
80007208:	58ce                	lw	a7,240(sp)
8000720a:	5eaa                	lw	t4,168(sp)
8000720c:	4e8e                	lw	t4,192(sp)
8000720e:	76c05b67          	.insn	4, 0x76c05b67
80007212:	252c                	fld	fa1,72(a0)
80007214:	53c8cb9b          	.insn	4, 0x53c8cb9b
80007218:	748d9613          	.insn	4, 0x748d9613
8000721c:	7651                	lui	a2,0xffff4
8000721e:	8c68408b          	.insn	4, 0x8c68408b
80007222:	52ac                	lw	a1,96(a3)
80007224:	86a9                	srai	a3,a3,0xa
80007226:	341a                	fld	fs0,416(sp)
80007228:	d8ac                	sw	a1,112(s1)
8000722a:	5030                	lw	a2,96(s0)
8000722c:	45a55e33          	.insn	4, 0x45a55e33
80007230:	3159                	jal	80006eb6 <input_data+0x1b86>
80007232:	7782                	flw	fa5,32(sp)
80007234:	27b1                	jal	80007980 <_end+0x640>
80007236:	43550df3          	.insn	4, 0x43550df3
8000723a:	1c36                	slli	s8,s8,0x2d
8000723c:	2ad8                	fld	fa4,144(a3)
8000723e:	2709                	jal	80007940 <_end+0x600>
80007240:	57cebc73          	csrrc	s8,0x57c,t4
80007244:	ed02                	fsw	ft0,152(sp)
80007246:	3b76                	fld	fs6,376(sp)
80007248:	2fcade4f          	.insn	4, 0x2fcade4f
8000724c:	7a54488b          	.insn	4, 0x7a54488b
80007250:	e0a1                	bnez	s1,80007290 <input_data+0x1f60>
80007252:	703e                	flw	ft0,236(sp)
80007254:	eae8                	fsw	fa0,84(a3)
80007256:	0b10                	addi	a2,sp,400
80007258:	52d9061b          	.insn	4, 0x52d9061b
8000725c:	ac6e                	fsd	fs11,24(sp)
8000725e:	66d9                	lui	a3,0x16
80007260:	5b28                	lw	a0,112(a4)
80007262:	34cd                	jal	80006d44 <input_data+0x1a14>
80007264:	bd26                	fsd	fs1,184(sp)
80007266:	3925                	jal	80006e9e <input_data+0x1b6e>
80007268:	cbd4                	sw	a3,20(a5)
8000726a:	7a70                	flw	fa2,116(a2)
8000726c:	b6cd                	j	80006e4e <input_data+0x1b1e>
8000726e:	fc8e039b          	.insn	4, 0xfc8e039b
80007272:	5515                	li	a0,-27
80007274:	45288ea3          	sb	s2,1117(a7)
80007278:	c129                	beqz	a0,800072ba <input_data+0x1f8a>
8000727a:	a88b6cef          	jal	s9,7ffbd502 <_start-0x42afe>
8000727e:	53f8                	lw	a4,100(a5)
80007280:	1629                	addi	a2,a2,-22 # ffff3fea <__global_pointer$+0x7ffec4ba>
80007282:	6460                	flw	fs0,76(s0)
80007284:	b922                	fsd	fs0,176(sp)
80007286:	03ad                	addi	t2,t2,11
80007288:	324f49f7          	.insn	4, 0x324f49f7
8000728c:	bdbd                	j	8000710a <input_data+0x1dda>
8000728e:	f6433c4b          	.insn	4, 0xf6433c4b
80007292:	5aad                	li	s5,-21
80007294:	5f29                	li	t5,-22
80007296:	5e48                	lw	a0,60(a2)
80007298:	2d7f 3618 1f55 7894 	.insn	14, 0x8204430fbce778941f5536182d7f
800072a0:	bce7 430f 8204 
800072a6:	4e34                	lw	a3,88(a2)
800072a8:	c149                	beqz	a0,8000732a <input_data+0x1ffa>
800072aa:	fdf6576b          	.insn	4, 0xfdf6576b
800072ae:	734b39d3          	.insn	4, 0x734b39d3
800072b2:	04d2                	slli	s1,s1,0x14
800072b4:	35e2                	fld	fa1,56(sp)
800072b6:	5625                	li	a2,-23
800072b8:	a794                	fsd	fa3,8(a5)
800072ba:	13fe                	slli	t2,t2,0x3f
800072bc:	47e8                	lw	a0,76(a5)
800072be:	1e6d                	addi	t3,t3,-5 # 35d9b0ed <_start-0x4a264f13>
800072c0:	efda                	fsw	fs6,220(sp)
800072c2:	0588                	addi	a0,sp,704
800072c4:	b61d                	j	80006dea <input_data+0x1aba>
800072c6:	6226                	flw	ft4,72(sp)
800072c8:	bb78                	fsd	fa4,240(a4)
800072ca:	6266                	flw	ft4,88(sp)
800072cc:	5b668c23          	sb	s6,1464(a3) # 165b8 <_start-0x7ffe9a48>
800072d0:	b0dc                	fsd	fa5,160(s1)
800072d2:	0ffa                	slli	t6,t6,0x1e
800072d4:	347e3b97          	auipc	s7,0x347e3
800072d8:	465d649b          	.insn	4, 0x465d649b
800072dc:	bc8d                	j	80006d4e <input_data+0x1a1e>
800072de:	6f59                	lui	t5,0x16
800072e0:	685d77c3          	fmadd.s	fa5,fs10,ft5,fa3
800072e4:	9740                	.insn	2, 0x9740
800072e6:	17ed                	addi	a5,a5,-5 # 1f8b6ffb <_start-0x60749005>
800072e8:	2c8c                	fld	fa1,24(s1)
800072ea:	2031                	jal	800072f6 <input_data+0x1fc6>
800072ec:	a141                	j	8000776c <_end+0x42c>
800072ee:	0f163cf7          	.insn	4, 0x0f163cf7
800072f2:	1b81                	addi	s7,s7,-32 # b47ea2b4 <__global_pointer$+0x347e2784>
800072f4:	48deb2b3          	.insn	4, 0x48deb2b3
800072f8:	1b350fbf 05a5ef07 	.insn	8, 0x05a5ef071b350fbf
80007300:	44f2                	lw	s1,28(sp)
80007302:	4961                	li	s2,24
80007304:	3900                	fld	fs0,48(a0)
80007306:	a4257fdb          	.insn	4, 0xa4257fdb
8000730a:	7329                	lui	t1,0xfffea
8000730c:	12e0                	addi	s0,sp,364
8000730e:	c44211eb          	.insn	4, 0xc44211eb
80007312:	7a88                	flw	fa0,48(a3)
80007314:	c985                	beqz	a1,80007344 <_end+0x4>
80007316:	3a76                	fld	fs4,376(sp)
80007318:	4e03cf67          	.insn	4, 0x4e03cf67
8000731c:	e4c1                	bnez	s1,800073a4 <_end+0x64>
8000731e:	3c39                	jal	80006d3c <input_data+0x1a0c>
80007320:	167d                	addi	a2,a2,-1
80007322:	5370                	lw	a2,100(a4)
80007324:	36f5                	jal	80006f10 <input_data+0x1be0>
80007326:	4896                	lw	a7,68(sp)
80007328:	66c0                	flw	fs0,12(a3)
8000732a:	37b6                	fld	fa5,360(sp)
8000732c:	935e                	add	t1,t1,s7
8000732e:	3460                	fld	fs0,232(s0)
