
towers.riscv:     ファイル形式 elf32-littleriscv


セクション .text.init の逆アセンブル:

80000000 <_start>:
80000000:	4081                	li	ra,0
80000002:	4101                	li	sp,0
80000004:	4181                	li	gp,0
80000006:	4201                	li	tp,0
80000008:	4281                	li	t0,0
8000000a:	4301                	li	t1,0
8000000c:	4381                	li	t2,0
8000000e:	4401                	li	s0,0
80000010:	4481                	li	s1,0
80000012:	4501                	li	a0,0
80000014:	4581                	li	a1,0
80000016:	4601                	li	a2,0
80000018:	4681                	li	a3,0
8000001a:	4701                	li	a4,0
8000001c:	4781                	li	a5,0
8000001e:	4801                	li	a6,0
80000020:	4881                	li	a7,0
80000022:	4901                	li	s2,0
80000024:	4981                	li	s3,0
80000026:	4a01                	li	s4,0
80000028:	4a81                	li	s5,0
8000002a:	4b01                	li	s6,0
8000002c:	4b81                	li	s7,0
8000002e:	4c01                	li	s8,0
80000030:	4c81                	li	s9,0
80000032:	4d01                	li	s10,0
80000034:	4d81                	li	s11,0
80000036:	4e01                	li	t3,0
80000038:	4e81                	li	t4,0
8000003a:	4f01                	li	t5,0
8000003c:	4f81                	li	t6,0
8000003e:	62f9                	lui	t0,0x1e
80000040:	60028293          	addi	t0,t0,1536 # 1e600 <_start-0x7ffe1a00>
80000044:	3002a073          	csrs	mstatus,t0
80000048:	4285                	li	t0,1
8000004a:	02fe                	slli	t0,t0,0x1f
8000004c:	0002c863          	bltz	t0,8000005c <_start+0x5c>
80000050:	4505                	li	a0,1
80000052:	00001297          	auipc	t0,0x1
80000056:	faa2a723          	sw	a0,-82(t0) # 80001000 <tohost>
8000005a:	bfdd                	j	80000050 <_start+0x50>
8000005c:	00000297          	auipc	t0,0x0
80000060:	09028293          	addi	t0,t0,144 # 800000ec <_start+0xec>
80000064:	30529073          	csrw	mtvec,t0
80000068:	00301073          	fscsr	zero
8000006c:	f0000053          	fmv.w.x	ft0,zero
80000070:	f00000d3          	fmv.w.x	ft1,zero
80000074:	f0000153          	fmv.w.x	ft2,zero
80000078:	f00001d3          	fmv.w.x	ft3,zero
8000007c:	f0000253          	fmv.w.x	ft4,zero
80000080:	f00002d3          	fmv.w.x	ft5,zero
80000084:	f0000353          	fmv.w.x	ft6,zero
80000088:	f00003d3          	fmv.w.x	ft7,zero
8000008c:	f0000453          	fmv.w.x	fs0,zero
80000090:	f00004d3          	fmv.w.x	fs1,zero
80000094:	f0000553          	fmv.w.x	fa0,zero
80000098:	f00005d3          	fmv.w.x	fa1,zero
8000009c:	f0000653          	fmv.w.x	fa2,zero
800000a0:	f00006d3          	fmv.w.x	fa3,zero
800000a4:	f0000753          	fmv.w.x	fa4,zero
800000a8:	f00007d3          	fmv.w.x	fa5,zero
800000ac:	f0000853          	fmv.w.x	fa6,zero
800000b0:	f00008d3          	fmv.w.x	fa7,zero
800000b4:	f0000953          	fmv.w.x	fs2,zero
800000b8:	f00009d3          	fmv.w.x	fs3,zero
800000bc:	f0000a53          	fmv.w.x	fs4,zero
800000c0:	f0000ad3          	fmv.w.x	fs5,zero
800000c4:	f0000b53          	fmv.w.x	fs6,zero
800000c8:	f0000bd3          	fmv.w.x	fs7,zero
800000cc:	f0000c53          	fmv.w.x	fs8,zero
800000d0:	f0000cd3          	fmv.w.x	fs9,zero
800000d4:	f0000d53          	fmv.w.x	fs10,zero
800000d8:	f0000dd3          	fmv.w.x	fs11,zero
800000dc:	f0000e53          	fmv.w.x	ft8,zero
800000e0:	f0000ed3          	fmv.w.x	ft9,zero
800000e4:	f0000f53          	fmv.w.x	ft10,zero
800000e8:	f0000fd3          	fmv.w.x	ft11,zero
800000ec:	00000297          	auipc	t0,0x0
800000f0:	04028293          	addi	t0,t0,64 # 8000012c <trap_entry>
800000f4:	30529073          	csrw	mtvec,t0
800000f8:	00004197          	auipc	gp,0x4
800000fc:	e8418193          	addi	gp,gp,-380 # 80003f7c <__global_pointer$>
80000100:	00003217          	auipc	tp,0x3
80000104:	6cc20213          	addi	tp,tp,1740 # 800037cc <_end>
80000108:	03f20213          	addi	tp,tp,63 # 3f <_start-0x7fffffc1>
8000010c:	fc027213          	andi	tp,tp,-64
80000110:	f1402573          	csrr	a0,mhartid
80000114:	4585                	li	a1,1
80000116:	00b57063          	bgeu	a0,a1,80000116 <_start+0x116>
8000011a:	00150113          	addi	sp,a0,1
8000011e:	0146                	slli	sp,sp,0x11
80000120:	9112                	add	sp,sp,tp
80000122:	01151613          	slli	a2,a0,0x11
80000126:	9232                	add	tp,tp,a2
80000128:	1db0206f          	j	80002b02 <_init>

8000012c <trap_entry>:
8000012c:	716d                	addi	sp,sp,-272
8000012e:	c206                	sw	ra,4(sp)
80000130:	c40a                	sw	sp,8(sp)
80000132:	c60e                	sw	gp,12(sp)
80000134:	c812                	sw	tp,16(sp)
80000136:	ca16                	sw	t0,20(sp)
80000138:	cc1a                	sw	t1,24(sp)
8000013a:	ce1e                	sw	t2,28(sp)
8000013c:	d022                	sw	s0,32(sp)
8000013e:	d226                	sw	s1,36(sp)
80000140:	d42a                	sw	a0,40(sp)
80000142:	d62e                	sw	a1,44(sp)
80000144:	d832                	sw	a2,48(sp)
80000146:	da36                	sw	a3,52(sp)
80000148:	dc3a                	sw	a4,56(sp)
8000014a:	de3e                	sw	a5,60(sp)
8000014c:	c0c2                	sw	a6,64(sp)
8000014e:	c2c6                	sw	a7,68(sp)
80000150:	c4ca                	sw	s2,72(sp)
80000152:	c6ce                	sw	s3,76(sp)
80000154:	c8d2                	sw	s4,80(sp)
80000156:	cad6                	sw	s5,84(sp)
80000158:	ccda                	sw	s6,88(sp)
8000015a:	cede                	sw	s7,92(sp)
8000015c:	d0e2                	sw	s8,96(sp)
8000015e:	d2e6                	sw	s9,100(sp)
80000160:	d4ea                	sw	s10,104(sp)
80000162:	d6ee                	sw	s11,108(sp)
80000164:	d8f2                	sw	t3,112(sp)
80000166:	daf6                	sw	t4,116(sp)
80000168:	dcfa                	sw	t5,120(sp)
8000016a:	defe                	sw	t6,124(sp)
8000016c:	34202573          	csrr	a0,mcause
80000170:	341025f3          	csrr	a1,mepc
80000174:	860a                	mv	a2,sp
80000176:	776020ef          	jal	800028ec <handle_trap>
8000017a:	34151073          	csrw	mepc,a0
8000017e:	6289                	lui	t0,0x2
80000180:	80028293          	addi	t0,t0,-2048 # 1800 <_start-0x7fffe800>
80000184:	3002a073          	csrs	mstatus,t0
80000188:	4092                	lw	ra,4(sp)
8000018a:	4122                	lw	sp,8(sp)
8000018c:	41b2                	lw	gp,12(sp)
8000018e:	4242                	lw	tp,16(sp)
80000190:	42d2                	lw	t0,20(sp)
80000192:	4362                	lw	t1,24(sp)
80000194:	43f2                	lw	t2,28(sp)
80000196:	5402                	lw	s0,32(sp)
80000198:	5492                	lw	s1,36(sp)
8000019a:	5522                	lw	a0,40(sp)
8000019c:	55b2                	lw	a1,44(sp)
8000019e:	5642                	lw	a2,48(sp)
800001a0:	56d2                	lw	a3,52(sp)
800001a2:	5762                	lw	a4,56(sp)
800001a4:	57f2                	lw	a5,60(sp)
800001a6:	4806                	lw	a6,64(sp)
800001a8:	4896                	lw	a7,68(sp)
800001aa:	4926                	lw	s2,72(sp)
800001ac:	49b6                	lw	s3,76(sp)
800001ae:	4a46                	lw	s4,80(sp)
800001b0:	4ad6                	lw	s5,84(sp)
800001b2:	4b66                	lw	s6,88(sp)
800001b4:	4bf6                	lw	s7,92(sp)
800001b6:	5c06                	lw	s8,96(sp)
800001b8:	5c96                	lw	s9,100(sp)
800001ba:	5d26                	lw	s10,104(sp)
800001bc:	5db6                	lw	s11,108(sp)
800001be:	5e46                	lw	t3,112(sp)
800001c0:	5ed6                	lw	t4,116(sp)
800001c2:	5f66                	lw	t5,120(sp)
800001c4:	5ff6                	lw	t6,124(sp)
800001c6:	6151                	addi	sp,sp,272
800001c8:	30200073          	mret
800001cc:	0001                	nop

セクション .text の逆アセンブル:

80002000 <list_getSize>:
80002000:	4108                	lw	a0,0(a0)
80002002:	8082                	ret

80002004 <list_init>:
80002004:	00052023          	sw	zero,0(a0)
80002008:	00052223          	sw	zero,4(a0)
8000200c:	8082                	ret

8000200e <list_push>:
8000200e:	00001797          	auipc	a5,0x1
80002012:	7727a783          	lw	a5,1906(a5) # 80003780 <g_nodeFreeList+0x4>
80002016:	4118                	lw	a4,0(a0)
80002018:	43d4                	lw	a3,4(a5)
8000201a:	0705                	addi	a4,a4,1
8000201c:	00001617          	auipc	a2,0x1
80002020:	76d62223          	sw	a3,1892(a2) # 80003780 <g_nodeFreeList+0x4>
80002024:	4154                	lw	a3,4(a0)
80002026:	c3d4                	sw	a3,4(a5)
80002028:	c15c                	sw	a5,4(a0)
8000202a:	c38c                	sw	a1,0(a5)
8000202c:	c118                	sw	a4,0(a0)
8000202e:	8082                	ret

80002030 <list_pop>:
80002030:	4158                	lw	a4,4(a0)
80002032:	87aa                	mv	a5,a0
80002034:	4114                	lw	a3,0(a0)
80002036:	4350                	lw	a2,4(a4)
80002038:	4308                	lw	a0,0(a4)
8000203a:	16fd                	addi	a3,a3,-1
8000203c:	c3d0                	sw	a2,4(a5)
8000203e:	00001617          	auipc	a2,0x1
80002042:	74262603          	lw	a2,1858(a2) # 80003780 <g_nodeFreeList+0x4>
80002046:	c350                	sw	a2,4(a4)
80002048:	00001617          	auipc	a2,0x1
8000204c:	72e62c23          	sw	a4,1848(a2) # 80003780 <g_nodeFreeList+0x4>
80002050:	c394                	sw	a3,0(a5)
80002052:	8082                	ret

80002054 <list_clear>:
80002054:	4118                	lw	a4,0(a0)
80002056:	02e05063          	blez	a4,80002076 <list_clear+0x22>
8000205a:	00001697          	auipc	a3,0x1
8000205e:	72268693          	addi	a3,a3,1826 # 8000377c <g_nodeFreeList>
80002062:	415c                	lw	a5,4(a0)
80002064:	177d                	addi	a4,a4,-1
80002066:	43d0                	lw	a2,4(a5)
80002068:	c150                	sw	a2,4(a0)
8000206a:	42d0                	lw	a2,4(a3)
8000206c:	c3d0                	sw	a2,4(a5)
8000206e:	c2dc                	sw	a5,4(a3)
80002070:	fb6d                	bnez	a4,80002062 <list_clear+0xe>
80002072:	00052023          	sw	zero,0(a0)
80002076:	8082                	ret

80002078 <towers_init>:
80002078:	00052223          	sw	zero,4(a0)
8000207c:	00052423          	sw	zero,8(a0)
80002080:	00052623          	sw	zero,12(a0)
80002084:	00052823          	sw	zero,16(a0)
80002088:	00052a23          	sw	zero,20(a0)
8000208c:	00052c23          	sw	zero,24(a0)
80002090:	00052e23          	sw	zero,28(a0)
80002094:	c10c                	sw	a1,0(a0)
80002096:	02b05963          	blez	a1,800020c8 <towers_init+0x50>
8000209a:	00001797          	auipc	a5,0x1
8000209e:	6e67a783          	lw	a5,1766(a5) # 80003780 <g_nodeFreeList+0x4>
800020a2:	872e                	mv	a4,a1
800020a4:	4681                	li	a3,0
800020a6:	a019                	j	800020ac <towers_init+0x34>
800020a8:	86be                	mv	a3,a5
800020aa:	87b2                	mv	a5,a2
800020ac:	43d0                	lw	a2,4(a5)
800020ae:	c398                	sw	a4,0(a5)
800020b0:	c3d4                	sw	a3,4(a5)
800020b2:	177d                	addi	a4,a4,-1
800020b4:	fb75                	bnez	a4,800020a8 <towers_init+0x30>
800020b6:	00001717          	auipc	a4,0x1
800020ba:	6cc72523          	sw	a2,1738(a4) # 80003780 <g_nodeFreeList+0x4>
800020be:	c3d4                	sw	a3,4(a5)
800020c0:	c55c                	sw	a5,12(a0)
800020c2:	4705                	li	a4,1
800020c4:	c398                	sw	a4,0(a5)
800020c6:	c50c                	sw	a1,8(a0)
800020c8:	8082                	ret

800020ca <towers_clear>:
800020ca:	4518                	lw	a4,8(a0)
800020cc:	02e05663          	blez	a4,800020f8 <towers_clear+0x2e>
800020d0:	455c                	lw	a5,12(a0)
800020d2:	00001697          	auipc	a3,0x1
800020d6:	6ae6a683          	lw	a3,1710(a3) # 80003780 <g_nodeFreeList+0x4>
800020da:	a019                	j	800020e0 <towers_clear+0x16>
800020dc:	86be                	mv	a3,a5
800020de:	87b2                	mv	a5,a2
800020e0:	43d0                	lw	a2,4(a5)
800020e2:	177d                	addi	a4,a4,-1
800020e4:	c3d4                	sw	a3,4(a5)
800020e6:	fb7d                	bnez	a4,800020dc <towers_clear+0x12>
800020e8:	c550                	sw	a2,12(a0)
800020ea:	c3d4                	sw	a3,4(a5)
800020ec:	00001717          	auipc	a4,0x1
800020f0:	68f72a23          	sw	a5,1684(a4) # 80003780 <g_nodeFreeList+0x4>
800020f4:	00052423          	sw	zero,8(a0)
800020f8:	4918                	lw	a4,16(a0)
800020fa:	02e05263          	blez	a4,8000211e <towers_clear+0x54>
800020fe:	495c                	lw	a5,20(a0)
80002100:	00001697          	auipc	a3,0x1
80002104:	6806a683          	lw	a3,1664(a3) # 80003780 <g_nodeFreeList+0x4>
80002108:	a011                	j	8000210c <towers_clear+0x42>
8000210a:	87b2                	mv	a5,a2
8000210c:	43d0                	lw	a2,4(a5)
8000210e:	177d                	addi	a4,a4,-1
80002110:	c3d4                	sw	a3,4(a5)
80002112:	86be                	mv	a3,a5
80002114:	fb7d                	bnez	a4,8000210a <towers_clear+0x40>
80002116:	00001717          	auipc	a4,0x1
8000211a:	66f72523          	sw	a5,1642(a4) # 80003780 <g_nodeFreeList+0x4>
8000211e:	4d18                	lw	a4,24(a0)
80002120:	02e05263          	blez	a4,80002144 <towers_clear+0x7a>
80002124:	4d5c                	lw	a5,28(a0)
80002126:	00001697          	auipc	a3,0x1
8000212a:	65a6a683          	lw	a3,1626(a3) # 80003780 <g_nodeFreeList+0x4>
8000212e:	a011                	j	80002132 <towers_clear+0x68>
80002130:	87b2                	mv	a5,a2
80002132:	43d0                	lw	a2,4(a5)
80002134:	177d                	addi	a4,a4,-1
80002136:	c3d4                	sw	a3,4(a5)
80002138:	86be                	mv	a3,a5
8000213a:	fb7d                	bnez	a4,80002130 <towers_clear+0x66>
8000213c:	00001717          	auipc	a4,0x1
80002140:	64f72223          	sw	a5,1604(a4) # 80003780 <g_nodeFreeList+0x4>
80002144:	410c                	lw	a1,0(a0)
80002146:	00052223          	sw	zero,4(a0)
8000214a:	00052423          	sw	zero,8(a0)
8000214e:	00052623          	sw	zero,12(a0)
80002152:	00052823          	sw	zero,16(a0)
80002156:	00052a23          	sw	zero,20(a0)
8000215a:	00052c23          	sw	zero,24(a0)
8000215e:	00052e23          	sw	zero,28(a0)
80002162:	02b05963          	blez	a1,80002194 <towers_clear+0xca>
80002166:	00001797          	auipc	a5,0x1
8000216a:	61a7a783          	lw	a5,1562(a5) # 80003780 <g_nodeFreeList+0x4>
8000216e:	872e                	mv	a4,a1
80002170:	4681                	li	a3,0
80002172:	a019                	j	80002178 <towers_clear+0xae>
80002174:	86be                	mv	a3,a5
80002176:	87b2                	mv	a5,a2
80002178:	43d0                	lw	a2,4(a5)
8000217a:	c398                	sw	a4,0(a5)
8000217c:	c3d4                	sw	a3,4(a5)
8000217e:	177d                	addi	a4,a4,-1
80002180:	fb75                	bnez	a4,80002174 <towers_clear+0xaa>
80002182:	00001717          	auipc	a4,0x1
80002186:	5ec72f23          	sw	a2,1534(a4) # 80003780 <g_nodeFreeList+0x4>
8000218a:	c3d4                	sw	a3,4(a5)
8000218c:	c55c                	sw	a5,12(a0)
8000218e:	4705                	li	a4,1
80002190:	c398                	sw	a4,0(a5)
80002192:	c50c                	sw	a1,8(a0)
80002194:	8082                	ret

80002196 <towers_solve_h>:
80002196:	711d                	addi	sp,sp,-96
80002198:	caa6                	sw	s1,84(sp)
8000219a:	c8ca                	sw	s2,80(sp)
8000219c:	c6ce                	sw	s3,76(sp)
8000219e:	ce86                	sw	ra,92(sp)
800021a0:	ca2e                	sw	a1,20(sp)
800021a2:	4905                	li	s2,1
800021a4:	cc32                	sw	a2,24(sp)
800021a6:	c836                	sw	a3,16(sp)
800021a8:	ce3a                	sw	a4,28(sp)
800021aa:	84aa                	mv	s1,a0
800021ac:	00001997          	auipc	s3,0x1
800021b0:	5d098993          	addi	s3,s3,1488 # 8000377c <g_nodeFreeList>
800021b4:	29258863          	beq	a1,s2,80002444 <towers_solve_h+0x2ae>
800021b8:	cca2                	sw	s0,88(sp)
800021ba:	c4d2                	sw	s4,72(sp)
800021bc:	c2d6                	sw	s5,68(sp)
800021be:	c0da                	sw	s6,64(sp)
800021c0:	de5e                	sw	s7,60(sp)
800021c2:	dc62                	sw	s8,56(sp)
800021c4:	da66                	sw	s9,52(sp)
800021c6:	d86a                	sw	s10,48(sp)
800021c8:	d66e                	sw	s11,44(sp)
800021ca:	47d2                	lw	a5,20(sp)
800021cc:	4762                	lw	a4,24(sp)
800021ce:	4b72                	lw	s6,28(sp)
800021d0:	17fd                	addi	a5,a5,-1
800021d2:	ca3e                	sw	a5,20(sp)
800021d4:	c43e                	sw	a5,8(sp)
800021d6:	c63a                	sw	a4,12(sp)
800021d8:	1b278863          	beq	a5,s2,80002388 <towers_solve_h+0x1f2>
800021dc:	47a2                	lw	a5,8(sp)
800021de:	4dc2                	lw	s11,16(sp)
800021e0:	4ab2                	lw	s5,12(sp)
800021e2:	17fd                	addi	a5,a5,-1
800021e4:	c43e                	sw	a5,8(sp)
800021e6:	c23e                	sw	a5,4(sp)
800021e8:	13278863          	beq	a5,s2,80002318 <towers_solve_h+0x182>
800021ec:	4792                	lw	a5,4(sp)
800021ee:	845a                	mv	s0,s6
800021f0:	8d56                	mv	s10,s5
800021f2:	17fd                	addi	a5,a5,-1
800021f4:	c23e                	sw	a5,4(sp)
800021f6:	8a3e                	mv	s4,a5
800021f8:	0b278563          	beq	a5,s2,800022a2 <towers_solve_h+0x10c>
800021fc:	1a7d                	addi	s4,s4,-1
800021fe:	8bd2                	mv	s7,s4
80002200:	8c6e                	mv	s8,s11
80002202:	8cea                	mv	s9,s10
80002204:	032a0563          	beq	s4,s2,8000222e <towers_solve_h+0x98>
80002208:	1bfd                	addi	s7,s7,-1
8000220a:	85de                	mv	a1,s7
8000220c:	8762                	mv	a4,s8
8000220e:	86a2                	mv	a3,s0
80002210:	8666                	mv	a2,s9
80002212:	8526                	mv	a0,s1
80002214:	3749                	jal	80002196 <towers_solve_h>
80002216:	8722                	mv	a4,s0
80002218:	86e2                	mv	a3,s8
8000221a:	8666                	mv	a2,s9
8000221c:	8526                	mv	a0,s1
8000221e:	4585                	li	a1,1
80002220:	3f9d                	jal	80002196 <towers_solve_h>
80002222:	8766                	mv	a4,s9
80002224:	012b8663          	beq	s7,s2,80002230 <towers_solve_h+0x9a>
80002228:	8ce2                	mv	s9,s8
8000222a:	8c3a                	mv	s8,a4
8000222c:	bff1                	j	80002208 <towers_solve_h+0x72>
8000222e:	8c6a                	mv	s8,s10
80002230:	004c2703          	lw	a4,4(s8)
80002234:	000c2603          	lw	a2,0(s8)
80002238:	40d4                	lw	a3,4(s1)
8000223a:	4348                	lw	a0,4(a4)
8000223c:	430c                	lw	a1,0(a4)
8000223e:	167d                	addi	a2,a2,-1
80002240:	00ac2223          	sw	a0,4(s8)
80002244:	0049a503          	lw	a0,4(s3)
80002248:	00cc2023          	sw	a2,0(s8)
8000224c:	4010                	lw	a2,0(s0)
8000224e:	00a9a223          	sw	a0,4(s3)
80002252:	405c                	lw	a5,4(s0)
80002254:	0605                	addi	a2,a2,1
80002256:	0689                	addi	a3,a3,2
80002258:	c35c                	sw	a5,4(a4)
8000225a:	c058                	sw	a4,4(s0)
8000225c:	004d2783          	lw	a5,4(s10)
80002260:	c30c                	sw	a1,0(a4)
80002262:	c010                	sw	a2,0(s0)
80002264:	43cc                	lw	a1,4(a5)
80002266:	000d2703          	lw	a4,0(s10)
8000226a:	4390                	lw	a2,0(a5)
8000226c:	00bd2223          	sw	a1,4(s10)
80002270:	0049a583          	lw	a1,4(s3)
80002274:	177d                	addi	a4,a4,-1
80002276:	00ed2023          	sw	a4,0(s10)
8000227a:	000da703          	lw	a4,0(s11)
8000227e:	00b9a223          	sw	a1,4(s3)
80002282:	004da583          	lw	a1,4(s11)
80002286:	0705                	addi	a4,a4,1
80002288:	c3cc                	sw	a1,4(a5)
8000228a:	00fda223          	sw	a5,4(s11)
8000228e:	c390                	sw	a2,0(a5)
80002290:	00eda023          	sw	a4,0(s11)
80002294:	c0d4                	sw	a3,4(s1)
80002296:	012a0863          	beq	s4,s2,800022a6 <towers_solve_h+0x110>
8000229a:	87ea                	mv	a5,s10
8000229c:	8d22                	mv	s10,s0
8000229e:	843e                	mv	s0,a5
800022a0:	bfb1                	j	800021fc <towers_solve_h+0x66>
800022a2:	40d4                	lw	a3,4(s1)
800022a4:	8456                	mv	s0,s5
800022a6:	405c                	lw	a5,4(s0)
800022a8:	4018                	lw	a4,0(s0)
800022aa:	0689                	addi	a3,a3,2
800022ac:	43cc                	lw	a1,4(a5)
800022ae:	4390                	lw	a2,0(a5)
800022b0:	177d                	addi	a4,a4,-1
800022b2:	c04c                	sw	a1,4(s0)
800022b4:	0049a583          	lw	a1,4(s3)
800022b8:	c018                	sw	a4,0(s0)
800022ba:	000da703          	lw	a4,0(s11)
800022be:	00b9a223          	sw	a1,4(s3)
800022c2:	004da583          	lw	a1,4(s11)
800022c6:	0705                	addi	a4,a4,1
800022c8:	c3cc                	sw	a1,4(a5)
800022ca:	00fda223          	sw	a5,4(s11)
800022ce:	c390                	sw	a2,0(a5)
800022d0:	004aa783          	lw	a5,4(s5)
800022d4:	00eda023          	sw	a4,0(s11)
800022d8:	000aa703          	lw	a4,0(s5)
800022dc:	43cc                	lw	a1,4(a5)
800022de:	4390                	lw	a2,0(a5)
800022e0:	177d                	addi	a4,a4,-1
800022e2:	00baa223          	sw	a1,4(s5)
800022e6:	0049a583          	lw	a1,4(s3)
800022ea:	00eaa023          	sw	a4,0(s5)
800022ee:	000b2703          	lw	a4,0(s6)
800022f2:	00b9a223          	sw	a1,4(s3)
800022f6:	004b2583          	lw	a1,4(s6)
800022fa:	0705                	addi	a4,a4,1
800022fc:	c3cc                	sw	a1,4(a5)
800022fe:	00fb2223          	sw	a5,4(s6)
80002302:	c390                	sw	a2,0(a5)
80002304:	4792                	lw	a5,4(sp)
80002306:	00eb2023          	sw	a4,0(s6)
8000230a:	c0d4                	sw	a3,4(s1)
8000230c:	01278863          	beq	a5,s2,8000231c <towers_solve_h+0x186>
80002310:	87d6                	mv	a5,s5
80002312:	8aee                	mv	s5,s11
80002314:	8dbe                	mv	s11,a5
80002316:	bdd9                	j	800021ec <towers_solve_h+0x56>
80002318:	40d4                	lw	a3,4(s1)
8000231a:	8dd6                	mv	s11,s5
8000231c:	004da783          	lw	a5,4(s11)
80002320:	000da703          	lw	a4,0(s11)
80002324:	4532                	lw	a0,12(sp)
80002326:	43cc                	lw	a1,4(a5)
80002328:	4390                	lw	a2,0(a5)
8000232a:	177d                	addi	a4,a4,-1
8000232c:	00bda223          	sw	a1,4(s11)
80002330:	0049a583          	lw	a1,4(s3)
80002334:	00eda023          	sw	a4,0(s11)
80002338:	000b2703          	lw	a4,0(s6)
8000233c:	00b9a223          	sw	a1,4(s3)
80002340:	004b2583          	lw	a1,4(s6)
80002344:	0705                	addi	a4,a4,1
80002346:	4442                	lw	s0,16(sp)
80002348:	c3cc                	sw	a1,4(a5)
8000234a:	00fb2223          	sw	a5,4(s6)
8000234e:	c390                	sw	a2,0(a5)
80002350:	415c                	lw	a5,4(a0)
80002352:	00eb2023          	sw	a4,0(s6)
80002356:	4118                	lw	a4,0(a0)
80002358:	43cc                	lw	a1,4(a5)
8000235a:	4390                	lw	a2,0(a5)
8000235c:	177d                	addi	a4,a4,-1
8000235e:	c14c                	sw	a1,4(a0)
80002360:	0049a583          	lw	a1,4(s3)
80002364:	c118                	sw	a4,0(a0)
80002366:	4018                	lw	a4,0(s0)
80002368:	00b9a223          	sw	a1,4(s3)
8000236c:	404c                	lw	a1,4(s0)
8000236e:	0705                	addi	a4,a4,1
80002370:	0689                	addi	a3,a3,2
80002372:	c3cc                	sw	a1,4(a5)
80002374:	c05c                	sw	a5,4(s0)
80002376:	c390                	sw	a2,0(a5)
80002378:	47a2                	lw	a5,8(sp)
8000237a:	c018                	sw	a4,0(s0)
8000237c:	c0d4                	sw	a3,4(s1)
8000237e:	01278763          	beq	a5,s2,8000238c <towers_solve_h+0x1f6>
80002382:	c65a                	sw	s6,12(sp)
80002384:	8b2a                	mv	s6,a0
80002386:	bd99                	j	800021dc <towers_solve_h+0x46>
80002388:	40d4                	lw	a3,4(s1)
8000238a:	8b3a                	mv	s6,a4
8000238c:	004b2783          	lw	a5,4(s6)
80002390:	000b2703          	lw	a4,0(s6)
80002394:	4442                	lw	s0,16(sp)
80002396:	43cc                	lw	a1,4(a5)
80002398:	4390                	lw	a2,0(a5)
8000239a:	177d                	addi	a4,a4,-1
8000239c:	00bb2223          	sw	a1,4(s6)
800023a0:	0049a583          	lw	a1,4(s3)
800023a4:	00eb2023          	sw	a4,0(s6)
800023a8:	4018                	lw	a4,0(s0)
800023aa:	00b9a223          	sw	a1,4(s3)
800023ae:	404c                	lw	a1,4(s0)
800023b0:	4562                	lw	a0,24(sp)
800023b2:	0705                	addi	a4,a4,1
800023b4:	c3cc                	sw	a1,4(a5)
800023b6:	c05c                	sw	a5,4(s0)
800023b8:	c390                	sw	a2,0(a5)
800023ba:	415c                	lw	a5,4(a0)
800023bc:	c018                	sw	a4,0(s0)
800023be:	4118                	lw	a4,0(a0)
800023c0:	43cc                	lw	a1,4(a5)
800023c2:	4390                	lw	a2,0(a5)
800023c4:	4872                	lw	a6,28(sp)
800023c6:	c14c                	sw	a1,4(a0)
800023c8:	0049a583          	lw	a1,4(s3)
800023cc:	177d                	addi	a4,a4,-1
800023ce:	c118                	sw	a4,0(a0)
800023d0:	00082703          	lw	a4,0(a6)
800023d4:	00b9a223          	sw	a1,4(s3)
800023d8:	00482583          	lw	a1,4(a6)
800023dc:	0705                	addi	a4,a4,1
800023de:	0689                	addi	a3,a3,2
800023e0:	c3cc                	sw	a1,4(a5)
800023e2:	00f82223          	sw	a5,4(a6)
800023e6:	c390                	sw	a2,0(a5)
800023e8:	00e82023          	sw	a4,0(a6)
800023ec:	c0d4                	sw	a3,4(s1)
800023ee:	47d2                	lw	a5,20(sp)
800023f0:	01278563          	beq	a5,s2,800023fa <towers_solve_h+0x264>
800023f4:	cc22                	sw	s0,24(sp)
800023f6:	c82a                	sw	a0,16(sp)
800023f8:	bbc9                	j	800021ca <towers_solve_h+0x34>
800023fa:	4466                	lw	s0,88(sp)
800023fc:	4a26                	lw	s4,72(sp)
800023fe:	4a96                	lw	s5,68(sp)
80002400:	4b06                	lw	s6,64(sp)
80002402:	5bf2                	lw	s7,60(sp)
80002404:	5c62                	lw	s8,56(sp)
80002406:	5cd2                	lw	s9,52(sp)
80002408:	5d42                	lw	s10,48(sp)
8000240a:	5db2                	lw	s11,44(sp)
8000240c:	4542                	lw	a0,16(sp)
8000240e:	40f6                	lw	ra,92(sp)
80002410:	0685                	addi	a3,a3,1
80002412:	415c                	lw	a5,4(a0)
80002414:	4118                	lw	a4,0(a0)
80002416:	4946                	lw	s2,80(sp)
80002418:	43cc                	lw	a1,4(a5)
8000241a:	4390                	lw	a2,0(a5)
8000241c:	177d                	addi	a4,a4,-1
8000241e:	c14c                	sw	a1,4(a0)
80002420:	0049a583          	lw	a1,4(s3)
80002424:	c118                	sw	a4,0(a0)
80002426:	4572                	lw	a0,28(sp)
80002428:	4118                	lw	a4,0(a0)
8000242a:	00b9a223          	sw	a1,4(s3)
8000242e:	414c                	lw	a1,4(a0)
80002430:	0705                	addi	a4,a4,1
80002432:	49b6                	lw	s3,76(sp)
80002434:	c3cc                	sw	a1,4(a5)
80002436:	c15c                	sw	a5,4(a0)
80002438:	c390                	sw	a2,0(a5)
8000243a:	c118                	sw	a4,0(a0)
8000243c:	c0d4                	sw	a3,4(s1)
8000243e:	44d6                	lw	s1,84(sp)
80002440:	6125                	addi	sp,sp,96
80002442:	8082                	ret
80002444:	4154                	lw	a3,4(a0)
80002446:	c832                	sw	a2,16(sp)
80002448:	b7d1                	j	8000240c <towers_solve_h+0x276>

8000244a <towers_solve>:
8000244a:	410c                	lw	a1,0(a0)
8000244c:	01850713          	addi	a4,a0,24
80002450:	01050693          	addi	a3,a0,16
80002454:	00850613          	addi	a2,a0,8
80002458:	bb3d                	j	80002196 <towers_solve_h>

8000245a <towers_verify>:
8000245a:	451c                	lw	a5,8(a0)
8000245c:	862a                	mv	a2,a0
8000245e:	e78d                	bnez	a5,80002488 <towers_verify+0x2e>
80002460:	4908                	lw	a0,16(a0)
80002462:	ed1d                	bnez	a0,800024a0 <towers_verify+0x46>
80002464:	420c                	lw	a1,0(a2)
80002466:	4e1c                	lw	a5,24(a2)
80002468:	00b79e63          	bne	a5,a1,80002484 <towers_verify+0x2a>
8000246c:	4e5c                	lw	a5,28(a2)
8000246e:	cf99                	beqz	a5,8000248c <towers_verify+0x32>
80002470:	4701                	li	a4,0
80002472:	a019                	j	80002478 <towers_verify+0x1e>
80002474:	43dc                	lw	a5,4(a5)
80002476:	cb99                	beqz	a5,8000248c <towers_verify+0x32>
80002478:	4394                	lw	a3,0(a5)
8000247a:	0705                	addi	a4,a4,1
8000247c:	fed70ce3          	beq	a4,a3,80002474 <towers_verify+0x1a>
80002480:	4515                	li	a0,5
80002482:	8082                	ret
80002484:	4511                	li	a0,4
80002486:	8082                	ret
80002488:	4509                	li	a0,2
8000248a:	8082                	ret
8000248c:	4785                	li	a5,1
8000248e:	4258                	lw	a4,4(a2)
80002490:	00b797b3          	sll	a5,a5,a1
80002494:	17fd                	addi	a5,a5,-1
80002496:	00f71363          	bne	a4,a5,8000249c <towers_verify+0x42>
8000249a:	8082                	ret
8000249c:	4519                	li	a0,6
8000249e:	8082                	ret
800024a0:	450d                	li	a0,3
800024a2:	8082                	ret

800024a4 <vprintfmt>:
800024a4:	714d                	addi	sp,sp,-336
800024a6:	14812423          	sw	s0,328(sp)
800024aa:	14912223          	sw	s1,324(sp)
800024ae:	15212023          	sw	s2,320(sp)
800024b2:	13512a23          	sw	s5,308(sp)
800024b6:	14112623          	sw	ra,332(sp)
800024ba:	13312e23          	sw	s3,316(sp)
800024be:	13412c23          	sw	s4,312(sp)
800024c2:	13712623          	sw	s7,300(sp)
800024c6:	13812423          	sw	s8,296(sp)
800024ca:	13912223          	sw	s9,292(sp)
800024ce:	13a12023          	sw	s10,288(sp)
800024d2:	84aa                	mv	s1,a0
800024d4:	8432                	mv	s0,a2
800024d6:	c636                	sw	a3,12(sp)
800024d8:	892e                	mv	s2,a1
800024da:	02500a93          	li	s5,37
800024de:	a029                	j	800024e8 <vprintfmt+0x44>
800024e0:	c531                	beqz	a0,8000252c <vprintfmt+0x88>
800024e2:	85ca                	mv	a1,s2
800024e4:	0405                	addi	s0,s0,1
800024e6:	9482                	jalr	s1
800024e8:	00044503          	lbu	a0,0(s0)
800024ec:	ff551ae3          	bne	a0,s5,800024e0 <vprintfmt+0x3c>
800024f0:	00144683          	lbu	a3,1(s0)
800024f4:	00140a13          	addi	s4,s0,1
800024f8:	59fd                	li	s3,-1
800024fa:	02000793          	li	a5,32
800024fe:	8752                	mv	a4,s4
80002500:	8c4e                	mv	s8,s3
80002502:	c43e                	sw	a5,8(sp)
80002504:	4581                	li	a1,0
80002506:	fdd68793          	addi	a5,a3,-35
8000250a:	0ff7f793          	zext.b	a5,a5
8000250e:	05500613          	li	a2,85
80002512:	00170413          	addi	s0,a4,1
80002516:	06f66163          	bltu	a2,a5,80002578 <vprintfmt+0xd4>
8000251a:	00001617          	auipc	a2,0x1
8000251e:	fce60613          	addi	a2,a2,-50 # 800034e8 <main+0x1c2>
80002522:	078a                	slli	a5,a5,0x2
80002524:	97b2                	add	a5,a5,a2
80002526:	439c                	lw	a5,0(a5)
80002528:	97b2                	add	a5,a5,a2
8000252a:	8782                	jr	a5
8000252c:	14c12083          	lw	ra,332(sp)
80002530:	14812403          	lw	s0,328(sp)
80002534:	14412483          	lw	s1,324(sp)
80002538:	14012903          	lw	s2,320(sp)
8000253c:	13c12983          	lw	s3,316(sp)
80002540:	13812a03          	lw	s4,312(sp)
80002544:	13412a83          	lw	s5,308(sp)
80002548:	12c12b83          	lw	s7,300(sp)
8000254c:	12812c03          	lw	s8,296(sp)
80002550:	12412c83          	lw	s9,292(sp)
80002554:	12012d03          	lw	s10,288(sp)
80002558:	6171                	addi	sp,sp,336
8000255a:	8082                	ret
8000255c:	c436                	sw	a3,8(sp)
8000255e:	00174683          	lbu	a3,1(a4)
80002562:	05500613          	li	a2,85
80002566:	8722                	mv	a4,s0
80002568:	fdd68793          	addi	a5,a3,-35
8000256c:	0ff7f793          	zext.b	a5,a5
80002570:	00170413          	addi	s0,a4,1
80002574:	faf673e3          	bgeu	a2,a5,8000251a <vprintfmt+0x76>
80002578:	85ca                	mv	a1,s2
8000257a:	02500513          	li	a0,37
8000257e:	9482                	jalr	s1
80002580:	8452                	mv	s0,s4
80002582:	b79d                	j	800024e8 <vprintfmt+0x44>
80002584:	fd068993          	addi	s3,a3,-48
80002588:	00174683          	lbu	a3,1(a4)
8000258c:	4525                	li	a0,9
8000258e:	fd068793          	addi	a5,a3,-48
80002592:	28f56463          	bltu	a0,a5,8000281a <vprintfmt+0x376>
80002596:	8636                	mv	a2,a3
80002598:	8722                	mv	a4,s0
8000259a:	00299793          	slli	a5,s3,0x2
8000259e:	97ce                	add	a5,a5,s3
800025a0:	0705                	addi	a4,a4,1
800025a2:	0786                	slli	a5,a5,0x1
800025a4:	97b2                	add	a5,a5,a2
800025a6:	00074603          	lbu	a2,0(a4)
800025aa:	fd078993          	addi	s3,a5,-48
800025ae:	fd060793          	addi	a5,a2,-48
800025b2:	86b2                	mv	a3,a2
800025b4:	fef573e3          	bgeu	a0,a5,8000259a <vprintfmt+0xf6>
800025b8:	f40c57e3          	bgez	s8,80002506 <vprintfmt+0x62>
800025bc:	8c4e                	mv	s8,s3
800025be:	59fd                	li	s3,-1
800025c0:	b799                	j	80002506 <vprintfmt+0x62>
800025c2:	00174683          	lbu	a3,1(a4)
800025c6:	8722                	mv	a4,s0
800025c8:	bf3d                	j	80002506 <vprintfmt+0x62>
800025ca:	85ca                	mv	a1,s2
800025cc:	02500513          	li	a0,37
800025d0:	9482                	jalr	s1
800025d2:	bf19                	j	800024e8 <vprintfmt+0x44>
800025d4:	47b2                	lw	a5,12(sp)
800025d6:	00174683          	lbu	a3,1(a4)
800025da:	8722                	mv	a4,s0
800025dc:	0007a983          	lw	s3,0(a5)
800025e0:	0791                	addi	a5,a5,4
800025e2:	c63e                	sw	a5,12(sp)
800025e4:	bfd1                	j	800025b8 <vprintfmt+0x114>
800025e6:	85ca                	mv	a1,s2
800025e8:	03000513          	li	a0,48
800025ec:	13612823          	sw	s6,304(sp)
800025f0:	9482                	jalr	s1
800025f2:	85ca                	mv	a1,s2
800025f4:	07800513          	li	a0,120
800025f8:	9482                	jalr	s1
800025fa:	4bc1                	li	s7,16
800025fc:	4d01                	li	s10,0
800025fe:	47b2                	lw	a5,12(sp)
80002600:	4c81                	li	s9,0
80002602:	0007a983          	lw	s3,0(a5)
80002606:	0791                	addi	a5,a5,4
80002608:	c63e                	sw	a5,12(sp)
8000260a:	865e                	mv	a2,s7
8000260c:	4681                	li	a3,0
8000260e:	854e                	mv	a0,s3
80002610:	85e6                	mv	a1,s9
80002612:	1c3000ef          	jal	80002fd4 <__umoddi3>
80002616:	c82a                	sw	a0,16(sp)
80002618:	179d0b63          	beq	s10,s9,8000278e <vprintfmt+0x2ea>
8000261c:	11b12e23          	sw	s11,284(sp)
80002620:	4b05                	li	s6,1
80002622:	01410d93          	addi	s11,sp,20
80002626:	854e                	mv	a0,s3
80002628:	85e6                	mv	a1,s9
8000262a:	865e                	mv	a2,s7
8000262c:	4681                	li	a3,0
8000262e:	2d71                	jal	80002cca <__udivdi3>
80002630:	865e                	mv	a2,s7
80002632:	4681                	li	a3,0
80002634:	89aa                	mv	s3,a0
80002636:	8cae                	mv	s9,a1
80002638:	19d000ef          	jal	80002fd4 <__umoddi3>
8000263c:	00ada023          	sw	a0,0(s11)
80002640:	8a5a                	mv	s4,s6
80002642:	0d91                	addi	s11,s11,4
80002644:	0b05                	addi	s6,s6,1
80002646:	ff9d10e3          	bne	s10,s9,80002626 <vprintfmt+0x182>
8000264a:	fd79fee3          	bgeu	s3,s7,80002626 <vprintfmt+0x182>
8000264e:	11c12d83          	lw	s11,284(sp)
80002652:	fffc0b93          	addi	s7,s8,-1
80002656:	fffb0993          	addi	s3,s6,-1
8000265a:	018b5863          	bge	s6,s8,8000266a <vprintfmt+0x1c6>
8000265e:	4522                	lw	a0,8(sp)
80002660:	85ca                	mv	a1,s2
80002662:	1bfd                	addi	s7,s7,-1
80002664:	9482                	jalr	s1
80002666:	ff799ce3          	bne	s3,s7,8000265e <vprintfmt+0x1ba>
8000266a:	0a0a                	slli	s4,s4,0x2
8000266c:	01010993          	addi	s3,sp,16
80002670:	9a4e                	add	s4,s4,s3
80002672:	a011                	j	80002676 <vprintfmt+0x1d2>
80002674:	1a71                	addi	s4,s4,-4
80002676:	000a2503          	lw	a0,0(s4)
8000267a:	85ca                	mv	a1,s2
8000267c:	00a53793          	sltiu	a5,a0,10
80002680:	40f007b3          	neg	a5,a5
80002684:	fd97f793          	andi	a5,a5,-39
80002688:	05778793          	addi	a5,a5,87
8000268c:	953e                	add	a0,a0,a5
8000268e:	9482                	jalr	s1
80002690:	ff3a12e3          	bne	s4,s3,80002674 <vprintfmt+0x1d0>
80002694:	13012b03          	lw	s6,304(sp)
80002698:	bd81                	j	800024e8 <vprintfmt+0x44>
8000269a:	13612823          	sw	s6,304(sp)
8000269e:	4785                	li	a5,1
800026a0:	0eb7cc63          	blt	a5,a1,80002798 <vprintfmt+0x2f4>
800026a4:	47b2                	lw	a5,12(sp)
800026a6:	0007a983          	lw	s3,0(a5)
800026aa:	0791                	addi	a5,a5,4
800026ac:	c63e                	sw	a5,12(sp)
800026ae:	41f9d793          	srai	a5,s3,0x1f
800026b2:	8cbe                	mv	s9,a5
800026b4:	4ba9                	li	s7,10
800026b6:	4d01                	li	s10,0
800026b8:	f407d9e3          	bgez	a5,8000260a <vprintfmt+0x166>
800026bc:	85ca                	mv	a1,s2
800026be:	02d00513          	li	a0,45
800026c2:	9482                	jalr	s1
800026c4:	01303733          	snez	a4,s3
800026c8:	419007b3          	neg	a5,s9
800026cc:	40e78cb3          	sub	s9,a5,a4
800026d0:	413009b3          	neg	s3,s3
800026d4:	bf1d                	j	8000260a <vprintfmt+0x166>
800026d6:	00174683          	lbu	a3,1(a4)
800026da:	0585                	addi	a1,a1,1
800026dc:	8722                	mv	a4,s0
800026de:	b525                	j	80002506 <vprintfmt+0x62>
800026e0:	13612823          	sw	s6,304(sp)
800026e4:	4bc1                	li	s7,16
800026e6:	4d01                	li	s10,0
800026e8:	4785                	li	a5,1
800026ea:	f0b7dae3          	bge	a5,a1,800025fe <vprintfmt+0x15a>
800026ee:	47b2                	lw	a5,12(sp)
800026f0:	079d                	addi	a5,a5,7
800026f2:	9be1                	andi	a5,a5,-8
800026f4:	00878713          	addi	a4,a5,8
800026f8:	0007a983          	lw	s3,0(a5)
800026fc:	0047ac83          	lw	s9,4(a5)
80002700:	c63a                	sw	a4,12(sp)
80002702:	b721                	j	8000260a <vprintfmt+0x166>
80002704:	46b2                	lw	a3,12(sp)
80002706:	47a2                	lw	a5,8(sp)
80002708:	11b12e23          	sw	s11,284(sp)
8000270c:	0006aa03          	lw	s4,0(a3)
80002710:	fd378793          	addi	a5,a5,-45
80002714:	00f037b3          	snez	a5,a5
80002718:	01802733          	sgtz	a4,s8
8000271c:	8f7d                	and	a4,a4,a5
8000271e:	00468d93          	addi	s11,a3,4
80002722:	080a0f63          	beqz	s4,800027c0 <vprintfmt+0x31c>
80002726:	ef45                	bnez	a4,800027de <vprintfmt+0x33a>
80002728:	000a4503          	lbu	a0,0(s4)
8000272c:	c115                	beqz	a0,80002750 <vprintfmt+0x2ac>
8000272e:	13612823          	sw	s6,304(sp)
80002732:	5b7d                	li	s6,-1
80002734:	0009c563          	bltz	s3,8000273e <vprintfmt+0x29a>
80002738:	19fd                	addi	s3,s3,-1
8000273a:	01698963          	beq	s3,s6,8000274c <vprintfmt+0x2a8>
8000273e:	85ca                	mv	a1,s2
80002740:	9482                	jalr	s1
80002742:	001a4503          	lbu	a0,1(s4)
80002746:	0a05                	addi	s4,s4,1
80002748:	1c7d                	addi	s8,s8,-1
8000274a:	f56d                	bnez	a0,80002734 <vprintfmt+0x290>
8000274c:	13012b03          	lw	s6,304(sp)
80002750:	01805963          	blez	s8,80002762 <vprintfmt+0x2be>
80002754:	85ca                	mv	a1,s2
80002756:	02000513          	li	a0,32
8000275a:	1c7d                	addi	s8,s8,-1
8000275c:	9482                	jalr	s1
8000275e:	fe0c1be3          	bnez	s8,80002754 <vprintfmt+0x2b0>
80002762:	c66e                	sw	s11,12(sp)
80002764:	11c12d83          	lw	s11,284(sp)
80002768:	b341                	j	800024e8 <vprintfmt+0x44>
8000276a:	fffc4793          	not	a5,s8
8000276e:	87fd                	srai	a5,a5,0x1f
80002770:	00174683          	lbu	a3,1(a4)
80002774:	00fc7c33          	and	s8,s8,a5
80002778:	8722                	mv	a4,s0
8000277a:	b371                	j	80002506 <vprintfmt+0x62>
8000277c:	49b2                	lw	s3,12(sp)
8000277e:	85ca                	mv	a1,s2
80002780:	0009a503          	lw	a0,0(s3)
80002784:	9482                	jalr	s1
80002786:	00498793          	addi	a5,s3,4
8000278a:	c63e                	sw	a5,12(sp)
8000278c:	bbb1                	j	800024e8 <vprintfmt+0x44>
8000278e:	e979f7e3          	bgeu	s3,s7,8000261c <vprintfmt+0x178>
80002792:	4a01                	li	s4,0
80002794:	4b05                	li	s6,1
80002796:	bd75                	j	80002652 <vprintfmt+0x1ae>
80002798:	47b2                	lw	a5,12(sp)
8000279a:	079d                	addi	a5,a5,7
8000279c:	9be1                	andi	a5,a5,-8
8000279e:	00878713          	addi	a4,a5,8
800027a2:	0007a983          	lw	s3,0(a5)
800027a6:	c63a                	sw	a4,12(sp)
800027a8:	43dc                	lw	a5,4(a5)
800027aa:	b721                	j	800026b2 <vprintfmt+0x20e>
800027ac:	13612823          	sw	s6,304(sp)
800027b0:	4ba9                	li	s7,10
800027b2:	4d01                	li	s10,0
800027b4:	bf15                	j	800026e8 <vprintfmt+0x244>
800027b6:	13612823          	sw	s6,304(sp)
800027ba:	4ba1                	li	s7,8
800027bc:	4d01                	li	s10,0
800027be:	b72d                	j	800026e8 <vprintfmt+0x244>
800027c0:	eb19                	bnez	a4,800027d6 <vprintfmt+0x332>
800027c2:	13612823          	sw	s6,304(sp)
800027c6:	00001a17          	auipc	s4,0x1
800027ca:	cdea0a13          	addi	s4,s4,-802 # 800034a4 <main+0x17e>
800027ce:	02800513          	li	a0,40
800027d2:	5b7d                	li	s6,-1
800027d4:	b785                	j	80002734 <vprintfmt+0x290>
800027d6:	00001a17          	auipc	s4,0x1
800027da:	ccea0a13          	addi	s4,s4,-818 # 800034a4 <main+0x17e>
800027de:	87d2                	mv	a5,s4
800027e0:	013a06b3          	add	a3,s4,s3
800027e4:	00099663          	bnez	s3,800027f0 <vprintfmt+0x34c>
800027e8:	a829                	j	80002802 <vprintfmt+0x35e>
800027ea:	0785                	addi	a5,a5,1
800027ec:	00d78563          	beq	a5,a3,800027f6 <vprintfmt+0x352>
800027f0:	0007c703          	lbu	a4,0(a5)
800027f4:	fb7d                	bnez	a4,800027ea <vprintfmt+0x346>
800027f6:	414787b3          	sub	a5,a5,s4
800027fa:	40fc0c33          	sub	s8,s8,a5
800027fe:	01805863          	blez	s8,8000280e <vprintfmt+0x36a>
80002802:	4522                	lw	a0,8(sp)
80002804:	85ca                	mv	a1,s2
80002806:	1c7d                	addi	s8,s8,-1
80002808:	9482                	jalr	s1
8000280a:	fe0c1ce3          	bnez	s8,80002802 <vprintfmt+0x35e>
8000280e:	000a4503          	lbu	a0,0(s4)
80002812:	d921                	beqz	a0,80002762 <vprintfmt+0x2be>
80002814:	13612823          	sw	s6,304(sp)
80002818:	bf29                	j	80002732 <vprintfmt+0x28e>
8000281a:	8722                	mv	a4,s0
8000281c:	bb71                	j	800025b8 <vprintfmt+0x114>

8000281e <sprintf_putch.0>:
8000281e:	419c                	lw	a5,0(a1)
80002820:	00a78023          	sb	a0,0(a5)
80002824:	419c                	lw	a5,0(a1)
80002826:	0785                	addi	a5,a5,1
80002828:	c19c                	sw	a5,0(a1)
8000282a:	8082                	ret

8000282c <putchar>:
8000282c:	7175                	addi	sp,sp,-144
8000282e:	04f10613          	addi	a2,sp,79
80002832:	fc067613          	andi	a2,a2,-64
80002836:	04000713          	li	a4,64
8000283a:	c218                	sw	a4,0(a2)
8000283c:	4781                	li	a5,0
8000283e:	c25c                	sw	a5,4(a2)
80002840:	4805                	li	a6,1
80002842:	01062423          	sw	a6,8(a2)
80002846:	4881                	li	a7,0
80002848:	01162623          	sw	a7,12(a2)
8000284c:	00f10713          	addi	a4,sp,15
80002850:	ca18                	sw	a4,16(a2)
80002852:	4781                	li	a5,0
80002854:	ca5c                	sw	a5,20(a2)
80002856:	01062c23          	sw	a6,24(a2)
8000285a:	00a107a3          	sb	a0,15(sp)
8000285e:	01162e23          	sw	a7,28(a2)
80002862:	0330000f          	fence	rw,rw
80002866:	ffffe697          	auipc	a3,0xffffe
8000286a:	79a68693          	addi	a3,a3,1946 # 80001000 <tohost>
8000286e:	4781                	li	a5,0
80002870:	c290                	sw	a2,0(a3)
80002872:	c2dc                	sw	a5,4(a3)
80002874:	4698                	lw	a4,8(a3)
80002876:	46dc                	lw	a5,12(a3)
80002878:	8f5d                	or	a4,a4,a5
8000287a:	df6d                	beqz	a4,80002874 <putchar+0x48>
8000287c:	0006a423          	sw	zero,8(a3)
80002880:	0006a623          	sw	zero,12(a3)
80002884:	0330000f          	fence	rw,rw
80002888:	4501                	li	a0,0
8000288a:	4218                	lw	a4,0(a2)
8000288c:	425c                	lw	a5,4(a2)
8000288e:	6149                	addi	sp,sp,144
80002890:	8082                	ret

80002892 <setStats>:
80002892:	b0002773          	csrr	a4,mcycle
80002896:	81018793          	addi	a5,gp,-2032 # 8000378c <counters>
8000289a:	c511                	beqz	a0,800028a6 <setStats+0x14>
8000289c:	c398                	sw	a4,0(a5)
8000289e:	b0202773          	csrr	a4,minstret
800028a2:	c3d8                	sw	a4,4(a5)
800028a4:	8082                	ret
800028a6:	4394                	lw	a3,0(a5)
800028a8:	00001617          	auipc	a2,0x1
800028ac:	c0860613          	addi	a2,a2,-1016 # 800034b0 <main+0x18a>
800028b0:	00001597          	auipc	a1,0x1
800028b4:	ecc5aa23          	sw	a2,-300(a1) # 80003784 <counter_names>
800028b8:	8f15                	sub	a4,a4,a3
800028ba:	c398                	sw	a4,0(a5)
800028bc:	b0202773          	csrr	a4,minstret
800028c0:	43d4                	lw	a3,4(a5)
800028c2:	00001617          	auipc	a2,0x1
800028c6:	bf660613          	addi	a2,a2,-1034 # 800034b8 <main+0x192>
800028ca:	80c1a623          	sw	a2,-2036(gp) # 80003788 <counter_names+0x4>
800028ce:	8f15                	sub	a4,a4,a3
800028d0:	c3d8                	sw	a4,4(a5)
800028d2:	8082                	ret

800028d4 <tohost_exit>:
800028d4:	00151693          	slli	a3,a0,0x1
800028d8:	0016e713          	ori	a4,a3,1
800028dc:	ffffe697          	auipc	a3,0xffffe
800028e0:	72468693          	addi	a3,a3,1828 # 80001000 <tohost>
800028e4:	4781                	li	a5,0
800028e6:	c298                	sw	a4,0(a3)
800028e8:	c2dc                	sw	a5,4(a3)
800028ea:	a001                	j	800028ea <tohost_exit+0x16>

800028ec <handle_trap>:
800028ec:	6605                	lui	a2,0x1
800028ee:	ffffe797          	auipc	a5,0xffffe
800028f2:	71278793          	addi	a5,a5,1810 # 80001000 <tohost>
800028f6:	a7360613          	addi	a2,a2,-1421 # a73 <_start-0x7ffff58d>
800028fa:	4681                	li	a3,0
800028fc:	c390                	sw	a2,0(a5)
800028fe:	c3d4                	sw	a3,4(a5)
80002900:	a001                	j	80002900 <handle_trap+0x14>

80002902 <exit>:
80002902:	1141                	addi	sp,sp,-16
80002904:	c606                	sw	ra,12(sp)
80002906:	37f9                	jal	800028d4 <tohost_exit>

80002908 <abort>:
80002908:	ffffe797          	auipc	a5,0xffffe
8000290c:	6f878793          	addi	a5,a5,1784 # 80001000 <tohost>
80002910:	10d00613          	li	a2,269
80002914:	4681                	li	a3,0
80002916:	c390                	sw	a2,0(a5)
80002918:	c3d4                	sw	a3,4(a5)
8000291a:	a001                	j	8000291a <abort+0x12>

8000291c <printstr>:
8000291c:	00054783          	lbu	a5,0(a0)
80002920:	cfad                	beqz	a5,8000299a <printstr+0x7e>
80002922:	7175                	addi	sp,sp,-144
80002924:	03f10613          	addi	a2,sp,63
80002928:	fc067613          	andi	a2,a2,-64
8000292c:	c722                	sw	s0,140(sp)
8000292e:	c526                	sw	s1,136(sp)
80002930:	8e32                	mv	t3,a2
80002932:	4e81                	li	t4,0
80002934:	ffffe697          	auipc	a3,0xffffe
80002938:	6cc68693          	addi	a3,a3,1740 # 80001000 <tohost>
8000293c:	04000f13          	li	t5,64
80002940:	4f81                	li	t6,0
80002942:	4305                	li	t1,1
80002944:	4381                	li	t2,0
80002946:	01e62023          	sw	t5,0(a2)
8000294a:	01f62223          	sw	t6,4(a2)
8000294e:	00662423          	sw	t1,8(a2)
80002952:	00762623          	sw	t2,12(a2)
80002956:	ca08                	sw	a0,16(a2)
80002958:	4881                	li	a7,0
8000295a:	01162a23          	sw	a7,20(a2)
8000295e:	00662c23          	sw	t1,24(a2)
80002962:	00762e23          	sw	t2,28(a2)
80002966:	0330000f          	fence	rw,rw
8000296a:	01c6a023          	sw	t3,0(a3)
8000296e:	01d6a223          	sw	t4,4(a3)
80002972:	4698                	lw	a4,8(a3)
80002974:	46dc                	lw	a5,12(a3)
80002976:	8f5d                	or	a4,a4,a5
80002978:	df6d                	beqz	a4,80002972 <printstr+0x56>
8000297a:	0006a423          	sw	zero,8(a3)
8000297e:	0006a623          	sw	zero,12(a3)
80002982:	0330000f          	fence	rw,rw
80002986:	00154783          	lbu	a5,1(a0)
8000298a:	4200                	lw	s0,0(a2)
8000298c:	4244                	lw	s1,4(a2)
8000298e:	0505                	addi	a0,a0,1
80002990:	fbdd                	bnez	a5,80002946 <printstr+0x2a>
80002992:	443a                	lw	s0,140(sp)
80002994:	44aa                	lw	s1,136(sp)
80002996:	6149                	addi	sp,sp,144
80002998:	8082                	ret
8000299a:	8082                	ret

8000299c <thread_entry>:
8000299c:	e111                	bnez	a0,800029a0 <thread_entry+0x4>
8000299e:	8082                	ret
800029a0:	a001                	j	800029a0 <thread_entry+0x4>

800029a2 <printhex>:
800029a2:	7179                	addi	sp,sp,-48
800029a4:	872a                	mv	a4,a0
800029a6:	d606                	sw	ra,44(sp)
800029a8:	0068                	addi	a0,sp,12
800029aa:	01b10613          	addi	a2,sp,27
800029ae:	4825                	li	a6,9
800029b0:	a011                	j	800029b4 <printhex+0x12>
800029b2:	167d                	addi	a2,a2,-1
800029b4:	00f77693          	andi	a3,a4,15
800029b8:	00d837b3          	sltu	a5,a6,a3
800029bc:	40f007b3          	neg	a5,a5
800029c0:	0277f793          	andi	a5,a5,39
800029c4:	03078793          	addi	a5,a5,48
800029c8:	96be                	add	a3,a3,a5
800029ca:	8311                	srli	a4,a4,0x4
800029cc:	01c59793          	slli	a5,a1,0x1c
800029d0:	00d60023          	sb	a3,0(a2)
800029d4:	973e                	add	a4,a4,a5
800029d6:	8191                	srli	a1,a1,0x4
800029d8:	fcc51de3          	bne	a0,a2,800029b2 <printhex+0x10>
800029dc:	00010e23          	sb	zero,28(sp)
800029e0:	3f35                	jal	8000291c <printstr>
800029e2:	50b2                	lw	ra,44(sp)
800029e4:	6145                	addi	sp,sp,48
800029e6:	8082                	ret

800029e8 <printf>:
800029e8:	7139                	addi	sp,sp,-64
800029ea:	02410313          	addi	t1,sp,36
800029ee:	d22e                	sw	a1,36(sp)
800029f0:	d432                	sw	a2,40(sp)
800029f2:	d636                	sw	a3,44(sp)
800029f4:	862a                	mv	a2,a0
800029f6:	869a                	mv	a3,t1
800029f8:	00000517          	auipc	a0,0x0
800029fc:	e3450513          	addi	a0,a0,-460 # 8000282c <putchar>
80002a00:	4581                	li	a1,0
80002a02:	ce06                	sw	ra,28(sp)
80002a04:	d83a                	sw	a4,48(sp)
80002a06:	da3e                	sw	a5,52(sp)
80002a08:	dc42                	sw	a6,56(sp)
80002a0a:	de46                	sw	a7,60(sp)
80002a0c:	c61a                	sw	t1,12(sp)
80002a0e:	3c59                	jal	800024a4 <vprintfmt>
80002a10:	40f2                	lw	ra,28(sp)
80002a12:	4501                	li	a0,0
80002a14:	6121                	addi	sp,sp,64
80002a16:	8082                	ret

80002a18 <sprintf>:
80002a18:	715d                	addi	sp,sp,-80
80002a1a:	03810313          	addi	t1,sp,56
80002a1e:	d422                	sw	s0,40(sp)
80002a20:	c62a                	sw	a0,12(sp)
80002a22:	dc32                	sw	a2,56(sp)
80002a24:	de36                	sw	a3,60(sp)
80002a26:	842a                	mv	s0,a0
80002a28:	862e                	mv	a2,a1
80002a2a:	00000517          	auipc	a0,0x0
80002a2e:	df450513          	addi	a0,a0,-524 # 8000281e <sprintf_putch.0>
80002a32:	006c                	addi	a1,sp,12
80002a34:	869a                	mv	a3,t1
80002a36:	d606                	sw	ra,44(sp)
80002a38:	c2be                	sw	a5,68(sp)
80002a3a:	c0ba                	sw	a4,64(sp)
80002a3c:	c4c2                	sw	a6,72(sp)
80002a3e:	c6c6                	sw	a7,76(sp)
80002a40:	ce1a                	sw	t1,28(sp)
80002a42:	348d                	jal	800024a4 <vprintfmt>
80002a44:	47b2                	lw	a5,12(sp)
80002a46:	00078023          	sb	zero,0(a5)
80002a4a:	4532                	lw	a0,12(sp)
80002a4c:	50b2                	lw	ra,44(sp)
80002a4e:	8d01                	sub	a0,a0,s0
80002a50:	5422                	lw	s0,40(sp)
80002a52:	6161                	addi	sp,sp,80
80002a54:	8082                	ret

80002a56 <memcpy>:
80002a56:	00c5e7b3          	or	a5,a1,a2
80002a5a:	8fc9                	or	a5,a5,a0
80002a5c:	8b8d                	andi	a5,a5,3
80002a5e:	83ae                	mv	t2,a1
80002a60:	00c506b3          	add	a3,a0,a2
80002a64:	cf91                	beqz	a5,80002a80 <memcpy+0x2a>
80002a66:	962e                	add	a2,a2,a1
80002a68:	87aa                	mv	a5,a0
80002a6a:	08d57963          	bgeu	a0,a3,80002afc <memcpy+0xa6>
80002a6e:	0005c703          	lbu	a4,0(a1)
80002a72:	0585                	addi	a1,a1,1
80002a74:	0785                	addi	a5,a5,1
80002a76:	fee78fa3          	sb	a4,-1(a5)
80002a7a:	fec59ae3          	bne	a1,a2,80002a6e <memcpy+0x18>
80002a7e:	8082                	ret
80002a80:	02050713          	addi	a4,a0,32
80002a84:	06d77d63          	bgeu	a4,a3,80002afe <memcpy+0xa8>
80002a88:	87ba                	mv	a5,a4
80002a8a:	0005a283          	lw	t0,0(a1)
80002a8e:	0045af83          	lw	t6,4(a1)
80002a92:	0085af03          	lw	t5,8(a1)
80002a96:	00c5ae83          	lw	t4,12(a1)
80002a9a:	0105ae03          	lw	t3,16(a1)
80002a9e:	0145a303          	lw	t1,20(a1)
80002aa2:	0185a883          	lw	a7,24(a1)
80002aa6:	01c5a803          	lw	a6,28(a1)
80002aaa:	02078793          	addi	a5,a5,32
80002aae:	fc57a023          	sw	t0,-64(a5)
80002ab2:	fdf7a223          	sw	t6,-60(a5)
80002ab6:	fde7a423          	sw	t5,-56(a5)
80002aba:	fdd7a623          	sw	t4,-52(a5)
80002abe:	fdc7a823          	sw	t3,-48(a5)
80002ac2:	fc67aa23          	sw	t1,-44(a5)
80002ac6:	fd17ac23          	sw	a7,-40(a5)
80002aca:	fd07ae23          	sw	a6,-36(a5)
80002ace:	02058593          	addi	a1,a1,32
80002ad2:	fad7ece3          	bltu	a5,a3,80002a8a <memcpy+0x34>
80002ad6:	fdf60613          	addi	a2,a2,-33
80002ada:	9a01                	andi	a2,a2,-32
80002adc:	02038393          	addi	t2,t2,32
80002ae0:	00c707b3          	add	a5,a4,a2
80002ae4:	00c385b3          	add	a1,t2,a2
80002ae8:	f8d7fbe3          	bgeu	a5,a3,80002a7e <memcpy+0x28>
80002aec:	4198                	lw	a4,0(a1)
80002aee:	0791                	addi	a5,a5,4
80002af0:	0591                	addi	a1,a1,4
80002af2:	fee7ae23          	sw	a4,-4(a5)
80002af6:	fed7ebe3          	bltu	a5,a3,80002aec <memcpy+0x96>
80002afa:	8082                	ret
80002afc:	8082                	ret
80002afe:	87aa                	mv	a5,a0
80002b00:	b7e5                	j	80002ae8 <memcpy+0x92>

80002b02 <_init>:
80002b02:	7135                	addi	sp,sp,-160
80002b04:	85018793          	addi	a5,gp,-1968 # 800037cc <_end>
80002b08:	cb26                	sw	s1,148(sp)
80002b0a:	85018493          	addi	s1,gp,-1968 # 800037cc <_end>
80002b0e:	c74e                	sw	s3,140(sp)
80002b10:	40f489b3          	sub	s3,s1,a5
80002b14:	c552                	sw	s4,136(sp)
80002b16:	c356                	sw	s5,132(sp)
80002b18:	864e                	mv	a2,s3
80002b1a:	8a2a                	mv	s4,a0
80002b1c:	8aae                	mv	s5,a1
80002b1e:	8512                	mv	a0,tp
80002b20:	85be                	mv	a1,a5
80002b22:	cd22                	sw	s0,152(sp)
80002b24:	c94a                	sw	s2,144(sp)
80002b26:	8412                	mv	s0,tp
80002b28:	cf06                	sw	ra,156(sp)
80002b2a:	3735                	jal	80002a56 <memcpy>
80002b2c:	85018793          	addi	a5,gp,-1968 # 800037cc <_end>
80002b30:	01340633          	add	a2,s0,s3
80002b34:	8f85                	sub	a5,a5,s1
80002b36:	00f66733          	or	a4,a2,a5
80002b3a:	03f10913          	addi	s2,sp,63
80002b3e:	8b0d                	andi	a4,a4,3
80002b40:	fc097913          	andi	s2,s2,-64
80002b44:	97b2                	add	a5,a5,a2
80002b46:	cf29                	beqz	a4,80002ba0 <_init+0x9e>
80002b48:	00f67763          	bgeu	a2,a5,80002b56 <_init+0x54>
80002b4c:	0605                	addi	a2,a2,1
80002b4e:	fe060fa3          	sb	zero,-1(a2)
80002b52:	fef61de3          	bne	a2,a5,80002b4c <_init+0x4a>
80002b56:	85d6                	mv	a1,s5
80002b58:	8552                	mv	a0,s4
80002b5a:	3589                	jal	8000299c <thread_entry>
80002b5c:	4581                	li	a1,0
80002b5e:	4501                	li	a0,0
80002b60:	27d9                	jal	80003326 <main>
80002b62:	8aaa                	mv	s5,a0
80002b64:	89ca                	mv	s3,s2
80002b66:	81018413          	addi	s0,gp,-2032 # 8000378c <counters>
80002b6a:	00001497          	auipc	s1,0x1
80002b6e:	c1a48493          	addi	s1,s1,-998 # 80003784 <counter_names>
80002b72:	81818a13          	addi	s4,gp,-2024 # 80003794 <g_nodePool>
80002b76:	4014                	lw	a3,0(s0)
80002b78:	ea99                	bnez	a3,80002b8e <_init+0x8c>
80002b7a:	0411                	addi	s0,s0,4
80002b7c:	0491                	addi	s1,s1,4
80002b7e:	ff441ce3          	bne	s0,s4,80002b76 <_init+0x74>
80002b82:	01298463          	beq	s3,s2,80002b8a <_init+0x88>
80002b86:	854a                	mv	a0,s2
80002b88:	3b51                	jal	8000291c <printstr>
80002b8a:	8556                	mv	a0,s5
80002b8c:	33a1                	jal	800028d4 <tohost_exit>
80002b8e:	4090                	lw	a2,0(s1)
80002b90:	854e                	mv	a0,s3
80002b92:	00001597          	auipc	a1,0x1
80002b96:	94a58593          	addi	a1,a1,-1718 # 800034dc <main+0x1b6>
80002b9a:	3dbd                	jal	80002a18 <sprintf>
80002b9c:	99aa                	add	s3,s3,a0
80002b9e:	bff1                	j	80002b7a <_init+0x78>
80002ba0:	faf67be3          	bgeu	a2,a5,80002b56 <_init+0x54>
80002ba4:	0611                	addi	a2,a2,4
80002ba6:	fe062e23          	sw	zero,-4(a2)
80002baa:	faf676e3          	bgeu	a2,a5,80002b56 <_init+0x54>
80002bae:	0611                	addi	a2,a2,4
80002bb0:	fe062e23          	sw	zero,-4(a2)
80002bb4:	fef668e3          	bltu	a2,a5,80002ba4 <_init+0xa2>
80002bb8:	bf79                	j	80002b56 <_init+0x54>

80002bba <memset>:
80002bba:	00c567b3          	or	a5,a0,a2
80002bbe:	8b8d                	andi	a5,a5,3
80002bc0:	962a                	add	a2,a2,a0
80002bc2:	cb91                	beqz	a5,80002bd6 <memset+0x1c>
80002bc4:	87aa                	mv	a5,a0
80002bc6:	02c57963          	bgeu	a0,a2,80002bf8 <memset+0x3e>
80002bca:	0785                	addi	a5,a5,1
80002bcc:	feb78fa3          	sb	a1,-1(a5)
80002bd0:	fec79de3          	bne	a5,a2,80002bca <memset+0x10>
80002bd4:	8082                	ret
80002bd6:	fec57fe3          	bgeu	a0,a2,80002bd4 <memset+0x1a>
80002bda:	0ff5f593          	zext.b	a1,a1
80002bde:	00859713          	slli	a4,a1,0x8
80002be2:	972e                	add	a4,a4,a1
80002be4:	01071793          	slli	a5,a4,0x10
80002be8:	973e                	add	a4,a4,a5
80002bea:	87aa                	mv	a5,a0
80002bec:	0791                	addi	a5,a5,4
80002bee:	fee7ae23          	sw	a4,-4(a5)
80002bf2:	fec7ede3          	bltu	a5,a2,80002bec <memset+0x32>
80002bf6:	8082                	ret
80002bf8:	8082                	ret

80002bfa <strlen>:
80002bfa:	00054783          	lbu	a5,0(a0)
80002bfe:	cb89                	beqz	a5,80002c10 <strlen+0x16>
80002c00:	87aa                	mv	a5,a0
80002c02:	0017c703          	lbu	a4,1(a5)
80002c06:	0785                	addi	a5,a5,1
80002c08:	ff6d                	bnez	a4,80002c02 <strlen+0x8>
80002c0a:	40a78533          	sub	a0,a5,a0
80002c0e:	8082                	ret
80002c10:	4501                	li	a0,0
80002c12:	8082                	ret

80002c14 <strnlen>:
80002c14:	00b506b3          	add	a3,a0,a1
80002c18:	87aa                	mv	a5,a0
80002c1a:	e589                	bnez	a1,80002c24 <strnlen+0x10>
80002c1c:	a811                	j	80002c30 <strnlen+0x1c>
80002c1e:	0785                	addi	a5,a5,1
80002c20:	00d78563          	beq	a5,a3,80002c2a <strnlen+0x16>
80002c24:	0007c703          	lbu	a4,0(a5)
80002c28:	fb7d                	bnez	a4,80002c1e <strnlen+0xa>
80002c2a:	40a78533          	sub	a0,a5,a0
80002c2e:	8082                	ret
80002c30:	4501                	li	a0,0
80002c32:	8082                	ret

80002c34 <strcmp>:
80002c34:	86aa                	mv	a3,a0
80002c36:	0006c783          	lbu	a5,0(a3)
80002c3a:	0005c603          	lbu	a2,0(a1)
80002c3e:	0685                	addi	a3,a3,1
80002c40:	00f03733          	snez	a4,a5
80002c44:	40c78533          	sub	a0,a5,a2
80002c48:	00153793          	seqz	a5,a0
80002c4c:	8ff9                	and	a5,a5,a4
80002c4e:	0585                	addi	a1,a1,1
80002c50:	f3fd                	bnez	a5,80002c36 <strcmp+0x2>
80002c52:	8082                	ret

80002c54 <strcpy>:
80002c54:	87aa                	mv	a5,a0
80002c56:	0005c703          	lbu	a4,0(a1)
80002c5a:	0585                	addi	a1,a1,1
80002c5c:	0785                	addi	a5,a5,1
80002c5e:	fee78fa3          	sb	a4,-1(a5)
80002c62:	fb75                	bnez	a4,80002c56 <strcpy+0x2>
80002c64:	8082                	ret

80002c66 <atol>:
80002c66:	00054703          	lbu	a4,0(a0)
80002c6a:	02000693          	li	a3,32
80002c6e:	87aa                	mv	a5,a0
80002c70:	00d71763          	bne	a4,a3,80002c7e <atol+0x18>
80002c74:	0017c703          	lbu	a4,1(a5)
80002c78:	0785                	addi	a5,a5,1
80002c7a:	fed70de3          	beq	a4,a3,80002c74 <atol+0xe>
80002c7e:	fd570693          	addi	a3,a4,-43
80002c82:	0fd6f693          	andi	a3,a3,253
80002c86:	ea95                	bnez	a3,80002cba <atol+0x54>
80002c88:	0017c683          	lbu	a3,1(a5)
80002c8c:	fd370713          	addi	a4,a4,-45
80002c90:	00173613          	seqz	a2,a4
80002c94:	ca8d                	beqz	a3,80002cc6 <atol+0x60>
80002c96:	0785                	addi	a5,a5,1
80002c98:	4501                	li	a0,0
80002c9a:	0785                	addi	a5,a5,1
80002c9c:	fd068593          	addi	a1,a3,-48
80002ca0:	00251713          	slli	a4,a0,0x2
80002ca4:	0007c683          	lbu	a3,0(a5)
80002ca8:	972a                	add	a4,a4,a0
80002caa:	0706                	slli	a4,a4,0x1
80002cac:	00e58533          	add	a0,a1,a4
80002cb0:	f6ed                	bnez	a3,80002c9a <atol+0x34>
80002cb2:	c219                	beqz	a2,80002cb8 <atol+0x52>
80002cb4:	40a00533          	neg	a0,a0
80002cb8:	8082                	ret
80002cba:	0007c683          	lbu	a3,0(a5)
80002cbe:	4601                	li	a2,0
80002cc0:	fee1                	bnez	a3,80002c98 <atol+0x32>
80002cc2:	4501                	li	a0,0
80002cc4:	8082                	ret
80002cc6:	4501                	li	a0,0
80002cc8:	b7ed                	j	80002cb2 <atol+0x4c>

80002cca <__udivdi3>:
80002cca:	8732                	mv	a4,a2
80002ccc:	88b6                	mv	a7,a3
80002cce:	882a                	mv	a6,a0
80002cd0:	832e                	mv	t1,a1
80002cd2:	1c069363          	bnez	a3,80002e98 <__udivdi3+0x1ce>
80002cd6:	800037b7          	lui	a5,0x80003
80002cda:	64078793          	addi	a5,a5,1600 # 80003640 <__clz_tab>
80002cde:	0ac5fb63          	bgeu	a1,a2,80002d94 <__udivdi3+0xca>
80002ce2:	66c1                	lui	a3,0x10
80002ce4:	08d67e63          	bgeu	a2,a3,80002d80 <__udivdi3+0xb6>
80002ce8:	10063693          	sltiu	a3,a2,256
80002cec:	0016b693          	seqz	a3,a3
80002cf0:	068e                	slli	a3,a3,0x3
80002cf2:	00d65e33          	srl	t3,a2,a3
80002cf6:	97f2                	add	a5,a5,t3
80002cf8:	0007c783          	lbu	a5,0(a5)
80002cfc:	97b6                	add	a5,a5,a3
80002cfe:	02000693          	li	a3,32
80002d02:	00d78d63          	beq	a5,a3,80002d1c <__udivdi3+0x52>
80002d06:	8e9d                	sub	a3,a3,a5
80002d08:	00d59333          	sll	t1,a1,a3
80002d0c:	00f557b3          	srl	a5,a0,a5
80002d10:	00d61733          	sll	a4,a2,a3
80002d14:	0067e333          	or	t1,a5,t1
80002d18:	00d51833          	sll	a6,a0,a3
80002d1c:	01075513          	srli	a0,a4,0x10
80002d20:	02a357b3          	divu	a5,t1,a0
80002d24:	01071593          	slli	a1,a4,0x10
80002d28:	81c1                	srli	a1,a1,0x10
80002d2a:	01085693          	srli	a3,a6,0x10
80002d2e:	02a37333          	remu	t1,t1,a0
80002d32:	02f58633          	mul	a2,a1,a5
80002d36:	0342                	slli	t1,t1,0x10
80002d38:	0066e6b3          	or	a3,a3,t1
80002d3c:	00c6f863          	bgeu	a3,a2,80002d4c <__udivdi3+0x82>
80002d40:	96ba                	add	a3,a3,a4
80002d42:	00c6f463          	bgeu	a3,a2,80002d4a <__udivdi3+0x80>
80002d46:	04e6f463          	bgeu	a3,a4,80002d8e <__udivdi3+0xc4>
80002d4a:	17fd                	addi	a5,a5,-1
80002d4c:	8e91                	sub	a3,a3,a2
80002d4e:	02a6d633          	divu	a2,a3,a0
80002d52:	0842                	slli	a6,a6,0x10
80002d54:	01085813          	srli	a6,a6,0x10
80002d58:	02a6f6b3          	remu	a3,a3,a0
80002d5c:	02c585b3          	mul	a1,a1,a2
80002d60:	06c2                	slli	a3,a3,0x10
80002d62:	00d86833          	or	a6,a6,a3
80002d66:	00b87863          	bgeu	a6,a1,80002d76 <__udivdi3+0xac>
80002d6a:	983a                	add	a6,a6,a4
80002d6c:	00b87463          	bgeu	a6,a1,80002d74 <__udivdi3+0xaa>
80002d70:	12e87263          	bgeu	a6,a4,80002e94 <__udivdi3+0x1ca>
80002d74:	167d                	addi	a2,a2,-1
80002d76:	07c2                	slli	a5,a5,0x10
80002d78:	8fd1                	or	a5,a5,a2
80002d7a:	853e                	mv	a0,a5
80002d7c:	85c6                	mv	a1,a7
80002d7e:	8082                	ret
80002d80:	01000e37          	lui	t3,0x1000
80002d84:	46e1                	li	a3,24
80002d86:	f7c676e3          	bgeu	a2,t3,80002cf2 <__udivdi3+0x28>
80002d8a:	46c1                	li	a3,16
80002d8c:	b79d                	j	80002cf2 <__udivdi3+0x28>
80002d8e:	17f9                	addi	a5,a5,-2
80002d90:	96ba                	add	a3,a3,a4
80002d92:	bf6d                	j	80002d4c <__udivdi3+0x82>
80002d94:	4681                	li	a3,0
80002d96:	ca09                	beqz	a2,80002da8 <__udivdi3+0xde>
80002d98:	66c1                	lui	a3,0x10
80002d9a:	04d67e63          	bgeu	a2,a3,80002df6 <__udivdi3+0x12c>
80002d9e:	10063693          	sltiu	a3,a2,256
80002da2:	0016b693          	seqz	a3,a3
80002da6:	068e                	slli	a3,a3,0x3
80002da8:	00d658b3          	srl	a7,a2,a3
80002dac:	97c6                	add	a5,a5,a7
80002dae:	0007c783          	lbu	a5,0(a5)
80002db2:	97b6                	add	a5,a5,a3
80002db4:	02000693          	li	a3,32
80002db8:	04d79663          	bne	a5,a3,80002e04 <__udivdi3+0x13a>
80002dbc:	40c58633          	sub	a2,a1,a2
80002dc0:	4885                	li	a7,1
80002dc2:	01075513          	srli	a0,a4,0x10
80002dc6:	02a657b3          	divu	a5,a2,a0
80002dca:	01071593          	slli	a1,a4,0x10
80002dce:	81c1                	srli	a1,a1,0x10
80002dd0:	01085693          	srli	a3,a6,0x10
80002dd4:	02a67633          	remu	a2,a2,a0
80002dd8:	02f58333          	mul	t1,a1,a5
80002ddc:	0642                	slli	a2,a2,0x10
80002dde:	8ed1                	or	a3,a3,a2
80002de0:	0066f863          	bgeu	a3,t1,80002df0 <__udivdi3+0x126>
80002de4:	96ba                	add	a3,a3,a4
80002de6:	0066f463          	bgeu	a3,t1,80002dee <__udivdi3+0x124>
80002dea:	0ae6f263          	bgeu	a3,a4,80002e8e <__udivdi3+0x1c4>
80002dee:	17fd                	addi	a5,a5,-1
80002df0:	406686b3          	sub	a3,a3,t1
80002df4:	bfa9                	j	80002d4e <__udivdi3+0x84>
80002df6:	010008b7          	lui	a7,0x1000
80002dfa:	46e1                	li	a3,24
80002dfc:	fb1676e3          	bgeu	a2,a7,80002da8 <__udivdi3+0xde>
80002e00:	46c1                	li	a3,16
80002e02:	b75d                	j	80002da8 <__udivdi3+0xde>
80002e04:	40f68833          	sub	a6,a3,a5
80002e08:	01061733          	sll	a4,a2,a6
80002e0c:	00f5d6b3          	srl	a3,a1,a5
80002e10:	010595b3          	sll	a1,a1,a6
80002e14:	00f557b3          	srl	a5,a0,a5
80002e18:	01051833          	sll	a6,a0,a6
80002e1c:	01075513          	srli	a0,a4,0x10
80002e20:	02a6d8b3          	divu	a7,a3,a0
80002e24:	01071613          	slli	a2,a4,0x10
80002e28:	8241                	srli	a2,a2,0x10
80002e2a:	8fcd                	or	a5,a5,a1
80002e2c:	02a6f6b3          	remu	a3,a3,a0
80002e30:	03160333          	mul	t1,a2,a7
80002e34:	01069593          	slli	a1,a3,0x10
80002e38:	0107d693          	srli	a3,a5,0x10
80002e3c:	8ecd                	or	a3,a3,a1
80002e3e:	0066f863          	bgeu	a3,t1,80002e4e <__udivdi3+0x184>
80002e42:	96ba                	add	a3,a3,a4
80002e44:	0066f463          	bgeu	a3,t1,80002e4c <__udivdi3+0x182>
80002e48:	02e6fd63          	bgeu	a3,a4,80002e82 <__udivdi3+0x1b8>
80002e4c:	18fd                	addi	a7,a7,-1 # ffffff <_start-0x7f000001>
80002e4e:	406686b3          	sub	a3,a3,t1
80002e52:	02a6d5b3          	divu	a1,a3,a0
80002e56:	07c2                	slli	a5,a5,0x10
80002e58:	83c1                	srli	a5,a5,0x10
80002e5a:	02a6f6b3          	remu	a3,a3,a0
80002e5e:	02b60633          	mul	a2,a2,a1
80002e62:	06c2                	slli	a3,a3,0x10
80002e64:	8fd5                	or	a5,a5,a3
80002e66:	00c7f863          	bgeu	a5,a2,80002e76 <__udivdi3+0x1ac>
80002e6a:	97ba                	add	a5,a5,a4
80002e6c:	00c7f463          	bgeu	a5,a2,80002e74 <__udivdi3+0x1aa>
80002e70:	00e7fc63          	bgeu	a5,a4,80002e88 <__udivdi3+0x1be>
80002e74:	15fd                	addi	a1,a1,-1
80002e76:	08c2                	slli	a7,a7,0x10
80002e78:	40c78633          	sub	a2,a5,a2
80002e7c:	00b8e8b3          	or	a7,a7,a1
80002e80:	b789                	j	80002dc2 <__udivdi3+0xf8>
80002e82:	18f9                	addi	a7,a7,-2
80002e84:	96ba                	add	a3,a3,a4
80002e86:	b7e1                	j	80002e4e <__udivdi3+0x184>
80002e88:	15f9                	addi	a1,a1,-2
80002e8a:	97ba                	add	a5,a5,a4
80002e8c:	b7ed                	j	80002e76 <__udivdi3+0x1ac>
80002e8e:	17f9                	addi	a5,a5,-2
80002e90:	96ba                	add	a3,a3,a4
80002e92:	bfb9                	j	80002df0 <__udivdi3+0x126>
80002e94:	1679                	addi	a2,a2,-2
80002e96:	b5c5                	j	80002d76 <__udivdi3+0xac>
80002e98:	12d5eb63          	bltu	a1,a3,80002fce <__udivdi3+0x304>
80002e9c:	67c1                	lui	a5,0x10
80002e9e:	02f6fe63          	bgeu	a3,a5,80002eda <__udivdi3+0x210>
80002ea2:	1006b793          	sltiu	a5,a3,256
80002ea6:	0017b793          	seqz	a5,a5
80002eaa:	078e                	slli	a5,a5,0x3
80002eac:	80003737          	lui	a4,0x80003
80002eb0:	00f6d833          	srl	a6,a3,a5
80002eb4:	64070713          	addi	a4,a4,1600 # 80003640 <__clz_tab>
80002eb8:	9742                	add	a4,a4,a6
80002eba:	00074703          	lbu	a4,0(a4)
80002ebe:	02000813          	li	a6,32
80002ec2:	973e                	add	a4,a4,a5
80002ec4:	03071263          	bne	a4,a6,80002ee8 <__udivdi3+0x21e>
80002ec8:	00c537b3          	sltu	a5,a0,a2
80002ecc:	0017b793          	seqz	a5,a5
80002ed0:	00b6b6b3          	sltu	a3,a3,a1
80002ed4:	8fd5                	or	a5,a5,a3
80002ed6:	4881                	li	a7,0
80002ed8:	b54d                	j	80002d7a <__udivdi3+0xb0>
80002eda:	01000737          	lui	a4,0x1000
80002ede:	47e1                	li	a5,24
80002ee0:	fce6f6e3          	bgeu	a3,a4,80002eac <__udivdi3+0x1e2>
80002ee4:	47c1                	li	a5,16
80002ee6:	b7d9                	j	80002eac <__udivdi3+0x1e2>
80002ee8:	40e80833          	sub	a6,a6,a4
80002eec:	00e658b3          	srl	a7,a2,a4
80002ef0:	010696b3          	sll	a3,a3,a6
80002ef4:	00d8e8b3          	or	a7,a7,a3
80002ef8:	0108de13          	srli	t3,a7,0x10
80002efc:	00e5d6b3          	srl	a3,a1,a4
80002f00:	03c6d7b3          	divu	a5,a3,t3
80002f04:	01089313          	slli	t1,a7,0x10
80002f08:	01035313          	srli	t1,t1,0x10
80002f0c:	010595b3          	sll	a1,a1,a6
80002f10:	00e55733          	srl	a4,a0,a4
80002f14:	8f4d                	or	a4,a4,a1
80002f16:	01061633          	sll	a2,a2,a6
80002f1a:	03c6f6b3          	remu	a3,a3,t3
80002f1e:	02f30eb3          	mul	t4,t1,a5
80002f22:	01069593          	slli	a1,a3,0x10
80002f26:	01075693          	srli	a3,a4,0x10
80002f2a:	8ecd                	or	a3,a3,a1
80002f2c:	01d6f863          	bgeu	a3,t4,80002f3c <__udivdi3+0x272>
80002f30:	96c6                	add	a3,a3,a7
80002f32:	01d6f463          	bgeu	a3,t4,80002f3a <__udivdi3+0x270>
80002f36:	0916f663          	bgeu	a3,a7,80002fc2 <__udivdi3+0x2f8>
80002f3a:	17fd                	addi	a5,a5,-1 # ffff <_start-0x7fff0001>
80002f3c:	41d686b3          	sub	a3,a3,t4
80002f40:	03c6d5b3          	divu	a1,a3,t3
80002f44:	0742                	slli	a4,a4,0x10
80002f46:	8341                	srli	a4,a4,0x10
80002f48:	03c6f6b3          	remu	a3,a3,t3
80002f4c:	02b30333          	mul	t1,t1,a1
80002f50:	06c2                	slli	a3,a3,0x10
80002f52:	8f55                	or	a4,a4,a3
80002f54:	00677863          	bgeu	a4,t1,80002f64 <__udivdi3+0x29a>
80002f58:	9746                	add	a4,a4,a7
80002f5a:	00677463          	bgeu	a4,t1,80002f62 <__udivdi3+0x298>
80002f5e:	07177563          	bgeu	a4,a7,80002fc8 <__udivdi3+0x2fe>
80002f62:	15fd                	addi	a1,a1,-1
80002f64:	07c2                	slli	a5,a5,0x10
80002f66:	8fcd                	or	a5,a5,a1
80002f68:	40670733          	sub	a4,a4,t1
80002f6c:	05c2                	slli	a1,a1,0x10
80002f6e:	01061313          	slli	t1,a2,0x10
80002f72:	81c1                	srli	a1,a1,0x10
80002f74:	0107d893          	srli	a7,a5,0x10
80002f78:	01035313          	srli	t1,t1,0x10
80002f7c:	8241                	srli	a2,a2,0x10
80002f7e:	02658e33          	mul	t3,a1,t1
80002f82:	02688333          	mul	t1,a7,t1
80002f86:	010e5693          	srli	a3,t3,0x10
80002f8a:	02c585b3          	mul	a1,a1,a2
80002f8e:	02c888b3          	mul	a7,a7,a2
80002f92:	959a                	add	a1,a1,t1
80002f94:	96ae                	add	a3,a3,a1
80002f96:	0066f463          	bgeu	a3,t1,80002f9e <__udivdi3+0x2d4>
80002f9a:	6641                	lui	a2,0x10
80002f9c:	98b2                	add	a7,a7,a2
80002f9e:	0106d613          	srli	a2,a3,0x10
80002fa2:	9646                	add	a2,a2,a7
80002fa4:	00c76d63          	bltu	a4,a2,80002fbe <__udivdi3+0x2f4>
80002fa8:	0e42                	slli	t3,t3,0x10
80002faa:	06c2                	slli	a3,a3,0x10
80002fac:	010e5e13          	srli	t3,t3,0x10
80002fb0:	01051533          	sll	a0,a0,a6
80002fb4:	96f2                	add	a3,a3,t3
80002fb6:	f2d570e3          	bgeu	a0,a3,80002ed6 <__udivdi3+0x20c>
80002fba:	f0c71ee3          	bne	a4,a2,80002ed6 <__udivdi3+0x20c>
80002fbe:	17fd                	addi	a5,a5,-1
80002fc0:	bf19                	j	80002ed6 <__udivdi3+0x20c>
80002fc2:	17f9                	addi	a5,a5,-2
80002fc4:	96c6                	add	a3,a3,a7
80002fc6:	bf9d                	j	80002f3c <__udivdi3+0x272>
80002fc8:	15f9                	addi	a1,a1,-2
80002fca:	9746                	add	a4,a4,a7
80002fcc:	bf61                	j	80002f64 <__udivdi3+0x29a>
80002fce:	4881                	li	a7,0
80002fd0:	4781                	li	a5,0
80002fd2:	b365                	j	80002d7a <__udivdi3+0xb0>

80002fd4 <__umoddi3>:
80002fd4:	8832                	mv	a6,a2
80002fd6:	87aa                	mv	a5,a0
80002fd8:	872e                	mv	a4,a1
80002fda:	1e069063          	bnez	a3,800031ba <__umoddi3+0x1e6>
80002fde:	800036b7          	lui	a3,0x80003
80002fe2:	64068693          	addi	a3,a3,1600 # 80003640 <__clz_tab>
80002fe6:	0cc5f263          	bgeu	a1,a2,800030aa <__umoddi3+0xd6>
80002fea:	68c1                	lui	a7,0x10
80002fec:	0b167863          	bgeu	a2,a7,8000309c <__umoddi3+0xc8>
80002ff0:	10063893          	sltiu	a7,a2,256
80002ff4:	0018b893          	seqz	a7,a7
80002ff8:	088e                	slli	a7,a7,0x3
80002ffa:	01165333          	srl	t1,a2,a7
80002ffe:	969a                	add	a3,a3,t1
80003000:	0006c683          	lbu	a3,0(a3)
80003004:	02000313          	li	t1,32
80003008:	96c6                	add	a3,a3,a7
8000300a:	40d308b3          	sub	a7,t1,a3
8000300e:	00668b63          	beq	a3,t1,80003024 <__umoddi3+0x50>
80003012:	01159733          	sll	a4,a1,a7
80003016:	00d556b3          	srl	a3,a0,a3
8000301a:	01161833          	sll	a6,a2,a7
8000301e:	8f55                	or	a4,a4,a3
80003020:	011517b3          	sll	a5,a0,a7
80003024:	01085513          	srli	a0,a6,0x10
80003028:	02a756b3          	divu	a3,a4,a0
8000302c:	01081313          	slli	t1,a6,0x10
80003030:	01035313          	srli	t1,t1,0x10
80003034:	02a77733          	remu	a4,a4,a0
80003038:	026686b3          	mul	a3,a3,t1
8000303c:	01071593          	slli	a1,a4,0x10
80003040:	0107d713          	srli	a4,a5,0x10
80003044:	8f4d                	or	a4,a4,a1
80003046:	00d77d63          	bgeu	a4,a3,80003060 <__umoddi3+0x8c>
8000304a:	9742                	add	a4,a4,a6
8000304c:	010735b3          	sltu	a1,a4,a6
80003050:	00d73633          	sltu	a2,a4,a3
80003054:	0015b593          	seqz	a1,a1
80003058:	8e6d                	and	a2,a2,a1
8000305a:	03060633          	mul	a2,a2,a6
8000305e:	9732                	add	a4,a4,a2
80003060:	8f15                	sub	a4,a4,a3
80003062:	02a756b3          	divu	a3,a4,a0
80003066:	02a77733          	remu	a4,a4,a0
8000306a:	026686b3          	mul	a3,a3,t1
8000306e:	01079513          	slli	a0,a5,0x10
80003072:	0742                	slli	a4,a4,0x10
80003074:	8141                	srli	a0,a0,0x10
80003076:	8d59                	or	a0,a0,a4
80003078:	00d57d63          	bgeu	a0,a3,80003092 <__umoddi3+0xbe>
8000307c:	9542                	add	a0,a0,a6
8000307e:	01053733          	sltu	a4,a0,a6
80003082:	00d537b3          	sltu	a5,a0,a3
80003086:	00173713          	seqz	a4,a4
8000308a:	8ff9                	and	a5,a5,a4
8000308c:	030787b3          	mul	a5,a5,a6
80003090:	953e                	add	a0,a0,a5
80003092:	8d15                	sub	a0,a0,a3
80003094:	01155533          	srl	a0,a0,a7
80003098:	4581                	li	a1,0
8000309a:	8082                	ret
8000309c:	01000337          	lui	t1,0x1000
800030a0:	48e1                	li	a7,24
800030a2:	f4667ce3          	bgeu	a2,t1,80002ffa <__umoddi3+0x26>
800030a6:	48c1                	li	a7,16
800030a8:	bf89                	j	80002ffa <__umoddi3+0x26>
800030aa:	4701                	li	a4,0
800030ac:	ca09                	beqz	a2,800030be <__umoddi3+0xea>
800030ae:	6741                	lui	a4,0x10
800030b0:	06e67a63          	bgeu	a2,a4,80003124 <__umoddi3+0x150>
800030b4:	10063713          	sltiu	a4,a2,256
800030b8:	00173713          	seqz	a4,a4
800030bc:	070e                	slli	a4,a4,0x3
800030be:	00e658b3          	srl	a7,a2,a4
800030c2:	96c6                	add	a3,a3,a7
800030c4:	0006c683          	lbu	a3,0(a3)
800030c8:	96ba                	add	a3,a3,a4
800030ca:	02000713          	li	a4,32
800030ce:	40d708b3          	sub	a7,a4,a3
800030d2:	06e69063          	bne	a3,a4,80003132 <__umoddi3+0x15e>
800030d6:	40c586b3          	sub	a3,a1,a2
800030da:	01085593          	srli	a1,a6,0x10
800030de:	02b6d633          	divu	a2,a3,a1
800030e2:	01081313          	slli	t1,a6,0x10
800030e6:	01035313          	srli	t1,t1,0x10
800030ea:	0107d713          	srli	a4,a5,0x10
800030ee:	02b6f6b3          	remu	a3,a3,a1
800030f2:	02660633          	mul	a2,a2,t1
800030f6:	06c2                	slli	a3,a3,0x10
800030f8:	8f55                	or	a4,a4,a3
800030fa:	00c77d63          	bgeu	a4,a2,80003114 <__umoddi3+0x140>
800030fe:	9742                	add	a4,a4,a6
80003100:	01073533          	sltu	a0,a4,a6
80003104:	00c736b3          	sltu	a3,a4,a2
80003108:	00153513          	seqz	a0,a0
8000310c:	8ee9                	and	a3,a3,a0
8000310e:	030686b3          	mul	a3,a3,a6
80003112:	9736                	add	a4,a4,a3
80003114:	8f11                	sub	a4,a4,a2
80003116:	02b756b3          	divu	a3,a4,a1
8000311a:	02b77733          	remu	a4,a4,a1
8000311e:	026686b3          	mul	a3,a3,t1
80003122:	b7b1                	j	8000306e <__umoddi3+0x9a>
80003124:	010008b7          	lui	a7,0x1000
80003128:	4761                	li	a4,24
8000312a:	f9167ae3          	bgeu	a2,a7,800030be <__umoddi3+0xea>
8000312e:	4741                	li	a4,16
80003130:	b779                	j	800030be <__umoddi3+0xea>
80003132:	01161833          	sll	a6,a2,a7
80003136:	00d5d733          	srl	a4,a1,a3
8000313a:	011517b3          	sll	a5,a0,a7
8000313e:	011595b3          	sll	a1,a1,a7
80003142:	00d556b3          	srl	a3,a0,a3
80003146:	01085513          	srli	a0,a6,0x10
8000314a:	8ecd                	or	a3,a3,a1
8000314c:	02a755b3          	divu	a1,a4,a0
80003150:	01081e13          	slli	t3,a6,0x10
80003154:	010e5e13          	srli	t3,t3,0x10
80003158:	02a77733          	remu	a4,a4,a0
8000315c:	03c585b3          	mul	a1,a1,t3
80003160:	01071613          	slli	a2,a4,0x10
80003164:	0106d713          	srli	a4,a3,0x10
80003168:	8f51                	or	a4,a4,a2
8000316a:	00b77e63          	bgeu	a4,a1,80003186 <__umoddi3+0x1b2>
8000316e:	9742                	add	a4,a4,a6
80003170:	01073333          	sltu	t1,a4,a6
80003174:	00b73633          	sltu	a2,a4,a1
80003178:	00133313          	seqz	t1,t1
8000317c:	00667633          	and	a2,a2,t1
80003180:	03060633          	mul	a2,a2,a6
80003184:	9732                	add	a4,a4,a2
80003186:	8f0d                	sub	a4,a4,a1
80003188:	02a75633          	divu	a2,a4,a0
8000318c:	06c2                	slli	a3,a3,0x10
8000318e:	82c1                	srli	a3,a3,0x10
80003190:	02a77733          	remu	a4,a4,a0
80003194:	03c60633          	mul	a2,a2,t3
80003198:	0742                	slli	a4,a4,0x10
8000319a:	8ed9                	or	a3,a3,a4
8000319c:	00c6fd63          	bgeu	a3,a2,800031b6 <__umoddi3+0x1e2>
800031a0:	96c2                	add	a3,a3,a6
800031a2:	0106b5b3          	sltu	a1,a3,a6
800031a6:	00c6b733          	sltu	a4,a3,a2
800031aa:	0015b593          	seqz	a1,a1
800031ae:	8f6d                	and	a4,a4,a1
800031b0:	03070733          	mul	a4,a4,a6
800031b4:	96ba                	add	a3,a3,a4
800031b6:	8e91                	sub	a3,a3,a2
800031b8:	b70d                	j	800030da <__umoddi3+0x106>
800031ba:	14d5ef63          	bltu	a1,a3,80003318 <__umoddi3+0x344>
800031be:	6841                	lui	a6,0x10
800031c0:	0506f563          	bgeu	a3,a6,8000320a <__umoddi3+0x236>
800031c4:	1006b893          	sltiu	a7,a3,256
800031c8:	0018b893          	seqz	a7,a7
800031cc:	088e                	slli	a7,a7,0x3
800031ce:	80003837          	lui	a6,0x80003
800031d2:	0116d333          	srl	t1,a3,a7
800031d6:	64080813          	addi	a6,a6,1600 # 80003640 <__clz_tab>
800031da:	981a                	add	a6,a6,t1
800031dc:	00084803          	lbu	a6,0(a6)
800031e0:	9846                	add	a6,a6,a7
800031e2:	02000893          	li	a7,32
800031e6:	03181963          	bne	a6,a7,80003218 <__umoddi3+0x244>
800031ea:	00c57463          	bgeu	a0,a2,800031f2 <__umoddi3+0x21e>
800031ee:	00b6fb63          	bgeu	a3,a1,80003204 <__umoddi3+0x230>
800031f2:	40c50733          	sub	a4,a0,a2
800031f6:	87ba                	mv	a5,a4
800031f8:	40d586b3          	sub	a3,a1,a3
800031fc:	00e53733          	sltu	a4,a0,a4
80003200:	40e68733          	sub	a4,a3,a4
80003204:	853e                	mv	a0,a5
80003206:	85ba                	mv	a1,a4
80003208:	8082                	ret
8000320a:	01000837          	lui	a6,0x1000
8000320e:	48e1                	li	a7,24
80003210:	fb06ffe3          	bgeu	a3,a6,800031ce <__umoddi3+0x1fa>
80003214:	48c1                	li	a7,16
80003216:	bf65                	j	800031ce <__umoddi3+0x1fa>
80003218:	410888b3          	sub	a7,a7,a6
8000321c:	011696b3          	sll	a3,a3,a7
80003220:	01065333          	srl	t1,a2,a6
80003224:	00d36333          	or	t1,t1,a3
80003228:	0105d733          	srl	a4,a1,a6
8000322c:	01035e93          	srli	t4,t1,0x10
80003230:	03d756b3          	divu	a3,a4,t4
80003234:	01031e13          	slli	t3,t1,0x10
80003238:	010e5e13          	srli	t3,t3,0x10
8000323c:	011597b3          	sll	a5,a1,a7
80003240:	010555b3          	srl	a1,a0,a6
80003244:	8ddd                	or	a1,a1,a5
80003246:	0105d793          	srli	a5,a1,0x10
8000324a:	03d77733          	remu	a4,a4,t4
8000324e:	01161633          	sll	a2,a2,a7
80003252:	01151533          	sll	a0,a0,a7
80003256:	02de0f33          	mul	t5,t3,a3
8000325a:	0742                	slli	a4,a4,0x10
8000325c:	8fd9                	or	a5,a5,a4
8000325e:	01e7f863          	bgeu	a5,t5,8000326e <__umoddi3+0x29a>
80003262:	979a                	add	a5,a5,t1
80003264:	01e7f463          	bgeu	a5,t5,8000326c <__umoddi3+0x298>
80003268:	0a67f963          	bgeu	a5,t1,8000331a <__umoddi3+0x346>
8000326c:	16fd                	addi	a3,a3,-1
8000326e:	41e787b3          	sub	a5,a5,t5
80003272:	03d7d733          	divu	a4,a5,t4
80003276:	05c2                	slli	a1,a1,0x10
80003278:	81c1                	srli	a1,a1,0x10
8000327a:	03d7f7b3          	remu	a5,a5,t4
8000327e:	02ee0e33          	mul	t3,t3,a4
80003282:	07c2                	slli	a5,a5,0x10
80003284:	8ddd                	or	a1,a1,a5
80003286:	01c5f863          	bgeu	a1,t3,80003296 <__umoddi3+0x2c2>
8000328a:	959a                	add	a1,a1,t1
8000328c:	01c5f463          	bgeu	a1,t3,80003294 <__umoddi3+0x2c0>
80003290:	0865f863          	bgeu	a1,t1,80003320 <__umoddi3+0x34c>
80003294:	177d                	addi	a4,a4,-1 # ffff <_start-0x7fff0001>
80003296:	06c2                	slli	a3,a3,0x10
80003298:	8ed9                	or	a3,a3,a4
8000329a:	41c585b3          	sub	a1,a1,t3
8000329e:	0742                	slli	a4,a4,0x10
800032a0:	01061e13          	slli	t3,a2,0x10
800032a4:	01065793          	srli	a5,a2,0x10
800032a8:	8341                	srli	a4,a4,0x10
800032aa:	82c1                	srli	a3,a3,0x10
800032ac:	010e5e13          	srli	t3,t3,0x10
800032b0:	03c70eb3          	mul	t4,a4,t3
800032b4:	03c68e33          	mul	t3,a3,t3
800032b8:	02f70733          	mul	a4,a4,a5
800032bc:	02f686b3          	mul	a3,a3,a5
800032c0:	01c707b3          	add	a5,a4,t3
800032c4:	010ed713          	srli	a4,t4,0x10
800032c8:	973e                	add	a4,a4,a5
800032ca:	01c77463          	bgeu	a4,t3,800032d2 <__umoddi3+0x2fe>
800032ce:	67c1                	lui	a5,0x10
800032d0:	96be                	add	a3,a3,a5
800032d2:	01075793          	srli	a5,a4,0x10
800032d6:	0ec2                	slli	t4,t4,0x10
800032d8:	0742                	slli	a4,a4,0x10
800032da:	010ede93          	srli	t4,t4,0x10
800032de:	97b6                	add	a5,a5,a3
800032e0:	9776                	add	a4,a4,t4
800032e2:	00f5e663          	bltu	a1,a5,800032ee <__umoddi3+0x31a>
800032e6:	00e57b63          	bgeu	a0,a4,800032fc <__umoddi3+0x328>
800032ea:	00f59963          	bne	a1,a5,800032fc <__umoddi3+0x328>
800032ee:	40c70633          	sub	a2,a4,a2
800032f2:	00c736b3          	sltu	a3,a4,a2
800032f6:	969a                	add	a3,a3,t1
800032f8:	8732                	mv	a4,a2
800032fa:	8f95                	sub	a5,a5,a3
800032fc:	40e50733          	sub	a4,a0,a4
80003300:	00e53533          	sltu	a0,a0,a4
80003304:	8d9d                	sub	a1,a1,a5
80003306:	8d89                	sub	a1,a1,a0
80003308:	01059833          	sll	a6,a1,a6
8000330c:	01175733          	srl	a4,a4,a7
80003310:	00e86533          	or	a0,a6,a4
80003314:	0115d5b3          	srl	a1,a1,a7
80003318:	8082                	ret
8000331a:	16f9                	addi	a3,a3,-2
8000331c:	979a                	add	a5,a5,t1
8000331e:	bf81                	j	8000326e <__umoddi3+0x29a>
80003320:	1779                	addi	a4,a4,-2
80003322:	959a                	add	a1,a1,t1
80003324:	bf8d                	j	80003296 <__umoddi3+0x2c2>

セクション .text.startup の逆アセンブル:

80003326 <main>:
80003326:	7179                	addi	sp,sp,-48
80003328:	d422                	sw	s0,40(sp)
8000332a:	d226                	sw	s1,36(sp)
8000332c:	479d                	li	a5,7
8000332e:	d606                	sw	ra,44(sp)
80003330:	00000497          	auipc	s1,0x0
80003334:	44c48493          	addi	s1,s1,1100 # 8000377c <g_nodeFreeList>
80003338:	c09c                	sw	a5,0(s1)
8000333a:	06300793          	li	a5,99
8000333e:	84f1a423          	sw	a5,-1976(gp) # 800037c4 <g_nodePool+0x30>
80003342:	8401a623          	sw	zero,-1972(gp) # 800037c8 <g_nodePool+0x34>
80003346:	82018793          	addi	a5,gp,-2016 # 8000379c <g_nodePool+0x8>
8000334a:	4401                	li	s0,0
8000334c:	4699                	li	a3,6
8000334e:	fe87ac23          	sw	s0,-8(a5) # fff8 <_start-0x7fff0008>
80003352:	fef7ae23          	sw	a5,-4(a5)
80003356:	0405                	addi	s0,s0,1
80003358:	07a1                	addi	a5,a5,8
8000335a:	fed41ae3          	bne	s0,a3,8000334e <main+0x28>
8000335e:	471d                	li	a4,7
80003360:	c202                	sw	zero,4(sp)
80003362:	c802                	sw	zero,16(sp)
80003364:	ca02                	sw	zero,20(sp)
80003366:	cc02                	sw	zero,24(sp)
80003368:	ce02                	sw	zero,28(sp)
8000336a:	c03a                	sw	a4,0(sp)
8000336c:	4681                	li	a3,0
8000336e:	81818793          	addi	a5,gp,-2024 # 80003794 <g_nodePool>
80003372:	a019                	j	80003378 <main+0x52>
80003374:	86be                	mv	a3,a5
80003376:	87b2                	mv	a5,a2
80003378:	43d0                	lw	a2,4(a5)
8000337a:	c398                	sw	a4,0(a5)
8000337c:	c3d4                	sw	a3,4(a5)
8000337e:	177d                	addi	a4,a4,-1
80003380:	fb75                	bnez	a4,80003374 <main+0x4e>
80003382:	c0d0                	sw	a2,4(s1)
80003384:	c3d4                	sw	a3,4(a5)
80003386:	c63e                	sw	a5,12(sp)
80003388:	4705                	li	a4,1
8000338a:	c398                	sw	a4,0(a5)
8000338c:	459d                	li	a1,7
8000338e:	0838                	addi	a4,sp,24
80003390:	850a                	mv	a0,sp
80003392:	0814                	addi	a3,sp,16
80003394:	0030                	addi	a2,sp,8
80003396:	c42e                	sw	a1,8(sp)
80003398:	dfffe0ef          	jal	80002196 <towers_solve_h>
8000339c:	4722                	lw	a4,8(sp)
8000339e:	00e05c63          	blez	a4,800033b6 <main+0x90>
800033a2:	47b2                	lw	a5,12(sp)
800033a4:	40d4                	lw	a3,4(s1)
800033a6:	a011                	j	800033aa <main+0x84>
800033a8:	87b2                	mv	a5,a2
800033aa:	43d0                	lw	a2,4(a5)
800033ac:	177d                	addi	a4,a4,-1
800033ae:	c3d4                	sw	a3,4(a5)
800033b0:	86be                	mv	a3,a5
800033b2:	fb7d                	bnez	a4,800033a8 <main+0x82>
800033b4:	c0dc                	sw	a5,4(s1)
800033b6:	4742                	lw	a4,16(sp)
800033b8:	00e05c63          	blez	a4,800033d0 <main+0xaa>
800033bc:	47d2                	lw	a5,20(sp)
800033be:	40d4                	lw	a3,4(s1)
800033c0:	a011                	j	800033c4 <main+0x9e>
800033c2:	87b2                	mv	a5,a2
800033c4:	43d0                	lw	a2,4(a5)
800033c6:	177d                	addi	a4,a4,-1
800033c8:	c3d4                	sw	a3,4(a5)
800033ca:	86be                	mv	a3,a5
800033cc:	fb7d                	bnez	a4,800033c2 <main+0x9c>
800033ce:	c0dc                	sw	a5,4(s1)
800033d0:	4762                	lw	a4,24(sp)
800033d2:	00e05c63          	blez	a4,800033ea <main+0xc4>
800033d6:	47f2                	lw	a5,28(sp)
800033d8:	40d4                	lw	a3,4(s1)
800033da:	a011                	j	800033de <main+0xb8>
800033dc:	87b2                	mv	a5,a2
800033de:	43d0                	lw	a2,4(a5)
800033e0:	177d                	addi	a4,a4,-1
800033e2:	c3d4                	sw	a3,4(a5)
800033e4:	86be                	mv	a3,a5
800033e6:	fb7d                	bnez	a4,800033dc <main+0xb6>
800033e8:	c0dc                	sw	a5,4(s1)
800033ea:	4582                	lw	a1,0(sp)
800033ec:	c202                	sw	zero,4(sp)
800033ee:	c402                	sw	zero,8(sp)
800033f0:	c602                	sw	zero,12(sp)
800033f2:	c802                	sw	zero,16(sp)
800033f4:	ca02                	sw	zero,20(sp)
800033f6:	cc02                	sw	zero,24(sp)
800033f8:	ce02                	sw	zero,28(sp)
800033fa:	02b05363          	blez	a1,80003420 <main+0xfa>
800033fe:	40dc                	lw	a5,4(s1)
80003400:	872e                	mv	a4,a1
80003402:	4681                	li	a3,0
80003404:	a019                	j	8000340a <main+0xe4>
80003406:	86be                	mv	a3,a5
80003408:	87b2                	mv	a5,a2
8000340a:	43d0                	lw	a2,4(a5)
8000340c:	c398                	sw	a4,0(a5)
8000340e:	c3d4                	sw	a3,4(a5)
80003410:	177d                	addi	a4,a4,-1
80003412:	fb75                	bnez	a4,80003406 <main+0xe0>
80003414:	c0d0                	sw	a2,4(s1)
80003416:	c3d4                	sw	a3,4(a5)
80003418:	c63e                	sw	a5,12(sp)
8000341a:	4705                	li	a4,1
8000341c:	c398                	sw	a4,0(a5)
8000341e:	c42e                	sw	a1,8(sp)
80003420:	4505                	li	a0,1
80003422:	c70ff0ef          	jal	80002892 <setStats>
80003426:	4582                	lw	a1,0(sp)
80003428:	0838                	addi	a4,sp,24
8000342a:	0814                	addi	a3,sp,16
8000342c:	0030                	addi	a2,sp,8
8000342e:	850a                	mv	a0,sp
80003430:	d67fe0ef          	jal	80002196 <towers_solve_h>
80003434:	4501                	li	a0,0
80003436:	c5cff0ef          	jal	80002892 <setStats>
8000343a:	47a2                	lw	a5,8(sp)
8000343c:	eb95                	bnez	a5,80003470 <main+0x14a>
8000343e:	47c2                	lw	a5,16(sp)
80003440:	e3b9                	bnez	a5,80003486 <main+0x160>
80003442:	4602                	lw	a2,0(sp)
80003444:	47e2                	lw	a5,24(sp)
80003446:	00c79e63          	bne	a5,a2,80003462 <main+0x13c>
8000344a:	47f2                	lw	a5,28(sp)
8000344c:	c785                	beqz	a5,80003474 <main+0x14e>
8000344e:	4701                	li	a4,0
80003450:	a019                	j	80003456 <main+0x130>
80003452:	43dc                	lw	a5,4(a5)
80003454:	c385                	beqz	a5,80003474 <main+0x14e>
80003456:	4394                	lw	a3,0(a5)
80003458:	0705                	addi	a4,a4,1
8000345a:	fed70ce3          	beq	a4,a3,80003452 <main+0x12c>
8000345e:	4415                	li	s0,5
80003460:	a011                	j	80003464 <main+0x13e>
80003462:	4411                	li	s0,4
80003464:	50b2                	lw	ra,44(sp)
80003466:	8522                	mv	a0,s0
80003468:	5422                	lw	s0,40(sp)
8000346a:	5492                	lw	s1,36(sp)
8000346c:	6145                	addi	sp,sp,48
8000346e:	8082                	ret
80003470:	4409                	li	s0,2
80003472:	bfcd                	j	80003464 <main+0x13e>
80003474:	4785                	li	a5,1
80003476:	4712                	lw	a4,4(sp)
80003478:	00c797b3          	sll	a5,a5,a2
8000347c:	17fd                	addi	a5,a5,-1
8000347e:	fef713e3          	bne	a4,a5,80003464 <main+0x13e>
80003482:	4401                	li	s0,0
80003484:	b7c5                	j	80003464 <main+0x13e>
80003486:	440d                	li	s0,3
80003488:	bff1                	j	80003464 <main+0x13e>
8000348a:	1141                	addi	sp,sp,-16
8000348c:	00000517          	auipc	a0,0x0
80003490:	03850513          	addi	a0,a0,56 # 800034c4 <main+0x19e>
80003494:	c606                	sw	ra,12(sp)
80003496:	c86ff0ef          	jal	8000291c <printstr>
8000349a:	40b2                	lw	ra,12(sp)
8000349c:	557d                	li	a0,-1
8000349e:	0141                	addi	sp,sp,16
800034a0:	8082                	ret
