
vec-memcpy.riscv:     ファイル形式 elf32-littleriscv


セクション .text.init の逆アセンブル:

80000000 <_start>:
80000000:	4081                	li	ra,0
80000002:	4101                	li	sp,0
80000004:	4181                	li	gp,0
80000006:	4201                	li	tp,0
80000008:	4281                	li	t0,0
8000000a:	4301                	li	t1,0
8000000c:	4381                	li	t2,0
8000000e:	4401                	li	s0,0
80000010:	4481                	li	s1,0
80000012:	4501                	li	a0,0
80000014:	4581                	li	a1,0
80000016:	4601                	li	a2,0
80000018:	4681                	li	a3,0
8000001a:	4701                	li	a4,0
8000001c:	4781                	li	a5,0
8000001e:	4801                	li	a6,0
80000020:	4881                	li	a7,0
80000022:	4901                	li	s2,0
80000024:	4981                	li	s3,0
80000026:	4a01                	li	s4,0
80000028:	4a81                	li	s5,0
8000002a:	4b01                	li	s6,0
8000002c:	4b81                	li	s7,0
8000002e:	4c01                	li	s8,0
80000030:	4c81                	li	s9,0
80000032:	4d01                	li	s10,0
80000034:	4d81                	li	s11,0
80000036:	4e01                	li	t3,0
80000038:	4e81                	li	t4,0
8000003a:	4f01                	li	t5,0
8000003c:	4f81                	li	t6,0
8000003e:	62f9                	lui	t0,0x1e
80000040:	60028293          	addi	t0,t0,1536 # 1e600 <_start-0x7ffe1a00>
80000044:	3002a073          	csrs	mstatus,t0
80000048:	4285                	li	t0,1
8000004a:	02fe                	slli	t0,t0,0x1f
8000004c:	0002c863          	bltz	t0,8000005c <_start+0x5c>
80000050:	4505                	li	a0,1
80000052:	00001297          	auipc	t0,0x1
80000056:	faa2a723          	sw	a0,-82(t0) # 80001000 <tohost>
8000005a:	bfdd                	j	80000050 <_start+0x50>
8000005c:	00000297          	auipc	t0,0x0
80000060:	09028293          	addi	t0,t0,144 # 800000ec <_start+0xec>
80000064:	30529073          	csrw	mtvec,t0
80000068:	00301073          	fscsr	zero
8000006c:	f0000053          	fmv.w.x	ft0,zero
80000070:	f00000d3          	fmv.w.x	ft1,zero
80000074:	f0000153          	fmv.w.x	ft2,zero
80000078:	f00001d3          	fmv.w.x	ft3,zero
8000007c:	f0000253          	fmv.w.x	ft4,zero
80000080:	f00002d3          	fmv.w.x	ft5,zero
80000084:	f0000353          	fmv.w.x	ft6,zero
80000088:	f00003d3          	fmv.w.x	ft7,zero
8000008c:	f0000453          	fmv.w.x	fs0,zero
80000090:	f00004d3          	fmv.w.x	fs1,zero
80000094:	f0000553          	fmv.w.x	fa0,zero
80000098:	f00005d3          	fmv.w.x	fa1,zero
8000009c:	f0000653          	fmv.w.x	fa2,zero
800000a0:	f00006d3          	fmv.w.x	fa3,zero
800000a4:	f0000753          	fmv.w.x	fa4,zero
800000a8:	f00007d3          	fmv.w.x	fa5,zero
800000ac:	f0000853          	fmv.w.x	fa6,zero
800000b0:	f00008d3          	fmv.w.x	fa7,zero
800000b4:	f0000953          	fmv.w.x	fs2,zero
800000b8:	f00009d3          	fmv.w.x	fs3,zero
800000bc:	f0000a53          	fmv.w.x	fs4,zero
800000c0:	f0000ad3          	fmv.w.x	fs5,zero
800000c4:	f0000b53          	fmv.w.x	fs6,zero
800000c8:	f0000bd3          	fmv.w.x	fs7,zero
800000cc:	f0000c53          	fmv.w.x	fs8,zero
800000d0:	f0000cd3          	fmv.w.x	fs9,zero
800000d4:	f0000d53          	fmv.w.x	fs10,zero
800000d8:	f0000dd3          	fmv.w.x	fs11,zero
800000dc:	f0000e53          	fmv.w.x	ft8,zero
800000e0:	f0000ed3          	fmv.w.x	ft9,zero
800000e4:	f0000f53          	fmv.w.x	ft10,zero
800000e8:	f0000fd3          	fmv.w.x	ft11,zero
800000ec:	00000297          	auipc	t0,0x0
800000f0:	04028293          	addi	t0,t0,64 # 8000012c <trap_entry>
800000f4:	30529073          	csrw	mtvec,t0
800000f8:	00007197          	auipc	gp,0x7
800000fc:	7dc18193          	addi	gp,gp,2012 # 800078d4 <__global_pointer$>
80000100:	00007217          	auipc	tp,0x7
80000104:	fe420213          	addi	tp,tp,-28 # 800070e4 <_end>
80000108:	03f20213          	addi	tp,tp,63 # 3f <_start-0x7fffffc1>
8000010c:	fc027213          	andi	tp,tp,-64
80000110:	f1402573          	csrr	a0,mhartid
80000114:	4585                	li	a1,1
80000116:	00b57063          	bgeu	a0,a1,80000116 <_start+0x116>
8000011a:	00150113          	addi	sp,a0,1
8000011e:	0146                	slli	sp,sp,0x11
80000120:	9112                	add	sp,sp,tp
80000122:	01151613          	slli	a2,a0,0x11
80000126:	9232                	add	tp,tp,a2
80000128:	5380206f          	j	80002660 <_init>

8000012c <trap_entry>:
8000012c:	716d                	addi	sp,sp,-272
8000012e:	c206                	sw	ra,4(sp)
80000130:	c40a                	sw	sp,8(sp)
80000132:	c60e                	sw	gp,12(sp)
80000134:	c812                	sw	tp,16(sp)
80000136:	ca16                	sw	t0,20(sp)
80000138:	cc1a                	sw	t1,24(sp)
8000013a:	ce1e                	sw	t2,28(sp)
8000013c:	d022                	sw	s0,32(sp)
8000013e:	d226                	sw	s1,36(sp)
80000140:	d42a                	sw	a0,40(sp)
80000142:	d62e                	sw	a1,44(sp)
80000144:	d832                	sw	a2,48(sp)
80000146:	da36                	sw	a3,52(sp)
80000148:	dc3a                	sw	a4,56(sp)
8000014a:	de3e                	sw	a5,60(sp)
8000014c:	c0c2                	sw	a6,64(sp)
8000014e:	c2c6                	sw	a7,68(sp)
80000150:	c4ca                	sw	s2,72(sp)
80000152:	c6ce                	sw	s3,76(sp)
80000154:	c8d2                	sw	s4,80(sp)
80000156:	cad6                	sw	s5,84(sp)
80000158:	ccda                	sw	s6,88(sp)
8000015a:	cede                	sw	s7,92(sp)
8000015c:	d0e2                	sw	s8,96(sp)
8000015e:	d2e6                	sw	s9,100(sp)
80000160:	d4ea                	sw	s10,104(sp)
80000162:	d6ee                	sw	s11,108(sp)
80000164:	d8f2                	sw	t3,112(sp)
80000166:	daf6                	sw	t4,116(sp)
80000168:	dcfa                	sw	t5,120(sp)
8000016a:	defe                	sw	t6,124(sp)
8000016c:	34202573          	csrr	a0,mcause
80000170:	341025f3          	csrr	a1,mepc
80000174:	860a                	mv	a2,sp
80000176:	2f4020ef          	jal	8000246a <handle_trap>
8000017a:	34151073          	csrw	mepc,a0
8000017e:	6289                	lui	t0,0x2
80000180:	80028293          	addi	t0,t0,-2048 # 1800 <_start-0x7fffe800>
80000184:	3002a073          	csrs	mstatus,t0
80000188:	4092                	lw	ra,4(sp)
8000018a:	4122                	lw	sp,8(sp)
8000018c:	41b2                	lw	gp,12(sp)
8000018e:	4242                	lw	tp,16(sp)
80000190:	42d2                	lw	t0,20(sp)
80000192:	4362                	lw	t1,24(sp)
80000194:	43f2                	lw	t2,28(sp)
80000196:	5402                	lw	s0,32(sp)
80000198:	5492                	lw	s1,36(sp)
8000019a:	5522                	lw	a0,40(sp)
8000019c:	55b2                	lw	a1,44(sp)
8000019e:	5642                	lw	a2,48(sp)
800001a0:	56d2                	lw	a3,52(sp)
800001a2:	5762                	lw	a4,56(sp)
800001a4:	57f2                	lw	a5,60(sp)
800001a6:	4806                	lw	a6,64(sp)
800001a8:	4896                	lw	a7,68(sp)
800001aa:	4926                	lw	s2,72(sp)
800001ac:	49b6                	lw	s3,76(sp)
800001ae:	4a46                	lw	s4,80(sp)
800001b0:	4ad6                	lw	s5,84(sp)
800001b2:	4b66                	lw	s6,88(sp)
800001b4:	4bf6                	lw	s7,92(sp)
800001b6:	5c06                	lw	s8,96(sp)
800001b8:	5c96                	lw	s9,100(sp)
800001ba:	5d26                	lw	s10,104(sp)
800001bc:	5db6                	lw	s11,108(sp)
800001be:	5e46                	lw	t3,112(sp)
800001c0:	5ed6                	lw	t4,116(sp)
800001c2:	5f66                	lw	t5,120(sp)
800001c4:	5ff6                	lw	t6,124(sp)
800001c6:	6151                	addi	sp,sp,272
800001c8:	30200073          	mret
800001cc:	0001                	nop

セクション .text の逆アセンブル:

80002000 <vec_memcpy>:
80002000:	86aa                	mv	a3,a0

80002002 <loop>:
80002002:	0c3672d7          	vsetvli	t0,a2,e8,m8,ta,ma
80002006:	02058007          	vle8.v	v0,(a1)
8000200a:	9596                	add	a1,a1,t0
8000200c:	40560633          	sub	a2,a2,t0
80002010:	02068027          	vse8.v	v0,(a3)
80002014:	9696                	add	a3,a3,t0
80002016:	f675                	bnez	a2,80002002 <loop>
80002018:	8082                	ret

8000201a <vprintfmt>:
8000201a:	714d                	addi	sp,sp,-336
8000201c:	14812423          	sw	s0,328(sp)
80002020:	14912223          	sw	s1,324(sp)
80002024:	15212023          	sw	s2,320(sp)
80002028:	13512a23          	sw	s5,308(sp)
8000202c:	14112623          	sw	ra,332(sp)
80002030:	13312e23          	sw	s3,316(sp)
80002034:	13412c23          	sw	s4,312(sp)
80002038:	13712623          	sw	s7,300(sp)
8000203c:	13812423          	sw	s8,296(sp)
80002040:	13912223          	sw	s9,292(sp)
80002044:	13a12023          	sw	s10,288(sp)
80002048:	84aa                	mv	s1,a0
8000204a:	8432                	mv	s0,a2
8000204c:	c636                	sw	a3,12(sp)
8000204e:	892e                	mv	s2,a1
80002050:	02500a93          	li	s5,37
80002054:	a029                	j	8000205e <vprintfmt+0x44>
80002056:	c531                	beqz	a0,800020a2 <vprintfmt+0x88>
80002058:	85ca                	mv	a1,s2
8000205a:	0405                	addi	s0,s0,1
8000205c:	9482                	jalr	s1
8000205e:	00044503          	lbu	a0,0(s0)
80002062:	ff551ae3          	bne	a0,s5,80002056 <vprintfmt+0x3c>
80002066:	00144683          	lbu	a3,1(s0)
8000206a:	00140a13          	addi	s4,s0,1
8000206e:	59fd                	li	s3,-1
80002070:	02000793          	li	a5,32
80002074:	8752                	mv	a4,s4
80002076:	8c4e                	mv	s8,s3
80002078:	c43e                	sw	a5,8(sp)
8000207a:	4581                	li	a1,0
8000207c:	fdd68793          	addi	a5,a3,-35
80002080:	0ff7f793          	zext.b	a5,a5
80002084:	05500613          	li	a2,85
80002088:	00170413          	addi	s0,a4,1
8000208c:	06f66163          	bltu	a2,a5,800020ee <vprintfmt+0xd4>
80002090:	00001617          	auipc	a2,0x1
80002094:	f3060613          	addi	a2,a2,-208 # 80002fc0 <main+0xe2>
80002098:	078a                	slli	a5,a5,0x2
8000209a:	97b2                	add	a5,a5,a2
8000209c:	439c                	lw	a5,0(a5)
8000209e:	97b2                	add	a5,a5,a2
800020a0:	8782                	jr	a5
800020a2:	14c12083          	lw	ra,332(sp)
800020a6:	14812403          	lw	s0,328(sp)
800020aa:	14412483          	lw	s1,324(sp)
800020ae:	14012903          	lw	s2,320(sp)
800020b2:	13c12983          	lw	s3,316(sp)
800020b6:	13812a03          	lw	s4,312(sp)
800020ba:	13412a83          	lw	s5,308(sp)
800020be:	12c12b83          	lw	s7,300(sp)
800020c2:	12812c03          	lw	s8,296(sp)
800020c6:	12412c83          	lw	s9,292(sp)
800020ca:	12012d03          	lw	s10,288(sp)
800020ce:	6171                	addi	sp,sp,336
800020d0:	8082                	ret
800020d2:	c436                	sw	a3,8(sp)
800020d4:	00174683          	lbu	a3,1(a4)
800020d8:	05500613          	li	a2,85
800020dc:	8722                	mv	a4,s0
800020de:	fdd68793          	addi	a5,a3,-35
800020e2:	0ff7f793          	zext.b	a5,a5
800020e6:	00170413          	addi	s0,a4,1
800020ea:	faf673e3          	bgeu	a2,a5,80002090 <vprintfmt+0x76>
800020ee:	85ca                	mv	a1,s2
800020f0:	02500513          	li	a0,37
800020f4:	9482                	jalr	s1
800020f6:	8452                	mv	s0,s4
800020f8:	b79d                	j	8000205e <vprintfmt+0x44>
800020fa:	fd068993          	addi	s3,a3,-48
800020fe:	00174683          	lbu	a3,1(a4)
80002102:	4525                	li	a0,9
80002104:	fd068793          	addi	a5,a3,-48
80002108:	28f56463          	bltu	a0,a5,80002390 <vprintfmt+0x376>
8000210c:	8636                	mv	a2,a3
8000210e:	8722                	mv	a4,s0
80002110:	00299793          	slli	a5,s3,0x2
80002114:	97ce                	add	a5,a5,s3
80002116:	0705                	addi	a4,a4,1
80002118:	0786                	slli	a5,a5,0x1
8000211a:	97b2                	add	a5,a5,a2
8000211c:	00074603          	lbu	a2,0(a4)
80002120:	fd078993          	addi	s3,a5,-48
80002124:	fd060793          	addi	a5,a2,-48
80002128:	86b2                	mv	a3,a2
8000212a:	fef573e3          	bgeu	a0,a5,80002110 <vprintfmt+0xf6>
8000212e:	f40c57e3          	bgez	s8,8000207c <vprintfmt+0x62>
80002132:	8c4e                	mv	s8,s3
80002134:	59fd                	li	s3,-1
80002136:	b799                	j	8000207c <vprintfmt+0x62>
80002138:	00174683          	lbu	a3,1(a4)
8000213c:	8722                	mv	a4,s0
8000213e:	bf3d                	j	8000207c <vprintfmt+0x62>
80002140:	85ca                	mv	a1,s2
80002142:	02500513          	li	a0,37
80002146:	9482                	jalr	s1
80002148:	bf19                	j	8000205e <vprintfmt+0x44>
8000214a:	47b2                	lw	a5,12(sp)
8000214c:	00174683          	lbu	a3,1(a4)
80002150:	8722                	mv	a4,s0
80002152:	0007a983          	lw	s3,0(a5)
80002156:	0791                	addi	a5,a5,4
80002158:	c63e                	sw	a5,12(sp)
8000215a:	bfd1                	j	8000212e <vprintfmt+0x114>
8000215c:	85ca                	mv	a1,s2
8000215e:	03000513          	li	a0,48
80002162:	13612823          	sw	s6,304(sp)
80002166:	9482                	jalr	s1
80002168:	85ca                	mv	a1,s2
8000216a:	07800513          	li	a0,120
8000216e:	9482                	jalr	s1
80002170:	4bc1                	li	s7,16
80002172:	4d01                	li	s10,0
80002174:	47b2                	lw	a5,12(sp)
80002176:	4c81                	li	s9,0
80002178:	0007a983          	lw	s3,0(a5)
8000217c:	0791                	addi	a5,a5,4
8000217e:	c63e                	sw	a5,12(sp)
80002180:	865e                	mv	a2,s7
80002182:	4681                	li	a3,0
80002184:	854e                	mv	a0,s3
80002186:	85e6                	mv	a1,s9
80002188:	205000ef          	jal	80002b8c <__umoddi3>
8000218c:	c82a                	sw	a0,16(sp)
8000218e:	179d0b63          	beq	s10,s9,80002304 <vprintfmt+0x2ea>
80002192:	11b12e23          	sw	s11,284(sp)
80002196:	4b05                	li	s6,1
80002198:	01410d93          	addi	s11,sp,20
8000219c:	854e                	mv	a0,s3
8000219e:	85e6                	mv	a1,s9
800021a0:	865e                	mv	a2,s7
800021a2:	4681                	li	a3,0
800021a4:	2df9                	jal	80002882 <__udivdi3>
800021a6:	865e                	mv	a2,s7
800021a8:	4681                	li	a3,0
800021aa:	89aa                	mv	s3,a0
800021ac:	8cae                	mv	s9,a1
800021ae:	1df000ef          	jal	80002b8c <__umoddi3>
800021b2:	00ada023          	sw	a0,0(s11)
800021b6:	8a5a                	mv	s4,s6
800021b8:	0d91                	addi	s11,s11,4
800021ba:	0b05                	addi	s6,s6,1
800021bc:	ff9d10e3          	bne	s10,s9,8000219c <vprintfmt+0x182>
800021c0:	fd79fee3          	bgeu	s3,s7,8000219c <vprintfmt+0x182>
800021c4:	11c12d83          	lw	s11,284(sp)
800021c8:	fffc0b93          	addi	s7,s8,-1
800021cc:	fffb0993          	addi	s3,s6,-1
800021d0:	018b5863          	bge	s6,s8,800021e0 <vprintfmt+0x1c6>
800021d4:	4522                	lw	a0,8(sp)
800021d6:	85ca                	mv	a1,s2
800021d8:	1bfd                	addi	s7,s7,-1
800021da:	9482                	jalr	s1
800021dc:	ff799ce3          	bne	s3,s7,800021d4 <vprintfmt+0x1ba>
800021e0:	0a0a                	slli	s4,s4,0x2
800021e2:	01010993          	addi	s3,sp,16
800021e6:	9a4e                	add	s4,s4,s3
800021e8:	a011                	j	800021ec <vprintfmt+0x1d2>
800021ea:	1a71                	addi	s4,s4,-4
800021ec:	000a2503          	lw	a0,0(s4)
800021f0:	85ca                	mv	a1,s2
800021f2:	00a53793          	sltiu	a5,a0,10
800021f6:	40f007b3          	neg	a5,a5
800021fa:	fd97f793          	andi	a5,a5,-39
800021fe:	05778793          	addi	a5,a5,87
80002202:	953e                	add	a0,a0,a5
80002204:	9482                	jalr	s1
80002206:	ff4992e3          	bne	s3,s4,800021ea <vprintfmt+0x1d0>
8000220a:	13012b03          	lw	s6,304(sp)
8000220e:	bd81                	j	8000205e <vprintfmt+0x44>
80002210:	13612823          	sw	s6,304(sp)
80002214:	4785                	li	a5,1
80002216:	0eb7cc63          	blt	a5,a1,8000230e <vprintfmt+0x2f4>
8000221a:	47b2                	lw	a5,12(sp)
8000221c:	0007a983          	lw	s3,0(a5)
80002220:	0791                	addi	a5,a5,4
80002222:	c63e                	sw	a5,12(sp)
80002224:	41f9d793          	srai	a5,s3,0x1f
80002228:	8cbe                	mv	s9,a5
8000222a:	4ba9                	li	s7,10
8000222c:	4d01                	li	s10,0
8000222e:	f407d9e3          	bgez	a5,80002180 <vprintfmt+0x166>
80002232:	85ca                	mv	a1,s2
80002234:	02d00513          	li	a0,45
80002238:	9482                	jalr	s1
8000223a:	01303733          	snez	a4,s3
8000223e:	419007b3          	neg	a5,s9
80002242:	40e78cb3          	sub	s9,a5,a4
80002246:	413009b3          	neg	s3,s3
8000224a:	bf1d                	j	80002180 <vprintfmt+0x166>
8000224c:	00174683          	lbu	a3,1(a4)
80002250:	0585                	addi	a1,a1,1
80002252:	8722                	mv	a4,s0
80002254:	b525                	j	8000207c <vprintfmt+0x62>
80002256:	13612823          	sw	s6,304(sp)
8000225a:	4bc1                	li	s7,16
8000225c:	4d01                	li	s10,0
8000225e:	4785                	li	a5,1
80002260:	f0b7dae3          	bge	a5,a1,80002174 <vprintfmt+0x15a>
80002264:	47b2                	lw	a5,12(sp)
80002266:	079d                	addi	a5,a5,7
80002268:	9be1                	andi	a5,a5,-8
8000226a:	00878713          	addi	a4,a5,8
8000226e:	0007a983          	lw	s3,0(a5)
80002272:	0047ac83          	lw	s9,4(a5)
80002276:	c63a                	sw	a4,12(sp)
80002278:	b721                	j	80002180 <vprintfmt+0x166>
8000227a:	46b2                	lw	a3,12(sp)
8000227c:	47a2                	lw	a5,8(sp)
8000227e:	11b12e23          	sw	s11,284(sp)
80002282:	0006aa03          	lw	s4,0(a3)
80002286:	fd378793          	addi	a5,a5,-45
8000228a:	00f037b3          	snez	a5,a5
8000228e:	01802733          	sgtz	a4,s8
80002292:	8f7d                	and	a4,a4,a5
80002294:	00468d93          	addi	s11,a3,4
80002298:	080a0f63          	beqz	s4,80002336 <vprintfmt+0x31c>
8000229c:	ef45                	bnez	a4,80002354 <vprintfmt+0x33a>
8000229e:	000a4503          	lbu	a0,0(s4)
800022a2:	c115                	beqz	a0,800022c6 <vprintfmt+0x2ac>
800022a4:	13612823          	sw	s6,304(sp)
800022a8:	5b7d                	li	s6,-1
800022aa:	0009c563          	bltz	s3,800022b4 <vprintfmt+0x29a>
800022ae:	19fd                	addi	s3,s3,-1
800022b0:	01698963          	beq	s3,s6,800022c2 <vprintfmt+0x2a8>
800022b4:	85ca                	mv	a1,s2
800022b6:	9482                	jalr	s1
800022b8:	001a4503          	lbu	a0,1(s4)
800022bc:	0a05                	addi	s4,s4,1
800022be:	1c7d                	addi	s8,s8,-1
800022c0:	f56d                	bnez	a0,800022aa <vprintfmt+0x290>
800022c2:	13012b03          	lw	s6,304(sp)
800022c6:	01805963          	blez	s8,800022d8 <vprintfmt+0x2be>
800022ca:	85ca                	mv	a1,s2
800022cc:	02000513          	li	a0,32
800022d0:	1c7d                	addi	s8,s8,-1
800022d2:	9482                	jalr	s1
800022d4:	fe0c1be3          	bnez	s8,800022ca <vprintfmt+0x2b0>
800022d8:	c66e                	sw	s11,12(sp)
800022da:	11c12d83          	lw	s11,284(sp)
800022de:	b341                	j	8000205e <vprintfmt+0x44>
800022e0:	fffc4793          	not	a5,s8
800022e4:	87fd                	srai	a5,a5,0x1f
800022e6:	00174683          	lbu	a3,1(a4)
800022ea:	00fc7c33          	and	s8,s8,a5
800022ee:	8722                	mv	a4,s0
800022f0:	b371                	j	8000207c <vprintfmt+0x62>
800022f2:	49b2                	lw	s3,12(sp)
800022f4:	85ca                	mv	a1,s2
800022f6:	0009a503          	lw	a0,0(s3)
800022fa:	9482                	jalr	s1
800022fc:	00498793          	addi	a5,s3,4
80002300:	c63e                	sw	a5,12(sp)
80002302:	bbb1                	j	8000205e <vprintfmt+0x44>
80002304:	e979f7e3          	bgeu	s3,s7,80002192 <vprintfmt+0x178>
80002308:	4a01                	li	s4,0
8000230a:	4b05                	li	s6,1
8000230c:	bd75                	j	800021c8 <vprintfmt+0x1ae>
8000230e:	47b2                	lw	a5,12(sp)
80002310:	079d                	addi	a5,a5,7
80002312:	9be1                	andi	a5,a5,-8
80002314:	00878713          	addi	a4,a5,8
80002318:	0007a983          	lw	s3,0(a5)
8000231c:	c63a                	sw	a4,12(sp)
8000231e:	43dc                	lw	a5,4(a5)
80002320:	b721                	j	80002228 <vprintfmt+0x20e>
80002322:	13612823          	sw	s6,304(sp)
80002326:	4ba9                	li	s7,10
80002328:	4d01                	li	s10,0
8000232a:	bf15                	j	8000225e <vprintfmt+0x244>
8000232c:	13612823          	sw	s6,304(sp)
80002330:	4ba1                	li	s7,8
80002332:	4d01                	li	s10,0
80002334:	b72d                	j	8000225e <vprintfmt+0x244>
80002336:	eb19                	bnez	a4,8000234c <vprintfmt+0x332>
80002338:	13612823          	sw	s6,304(sp)
8000233c:	00001a17          	auipc	s4,0x1
80002340:	c40a0a13          	addi	s4,s4,-960 # 80002f7c <main+0x9e>
80002344:	02800513          	li	a0,40
80002348:	5b7d                	li	s6,-1
8000234a:	b785                	j	800022aa <vprintfmt+0x290>
8000234c:	00001a17          	auipc	s4,0x1
80002350:	c30a0a13          	addi	s4,s4,-976 # 80002f7c <main+0x9e>
80002354:	87d2                	mv	a5,s4
80002356:	013a06b3          	add	a3,s4,s3
8000235a:	00099663          	bnez	s3,80002366 <vprintfmt+0x34c>
8000235e:	a829                	j	80002378 <vprintfmt+0x35e>
80002360:	0785                	addi	a5,a5,1
80002362:	00d78563          	beq	a5,a3,8000236c <vprintfmt+0x352>
80002366:	0007c703          	lbu	a4,0(a5)
8000236a:	fb7d                	bnez	a4,80002360 <vprintfmt+0x346>
8000236c:	414787b3          	sub	a5,a5,s4
80002370:	40fc0c33          	sub	s8,s8,a5
80002374:	01805863          	blez	s8,80002384 <vprintfmt+0x36a>
80002378:	4522                	lw	a0,8(sp)
8000237a:	85ca                	mv	a1,s2
8000237c:	1c7d                	addi	s8,s8,-1
8000237e:	9482                	jalr	s1
80002380:	fe0c1ce3          	bnez	s8,80002378 <vprintfmt+0x35e>
80002384:	000a4503          	lbu	a0,0(s4)
80002388:	d921                	beqz	a0,800022d8 <vprintfmt+0x2be>
8000238a:	13612823          	sw	s6,304(sp)
8000238e:	bf29                	j	800022a8 <vprintfmt+0x28e>
80002390:	8722                	mv	a4,s0
80002392:	bb71                	j	8000212e <vprintfmt+0x114>

80002394 <sprintf_putch.0>:
80002394:	419c                	lw	a5,0(a1)
80002396:	00a78023          	sb	a0,0(a5)
8000239a:	419c                	lw	a5,0(a1)
8000239c:	0785                	addi	a5,a5,1
8000239e:	c19c                	sw	a5,0(a1)
800023a0:	8082                	ret

800023a2 <putchar>:
800023a2:	7175                	addi	sp,sp,-144
800023a4:	04f10613          	addi	a2,sp,79
800023a8:	fc067613          	andi	a2,a2,-64
800023ac:	04000713          	li	a4,64
800023b0:	c218                	sw	a4,0(a2)
800023b2:	4781                	li	a5,0
800023b4:	c25c                	sw	a5,4(a2)
800023b6:	4805                	li	a6,1
800023b8:	01062423          	sw	a6,8(a2)
800023bc:	4881                	li	a7,0
800023be:	01162623          	sw	a7,12(a2)
800023c2:	00f10713          	addi	a4,sp,15
800023c6:	ca18                	sw	a4,16(a2)
800023c8:	4781                	li	a5,0
800023ca:	ca5c                	sw	a5,20(a2)
800023cc:	01062c23          	sw	a6,24(a2)
800023d0:	00a107a3          	sb	a0,15(sp)
800023d4:	01162e23          	sw	a7,28(a2)
800023d8:	0330000f          	fence	rw,rw
800023dc:	fffff697          	auipc	a3,0xfffff
800023e0:	c2468693          	addi	a3,a3,-988 # 80001000 <tohost>
800023e4:	4781                	li	a5,0
800023e6:	c290                	sw	a2,0(a3)
800023e8:	c2dc                	sw	a5,4(a3)
800023ea:	4698                	lw	a4,8(a3)
800023ec:	46dc                	lw	a5,12(a3)
800023ee:	8f5d                	or	a4,a4,a5
800023f0:	df6d                	beqz	a4,800023ea <putchar+0x48>
800023f2:	0006a423          	sw	zero,8(a3)
800023f6:	0006a623          	sw	zero,12(a3)
800023fa:	0330000f          	fence	rw,rw
800023fe:	4501                	li	a0,0
80002400:	4218                	lw	a4,0(a2)
80002402:	425c                	lw	a5,4(a2)
80002404:	6149                	addi	sp,sp,144
80002406:	8082                	ret

80002408 <setStats>:
80002408:	b0002773          	csrr	a4,mcycle
8000240c:	00005797          	auipc	a5,0x5
80002410:	cd078793          	addi	a5,a5,-816 # 800070dc <counters>
80002414:	c511                	beqz	a0,80002420 <setStats+0x18>
80002416:	c398                	sw	a4,0(a5)
80002418:	b0202773          	csrr	a4,minstret
8000241c:	c3d8                	sw	a4,4(a5)
8000241e:	8082                	ret
80002420:	4394                	lw	a3,0(a5)
80002422:	00001617          	auipc	a2,0x1
80002426:	b6660613          	addi	a2,a2,-1178 # 80002f88 <main+0xaa>
8000242a:	00005597          	auipc	a1,0x5
8000242e:	cac5a523          	sw	a2,-854(a1) # 800070d4 <counter_names>
80002432:	8f15                	sub	a4,a4,a3
80002434:	c398                	sw	a4,0(a5)
80002436:	b0202773          	csrr	a4,minstret
8000243a:	43d4                	lw	a3,4(a5)
8000243c:	00001617          	auipc	a2,0x1
80002440:	b5460613          	addi	a2,a2,-1196 # 80002f90 <main+0xb2>
80002444:	00005597          	auipc	a1,0x5
80002448:	c8c5aa23          	sw	a2,-876(a1) # 800070d8 <counter_names+0x4>
8000244c:	8f15                	sub	a4,a4,a3
8000244e:	c3d8                	sw	a4,4(a5)
80002450:	8082                	ret

80002452 <tohost_exit>:
80002452:	00151693          	slli	a3,a0,0x1
80002456:	0016e713          	ori	a4,a3,1
8000245a:	fffff697          	auipc	a3,0xfffff
8000245e:	ba668693          	addi	a3,a3,-1114 # 80001000 <tohost>
80002462:	4781                	li	a5,0
80002464:	c298                	sw	a4,0(a3)
80002466:	c2dc                	sw	a5,4(a3)
80002468:	a001                	j	80002468 <tohost_exit+0x16>

8000246a <handle_trap>:
8000246a:	6605                	lui	a2,0x1
8000246c:	fffff797          	auipc	a5,0xfffff
80002470:	b9478793          	addi	a5,a5,-1132 # 80001000 <tohost>
80002474:	a7360613          	addi	a2,a2,-1421 # a73 <_start-0x7ffff58d>
80002478:	4681                	li	a3,0
8000247a:	c390                	sw	a2,0(a5)
8000247c:	c3d4                	sw	a3,4(a5)
8000247e:	a001                	j	8000247e <handle_trap+0x14>

80002480 <exit>:
80002480:	1141                	addi	sp,sp,-16
80002482:	c606                	sw	ra,12(sp)
80002484:	37f9                	jal	80002452 <tohost_exit>

80002486 <abort>:
80002486:	fffff797          	auipc	a5,0xfffff
8000248a:	b7a78793          	addi	a5,a5,-1158 # 80001000 <tohost>
8000248e:	10d00613          	li	a2,269
80002492:	4681                	li	a3,0
80002494:	c390                	sw	a2,0(a5)
80002496:	c3d4                	sw	a3,4(a5)
80002498:	a001                	j	80002498 <abort+0x12>

8000249a <printstr>:
8000249a:	00054783          	lbu	a5,0(a0)
8000249e:	cfad                	beqz	a5,80002518 <printstr+0x7e>
800024a0:	7175                	addi	sp,sp,-144
800024a2:	03f10613          	addi	a2,sp,63
800024a6:	fc067613          	andi	a2,a2,-64
800024aa:	c722                	sw	s0,140(sp)
800024ac:	c526                	sw	s1,136(sp)
800024ae:	8e32                	mv	t3,a2
800024b0:	4e81                	li	t4,0
800024b2:	fffff697          	auipc	a3,0xfffff
800024b6:	b4e68693          	addi	a3,a3,-1202 # 80001000 <tohost>
800024ba:	04000f13          	li	t5,64
800024be:	4f81                	li	t6,0
800024c0:	4305                	li	t1,1
800024c2:	4381                	li	t2,0
800024c4:	01e62023          	sw	t5,0(a2)
800024c8:	01f62223          	sw	t6,4(a2)
800024cc:	00662423          	sw	t1,8(a2)
800024d0:	00762623          	sw	t2,12(a2)
800024d4:	ca08                	sw	a0,16(a2)
800024d6:	4881                	li	a7,0
800024d8:	01162a23          	sw	a7,20(a2)
800024dc:	00662c23          	sw	t1,24(a2)
800024e0:	00762e23          	sw	t2,28(a2)
800024e4:	0330000f          	fence	rw,rw
800024e8:	01c6a023          	sw	t3,0(a3)
800024ec:	01d6a223          	sw	t4,4(a3)
800024f0:	4698                	lw	a4,8(a3)
800024f2:	46dc                	lw	a5,12(a3)
800024f4:	8f5d                	or	a4,a4,a5
800024f6:	df6d                	beqz	a4,800024f0 <printstr+0x56>
800024f8:	0006a423          	sw	zero,8(a3)
800024fc:	0006a623          	sw	zero,12(a3)
80002500:	0330000f          	fence	rw,rw
80002504:	00154783          	lbu	a5,1(a0)
80002508:	4200                	lw	s0,0(a2)
8000250a:	4244                	lw	s1,4(a2)
8000250c:	0505                	addi	a0,a0,1
8000250e:	fbdd                	bnez	a5,800024c4 <printstr+0x2a>
80002510:	443a                	lw	s0,140(sp)
80002512:	44aa                	lw	s1,136(sp)
80002514:	6149                	addi	sp,sp,144
80002516:	8082                	ret
80002518:	8082                	ret

8000251a <thread_entry>:
8000251a:	e111                	bnez	a0,8000251e <thread_entry+0x4>
8000251c:	8082                	ret
8000251e:	a001                	j	8000251e <thread_entry+0x4>

80002520 <printhex>:
80002520:	7179                	addi	sp,sp,-48
80002522:	872a                	mv	a4,a0
80002524:	d606                	sw	ra,44(sp)
80002526:	0068                	addi	a0,sp,12
80002528:	01b10613          	addi	a2,sp,27
8000252c:	4825                	li	a6,9
8000252e:	a011                	j	80002532 <printhex+0x12>
80002530:	167d                	addi	a2,a2,-1
80002532:	00f77693          	andi	a3,a4,15
80002536:	00d837b3          	sltu	a5,a6,a3
8000253a:	40f007b3          	neg	a5,a5
8000253e:	0277f793          	andi	a5,a5,39
80002542:	03078793          	addi	a5,a5,48
80002546:	96be                	add	a3,a3,a5
80002548:	8311                	srli	a4,a4,0x4
8000254a:	01c59793          	slli	a5,a1,0x1c
8000254e:	00d60023          	sb	a3,0(a2)
80002552:	973e                	add	a4,a4,a5
80002554:	8191                	srli	a1,a1,0x4
80002556:	fcc51de3          	bne	a0,a2,80002530 <printhex+0x10>
8000255a:	00010e23          	sb	zero,28(sp)
8000255e:	3f35                	jal	8000249a <printstr>
80002560:	50b2                	lw	ra,44(sp)
80002562:	6145                	addi	sp,sp,48
80002564:	8082                	ret

80002566 <printf>:
80002566:	7139                	addi	sp,sp,-64
80002568:	02410313          	addi	t1,sp,36
8000256c:	d22e                	sw	a1,36(sp)
8000256e:	d432                	sw	a2,40(sp)
80002570:	d636                	sw	a3,44(sp)
80002572:	862a                	mv	a2,a0
80002574:	869a                	mv	a3,t1
80002576:	00000517          	auipc	a0,0x0
8000257a:	e2c50513          	addi	a0,a0,-468 # 800023a2 <putchar>
8000257e:	4581                	li	a1,0
80002580:	ce06                	sw	ra,28(sp)
80002582:	d83a                	sw	a4,48(sp)
80002584:	da3e                	sw	a5,52(sp)
80002586:	dc42                	sw	a6,56(sp)
80002588:	de46                	sw	a7,60(sp)
8000258a:	c61a                	sw	t1,12(sp)
8000258c:	3479                	jal	8000201a <vprintfmt>
8000258e:	40f2                	lw	ra,28(sp)
80002590:	4501                	li	a0,0
80002592:	6121                	addi	sp,sp,64
80002594:	8082                	ret

80002596 <sprintf>:
80002596:	715d                	addi	sp,sp,-80
80002598:	03810313          	addi	t1,sp,56
8000259c:	d422                	sw	s0,40(sp)
8000259e:	c62a                	sw	a0,12(sp)
800025a0:	dc32                	sw	a2,56(sp)
800025a2:	de36                	sw	a3,60(sp)
800025a4:	842a                	mv	s0,a0
800025a6:	862e                	mv	a2,a1
800025a8:	00000517          	auipc	a0,0x0
800025ac:	dec50513          	addi	a0,a0,-532 # 80002394 <sprintf_putch.0>
800025b0:	006c                	addi	a1,sp,12
800025b2:	869a                	mv	a3,t1
800025b4:	d606                	sw	ra,44(sp)
800025b6:	c2be                	sw	a5,68(sp)
800025b8:	c0ba                	sw	a4,64(sp)
800025ba:	c4c2                	sw	a6,72(sp)
800025bc:	c6c6                	sw	a7,76(sp)
800025be:	ce1a                	sw	t1,28(sp)
800025c0:	3ca9                	jal	8000201a <vprintfmt>
800025c2:	47b2                	lw	a5,12(sp)
800025c4:	00078023          	sb	zero,0(a5)
800025c8:	4532                	lw	a0,12(sp)
800025ca:	50b2                	lw	ra,44(sp)
800025cc:	8d01                	sub	a0,a0,s0
800025ce:	5422                	lw	s0,40(sp)
800025d0:	6161                	addi	sp,sp,80
800025d2:	8082                	ret

800025d4 <memcpy>:
800025d4:	00c5e733          	or	a4,a1,a2
800025d8:	8f49                	or	a4,a4,a0
800025da:	8b0d                	andi	a4,a4,3
800025dc:	86aa                	mv	a3,a0
800025de:	00c50333          	add	t1,a0,a2
800025e2:	cf11                	beqz	a4,800025fe <memcpy+0x2a>
800025e4:	962e                	add	a2,a2,a1
800025e6:	87aa                	mv	a5,a0
800025e8:	06657963          	bgeu	a0,t1,8000265a <memcpy+0x86>
800025ec:	0005c703          	lbu	a4,0(a1)
800025f0:	0585                	addi	a1,a1,1
800025f2:	0785                	addi	a5,a5,1
800025f4:	fee78fa3          	sb	a4,-1(a5)
800025f8:	fec59ae3          	bne	a1,a2,800025ec <memcpy+0x18>
800025fc:	8082                	ret
800025fe:	02050793          	addi	a5,a0,32
80002602:	0467fd63          	bgeu	a5,t1,8000265c <memcpy+0x88>
80002606:	fdf60613          	addi	a2,a2,-33
8000260a:	8215                	srli	a2,a2,0x5
8000260c:	00160e13          	addi	t3,a2,1
80002610:	882e                	mv	a6,a1
80002612:	cd027057          	vsetivli	zero,4,e32,m1,ta,ma
80002616:	02086107          	vle32.v	v2,(a6)
8000261a:	01080893          	addi	a7,a6,16
8000261e:	0208e087          	vle32.v	v1,(a7)
80002622:	01068893          	addi	a7,a3,16
80002626:	0705                	addi	a4,a4,1
80002628:	02080813          	addi	a6,a6,32
8000262c:	0206e127          	vse32.v	v2,(a3)
80002630:	02068693          	addi	a3,a3,32
80002634:	0208e0a7          	vse32.v	v1,(a7)
80002638:	fdc76fe3          	bltu	a4,t3,80002616 <memcpy+0x42>
8000263c:	0616                	slli	a2,a2,0x5
8000263e:	02058593          	addi	a1,a1,32
80002642:	97b2                	add	a5,a5,a2
80002644:	95b2                	add	a1,a1,a2
80002646:	fa67fbe3          	bgeu	a5,t1,800025fc <memcpy+0x28>
8000264a:	4198                	lw	a4,0(a1)
8000264c:	0791                	addi	a5,a5,4
8000264e:	0591                	addi	a1,a1,4
80002650:	fee7ae23          	sw	a4,-4(a5)
80002654:	fe67ebe3          	bltu	a5,t1,8000264a <memcpy+0x76>
80002658:	8082                	ret
8000265a:	8082                	ret
8000265c:	87aa                	mv	a5,a0
8000265e:	b7e5                	j	80002646 <memcpy+0x72>

80002660 <_init>:
80002660:	7135                	addi	sp,sp,-160
80002662:	81018893          	addi	a7,gp,-2032 # 800070e4 <_end>
80002666:	81018793          	addi	a5,gp,-2032 # 800070e4 <_end>
8000266a:	c94a                	sw	s2,144(sp)
8000266c:	40f88333          	sub	t1,a7,a5
80002670:	03f10913          	addi	s2,sp,63
80002674:	cf06                	sw	ra,156(sp)
80002676:	cd22                	sw	s0,152(sp)
80002678:	cb26                	sw	s1,148(sp)
8000267a:	c74e                	sw	s3,140(sp)
8000267c:	c552                	sw	s4,136(sp)
8000267e:	c356                	sw	s5,132(sp)
80002680:	881a                	mv	a6,t1
80002682:	fc097913          	andi	s2,s2,-64
80002686:	8712                	mv	a4,tp
80002688:	8612                	mv	a2,tp
8000268a:	0c0876d7          	vsetvli	a3,a6,e8,m1,ta,ma
8000268e:	02078087          	vle8.v	v1,(a5)
80002692:	40d80833          	sub	a6,a6,a3
80002696:	97b6                	add	a5,a5,a3
80002698:	020600a7          	vse8.v	v1,(a2)
8000269c:	9636                	add	a2,a2,a3
8000269e:	fe0816e3          	bnez	a6,8000268a <_init+0x2a>
800026a2:	81018793          	addi	a5,gp,-2032 # 800070e4 <_end>
800026a6:	971a                	add	a4,a4,t1
800026a8:	411787b3          	sub	a5,a5,a7
800026ac:	00f766b3          	or	a3,a4,a5
800026b0:	8a8d                	andi	a3,a3,3
800026b2:	00f70633          	add	a2,a4,a5
800026b6:	eeb9                	bnez	a3,80002714 <_init+0xb4>
800026b8:	02c77163          	bgeu	a4,a2,800026da <_init+0x7a>
800026bc:	0d0076d7          	vsetvli	a3,zero,e32,m1,ta,ma
800026c0:	17fd                	addi	a5,a5,-1
800026c2:	5e0030d7          	vmv.v.i	v1,0
800026c6:	8389                	srli	a5,a5,0x2
800026c8:	0785                	addi	a5,a5,1
800026ca:	0c67f6d7          	vsetvli	a3,a5,e8,mf4,ta,ma
800026ce:	020760a7          	vse32.v	v1,(a4)
800026d2:	8f95                	sub	a5,a5,a3
800026d4:	068a                	slli	a3,a3,0x2
800026d6:	9736                	add	a4,a4,a3
800026d8:	fbed                	bnez	a5,800026ca <_init+0x6a>
800026da:	3581                	jal	8000251a <thread_entry>
800026dc:	4581                	li	a1,0
800026de:	4501                	li	a0,0
800026e0:	7fe000ef          	jal	80002ede <main>
800026e4:	8aaa                	mv	s5,a0
800026e6:	89ca                	mv	s3,s2
800026e8:	00005417          	auipc	s0,0x5
800026ec:	9f440413          	addi	s0,s0,-1548 # 800070dc <counters>
800026f0:	00005497          	auipc	s1,0x5
800026f4:	9e448493          	addi	s1,s1,-1564 # 800070d4 <counter_names>
800026f8:	81018a13          	addi	s4,gp,-2032 # 800070e4 <_end>
800026fc:	4014                	lw	a3,0(s0)
800026fe:	e2a1                	bnez	a3,8000273e <_init+0xde>
80002700:	0411                	addi	s0,s0,4
80002702:	0491                	addi	s1,s1,4
80002704:	ff441ce3          	bne	s0,s4,800026fc <_init+0x9c>
80002708:	01298463          	beq	s3,s2,80002710 <_init+0xb0>
8000270c:	854a                	mv	a0,s2
8000270e:	3371                	jal	8000249a <printstr>
80002710:	8556                	mv	a0,s5
80002712:	3381                	jal	80002452 <tohost_exit>
80002714:	0c0076d7          	vsetvli	a3,zero,e8,m1,ta,ma
80002718:	5e0030d7          	vmv.v.i	v1,0
8000271c:	fac77fe3          	bgeu	a4,a2,800026da <_init+0x7a>
80002720:	0c07f6d7          	vsetvli	a3,a5,e8,m1,ta,ma
80002724:	020700a7          	vse8.v	v1,(a4)
80002728:	8f95                	sub	a5,a5,a3
8000272a:	9736                	add	a4,a4,a3
8000272c:	d7dd                	beqz	a5,800026da <_init+0x7a>
8000272e:	0c07f6d7          	vsetvli	a3,a5,e8,m1,ta,ma
80002732:	020700a7          	vse8.v	v1,(a4)
80002736:	8f95                	sub	a5,a5,a3
80002738:	9736                	add	a4,a4,a3
8000273a:	f3fd                	bnez	a5,80002720 <_init+0xc0>
8000273c:	bf79                	j	800026da <_init+0x7a>
8000273e:	4090                	lw	a2,0(s1)
80002740:	854e                	mv	a0,s3
80002742:	00001597          	auipc	a1,0x1
80002746:	87258593          	addi	a1,a1,-1934 # 80002fb4 <main+0xd6>
8000274a:	35b1                	jal	80002596 <sprintf>
8000274c:	99aa                	add	s3,s3,a0
8000274e:	bf4d                	j	80002700 <_init+0xa0>

80002750 <memset>:
80002750:	00c567b3          	or	a5,a0,a2
80002754:	8b8d                	andi	a5,a5,3
80002756:	00c50733          	add	a4,a0,a2
8000275a:	c385                	beqz	a5,8000277a <memset+0x2a>
8000275c:	0c0077d7          	vsetvli	a5,zero,e8,m1,ta,ma
80002760:	5e05c0d7          	vmv.v.x	v1,a1
80002764:	87aa                	mv	a5,a0
80002766:	04e57563          	bgeu	a0,a4,800027b0 <memset+0x60>
8000276a:	0c067757          	vsetvli	a4,a2,e8,m1,ta,ma
8000276e:	020780a7          	vse8.v	v1,(a5)
80002772:	8e19                	sub	a2,a2,a4
80002774:	97ba                	add	a5,a5,a4
80002776:	fa75                	bnez	a2,8000276a <memset+0x1a>
80002778:	8082                	ret
8000277a:	fee57fe3          	bgeu	a0,a4,80002778 <memset+0x28>
8000277e:	0ff5f593          	zext.b	a1,a1
80002782:	00859793          	slli	a5,a1,0x8
80002786:	97ae                	add	a5,a5,a1
80002788:	01079713          	slli	a4,a5,0x10
8000278c:	97ba                	add	a5,a5,a4
8000278e:	0d007757          	vsetvli	a4,zero,e32,m1,ta,ma
80002792:	167d                	addi	a2,a2,-1
80002794:	5e07c0d7          	vmv.v.x	v1,a5
80002798:	8209                	srli	a2,a2,0x2
8000279a:	0605                	addi	a2,a2,1
8000279c:	872a                	mv	a4,a0
8000279e:	0c6677d7          	vsetvli	a5,a2,e8,mf4,ta,ma
800027a2:	020760a7          	vse32.v	v1,(a4)
800027a6:	8e1d                	sub	a2,a2,a5
800027a8:	078a                	slli	a5,a5,0x2
800027aa:	973e                	add	a4,a4,a5
800027ac:	fa6d                	bnez	a2,8000279e <memset+0x4e>
800027ae:	8082                	ret
800027b0:	8082                	ret

800027b2 <strlen>:
800027b2:	00054783          	lbu	a5,0(a0)
800027b6:	cb89                	beqz	a5,800027c8 <strlen+0x16>
800027b8:	87aa                	mv	a5,a0
800027ba:	0017c703          	lbu	a4,1(a5)
800027be:	0785                	addi	a5,a5,1
800027c0:	ff6d                	bnez	a4,800027ba <strlen+0x8>
800027c2:	40a78533          	sub	a0,a5,a0
800027c6:	8082                	ret
800027c8:	4501                	li	a0,0
800027ca:	8082                	ret

800027cc <strnlen>:
800027cc:	00b506b3          	add	a3,a0,a1
800027d0:	87aa                	mv	a5,a0
800027d2:	e589                	bnez	a1,800027dc <strnlen+0x10>
800027d4:	a811                	j	800027e8 <strnlen+0x1c>
800027d6:	0785                	addi	a5,a5,1
800027d8:	00d78563          	beq	a5,a3,800027e2 <strnlen+0x16>
800027dc:	0007c703          	lbu	a4,0(a5)
800027e0:	fb7d                	bnez	a4,800027d6 <strnlen+0xa>
800027e2:	40a78533          	sub	a0,a5,a0
800027e6:	8082                	ret
800027e8:	4501                	li	a0,0
800027ea:	8082                	ret

800027ec <strcmp>:
800027ec:	86aa                	mv	a3,a0
800027ee:	0006c783          	lbu	a5,0(a3)
800027f2:	0005c603          	lbu	a2,0(a1)
800027f6:	0685                	addi	a3,a3,1
800027f8:	00f03733          	snez	a4,a5
800027fc:	40c78533          	sub	a0,a5,a2
80002800:	00153793          	seqz	a5,a0
80002804:	8ff9                	and	a5,a5,a4
80002806:	0585                	addi	a1,a1,1
80002808:	f3fd                	bnez	a5,800027ee <strcmp+0x2>
8000280a:	8082                	ret

8000280c <strcpy>:
8000280c:	87aa                	mv	a5,a0
8000280e:	0005c703          	lbu	a4,0(a1)
80002812:	0585                	addi	a1,a1,1
80002814:	0785                	addi	a5,a5,1
80002816:	fee78fa3          	sb	a4,-1(a5)
8000281a:	fb75                	bnez	a4,8000280e <strcpy+0x2>
8000281c:	8082                	ret

8000281e <atol>:
8000281e:	00054703          	lbu	a4,0(a0)
80002822:	02000693          	li	a3,32
80002826:	87aa                	mv	a5,a0
80002828:	00d71763          	bne	a4,a3,80002836 <atol+0x18>
8000282c:	0017c703          	lbu	a4,1(a5)
80002830:	0785                	addi	a5,a5,1
80002832:	fed70de3          	beq	a4,a3,8000282c <atol+0xe>
80002836:	fd570693          	addi	a3,a4,-43
8000283a:	0fd6f693          	andi	a3,a3,253
8000283e:	ea95                	bnez	a3,80002872 <atol+0x54>
80002840:	0017c683          	lbu	a3,1(a5)
80002844:	fd370713          	addi	a4,a4,-45
80002848:	00173613          	seqz	a2,a4
8000284c:	ca8d                	beqz	a3,8000287e <atol+0x60>
8000284e:	0785                	addi	a5,a5,1
80002850:	4501                	li	a0,0
80002852:	0785                	addi	a5,a5,1
80002854:	fd068593          	addi	a1,a3,-48
80002858:	00251713          	slli	a4,a0,0x2
8000285c:	0007c683          	lbu	a3,0(a5)
80002860:	972a                	add	a4,a4,a0
80002862:	0706                	slli	a4,a4,0x1
80002864:	00e58533          	add	a0,a1,a4
80002868:	f6ed                	bnez	a3,80002852 <atol+0x34>
8000286a:	c219                	beqz	a2,80002870 <atol+0x52>
8000286c:	40a00533          	neg	a0,a0
80002870:	8082                	ret
80002872:	0007c683          	lbu	a3,0(a5)
80002876:	4601                	li	a2,0
80002878:	fee1                	bnez	a3,80002850 <atol+0x32>
8000287a:	4501                	li	a0,0
8000287c:	8082                	ret
8000287e:	4501                	li	a0,0
80002880:	b7ed                	j	8000286a <atol+0x4c>

80002882 <__udivdi3>:
80002882:	8732                	mv	a4,a2
80002884:	88b6                	mv	a7,a3
80002886:	882a                	mv	a6,a0
80002888:	832e                	mv	t1,a1
8000288a:	1c069363          	bnez	a3,80002a50 <__udivdi3+0x1ce>
8000288e:	800037b7          	lui	a5,0x80003
80002892:	11878793          	addi	a5,a5,280 # 80003118 <__clz_tab>
80002896:	0ac5fb63          	bgeu	a1,a2,8000294c <__udivdi3+0xca>
8000289a:	66c1                	lui	a3,0x10
8000289c:	08d67e63          	bgeu	a2,a3,80002938 <__udivdi3+0xb6>
800028a0:	10063693          	sltiu	a3,a2,256
800028a4:	0016b693          	seqz	a3,a3
800028a8:	068e                	slli	a3,a3,0x3
800028aa:	00d65e33          	srl	t3,a2,a3
800028ae:	97f2                	add	a5,a5,t3
800028b0:	0007c783          	lbu	a5,0(a5)
800028b4:	97b6                	add	a5,a5,a3
800028b6:	02000693          	li	a3,32
800028ba:	00d78d63          	beq	a5,a3,800028d4 <__udivdi3+0x52>
800028be:	8e9d                	sub	a3,a3,a5
800028c0:	00d59333          	sll	t1,a1,a3
800028c4:	00f557b3          	srl	a5,a0,a5
800028c8:	00d61733          	sll	a4,a2,a3
800028cc:	0067e333          	or	t1,a5,t1
800028d0:	00d51833          	sll	a6,a0,a3
800028d4:	01075513          	srli	a0,a4,0x10
800028d8:	02a357b3          	divu	a5,t1,a0
800028dc:	01071593          	slli	a1,a4,0x10
800028e0:	81c1                	srli	a1,a1,0x10
800028e2:	01085693          	srli	a3,a6,0x10
800028e6:	02a37333          	remu	t1,t1,a0
800028ea:	02f58633          	mul	a2,a1,a5
800028ee:	0342                	slli	t1,t1,0x10
800028f0:	0066e6b3          	or	a3,a3,t1
800028f4:	00c6f863          	bgeu	a3,a2,80002904 <__udivdi3+0x82>
800028f8:	96ba                	add	a3,a3,a4
800028fa:	00c6f463          	bgeu	a3,a2,80002902 <__udivdi3+0x80>
800028fe:	04e6f463          	bgeu	a3,a4,80002946 <__udivdi3+0xc4>
80002902:	17fd                	addi	a5,a5,-1
80002904:	8e91                	sub	a3,a3,a2
80002906:	02a6d633          	divu	a2,a3,a0
8000290a:	0842                	slli	a6,a6,0x10
8000290c:	01085813          	srli	a6,a6,0x10
80002910:	02a6f6b3          	remu	a3,a3,a0
80002914:	02c585b3          	mul	a1,a1,a2
80002918:	06c2                	slli	a3,a3,0x10
8000291a:	00d86833          	or	a6,a6,a3
8000291e:	00b87863          	bgeu	a6,a1,8000292e <__udivdi3+0xac>
80002922:	983a                	add	a6,a6,a4
80002924:	00b87463          	bgeu	a6,a1,8000292c <__udivdi3+0xaa>
80002928:	12e87263          	bgeu	a6,a4,80002a4c <__udivdi3+0x1ca>
8000292c:	167d                	addi	a2,a2,-1
8000292e:	07c2                	slli	a5,a5,0x10
80002930:	8fd1                	or	a5,a5,a2
80002932:	853e                	mv	a0,a5
80002934:	85c6                	mv	a1,a7
80002936:	8082                	ret
80002938:	01000e37          	lui	t3,0x1000
8000293c:	46e1                	li	a3,24
8000293e:	f7c676e3          	bgeu	a2,t3,800028aa <__udivdi3+0x28>
80002942:	46c1                	li	a3,16
80002944:	b79d                	j	800028aa <__udivdi3+0x28>
80002946:	17f9                	addi	a5,a5,-2
80002948:	96ba                	add	a3,a3,a4
8000294a:	bf6d                	j	80002904 <__udivdi3+0x82>
8000294c:	4681                	li	a3,0
8000294e:	ca09                	beqz	a2,80002960 <__udivdi3+0xde>
80002950:	66c1                	lui	a3,0x10
80002952:	04d67e63          	bgeu	a2,a3,800029ae <__udivdi3+0x12c>
80002956:	10063693          	sltiu	a3,a2,256
8000295a:	0016b693          	seqz	a3,a3
8000295e:	068e                	slli	a3,a3,0x3
80002960:	00d658b3          	srl	a7,a2,a3
80002964:	97c6                	add	a5,a5,a7
80002966:	0007c783          	lbu	a5,0(a5)
8000296a:	97b6                	add	a5,a5,a3
8000296c:	02000693          	li	a3,32
80002970:	04d79663          	bne	a5,a3,800029bc <__udivdi3+0x13a>
80002974:	40c58633          	sub	a2,a1,a2
80002978:	4885                	li	a7,1
8000297a:	01075513          	srli	a0,a4,0x10
8000297e:	02a657b3          	divu	a5,a2,a0
80002982:	01071593          	slli	a1,a4,0x10
80002986:	81c1                	srli	a1,a1,0x10
80002988:	01085693          	srli	a3,a6,0x10
8000298c:	02a67633          	remu	a2,a2,a0
80002990:	02f58333          	mul	t1,a1,a5
80002994:	0642                	slli	a2,a2,0x10
80002996:	8ed1                	or	a3,a3,a2
80002998:	0066f863          	bgeu	a3,t1,800029a8 <__udivdi3+0x126>
8000299c:	96ba                	add	a3,a3,a4
8000299e:	0066f463          	bgeu	a3,t1,800029a6 <__udivdi3+0x124>
800029a2:	0ae6f263          	bgeu	a3,a4,80002a46 <__udivdi3+0x1c4>
800029a6:	17fd                	addi	a5,a5,-1
800029a8:	406686b3          	sub	a3,a3,t1
800029ac:	bfa9                	j	80002906 <__udivdi3+0x84>
800029ae:	010008b7          	lui	a7,0x1000
800029b2:	46e1                	li	a3,24
800029b4:	fb1676e3          	bgeu	a2,a7,80002960 <__udivdi3+0xde>
800029b8:	46c1                	li	a3,16
800029ba:	b75d                	j	80002960 <__udivdi3+0xde>
800029bc:	40f68833          	sub	a6,a3,a5
800029c0:	01061733          	sll	a4,a2,a6
800029c4:	00f5d6b3          	srl	a3,a1,a5
800029c8:	010595b3          	sll	a1,a1,a6
800029cc:	00f557b3          	srl	a5,a0,a5
800029d0:	01051833          	sll	a6,a0,a6
800029d4:	01075513          	srli	a0,a4,0x10
800029d8:	02a6d8b3          	divu	a7,a3,a0
800029dc:	01071613          	slli	a2,a4,0x10
800029e0:	8241                	srli	a2,a2,0x10
800029e2:	8fcd                	or	a5,a5,a1
800029e4:	02a6f6b3          	remu	a3,a3,a0
800029e8:	03160333          	mul	t1,a2,a7
800029ec:	01069593          	slli	a1,a3,0x10
800029f0:	0107d693          	srli	a3,a5,0x10
800029f4:	8ecd                	or	a3,a3,a1
800029f6:	0066f863          	bgeu	a3,t1,80002a06 <__udivdi3+0x184>
800029fa:	96ba                	add	a3,a3,a4
800029fc:	0066f463          	bgeu	a3,t1,80002a04 <__udivdi3+0x182>
80002a00:	02e6fd63          	bgeu	a3,a4,80002a3a <__udivdi3+0x1b8>
80002a04:	18fd                	addi	a7,a7,-1 # ffffff <_start-0x7f000001>
80002a06:	406686b3          	sub	a3,a3,t1
80002a0a:	02a6d5b3          	divu	a1,a3,a0
80002a0e:	07c2                	slli	a5,a5,0x10
80002a10:	83c1                	srli	a5,a5,0x10
80002a12:	02a6f6b3          	remu	a3,a3,a0
80002a16:	02b60633          	mul	a2,a2,a1
80002a1a:	06c2                	slli	a3,a3,0x10
80002a1c:	8fd5                	or	a5,a5,a3
80002a1e:	00c7f863          	bgeu	a5,a2,80002a2e <__udivdi3+0x1ac>
80002a22:	97ba                	add	a5,a5,a4
80002a24:	00c7f463          	bgeu	a5,a2,80002a2c <__udivdi3+0x1aa>
80002a28:	00e7fc63          	bgeu	a5,a4,80002a40 <__udivdi3+0x1be>
80002a2c:	15fd                	addi	a1,a1,-1
80002a2e:	08c2                	slli	a7,a7,0x10
80002a30:	40c78633          	sub	a2,a5,a2
80002a34:	00b8e8b3          	or	a7,a7,a1
80002a38:	b789                	j	8000297a <__udivdi3+0xf8>
80002a3a:	18f9                	addi	a7,a7,-2
80002a3c:	96ba                	add	a3,a3,a4
80002a3e:	b7e1                	j	80002a06 <__udivdi3+0x184>
80002a40:	15f9                	addi	a1,a1,-2
80002a42:	97ba                	add	a5,a5,a4
80002a44:	b7ed                	j	80002a2e <__udivdi3+0x1ac>
80002a46:	17f9                	addi	a5,a5,-2
80002a48:	96ba                	add	a3,a3,a4
80002a4a:	bfb9                	j	800029a8 <__udivdi3+0x126>
80002a4c:	1679                	addi	a2,a2,-2
80002a4e:	b5c5                	j	8000292e <__udivdi3+0xac>
80002a50:	12d5eb63          	bltu	a1,a3,80002b86 <__udivdi3+0x304>
80002a54:	67c1                	lui	a5,0x10
80002a56:	02f6fe63          	bgeu	a3,a5,80002a92 <__udivdi3+0x210>
80002a5a:	1006b793          	sltiu	a5,a3,256
80002a5e:	0017b793          	seqz	a5,a5
80002a62:	078e                	slli	a5,a5,0x3
80002a64:	80003737          	lui	a4,0x80003
80002a68:	00f6d833          	srl	a6,a3,a5
80002a6c:	11870713          	addi	a4,a4,280 # 80003118 <__clz_tab>
80002a70:	9742                	add	a4,a4,a6
80002a72:	00074703          	lbu	a4,0(a4)
80002a76:	02000813          	li	a6,32
80002a7a:	973e                	add	a4,a4,a5
80002a7c:	03071263          	bne	a4,a6,80002aa0 <__udivdi3+0x21e>
80002a80:	00c537b3          	sltu	a5,a0,a2
80002a84:	0017b793          	seqz	a5,a5
80002a88:	00b6b6b3          	sltu	a3,a3,a1
80002a8c:	8fd5                	or	a5,a5,a3
80002a8e:	4881                	li	a7,0
80002a90:	b54d                	j	80002932 <__udivdi3+0xb0>
80002a92:	01000737          	lui	a4,0x1000
80002a96:	47e1                	li	a5,24
80002a98:	fce6f6e3          	bgeu	a3,a4,80002a64 <__udivdi3+0x1e2>
80002a9c:	47c1                	li	a5,16
80002a9e:	b7d9                	j	80002a64 <__udivdi3+0x1e2>
80002aa0:	40e80833          	sub	a6,a6,a4
80002aa4:	00e658b3          	srl	a7,a2,a4
80002aa8:	010696b3          	sll	a3,a3,a6
80002aac:	00d8e8b3          	or	a7,a7,a3
80002ab0:	0108de13          	srli	t3,a7,0x10
80002ab4:	00e5d6b3          	srl	a3,a1,a4
80002ab8:	03c6d7b3          	divu	a5,a3,t3
80002abc:	01089313          	slli	t1,a7,0x10
80002ac0:	01035313          	srli	t1,t1,0x10
80002ac4:	010595b3          	sll	a1,a1,a6
80002ac8:	00e55733          	srl	a4,a0,a4
80002acc:	8f4d                	or	a4,a4,a1
80002ace:	01061633          	sll	a2,a2,a6
80002ad2:	03c6f6b3          	remu	a3,a3,t3
80002ad6:	02f30eb3          	mul	t4,t1,a5
80002ada:	01069593          	slli	a1,a3,0x10
80002ade:	01075693          	srli	a3,a4,0x10
80002ae2:	8ecd                	or	a3,a3,a1
80002ae4:	01d6f863          	bgeu	a3,t4,80002af4 <__udivdi3+0x272>
80002ae8:	96c6                	add	a3,a3,a7
80002aea:	01d6f463          	bgeu	a3,t4,80002af2 <__udivdi3+0x270>
80002aee:	0916f663          	bgeu	a3,a7,80002b7a <__udivdi3+0x2f8>
80002af2:	17fd                	addi	a5,a5,-1 # ffff <_start-0x7fff0001>
80002af4:	41d686b3          	sub	a3,a3,t4
80002af8:	03c6d5b3          	divu	a1,a3,t3
80002afc:	0742                	slli	a4,a4,0x10
80002afe:	8341                	srli	a4,a4,0x10
80002b00:	03c6f6b3          	remu	a3,a3,t3
80002b04:	02b30333          	mul	t1,t1,a1
80002b08:	06c2                	slli	a3,a3,0x10
80002b0a:	8f55                	or	a4,a4,a3
80002b0c:	00677863          	bgeu	a4,t1,80002b1c <__udivdi3+0x29a>
80002b10:	9746                	add	a4,a4,a7
80002b12:	00677463          	bgeu	a4,t1,80002b1a <__udivdi3+0x298>
80002b16:	07177563          	bgeu	a4,a7,80002b80 <__udivdi3+0x2fe>
80002b1a:	15fd                	addi	a1,a1,-1
80002b1c:	07c2                	slli	a5,a5,0x10
80002b1e:	8fcd                	or	a5,a5,a1
80002b20:	40670733          	sub	a4,a4,t1
80002b24:	05c2                	slli	a1,a1,0x10
80002b26:	01061313          	slli	t1,a2,0x10
80002b2a:	81c1                	srli	a1,a1,0x10
80002b2c:	0107d893          	srli	a7,a5,0x10
80002b30:	01035313          	srli	t1,t1,0x10
80002b34:	8241                	srli	a2,a2,0x10
80002b36:	02658e33          	mul	t3,a1,t1
80002b3a:	02688333          	mul	t1,a7,t1
80002b3e:	010e5693          	srli	a3,t3,0x10
80002b42:	02c585b3          	mul	a1,a1,a2
80002b46:	02c888b3          	mul	a7,a7,a2
80002b4a:	959a                	add	a1,a1,t1
80002b4c:	96ae                	add	a3,a3,a1
80002b4e:	0066f463          	bgeu	a3,t1,80002b56 <__udivdi3+0x2d4>
80002b52:	6641                	lui	a2,0x10
80002b54:	98b2                	add	a7,a7,a2
80002b56:	0106d613          	srli	a2,a3,0x10
80002b5a:	9646                	add	a2,a2,a7
80002b5c:	00c76d63          	bltu	a4,a2,80002b76 <__udivdi3+0x2f4>
80002b60:	0e42                	slli	t3,t3,0x10
80002b62:	06c2                	slli	a3,a3,0x10
80002b64:	010e5e13          	srli	t3,t3,0x10
80002b68:	01051533          	sll	a0,a0,a6
80002b6c:	96f2                	add	a3,a3,t3
80002b6e:	f2d570e3          	bgeu	a0,a3,80002a8e <__udivdi3+0x20c>
80002b72:	f0c71ee3          	bne	a4,a2,80002a8e <__udivdi3+0x20c>
80002b76:	17fd                	addi	a5,a5,-1
80002b78:	bf19                	j	80002a8e <__udivdi3+0x20c>
80002b7a:	17f9                	addi	a5,a5,-2
80002b7c:	96c6                	add	a3,a3,a7
80002b7e:	bf9d                	j	80002af4 <__udivdi3+0x272>
80002b80:	15f9                	addi	a1,a1,-2
80002b82:	9746                	add	a4,a4,a7
80002b84:	bf61                	j	80002b1c <__udivdi3+0x29a>
80002b86:	4881                	li	a7,0
80002b88:	4781                	li	a5,0
80002b8a:	b365                	j	80002932 <__udivdi3+0xb0>

80002b8c <__umoddi3>:
80002b8c:	8832                	mv	a6,a2
80002b8e:	87aa                	mv	a5,a0
80002b90:	872e                	mv	a4,a1
80002b92:	1e069063          	bnez	a3,80002d72 <__umoddi3+0x1e6>
80002b96:	800036b7          	lui	a3,0x80003
80002b9a:	11868693          	addi	a3,a3,280 # 80003118 <__clz_tab>
80002b9e:	0cc5f263          	bgeu	a1,a2,80002c62 <__umoddi3+0xd6>
80002ba2:	68c1                	lui	a7,0x10
80002ba4:	0b167863          	bgeu	a2,a7,80002c54 <__umoddi3+0xc8>
80002ba8:	10063893          	sltiu	a7,a2,256
80002bac:	0018b893          	seqz	a7,a7
80002bb0:	088e                	slli	a7,a7,0x3
80002bb2:	01165333          	srl	t1,a2,a7
80002bb6:	969a                	add	a3,a3,t1
80002bb8:	0006c683          	lbu	a3,0(a3)
80002bbc:	02000313          	li	t1,32
80002bc0:	96c6                	add	a3,a3,a7
80002bc2:	40d308b3          	sub	a7,t1,a3
80002bc6:	00668b63          	beq	a3,t1,80002bdc <__umoddi3+0x50>
80002bca:	01159733          	sll	a4,a1,a7
80002bce:	00d556b3          	srl	a3,a0,a3
80002bd2:	01161833          	sll	a6,a2,a7
80002bd6:	8f55                	or	a4,a4,a3
80002bd8:	011517b3          	sll	a5,a0,a7
80002bdc:	01085513          	srli	a0,a6,0x10
80002be0:	02a756b3          	divu	a3,a4,a0
80002be4:	01081313          	slli	t1,a6,0x10
80002be8:	01035313          	srli	t1,t1,0x10
80002bec:	02a77733          	remu	a4,a4,a0
80002bf0:	026686b3          	mul	a3,a3,t1
80002bf4:	01071593          	slli	a1,a4,0x10
80002bf8:	0107d713          	srli	a4,a5,0x10
80002bfc:	8f4d                	or	a4,a4,a1
80002bfe:	00d77d63          	bgeu	a4,a3,80002c18 <__umoddi3+0x8c>
80002c02:	9742                	add	a4,a4,a6
80002c04:	010735b3          	sltu	a1,a4,a6
80002c08:	00d73633          	sltu	a2,a4,a3
80002c0c:	0015b593          	seqz	a1,a1
80002c10:	8e6d                	and	a2,a2,a1
80002c12:	03060633          	mul	a2,a2,a6
80002c16:	9732                	add	a4,a4,a2
80002c18:	8f15                	sub	a4,a4,a3
80002c1a:	02a756b3          	divu	a3,a4,a0
80002c1e:	02a77733          	remu	a4,a4,a0
80002c22:	026686b3          	mul	a3,a3,t1
80002c26:	01079513          	slli	a0,a5,0x10
80002c2a:	0742                	slli	a4,a4,0x10
80002c2c:	8141                	srli	a0,a0,0x10
80002c2e:	8d59                	or	a0,a0,a4
80002c30:	00d57d63          	bgeu	a0,a3,80002c4a <__umoddi3+0xbe>
80002c34:	9542                	add	a0,a0,a6
80002c36:	01053733          	sltu	a4,a0,a6
80002c3a:	00d537b3          	sltu	a5,a0,a3
80002c3e:	00173713          	seqz	a4,a4
80002c42:	8ff9                	and	a5,a5,a4
80002c44:	030787b3          	mul	a5,a5,a6
80002c48:	953e                	add	a0,a0,a5
80002c4a:	8d15                	sub	a0,a0,a3
80002c4c:	01155533          	srl	a0,a0,a7
80002c50:	4581                	li	a1,0
80002c52:	8082                	ret
80002c54:	01000337          	lui	t1,0x1000
80002c58:	48e1                	li	a7,24
80002c5a:	f4667ce3          	bgeu	a2,t1,80002bb2 <__umoddi3+0x26>
80002c5e:	48c1                	li	a7,16
80002c60:	bf89                	j	80002bb2 <__umoddi3+0x26>
80002c62:	4701                	li	a4,0
80002c64:	ca09                	beqz	a2,80002c76 <__umoddi3+0xea>
80002c66:	6741                	lui	a4,0x10
80002c68:	06e67a63          	bgeu	a2,a4,80002cdc <__umoddi3+0x150>
80002c6c:	10063713          	sltiu	a4,a2,256
80002c70:	00173713          	seqz	a4,a4
80002c74:	070e                	slli	a4,a4,0x3
80002c76:	00e658b3          	srl	a7,a2,a4
80002c7a:	96c6                	add	a3,a3,a7
80002c7c:	0006c683          	lbu	a3,0(a3)
80002c80:	96ba                	add	a3,a3,a4
80002c82:	02000713          	li	a4,32
80002c86:	40d708b3          	sub	a7,a4,a3
80002c8a:	06e69063          	bne	a3,a4,80002cea <__umoddi3+0x15e>
80002c8e:	40c586b3          	sub	a3,a1,a2
80002c92:	01085593          	srli	a1,a6,0x10
80002c96:	02b6d633          	divu	a2,a3,a1
80002c9a:	01081313          	slli	t1,a6,0x10
80002c9e:	01035313          	srli	t1,t1,0x10
80002ca2:	0107d713          	srli	a4,a5,0x10
80002ca6:	02b6f6b3          	remu	a3,a3,a1
80002caa:	02660633          	mul	a2,a2,t1
80002cae:	06c2                	slli	a3,a3,0x10
80002cb0:	8f55                	or	a4,a4,a3
80002cb2:	00c77d63          	bgeu	a4,a2,80002ccc <__umoddi3+0x140>
80002cb6:	9742                	add	a4,a4,a6
80002cb8:	01073533          	sltu	a0,a4,a6
80002cbc:	00c736b3          	sltu	a3,a4,a2
80002cc0:	00153513          	seqz	a0,a0
80002cc4:	8ee9                	and	a3,a3,a0
80002cc6:	030686b3          	mul	a3,a3,a6
80002cca:	9736                	add	a4,a4,a3
80002ccc:	8f11                	sub	a4,a4,a2
80002cce:	02b756b3          	divu	a3,a4,a1
80002cd2:	02b77733          	remu	a4,a4,a1
80002cd6:	026686b3          	mul	a3,a3,t1
80002cda:	b7b1                	j	80002c26 <__umoddi3+0x9a>
80002cdc:	010008b7          	lui	a7,0x1000
80002ce0:	4761                	li	a4,24
80002ce2:	f9167ae3          	bgeu	a2,a7,80002c76 <__umoddi3+0xea>
80002ce6:	4741                	li	a4,16
80002ce8:	b779                	j	80002c76 <__umoddi3+0xea>
80002cea:	01161833          	sll	a6,a2,a7
80002cee:	00d5d733          	srl	a4,a1,a3
80002cf2:	011517b3          	sll	a5,a0,a7
80002cf6:	011595b3          	sll	a1,a1,a7
80002cfa:	00d556b3          	srl	a3,a0,a3
80002cfe:	01085513          	srli	a0,a6,0x10
80002d02:	8ecd                	or	a3,a3,a1
80002d04:	02a755b3          	divu	a1,a4,a0
80002d08:	01081e13          	slli	t3,a6,0x10
80002d0c:	010e5e13          	srli	t3,t3,0x10
80002d10:	02a77733          	remu	a4,a4,a0
80002d14:	03c585b3          	mul	a1,a1,t3
80002d18:	01071613          	slli	a2,a4,0x10
80002d1c:	0106d713          	srli	a4,a3,0x10
80002d20:	8f51                	or	a4,a4,a2
80002d22:	00b77e63          	bgeu	a4,a1,80002d3e <__umoddi3+0x1b2>
80002d26:	9742                	add	a4,a4,a6
80002d28:	01073333          	sltu	t1,a4,a6
80002d2c:	00b73633          	sltu	a2,a4,a1
80002d30:	00133313          	seqz	t1,t1
80002d34:	00667633          	and	a2,a2,t1
80002d38:	03060633          	mul	a2,a2,a6
80002d3c:	9732                	add	a4,a4,a2
80002d3e:	8f0d                	sub	a4,a4,a1
80002d40:	02a75633          	divu	a2,a4,a0
80002d44:	06c2                	slli	a3,a3,0x10
80002d46:	82c1                	srli	a3,a3,0x10
80002d48:	02a77733          	remu	a4,a4,a0
80002d4c:	03c60633          	mul	a2,a2,t3
80002d50:	0742                	slli	a4,a4,0x10
80002d52:	8ed9                	or	a3,a3,a4
80002d54:	00c6fd63          	bgeu	a3,a2,80002d6e <__umoddi3+0x1e2>
80002d58:	96c2                	add	a3,a3,a6
80002d5a:	0106b5b3          	sltu	a1,a3,a6
80002d5e:	00c6b733          	sltu	a4,a3,a2
80002d62:	0015b593          	seqz	a1,a1
80002d66:	8f6d                	and	a4,a4,a1
80002d68:	03070733          	mul	a4,a4,a6
80002d6c:	96ba                	add	a3,a3,a4
80002d6e:	8e91                	sub	a3,a3,a2
80002d70:	b70d                	j	80002c92 <__umoddi3+0x106>
80002d72:	14d5ef63          	bltu	a1,a3,80002ed0 <__umoddi3+0x344>
80002d76:	6841                	lui	a6,0x10
80002d78:	0506f563          	bgeu	a3,a6,80002dc2 <__umoddi3+0x236>
80002d7c:	1006b893          	sltiu	a7,a3,256
80002d80:	0018b893          	seqz	a7,a7
80002d84:	088e                	slli	a7,a7,0x3
80002d86:	80003837          	lui	a6,0x80003
80002d8a:	0116d333          	srl	t1,a3,a7
80002d8e:	11880813          	addi	a6,a6,280 # 80003118 <__clz_tab>
80002d92:	981a                	add	a6,a6,t1
80002d94:	00084803          	lbu	a6,0(a6)
80002d98:	9846                	add	a6,a6,a7
80002d9a:	02000893          	li	a7,32
80002d9e:	03181963          	bne	a6,a7,80002dd0 <__umoddi3+0x244>
80002da2:	00c57463          	bgeu	a0,a2,80002daa <__umoddi3+0x21e>
80002da6:	00b6fb63          	bgeu	a3,a1,80002dbc <__umoddi3+0x230>
80002daa:	40c50733          	sub	a4,a0,a2
80002dae:	87ba                	mv	a5,a4
80002db0:	40d586b3          	sub	a3,a1,a3
80002db4:	00e53733          	sltu	a4,a0,a4
80002db8:	40e68733          	sub	a4,a3,a4
80002dbc:	853e                	mv	a0,a5
80002dbe:	85ba                	mv	a1,a4
80002dc0:	8082                	ret
80002dc2:	01000837          	lui	a6,0x1000
80002dc6:	48e1                	li	a7,24
80002dc8:	fb06ffe3          	bgeu	a3,a6,80002d86 <__umoddi3+0x1fa>
80002dcc:	48c1                	li	a7,16
80002dce:	bf65                	j	80002d86 <__umoddi3+0x1fa>
80002dd0:	410888b3          	sub	a7,a7,a6
80002dd4:	011696b3          	sll	a3,a3,a7
80002dd8:	01065333          	srl	t1,a2,a6
80002ddc:	00d36333          	or	t1,t1,a3
80002de0:	0105d733          	srl	a4,a1,a6
80002de4:	01035e93          	srli	t4,t1,0x10
80002de8:	03d756b3          	divu	a3,a4,t4
80002dec:	01031e13          	slli	t3,t1,0x10
80002df0:	010e5e13          	srli	t3,t3,0x10
80002df4:	011597b3          	sll	a5,a1,a7
80002df8:	010555b3          	srl	a1,a0,a6
80002dfc:	8ddd                	or	a1,a1,a5
80002dfe:	0105d793          	srli	a5,a1,0x10
80002e02:	03d77733          	remu	a4,a4,t4
80002e06:	01161633          	sll	a2,a2,a7
80002e0a:	01151533          	sll	a0,a0,a7
80002e0e:	02de0f33          	mul	t5,t3,a3
80002e12:	0742                	slli	a4,a4,0x10
80002e14:	8fd9                	or	a5,a5,a4
80002e16:	01e7f863          	bgeu	a5,t5,80002e26 <__umoddi3+0x29a>
80002e1a:	979a                	add	a5,a5,t1
80002e1c:	01e7f463          	bgeu	a5,t5,80002e24 <__umoddi3+0x298>
80002e20:	0a67f963          	bgeu	a5,t1,80002ed2 <__umoddi3+0x346>
80002e24:	16fd                	addi	a3,a3,-1
80002e26:	41e787b3          	sub	a5,a5,t5
80002e2a:	03d7d733          	divu	a4,a5,t4
80002e2e:	05c2                	slli	a1,a1,0x10
80002e30:	81c1                	srli	a1,a1,0x10
80002e32:	03d7f7b3          	remu	a5,a5,t4
80002e36:	02ee0e33          	mul	t3,t3,a4
80002e3a:	07c2                	slli	a5,a5,0x10
80002e3c:	8ddd                	or	a1,a1,a5
80002e3e:	01c5f863          	bgeu	a1,t3,80002e4e <__umoddi3+0x2c2>
80002e42:	959a                	add	a1,a1,t1
80002e44:	01c5f463          	bgeu	a1,t3,80002e4c <__umoddi3+0x2c0>
80002e48:	0865f863          	bgeu	a1,t1,80002ed8 <__umoddi3+0x34c>
80002e4c:	177d                	addi	a4,a4,-1 # ffff <_start-0x7fff0001>
80002e4e:	06c2                	slli	a3,a3,0x10
80002e50:	8ed9                	or	a3,a3,a4
80002e52:	41c585b3          	sub	a1,a1,t3
80002e56:	0742                	slli	a4,a4,0x10
80002e58:	01061e13          	slli	t3,a2,0x10
80002e5c:	01065793          	srli	a5,a2,0x10
80002e60:	8341                	srli	a4,a4,0x10
80002e62:	82c1                	srli	a3,a3,0x10
80002e64:	010e5e13          	srli	t3,t3,0x10
80002e68:	03c70eb3          	mul	t4,a4,t3
80002e6c:	03c68e33          	mul	t3,a3,t3
80002e70:	02f70733          	mul	a4,a4,a5
80002e74:	02f686b3          	mul	a3,a3,a5
80002e78:	01c707b3          	add	a5,a4,t3
80002e7c:	010ed713          	srli	a4,t4,0x10
80002e80:	973e                	add	a4,a4,a5
80002e82:	01c77463          	bgeu	a4,t3,80002e8a <__umoddi3+0x2fe>
80002e86:	67c1                	lui	a5,0x10
80002e88:	96be                	add	a3,a3,a5
80002e8a:	01075793          	srli	a5,a4,0x10
80002e8e:	0ec2                	slli	t4,t4,0x10
80002e90:	0742                	slli	a4,a4,0x10
80002e92:	010ede93          	srli	t4,t4,0x10
80002e96:	97b6                	add	a5,a5,a3
80002e98:	9776                	add	a4,a4,t4
80002e9a:	00f5e663          	bltu	a1,a5,80002ea6 <__umoddi3+0x31a>
80002e9e:	00e57b63          	bgeu	a0,a4,80002eb4 <__umoddi3+0x328>
80002ea2:	00f59963          	bne	a1,a5,80002eb4 <__umoddi3+0x328>
80002ea6:	40c70633          	sub	a2,a4,a2
80002eaa:	00c736b3          	sltu	a3,a4,a2
80002eae:	969a                	add	a3,a3,t1
80002eb0:	8732                	mv	a4,a2
80002eb2:	8f95                	sub	a5,a5,a3
80002eb4:	40e50733          	sub	a4,a0,a4
80002eb8:	00e53533          	sltu	a0,a0,a4
80002ebc:	8d9d                	sub	a1,a1,a5
80002ebe:	8d89                	sub	a1,a1,a0
80002ec0:	01059833          	sll	a6,a1,a6
80002ec4:	01175733          	srl	a4,a4,a7
80002ec8:	00e86533          	or	a0,a6,a4
80002ecc:	0115d5b3          	srl	a1,a1,a7
80002ed0:	8082                	ret
80002ed2:	16f9                	addi	a3,a3,-2
80002ed4:	979a                	add	a5,a5,t1
80002ed6:	bf81                	j	80002e26 <__umoddi3+0x29a>
80002ed8:	1779                	addi	a4,a4,-2
80002eda:	959a                	add	a1,a1,t1
80002edc:	bf8d                	j	80002e4e <__umoddi3+0x2c2>

セクション .text.startup の逆アセンブル:

80002ede <main>:
80002ede:	72f1                	lui	t0,0xffffc
80002ee0:	18028293          	addi	t0,t0,384 # ffffc180 <__global_pointer$+0x7fff48ac>
80002ee4:	1141                	addi	sp,sp,-16
80002ee6:	c606                	sw	ra,12(sp)
80002ee8:	c422                	sw	s0,8(sp)
80002eea:	6611                	lui	a2,0x4
80002eec:	9116                	add	sp,sp,t0
80002eee:	e8060613          	addi	a2,a2,-384 # 3e80 <_start-0x7fffc180>
80002ef2:	00000597          	auipc	a1,0x0
80002ef6:	36258593          	addi	a1,a1,866 # 80003254 <input_data>
80002efa:	850a                	mv	a0,sp
80002efc:	904ff0ef          	jal	80002000 <vec_memcpy>
80002f00:	4505                	li	a0,1
80002f02:	d06ff0ef          	jal	80002408 <setStats>
80002f06:	6611                	lui	a2,0x4
80002f08:	e8060613          	addi	a2,a2,-384 # 3e80 <_start-0x7fffc180>
80002f0c:	00000597          	auipc	a1,0x0
80002f10:	34858593          	addi	a1,a1,840 # 80003254 <input_data>
80002f14:	850a                	mv	a0,sp
80002f16:	8eaff0ef          	jal	80002000 <vec_memcpy>
80002f1a:	4501                	li	a0,0
80002f1c:	cecff0ef          	jal	80002408 <setStats>
80002f20:	6805                	lui	a6,0x1
80002f22:	840a                	mv	s0,sp
80002f24:	878a                	mv	a5,sp
80002f26:	fa080813          	addi	a6,a6,-96 # fa0 <_start-0x7ffff060>
80002f2a:	00000717          	auipc	a4,0x0
80002f2e:	32a70713          	addi	a4,a4,810 # 80003254 <input_data>
80002f32:	4501                	li	a0,0
80002f34:	4390                	lw	a2,0(a5)
80002f36:	4314                	lw	a3,0(a4)
80002f38:	43cc                	lw	a1,4(a5)
80002f3a:	07a1                	addi	a5,a5,8 # 10008 <_start-0x7ffefff8>
80002f3c:	02d61263          	bne	a2,a3,80002f60 <main+0x82>
80002f40:	4354                	lw	a3,4(a4)
80002f42:	0509                	addi	a0,a0,2
80002f44:	0721                	addi	a4,a4,8
80002f46:	00d59563          	bne	a1,a3,80002f50 <main+0x72>
80002f4a:	ff0515e3          	bne	a0,a6,80002f34 <main+0x56>
80002f4e:	4501                	li	a0,0
80002f50:	6291                	lui	t0,0x4
80002f52:	e8028293          	addi	t0,t0,-384 # 3e80 <_start-0x7fffc180>
80002f56:	9116                	add	sp,sp,t0
80002f58:	40b2                	lw	ra,12(sp)
80002f5a:	4422                	lw	s0,8(sp)
80002f5c:	0141                	addi	sp,sp,16
80002f5e:	8082                	ret
80002f60:	0505                	addi	a0,a0,1
80002f62:	b7fd                	j	80002f50 <main+0x72>
80002f64:	1141                	addi	sp,sp,-16
80002f66:	00000517          	auipc	a0,0x0
80002f6a:	03650513          	addi	a0,a0,54 # 80002f9c <main+0xbe>
80002f6e:	c606                	sw	ra,12(sp)
80002f70:	d2aff0ef          	jal	8000249a <printstr>
80002f74:	40b2                	lw	ra,12(sp)
80002f76:	557d                	li	a0,-1
80002f78:	0141                	addi	sp,sp,16
80002f7a:	8082                	ret

セクション .data の逆アセンブル:

80003254 <input_data>:
80003254:	0029                	c.nop	10
80003256:	0000                	unimp
80003258:	01c6                	slli	gp,gp,0x11
8000325a:	0000                	unimp
8000325c:	0341                	addi	t1,t1,16 # 1000010 <_start-0x7efffff0>
8000325e:	0000                	unimp
80003260:	0000014f          	fnmadd.s	ft2,ft0,ft0,ft0,rne
80003264:	0234                	addi	a3,sp,264
80003266:	0000                	unimp
80003268:	0001                	nop
8000326a:	0000                	unimp
8000326c:	000000bb          	.insn	4, 0x00bb
80003270:	03dd                	addi	t2,t2,23
80003272:	0000                	unimp
80003274:	02ed                	addi	t0,t0,27
80003276:	0000                	unimp
80003278:	016d                	addi	sp,sp,27
8000327a:	0000                	unimp
8000327c:	015e                	slli	sp,sp,0x17
8000327e:	0000                	unimp
80003280:	023c                	addi	a5,sp,264
80003282:	0000                	unimp
80003284:	0084                	addi	s1,sp,64
80003286:	0000                	unimp
80003288:	0040                	addi	s0,sp,4
8000328a:	0000                	unimp
8000328c:	03b5                	addi	t2,t2,13
8000328e:	0000                	unimp
80003290:	0099                	addi	ra,ra,6
80003292:	0000                	unimp
80003294:	0248                	addi	a0,sp,260
80003296:	0000                	unimp
80003298:	00d8                	addi	a4,sp,68
8000329a:	0000                	unimp
8000329c:	0325                	addi	t1,t1,9
8000329e:	0000                	unimp
800032a0:	008c                	addi	a1,sp,64
800032a2:	0000                	unimp
800032a4:	026d                	addi	tp,tp,27 # 1b <_start-0x7fffffe5>
800032a6:	0000                	unimp
800032a8:	00d2                	slli	ra,ra,0x14
800032aa:	0000                	unimp
800032ac:	0006                	c.slli	zero,0x1
800032ae:	0000                	unimp
800032b0:	023c                	addi	a5,sp,264
800032b2:	0000                	unimp
800032b4:	000003a3          	sb	zero,7(zero) # 7 <_start-0x7ffffff9>
800032b8:	00000153          	fadd.s	ft2,ft0,ft0,rne
800032bc:	037a                	slli	t1,t1,0x1e
800032be:	0000                	unimp
800032c0:	0251                	addi	tp,tp,20 # 14 <_start-0x7fffffec>
800032c2:	0000                	unimp
800032c4:	0188                	addi	a0,sp,192
800032c6:	0000                	unimp
800032c8:	0382                	c.slli	t2,0x0
800032ca:	0000                	unimp
800032cc:	02b6                	slli	t0,t0,0xd
800032ce:	0000                	unimp
800032d0:	00e4                	addi	s1,sp,76
800032d2:	0000                	unimp
800032d4:	03c1                	addi	t2,t2,16
800032d6:	0000                	unimp
800032d8:	000c                	.insn	2, 0x000c
800032da:	0000                	unimp
800032dc:	006e                	c.slli	zero,0x1b
800032de:	0000                	unimp
800032e0:	00000373          	.insn	4, 0x0373
800032e4:	0074                	addi	a3,sp,12
800032e6:	0000                	unimp
800032e8:	02ee                	slli	t0,t0,0x1b
800032ea:	0000                	unimp
800032ec:	0128                	addi	a0,sp,136
800032ee:	0000                	unimp
800032f0:	0286                	slli	t0,t0,0x1
800032f2:	0000                	unimp
800032f4:	01aa                	slli	gp,gp,0xa
800032f6:	0000                	unimp
800032f8:	01f4                	addi	a3,sp,204
800032fa:	0000                	unimp
800032fc:	013a                	slli	sp,sp,0xe
800032fe:	0000                	unimp
80003300:	01b4                	addi	a3,sp,200
80003302:	0000                	unimp
80003304:	00000293          	li	t0,0
80003308:	02bd                	addi	t0,t0,15
8000330a:	0000                	unimp
8000330c:	0306                	slli	t1,t1,0x1
8000330e:	0000                	unimp
80003310:	032c                	addi	a1,sp,392
80003312:	0000                	unimp
80003314:	0000013f 000003d5 	.insn	8, 0x03d50000013f
8000331c:	02a6                	slli	t0,t0,0x9
8000331e:	0000                	unimp
80003320:	0096                	slli	ra,ra,0x5
80003322:	0000                	unimp
80003324:	0000036b          	.insn	4, 0x036b
80003328:	02b8                	addi	a4,sp,328
8000332a:	0000                	unimp
8000332c:	0178                	addi	a4,sp,140
8000332e:	0000                	unimp
80003330:	0234                	addi	a3,sp,264
80003332:	0000                	unimp
80003334:	01da                	slli	gp,gp,0x16
80003336:	0000                	unimp
80003338:	0110                	addi	a2,sp,128
8000333a:	0000                	unimp
8000333c:	03aa                	slli	t2,t2,0xa
8000333e:	0000                	unimp
80003340:	0102                	c.slli	sp,0x0
80003342:	0000                	unimp
80003344:	0000021b          	.insn	4, 0x021b
80003348:	00000287          	vle8.v	v5,(zero),v0.t
8000334c:	0239                	addi	tp,tp,14 # e <_start-0x7ffffff2>
8000334e:	0000                	unimp
80003350:	01fd                	addi	gp,gp,31 # 800078f3 <__global_pointer$+0x1f>
80003352:	0000                	unimp
80003354:	000000cb          	fnmsub.s	ft1,ft0,ft0,ft0,rne
80003358:	0058                	addi	a4,sp,4
8000335a:	0000                	unimp
8000335c:	0118                	addi	a4,sp,128
8000335e:	0000                	unimp
80003360:	000002bf 000002f7 	.insn	8, 0x02f7000002bf
80003368:	029d                	addi	t0,t0,7
8000336a:	0000                	unimp
8000336c:	025e                	slli	tp,tp,0x17
8000336e:	0000                	unimp
80003370:	00000177          	.insn	4, 0x0177
80003374:	01ff 0000 0227 0000 	.insn	10, 0x029100000227000001ff
8000337c:	0291 
8000337e:	0000                	unimp
80003380:	03a8                	addi	a0,sp,456
80003382:	0000                	unimp
80003384:	000000c3          	fmadd.s	ft1,ft0,ft0,ft0,rne
80003388:	0250                	addi	a2,sp,260
8000338a:	0000                	unimp
8000338c:	0051                	c.nop	20
8000338e:	0000                	unimp
80003390:	0239                	addi	tp,tp,14 # e <_start-0x7ffffff2>
80003392:	0000                	unimp
80003394:	0000010b          	.insn	4, 0x010b
80003398:	03b8                	addi	a4,sp,456
8000339a:	0000                	unimp
8000339c:	00e5                	addi	ra,ra,25
8000339e:	0000                	unimp
800033a0:	0320                	addi	s0,sp,392
800033a2:	0000                	unimp
800033a4:	0151                	addi	sp,sp,20
800033a6:	0000                	unimp
800033a8:	0248                	addi	a0,sp,260
800033aa:	0000                	unimp
800033ac:	03b0                	addi	a2,sp,456
800033ae:	0000                	unimp
800033b0:	00000283          	lb	t0,0(zero) # 0 <_start-0x80000000>
800033b4:	0386                	slli	t2,t2,0x1
800033b6:	0000                	unimp
800033b8:	0170                	addi	a2,sp,140
800033ba:	0000                	unimp
800033bc:	00f1                	addi	ra,ra,28
800033be:	0000                	unimp
800033c0:	01e9                	addi	gp,gp,26 # 800078ee <__global_pointer$+0x1a>
800033c2:	0000                	unimp
800033c4:	0391                	addi	t2,t2,4
800033c6:	0000                	unimp
800033c8:	0148                	addi	a0,sp,132
800033ca:	0000                	unimp
800033cc:	033a                	slli	t1,t1,0xe
800033ce:	0000                	unimp
800033d0:	0139                	addi	sp,sp,14
800033d2:	0000                	unimp
800033d4:	03a5                	addi	t2,t2,9
800033d6:	0000                	unimp
800033d8:	0250                	addi	a2,sp,260
800033da:	0000                	unimp
800033dc:	03d9                	addi	t2,t2,22
800033de:	0000                	unimp
800033e0:	0184                	addi	s1,sp,192
800033e2:	0000                	unimp
800033e4:	000000c3          	fmadd.s	ft1,ft0,ft0,ft0,rne
800033e8:	021f 0000 03c0      	.insn	6, 0x03c00000021f
800033ee:	0000                	unimp
800033f0:	0289                	addi	t0,t0,2
800033f2:	0000                	unimp
800033f4:	0236                	slli	tp,tp,0xd
800033f6:	0000                	unimp
800033f8:	000003d3          	fadd.s	ft7,ft0,ft0,rne
800033fc:	015e                	slli	sp,sp,0x17
800033fe:	0000                	unimp
80003400:	03e5                	addi	t2,t2,25
80003402:	0000                	unimp
80003404:	0289                	addi	t0,t0,2
80003406:	0000                	unimp
80003408:	032e                	slli	t1,t1,0xb
8000340a:	0000                	unimp
8000340c:	0291                	addi	t0,t0,4
8000340e:	0000                	unimp
80003410:	0000004f          	fnmadd.s	ft0,ft0,ft0,ft0,rne
80003414:	00b5                	addi	ra,ra,13
80003416:	0000                	unimp
80003418:	00d0                	addi	a2,sp,68
8000341a:	0000                	unimp
8000341c:	0000006f          	j	8000341c <input_data+0x1c8>
80003420:	03e6                	slli	t2,t2,0x19
80003422:	0000                	unimp
80003424:	0000035b          	.insn	4, 0x035b
80003428:	0275                	addi	tp,tp,29 # 1d <_start-0x7fffffe3>
8000342a:	0000                	unimp
8000342c:	0041                	c.nop	16
8000342e:	0000                	unimp
80003430:	0000034f          	fnmadd.s	ft6,ft0,ft0,ft0,rne
80003434:	0120                	addi	s0,sp,136
80003436:	0000                	unimp
80003438:	02c0                	addi	s0,sp,324
8000343a:	0000                	unimp
8000343c:	015d                	addi	sp,sp,23
8000343e:	0000                	unimp
80003440:	03e5                	addi	t2,t2,25
80003442:	0000                	unimp
80003444:	008d                	addi	ra,ra,3
80003446:	0000                	unimp
80003448:	00fd                	addi	ra,ra,31
8000344a:	0000                	unimp
8000344c:	0389                	addi	t2,t2,2
8000344e:	0000                	unimp
80003450:	000002cb          	fnmsub.s	ft5,ft0,ft0,ft0,rne
80003454:	0376                	slli	t1,t1,0x1d
80003456:	0000                	unimp
80003458:	01ae                	slli	gp,gp,0xb
8000345a:	0000                	unimp
8000345c:	0108                	addi	a0,sp,128
8000345e:	0000                	unimp
80003460:	019f 0000 0240      	.insn	6, 0x02400000019f
80003466:	0000                	unimp
80003468:	021a                	slli	tp,tp,0x6
8000346a:	0000                	unimp
8000346c:	000003d3          	fadd.s	ft7,ft0,ft0,rne
80003470:	02bc                	addi	a5,sp,328
80003472:	0000                	unimp
80003474:	02f9                	addi	t0,t0,30
80003476:	0000                	unimp
80003478:	0004                	.insn	2, 0x0004
8000347a:	0000                	unimp
8000347c:	00f1                	addi	ra,ra,28
8000347e:	0000                	unimp
80003480:	01ee                	slli	gp,gp,0x1b
80003482:	0000                	unimp
80003484:	01de                	slli	gp,gp,0x17
80003486:	0000                	unimp
80003488:	0064                	addi	s1,sp,12
8000348a:	0000                	unimp
8000348c:	000001f3          	.insn	4, 0x01f3
80003490:	0360                	addi	s0,sp,396
80003492:	0000                	unimp
80003494:	00000193          	li	gp,0
80003498:	02b5                	addi	t0,t0,13
8000349a:	0000                	unimp
8000349c:	00de                	slli	ra,ra,0x17
8000349e:	0000                	unimp
800034a0:	01a0                	addi	s0,sp,200
800034a2:	0000                	unimp
800034a4:	01bc                	addi	a5,sp,200
800034a6:	0000                	unimp
800034a8:	0128                	addi	a0,sp,136
800034aa:	0000                	unimp
800034ac:	02d1                	addi	t0,t0,20
800034ae:	0000                	unimp
800034b0:	011d                	addi	sp,sp,7
800034b2:	0000                	unimp
800034b4:	02a4                	addi	s1,sp,328
800034b6:	0000                	unimp
800034b8:	026c                	addi	a1,sp,268
800034ba:	0000                	unimp
800034bc:	013d                	addi	sp,sp,15
800034be:	0000                	unimp
800034c0:	004e                	c.slli	zero,0x13
800034c2:	0000                	unimp
800034c4:	00e0                	addi	s0,sp,76
800034c6:	0000                	unimp
800034c8:	015f 0000 03a9      	.insn	6, 0x03a90000015f
800034ce:	0000                	unimp
800034d0:	021c                	addi	a5,sp,256
800034d2:	0000                	unimp
800034d4:	0120                	addi	s0,sp,136
800034d6:	0000                	unimp
800034d8:	0286                	slli	t0,t0,0x1
800034da:	0000                	unimp
800034dc:	00000077          	.insn	4, 0x0077
800034e0:	00a9                	addi	ra,ra,10
800034e2:	0000                	unimp
800034e4:	00000267          	jalr	tp,zero # 0 <_start-0x80000000>
800034e8:	0000020f          	.insn	4, 0x020f
800034ec:	025e                	slli	tp,tp,0x17
800034ee:	0000                	unimp
800034f0:	0121                	addi	sp,sp,8
800034f2:	0000                	unimp
800034f4:	0185                	addi	gp,gp,1 # 800078d5 <__global_pointer$+0x1>
800034f6:	0000                	unimp
800034f8:	031c                	addi	a5,sp,384
800034fa:	0000                	unimp
800034fc:	015f 0000 0321      	.insn	6, 0x03210000015f
80003502:	0000                	unimp
80003504:	000001c7          	fmsub.s	ft3,ft0,ft0,ft0,rne
80003508:	02d0                	addi	a2,sp,324
8000350a:	0000                	unimp
8000350c:	0116                	slli	sp,sp,0x5
8000350e:	0000                	unimp
80003510:	02f6                	slli	t0,t0,0x1d
80003512:	0000                	unimp
80003514:	0000016f          	jal	sp,80003514 <input_data+0x2c0>
80003518:	02e9                	addi	t0,t0,26
8000351a:	0000                	unimp
8000351c:	0166                	slli	sp,sp,0x19
8000351e:	0000                	unimp
80003520:	005c                	addi	a5,sp,4
80003522:	0000                	unimp
80003524:	0248                	addi	a0,sp,260
80003526:	0000                	unimp
80003528:	03dd                	addi	t2,t2,23
8000352a:	0000                	unimp
8000352c:	003e                	c.slli	zero,0xf
8000352e:	0000                	unimp
80003530:	0000010f          	.insn	4, 0x010f
80003534:	03d9                	addi	t2,t2,22
80003536:	0000                	unimp
80003538:	0355                	addi	t1,t1,21
8000353a:	0000                	unimp
8000353c:	00000193          	li	gp,0
80003540:	0314                	addi	a3,sp,384
80003542:	0000                	unimp
80003544:	015a                	slli	sp,sp,0x16
80003546:	0000                	unimp
80003548:	00000213          	li	tp,0
8000354c:	0205                	addi	tp,tp,1 # 1 <_start-0x7fffffff>
8000354e:	0000                	unimp
80003550:	00de                	slli	ra,ra,0x17
80003552:	0000                	unimp
80003554:	0000022f          	.insn	4, 0x022f
80003558:	01cd                	addi	gp,gp,19 # 800078e7 <__global_pointer$+0x13>
8000355a:	0000                	unimp
8000355c:	038c                	addi	a1,sp,448
8000355e:	0000                	unimp
80003560:	00f1                	addi	ra,ra,28
80003562:	0000                	unimp
80003564:	00000307          	vle8.v	v6,(zero),v0.t
80003568:	0166                	slli	sp,sp,0x19
8000356a:	0000                	unimp
8000356c:	00ff 0000 014c 0000 	.insn	10, 0x030a0000014c000000ff
80003574:	030a 
80003576:	0000                	unimp
80003578:	02ac                	addi	a1,sp,328
8000357a:	0000                	unimp
8000357c:	0256                	slli	tp,tp,0x15
8000357e:	0000                	unimp
80003580:	02e4                	addi	s1,sp,332
80003582:	0000                	unimp
80003584:	0000008f          	.insn	4, 0x008f
80003588:	01be                	slli	gp,gp,0xf
8000358a:	0000                	unimp
8000358c:	0021                	c.nop	8
8000358e:	0000                	unimp
80003590:	00000137          	lui	sp,0x0
80003594:	007d                	c.nop	31
80003596:	0000                	unimp
80003598:	000002e7          	jalr	t0,zero # 0 <_start-0x80000000>
8000359c:	03ad                	addi	t2,t2,11
8000359e:	0000                	unimp
800035a0:	022d                	addi	tp,tp,11 # b <_start-0x7ffffff5>
800035a2:	0000                	unimp
800035a4:	03a5                	addi	t2,t2,9
800035a6:	0000                	unimp
800035a8:	01df 0000 031f      	.insn	6, 0x031f000001df
800035ae:	0000                	unimp
800035b0:	022d                	addi	tp,tp,11 # b <_start-0x7ffffff5>
800035b2:	0000                	unimp
800035b4:	0229                	addi	tp,tp,10 # a <_start-0x7ffffff6>
800035b6:	0000                	unimp
800035b8:	039d                	addi	t2,t2,7
800035ba:	0000                	unimp
800035bc:	000001af          	.insn	4, 0x01af
800035c0:	031c                	addi	a5,sp,384
800035c2:	0000                	unimp
800035c4:	0288                	addi	a0,sp,320
800035c6:	0000                	unimp
800035c8:	0165                	addi	sp,sp,25 # 19 <_start-0x7fffffe7>
800035ca:	0000                	unimp
800035cc:	03b8                	addi	a4,sp,456
800035ce:	0000                	unimp
800035d0:	0000037b          	.insn	4, 0x037b
800035d4:	011f 0000 029a      	.insn	6, 0x029a0000011f
800035da:	0000                	unimp
800035dc:	00000013          	nop
800035e0:	0202                	c.slli	tp,0x0
800035e2:	0000                	unimp
800035e4:	0031                	c.nop	12
800035e6:	0000                	unimp
800035e8:	022d                	addi	tp,tp,11 # b <_start-0x7ffffff5>
800035ea:	0000                	unimp
800035ec:	0056                	c.slli	zero,0x15
800035ee:	0000                	unimp
800035f0:	0366                	slli	t1,t1,0x19
800035f2:	0000                	unimp
800035f4:	005f 0000 0355      	.insn	6, 0x03550000005f
800035fa:	0000                	unimp
800035fc:	01b9                	addi	gp,gp,14 # 800078e2 <__global_pointer$+0xe>
800035fe:	0000                	unimp
80003600:	01b8                	addi	a4,sp,200
80003602:	0000                	unimp
80003604:	0000024b          	fnmsub.s	ft4,ft0,ft0,ft0,rne
80003608:	003d                	c.nop	15
8000360a:	0000                	unimp
8000360c:	0266                	slli	tp,tp,0x19
8000360e:	0000                	unimp
80003610:	02a6                	slli	t0,t0,0x9
80003612:	0000                	unimp
80003614:	017e                	slli	sp,sp,0x1f
80003616:	0000                	unimp
80003618:	018c                	addi	a1,sp,192
8000361a:	0000                	unimp
8000361c:	0118                	addi	a4,sp,128
8000361e:	0000                	unimp
80003620:	0009                	c.nop	2
80003622:	0000                	unimp
80003624:	0328                	addi	a0,sp,392
80003626:	0000                	unimp
80003628:	0011                	c.nop	4
8000362a:	0000                	unimp
8000362c:	000003cb          	fnmsub.s	ft7,ft0,ft0,ft0,rne
80003630:	00aa                	slli	ra,ra,0xa
80003632:	0000                	unimp
80003634:	00000333          	add	t1,zero,zero
80003638:	00000123          	sb	zero,2(zero) # 2 <_start-0x7ffffffe>
8000363c:	0158                	addi	a4,sp,132
8000363e:	0000                	unimp
80003640:	017c                	addi	a5,sp,140
80003642:	0000                	unimp
80003644:	01c2                	slli	gp,gp,0x10
80003646:	0000                	unimp
80003648:	0218                	addi	a4,sp,256
8000364a:	0000                	unimp
8000364c:	0200                	addi	s0,sp,256
8000364e:	0000                	unimp
80003650:	00b9                	addi	ra,ra,14
80003652:	0000                	unimp
80003654:	03c5                	addi	t2,t2,17
80003656:	0000                	unimp
80003658:	0395                	addi	t2,t2,5
8000365a:	0000                	unimp
8000365c:	0000015b          	.insn	4, 0x015b
80003660:	0000021b          	.insn	4, 0x021b
80003664:	0328                	addi	a0,sp,392
80003666:	0000                	unimp
80003668:	000003d7          	vadd.vv	v7,v0,v0,v0.t
8000366c:	0372                	slli	t1,t1,0x1c
8000366e:	0000                	unimp
80003670:	00000377          	.insn	4, 0x0377
80003674:	0219                	addi	tp,tp,6 # 6 <_start-0x7ffffffa>
80003676:	0000                	unimp
80003678:	0036                	c.slli	zero,0xd
8000367a:	0000                	unimp
8000367c:	03b2                	slli	t2,t2,0xc
8000367e:	0000                	unimp
80003680:	0264                	addi	s1,sp,268
80003682:	0000                	unimp
80003684:	02bd                	addi	t0,t0,15
80003686:	0000                	unimp
80003688:	000003b7          	lui	t2,0x0
8000368c:	0164                	addi	s1,sp,140
8000368e:	0000                	unimp
80003690:	01df 0000 0237      	.insn	6, 0x0237000001df
80003696:	0000                	unimp
80003698:	00000097          	auipc	ra,0x0
8000369c:	0000037b          	.insn	4, 0x037b
800036a0:	00000007          	vle8.v	v0,(zero),v0.t
800036a4:	0016                	c.slli	zero,0x5
800036a6:	0000                	unimp
800036a8:	0281                	addi	t0,t0,0
800036aa:	0000                	unimp
800036ac:	0238                	addi	a4,sp,264
800036ae:	0000                	unimp
800036b0:	0000014f          	fnmadd.s	ft2,ft0,ft0,ft0,rne
800036b4:	0299                	addi	t0,t0,6
800036b6:	0000                	unimp
800036b8:	02da                	slli	t0,t0,0x16
800036ba:	0000                	unimp
800036bc:	000001a7          	vse8.v	v3,(zero),v0.t
800036c0:	005f 0000 01b2      	.insn	6, 0x01b20000005f
800036c6:	0000                	unimp
800036c8:	02d8                	addi	a4,sp,324
800036ca:	0000                	unimp
800036cc:	009e                	slli	ra,ra,0x7
800036ce:	0000                	unimp
800036d0:	0118                	addi	a4,sp,128
800036d2:	0000                	unimp
800036d4:	0002                	c.slli	zero,0x0
800036d6:	0000                	unimp
800036d8:	0000018b          	.insn	4, 0x018b
800036dc:	0054                	addi	a3,sp,4
800036de:	0000                	unimp
800036e0:	02b0                	addi	a2,sp,328
800036e2:	0000                	unimp
800036e4:	000000f7          	.insn	4, 0x00f7
800036e8:	0000038f          	.insn	4, 0x038f
800036ec:	0031                	c.nop	12
800036ee:	0000                	unimp
800036f0:	01dc                	addi	a5,sp,196
800036f2:	0000                	unimp
800036f4:	000001b3          	add	gp,zero,zero
800036f8:	0000032f          	.insn	4, 0x032f
800036fc:	0318                	addi	a4,sp,384
800036fe:	0000                	unimp
80003700:	02d9                	addi	t0,t0,22
80003702:	0000                	unimp
80003704:	0365                	addi	t1,t1,25
80003706:	0000                	unimp
80003708:	0109                	addi	sp,sp,2
8000370a:	0000                	unimp
8000370c:	01e6                	slli	gp,gp,0x19
8000370e:	0000                	unimp
80003710:	007f 0000 019e 0000 	.insn	10, 0x00ec0000019e0000007f
80003718:	00ec 
8000371a:	0000                	unimp
8000371c:	0171                	addi	sp,sp,28
8000371e:	0000                	unimp
80003720:	00d6                	slli	ra,ra,0x15
80003722:	0000                	unimp
80003724:	0224                	addi	s1,sp,264
80003726:	0000                	unimp
80003728:	00b4                	addi	a3,sp,72
8000372a:	0000                	unimp
8000372c:	0206                	slli	tp,tp,0x1
8000372e:	0000                	unimp
80003730:	0006                	c.slli	zero,0x1
80003732:	0000                	unimp
80003734:	0378                	addi	a4,sp,396
80003736:	0000                	unimp
80003738:	000001f7          	.insn	4, 0x01f7
8000373c:	02aa                	slli	t0,t0,0xa
8000373e:	0000                	unimp
80003740:	0254                	addi	a3,sp,260
80003742:	0000                	unimp
80003744:	011c                	addi	a5,sp,128
80003746:	0000                	unimp
80003748:	00ad                	addi	ra,ra,11 # 800036a3 <input_data+0x44f>
8000374a:	0000                	unimp
8000374c:	0108                	addi	a0,sp,128
8000374e:	0000                	unimp
80003750:	00000283          	lb	t0,0(zero) # 0 <_start-0x80000000>
80003754:	000001f3          	.insn	4, 0x01f3
80003758:	015a                	slli	sp,sp,0x16
8000375a:	0000                	unimp
8000375c:	0122                	slli	sp,sp,0x8
8000375e:	0000                	unimp
80003760:	00000257          	vadd.vv	v4,v0,v0,v0.t
80003764:	0381                	addi	t2,t2,0 # 0 <_start-0x80000000>
80003766:	0000                	unimp
80003768:	0044                	addi	s1,sp,4
8000376a:	0000                	unimp
8000376c:	000000d7          	vadd.vv	v1,v0,v0,v0.t
80003770:	0351                	addi	t1,t1,20
80003772:	0000                	unimp
80003774:	000002db          	.insn	4, 0x02db
80003778:	0292                	slli	t0,t0,0x4
8000377a:	0000                	unimp
8000377c:	02b0                	addi	a2,sp,328
8000377e:	0000                	unimp
80003780:	0000026b          	.insn	4, 0x026b
80003784:	000000fb          	.insn	4, 0x00fb
80003788:	0079                	c.nop	30
8000378a:	0000                	unimp
8000378c:	0312                	slli	t1,t1,0x4
8000378e:	0000                	unimp
80003790:	00000083          	lb	ra,0(zero) # 0 <_start-0x80000000>
80003794:	0000022b          	.insn	4, 0x022b
80003798:	033c                	addi	a5,sp,392
8000379a:	0000                	unimp
8000379c:	012e                	slli	sp,sp,0xb
8000379e:	0000                	unimp
800037a0:	0000029b          	.insn	4, 0x029b
800037a4:	0210                	addi	a2,sp,256
800037a6:	0000                	unimp
800037a8:	01b1                	addi	gp,gp,12 # 800078e0 <__global_pointer$+0xc>
800037aa:	0000                	unimp
800037ac:	0220                	addi	s0,sp,264
800037ae:	0000                	unimp
800037b0:	000001e7          	jalr	gp,zero # 0 <_start-0x80000000>
800037b4:	0142                	slli	sp,sp,0x10
800037b6:	0000                	unimp
800037b8:	02f1                	addi	t0,t0,28
800037ba:	0000                	unimp
800037bc:	000003b3          	add	t2,zero,zero
800037c0:	007d                	c.nop	31
800037c2:	0000                	unimp
800037c4:	011f 0000 0272      	.insn	6, 0x02720000011f
800037ca:	0000                	unimp
800037cc:	0338                	addi	a4,sp,392
800037ce:	0000                	unimp
800037d0:	000e                	c.slli	zero,0x3
800037d2:	0000                	unimp
800037d4:	0130                	addi	a2,sp,136
800037d6:	0000                	unimp
800037d8:	000a                	c.slli	zero,0x2
800037da:	0000                	unimp
800037dc:	0314                	addi	a3,sp,384
800037de:	0000                	unimp
800037e0:	00000193          	li	gp,0
800037e4:	02dd                	addi	t0,t0,23
800037e6:	0000                	unimp
800037e8:	006a                	c.slli	zero,0x1a
800037ea:	0000                	unimp
800037ec:	000003bf 000002bf 	.insn	8, 0x02bf000003bf
800037f4:	016e                	slli	sp,sp,0x1b
800037f6:	0000                	unimp
800037f8:	0332                	slli	t1,t1,0xc
800037fa:	0000                	unimp
800037fc:	02d2                	slli	t0,t0,0x14
800037fe:	0000                	unimp
80003800:	03c4                	addi	s1,sp,452
80003802:	0000                	unimp
80003804:	0126                	slli	sp,sp,0x9
80003806:	0000                	unimp
80003808:	0196                	slli	gp,gp,0x5
8000380a:	0000                	unimp
8000380c:	000003cf          	fnmadd.s	ft7,ft0,ft0,ft0,rne
80003810:	036a                	slli	t1,t1,0x1a
80003812:	0000                	unimp
80003814:	028d                	addi	t0,t0,3
80003816:	0000                	unimp
80003818:	0358                	addi	a4,sp,388
8000381a:	0000                	unimp
8000381c:	02ec                	addi	a1,sp,332
8000381e:	0000                	unimp
80003820:	0056                	c.slli	zero,0x15
80003822:	0000                	unimp
80003824:	0000005b          	.insn	4, 0x005b
80003828:	003c                	addi	a5,sp,8
8000382a:	0000                	unimp
8000382c:	017a                	slli	sp,sp,0x1e
8000382e:	0000                	unimp
80003830:	0294                	addi	a3,sp,320
80003832:	0000                	unimp
80003834:	0069                	c.nop	26
80003836:	0000                	unimp
80003838:	0000029b          	.insn	4, 0x029b
8000383c:	0066                	c.slli	zero,0x19
8000383e:	0000                	unimp
80003840:	0099                	addi	ra,ra,6
80003842:	0000                	unimp
80003844:	017d                	addi	sp,sp,31
80003846:	0000                	unimp
80003848:	0079                	c.nop	30
8000384a:	0000                	unimp
8000384c:	0000028b          	.insn	4, 0x028b
80003850:	0062                	c.slli	zero,0x18
80003852:	0000                	unimp
80003854:	0339                	addi	t1,t1,14
80003856:	0000                	unimp
80003858:	019c                	addi	a5,sp,192
8000385a:	0000                	unimp
8000385c:	0348                	addi	a0,sp,388
8000385e:	0000                	unimp
80003860:	00ec                	addi	a1,sp,76
80003862:	0000                	unimp
80003864:	0164                	addi	s1,sp,140
80003866:	0000                	unimp
80003868:	000c                	.insn	2, 0x000c
8000386a:	0000                	unimp
8000386c:	0094                	addi	a3,sp,64
8000386e:	0000                	unimp
80003870:	000001a7          	vse8.v	v3,(zero),v0.t
80003874:	0036                	c.slli	zero,0xd
80003876:	0000                	unimp
80003878:	03c5                	addi	t2,t2,17
8000387a:	0000                	unimp
8000387c:	008c                	addi	a1,sp,64
8000387e:	0000                	unimp
80003880:	00d8                	addi	a4,sp,68
80003882:	0000                	unimp
80003884:	000003bb          	.insn	4, 0x03bb
80003888:	026d                	addi	tp,tp,27 # 1b <_start-0x7fffffe5>
8000388a:	0000                	unimp
8000388c:	00000157          	vadd.vv	v2,v0,v0,v0.t
80003890:	0169                	addi	sp,sp,26
80003892:	0000                	unimp
80003894:	0215                	addi	tp,tp,5 # 5 <_start-0x7ffffffb>
80003896:	0000                	unimp
80003898:	0399                	addi	t2,t2,6
8000389a:	0000                	unimp
8000389c:	02f5                	addi	t0,t0,29
8000389e:	0000                	unimp
800038a0:	000002cb          	fnmsub.s	ft5,ft0,ft0,ft0,rne
800038a4:	0209                	addi	tp,tp,2 # 2 <_start-0x7ffffffe>
800038a6:	0000                	unimp
800038a8:	00000287          	vle8.v	v5,(zero),v0.t
800038ac:	0345                	addi	t1,t1,17
800038ae:	0000                	unimp
800038b0:	0000012b          	.insn	4, 0x012b
800038b4:	0250                	addi	a2,sp,260
800038b6:	0000                	unimp
800038b8:	0376                	slli	t1,t1,0x1d
800038ba:	0000                	unimp
800038bc:	000d                	c.nop	3
800038be:	0000                	unimp
800038c0:	02aa                	slli	t0,t0,0xa
800038c2:	0000                	unimp
800038c4:	00ad                	addi	ra,ra,11
800038c6:	0000                	unimp
800038c8:	0024                	addi	s1,sp,8
800038ca:	0000                	unimp
800038cc:	0000003f 000001ed 	.insn	8, 0x01ed0000003f
800038d4:	0079                	c.nop	30
800038d6:	0000                	unimp
800038d8:	00000227          	vse8.v	v4,(zero),v0.t
800038dc:	0085                	addi	ra,ra,1
800038de:	0000                	unimp
800038e0:	0219                	addi	tp,tp,6 # 6 <_start-0x7ffffffa>
800038e2:	0000                	unimp
800038e4:	02f6                	slli	t0,t0,0x1d
800038e6:	0000                	unimp
800038e8:	03c9                	addi	t2,t2,18
800038ea:	0000                	unimp
800038ec:	0174                	addi	a3,sp,140
800038ee:	0000                	unimp
800038f0:	00000283          	lb	t0,0(zero) # 0 <_start-0x80000000>
800038f4:	000003b7          	lui	t2,0x0
800038f8:	01b2                	slli	gp,gp,0xc
800038fa:	0000                	unimp
800038fc:	00000027          	vse8.v	v0,(zero),v0.t
80003900:	019f 0000 0081      	.insn	6, 0x00810000019f
80003906:	0000                	unimp
80003908:	0000012f          	.insn	4, 0x012f
8000390c:	006e                	c.slli	zero,0x1b
8000390e:	0000                	unimp
80003910:	01b6                	slli	gp,gp,0xd
80003912:	0000                	unimp
80003914:	0000034f          	fnmadd.s	ft6,ft0,ft0,ft0,rne
80003918:	035c                	addi	a5,sp,388
8000391a:	0000                	unimp
8000391c:	01b5                	addi	gp,gp,13 # 800078e1 <__global_pointer$+0xd>
8000391e:	0000                	unimp
80003920:	000000cb          	fnmsub.s	ft1,ft0,ft0,ft0,rne
80003924:	00ff 0000 01de 0000 	.insn	10, 0x010d000001de000000ff
8000392c:	010d 
8000392e:	0000                	unimp
80003930:	03dc                	addi	a5,sp,452
80003932:	0000                	unimp
80003934:	0199                	addi	gp,gp,6 # 800078da <__global_pointer$+0x6>
80003936:	0000                	unimp
80003938:	000002a3          	sb	zero,5(zero) # 5 <_start-0x7ffffffb>
8000393c:	0274                	addi	a3,sp,268
8000393e:	0000                	unimp
80003940:	000002cf          	fnmadd.s	ft5,ft0,ft0,ft0,rne
80003944:	0000018f          	.insn	4, 0x018f
80003948:	03de                	slli	t2,t2,0x17
8000394a:	0000                	unimp
8000394c:	0225                	addi	tp,tp,9 # 9 <_start-0x7ffffff7>
8000394e:	0000                	unimp
80003950:	0152                	slli	sp,sp,0x14
80003952:	0000                	unimp
80003954:	02f1                	addi	t0,t0,28
80003956:	0000                	unimp
80003958:	01c2                	slli	gp,gp,0x10
8000395a:	0000                	unimp
8000395c:	0234                	addi	a3,sp,264
8000395e:	0000                	unimp
80003960:	0279                	addi	tp,tp,30 # 1e <_start-0x7fffffe2>
80003962:	0000                	unimp
80003964:	000000ab          	.insn	4, 0x00ab
80003968:	0000009b          	.insn	4, 0x009b
8000396c:	00000013          	nop
80003970:	0286                	slli	t0,t0,0x1
80003972:	0000                	unimp
80003974:	000002d7          	vadd.vv	v5,v0,v0,v0.t
80003978:	01c4                	addi	s1,sp,196
8000397a:	0000                	unimp
8000397c:	01f5                	addi	gp,gp,29 # 800078f1 <__global_pointer$+0x1d>
8000397e:	0000                	unimp
80003980:	000001ab          	.insn	4, 0x01ab
80003984:	0309                	addi	t1,t1,2
80003986:	0000                	unimp
80003988:	01fd                	addi	gp,gp,31 # 800078f3 <__global_pointer$+0x1f>
8000398a:	0000                	unimp
8000398c:	0000002b          	.insn	4, 0x002b
80003990:	03dc                	addi	a5,sp,452
80003992:	0000                	unimp
80003994:	02f1                	addi	t0,t0,28
80003996:	0000                	unimp
80003998:	01aa                	slli	gp,gp,0xa
8000399a:	0000                	unimp
8000399c:	0051                	c.nop	20
8000399e:	0000                	unimp
800039a0:	000c                	.insn	2, 0x000c
800039a2:	0000                	unimp
800039a4:	00ca                	slli	ra,ra,0x12
800039a6:	0000                	unimp
800039a8:	000001e3          	beqz	zero,800041aa <input_data+0xf56>
800039ac:	0355                	addi	t1,t1,21
800039ae:	0000                	unimp
800039b0:	008e                	slli	ra,ra,0x3
800039b2:	0000                	unimp
800039b4:	0099                	addi	ra,ra,6
800039b6:	0000                	unimp
800039b8:	00000153          	fadd.s	ft2,ft0,ft0,rne
800039bc:	02f8                	addi	a4,sp,332
800039be:	0000                	unimp
800039c0:	0186                	slli	gp,gp,0x1
800039c2:	0000                	unimp
800039c4:	0165                	addi	sp,sp,25
800039c6:	0000                	unimp
800039c8:	0032                	c.slli	zero,0xc
800039ca:	0000                	unimp
800039cc:	000003af          	.insn	4, 0x03af
800039d0:	000000ab          	.insn	4, 0x00ab
800039d4:	039a                	slli	t2,t2,0x6
800039d6:	0000                	unimp
800039d8:	0259                	addi	tp,tp,22 # 16 <_start-0x7fffffea>
800039da:	0000                	unimp
800039dc:	0148                	addi	a0,sp,132
800039de:	0000                	unimp
800039e0:	0069                	c.nop	26
800039e2:	0000                	unimp
800039e4:	01f0                	addi	a2,sp,204
800039e6:	0000                	unimp
800039e8:	03c8                	addi	a0,sp,452
800039ea:	0000                	unimp
800039ec:	01ba                	slli	gp,gp,0xe
800039ee:	0000                	unimp
800039f0:	0079                	c.nop	30
800039f2:	0000                	unimp
800039f4:	0204                	addi	s1,sp,256
800039f6:	0000                	unimp
800039f8:	0000036f          	jal	t1,800039f8 <input_data+0x7a4>
800039fc:	0281                	addi	t0,t0,0
800039fe:	0000                	unimp
80003a00:	0051                	c.nop	20
80003a02:	0000                	unimp
80003a04:	0114                	addi	a3,sp,128
80003a06:	0000                	unimp
80003a08:	0366                	slli	t1,t1,0x19
80003a0a:	0000                	unimp
80003a0c:	0312                	slli	t1,t1,0x4
80003a0e:	0000                	unimp
80003a10:	0258                	addi	a4,sp,260
80003a12:	0000                	unimp
80003a14:	0071                	c.nop	28
80003a16:	0000                	unimp
80003a18:	0000025b          	.insn	4, 0x025b
80003a1c:	034a                	slli	t1,t1,0x12
80003a1e:	0000                	unimp
80003a20:	00000367          	jalr	t1,zero # 0 <_start-0x80000000>
80003a24:	0000038b          	.insn	4, 0x038b
80003a28:	00000377          	.insn	4, 0x0377
80003a2c:	00000113          	li	sp,0
80003a30:	0262                	slli	tp,tp,0x18
80003a32:	0000                	unimp
80003a34:	00ed                	addi	ra,ra,27
80003a36:	0000                	unimp
80003a38:	0194                	addi	a3,sp,192
80003a3a:	0000                	unimp
80003a3c:	0020                	addi	s0,sp,8
80003a3e:	0000                	unimp
80003a40:	00ea                	slli	ra,ra,0x1a
80003a42:	0000                	unimp
80003a44:	0310                	addi	a2,sp,384
80003a46:	0000                	unimp
80003a48:	02e9                	addi	t0,t0,26
80003a4a:	0000                	unimp
80003a4c:	0235                	addi	tp,tp,13 # d <_start-0x7ffffff3>
80003a4e:	0000                	unimp
80003a50:	020e                	slli	tp,tp,0x3
80003a52:	0000                	unimp
80003a54:	0165                	addi	sp,sp,25
80003a56:	0000                	unimp
80003a58:	00000113          	li	sp,0
80003a5c:	00000323          	sb	zero,6(zero) # 6 <_start-0x7ffffffa>
80003a60:	01b9                	addi	gp,gp,14 # 800078e2 <__global_pointer$+0xe>
80003a62:	0000                	unimp
80003a64:	00000333          	add	t1,zero,zero
80003a68:	00e2                	slli	ra,ra,0x18
80003a6a:	0000                	unimp
80003a6c:	000002ef          	jal	t0,80003a6c <input_data+0x818>
80003a70:	02f0                	addi	a2,sp,332
80003a72:	0000                	unimp
80003a74:	0118                	addi	a4,sp,128
80003a76:	0000                	unimp
80003a78:	000003af          	.insn	4, 0x03af
80003a7c:	0055                	c.nop	21
80003a7e:	0000                	unimp
80003a80:	02d6                	slli	t0,t0,0x15
80003a82:	0000                	unimp
80003a84:	01ca                	slli	gp,gp,0x12
80003a86:	0000                	unimp
80003a88:	02c5                	addi	t0,t0,17
80003a8a:	0000                	unimp
80003a8c:	01c6                	slli	gp,gp,0x11
80003a8e:	0000                	unimp
80003a90:	00c9                	addi	ra,ra,18
80003a92:	0000                	unimp
80003a94:	02c6                	slli	t0,t0,0x11
80003a96:	0000                	unimp
80003a98:	0036                	c.slli	zero,0xd
80003a9a:	0000                	unimp
80003a9c:	000001cb          	fnmsub.s	ft3,ft0,ft0,ft0,rne
80003aa0:	02f6                	slli	t0,t0,0x1d
80003aa2:	0000                	unimp
80003aa4:	0029                	c.nop	10
80003aa6:	0000                	unimp
80003aa8:	0035                	c.nop	13
80003aaa:	0000                	unimp
80003aac:	00fd                	addi	ra,ra,31
80003aae:	0000                	unimp
80003ab0:	018d                	addi	gp,gp,3 # 800078d7 <__global_pointer$+0x3>
80003ab2:	0000                	unimp
80003ab4:	0179                	addi	sp,sp,30
80003ab6:	0000                	unimp
80003ab8:	0029                	c.nop	10
80003aba:	0000                	unimp
80003abc:	01fc                	addi	a5,sp,204
80003abe:	0000                	unimp
80003ac0:	008d                	addi	ra,ra,3
80003ac2:	0000                	unimp
80003ac4:	02bc                	addi	a5,sp,328
80003ac6:	0000                	unimp
80003ac8:	01a0                	addi	s0,sp,200
80003aca:	0000                	unimp
80003acc:	035c                	addi	a5,sp,388
80003ace:	0000                	unimp
80003ad0:	000002eb          	.insn	4, 0x02eb
80003ad4:	01e0                	addi	s0,sp,204
80003ad6:	0000                	unimp
80003ad8:	000000db          	.insn	4, 0x00db
80003adc:	02e5                	addi	t0,t0,25
80003ade:	0000                	unimp
80003ae0:	01de                	slli	gp,gp,0x17
80003ae2:	0000                	unimp
80003ae4:	000001f3          	.insn	4, 0x01f3
80003ae8:	0302                	c.slli	t1,0x0
80003aea:	0000                	unimp
80003aec:	02c5                	addi	t0,t0,17
80003aee:	0000                	unimp
80003af0:	00b4                	addi	a3,sp,72
80003af2:	0000                	unimp
80003af4:	0031                	c.nop	12
80003af6:	0000                	unimp
80003af8:	01e2                	slli	gp,gp,0x18
80003afa:	0000                	unimp
80003afc:	00000173          	.insn	4, 0x0173
80003b00:	000002b3          	add	t0,zero,zero
80003b04:	0369                	addi	t1,t1,26
80003b06:	0000                	unimp
80003b08:	02d5                	addi	t0,t0,21
80003b0a:	0000                	unimp
80003b0c:	03b1                	addi	t2,t2,12 # c <_start-0x7ffffff4>
80003b0e:	0000                	unimp
80003b10:	00ad                	addi	ra,ra,11
80003b12:	0000                	unimp
80003b14:	03e0                	addi	s0,sp,460
80003b16:	0000                	unimp
80003b18:	00ba                	slli	ra,ra,0xe
80003b1a:	0000                	unimp
80003b1c:	020e                	slli	tp,tp,0x3
80003b1e:	0000                	unimp
80003b20:	0392                	slli	t2,t2,0x4
80003b22:	0000                	unimp
80003b24:	02d1                	addi	t0,t0,20
80003b26:	0000                	unimp
80003b28:	0001                	nop
80003b2a:	0000                	unimp
80003b2c:	000001b3          	add	gp,zero,zero
80003b30:	000003c3          	fmadd.s	ft7,ft0,ft0,ft0,rne
80003b34:	00e8                	addi	a0,sp,76
80003b36:	0000                	unimp
80003b38:	000000f7          	.insn	4, 0x00f7
80003b3c:	01f1                	addi	gp,gp,28 # 800078f0 <__global_pointer$+0x1c>
80003b3e:	0000                	unimp
80003b40:	01d0                	addi	a2,sp,196
80003b42:	0000                	unimp
80003b44:	02b9                	addi	t0,t0,14
80003b46:	0000                	unimp
80003b48:	016a                	slli	sp,sp,0x1a
80003b4a:	0000                	unimp
80003b4c:	001e                	c.slli	zero,0x7
80003b4e:	0000                	unimp
80003b50:	0209                	addi	tp,tp,2 # 2 <_start-0x7ffffffe>
80003b52:	0000                	unimp
80003b54:	015c                	addi	a5,sp,132
80003b56:	0000                	unimp
80003b58:	00e9                	addi	ra,ra,26
80003b5a:	0000                	unimp
80003b5c:	00fa                	slli	ra,ra,0x1e
80003b5e:	0000                	unimp
80003b60:	0078                	addi	a4,sp,12
80003b62:	0000                	unimp
80003b64:	015e                	slli	sp,sp,0x17
80003b66:	0000                	unimp
80003b68:	0028                	addi	a0,sp,8
80003b6a:	0000                	unimp
80003b6c:	00fa                	slli	ra,ra,0x1e
80003b6e:	0000                	unimp
80003b70:	0000030b          	.insn	4, 0x030b
80003b74:	023d                	addi	tp,tp,15 # f <_start-0x7ffffff1>
80003b76:	0000                	unimp
80003b78:	000000c3          	fmadd.s	ft1,ft0,ft0,ft0,rne
80003b7c:	0310                	addi	a2,sp,384
80003b7e:	0000                	unimp
80003b80:	00a1                	addi	ra,ra,8
80003b82:	0000                	unimp
80003b84:	02ed                	addi	t0,t0,27
80003b86:	0000                	unimp
80003b88:	000002e7          	jalr	t0,zero # 0 <_start-0x80000000>
80003b8c:	01f6                	slli	gp,gp,0x1d
80003b8e:	0000                	unimp
80003b90:	000001b7          	lui	gp,0x0
80003b94:	00000337          	lui	t1,0x0
80003b98:	00000163          	beqz	zero,80003b9a <input_data+0x946>
80003b9c:	033a                	slli	t1,t1,0xe
80003b9e:	0000                	unimp
80003ba0:	00000193          	li	gp,0
80003ba4:	00aa                	slli	ra,ra,0xa
80003ba6:	0000                	unimp
80003ba8:	008d                	addi	ra,ra,3
80003baa:	0000                	unimp
80003bac:	00a0                	addi	s0,sp,72
80003bae:	0000                	unimp
80003bb0:	0279                	addi	tp,tp,30 # 1e <_start-0x7fffffe2>
80003bb2:	0000                	unimp
80003bb4:	02a2                	slli	t0,t0,0x8
80003bb6:	0000                	unimp
80003bb8:	0121                	addi	sp,sp,8
80003bba:	0000                	unimp
80003bbc:	0020                	addi	s0,sp,8
80003bbe:	0000                	unimp
80003bc0:	030e                	slli	t1,t1,0x3
80003bc2:	0000                	unimp
80003bc4:	00ca                	slli	ra,ra,0x12
80003bc6:	0000                	unimp
80003bc8:	0140                	addi	s0,sp,132
80003bca:	0000                	unimp
80003bcc:	0000008f          	.insn	4, 0x008f
80003bd0:	027c                	addi	a5,sp,268
80003bd2:	0000                	unimp
80003bd4:	0355                	addi	t1,t1,21 # 15 <_start-0x7fffffeb>
80003bd6:	0000                	unimp
80003bd8:	0076                	c.slli	zero,0x1d
80003bda:	0000                	unimp
80003bdc:	005a                	c.slli	zero,0x16
80003bde:	0000                	unimp
80003be0:	0354                	addi	a3,sp,388
80003be2:	0000                	unimp
80003be4:	018a                	slli	gp,gp,0x2
80003be6:	0000                	unimp
80003be8:	0046                	c.slli	zero,0x11
80003bea:	0000                	unimp
80003bec:	0000006b          	.insn	4, 0x006b
80003bf0:	0330                	addi	a2,sp,392
80003bf2:	0000                	unimp
80003bf4:	00000357          	vadd.vv	v6,v0,v0,v0.t
80003bf8:	0184                	addi	s1,sp,192
80003bfa:	0000                	unimp
80003bfc:	006a                	c.slli	zero,0x1a
80003bfe:	0000                	unimp
80003c00:	03ba                	slli	t2,t2,0xe
80003c02:	0000                	unimp
80003c04:	009d                	addi	ra,ra,7
80003c06:	0000                	unimp
80003c08:	0024                	addi	s1,sp,8
80003c0a:	0000                	unimp
80003c0c:	0006                	c.slli	zero,0x1
80003c0e:	0000                	unimp
80003c10:	0010                	.insn	2, 0x0010
80003c12:	0000                	unimp
80003c14:	02fd                	addi	t0,t0,31
80003c16:	0000                	unimp
80003c18:	02ba                	slli	t0,t0,0xe
80003c1a:	0000                	unimp
80003c1c:	00cc                	addi	a1,sp,68
80003c1e:	0000                	unimp
80003c20:	000002b7          	lui	t0,0x0
80003c24:	00c2                	slli	ra,ra,0x10
80003c26:	0000                	unimp
80003c28:	02a5                	addi	t0,t0,9 # 9 <_start-0x7ffffff7>
80003c2a:	0000                	unimp
80003c2c:	023e                	slli	tp,tp,0xf
80003c2e:	0000                	unimp
80003c30:	0256                	slli	tp,tp,0x15
80003c32:	0000                	unimp
80003c34:	00da                	slli	ra,ra,0x16
80003c36:	0000                	unimp
80003c38:	00000373          	.insn	4, 0x0373
80003c3c:	020e                	slli	tp,tp,0x3
80003c3e:	0000                	unimp
80003c40:	0338                	addi	a4,sp,392
80003c42:	0000                	unimp
80003c44:	00b1                	addi	ra,ra,12
80003c46:	0000                	unimp
80003c48:	02ea                	slli	t0,t0,0x1a
80003c4a:	0000                	unimp
80003c4c:	000000ef          	jal	80003c4c <input_data+0x9f8>
80003c50:	01ce                	slli	gp,gp,0x13
80003c52:	0000                	unimp
80003c54:	02ba                	slli	t0,t0,0xe
80003c56:	0000                	unimp
80003c58:	01ff 0000 02f5 0000 	.insn	10, 0x0216000002f5000001ff
80003c60:	0216 
80003c62:	0000                	unimp
80003c64:	02c2                	slli	t0,t0,0x10
80003c66:	0000                	unimp
80003c68:	01b8                	addi	a4,sp,200
80003c6a:	0000                	unimp
80003c6c:	0031                	c.nop	12
80003c6e:	0000                	unimp
80003c70:	01ac                	addi	a1,sp,200
80003c72:	0000                	unimp
80003c74:	0054                	addi	a3,sp,4
80003c76:	0000                	unimp
80003c78:	02dc                	addi	a5,sp,324
80003c7a:	0000                	unimp
80003c7c:	031f 0000 02d6      	.insn	6, 0x02d60000031f
80003c82:	0000                	unimp
80003c84:	037d                	addi	t1,t1,31
80003c86:	0000                	unimp
80003c88:	02be                	slli	t0,t0,0xf
80003c8a:	0000                	unimp
80003c8c:	0200                	addi	s0,sp,256
80003c8e:	0000                	unimp
80003c90:	00000223          	sb	zero,4(zero) # 4 <_start-0x7ffffffc>
80003c94:	0175                	addi	sp,sp,29
80003c96:	0000                	unimp
80003c98:	0056                	c.slli	zero,0x15
80003c9a:	0000                	unimp
80003c9c:	01ec                	addi	a1,sp,204
80003c9e:	0000                	unimp
80003ca0:	031e                	slli	t1,t1,0x7
80003ca2:	0000                	unimp
80003ca4:	000e                	c.slli	zero,0x3
80003ca6:	0000                	unimp
80003ca8:	000000d7          	vadd.vv	v1,v0,v0,v0.t
80003cac:	026d                	addi	tp,tp,27 # 1b <_start-0x7fffffe5>
80003cae:	0000                	unimp
80003cb0:	0015                	c.nop	5
80003cb2:	0000                	unimp
80003cb4:	00000053          	fadd.s	ft0,ft0,ft0,rne
80003cb8:	0000028b          	.insn	4, 0x028b
80003cbc:	00000067          	jr	zero # 0 <_start-0x80000000>
80003cc0:	0000003b          	.insn	4, 0x003b
80003cc4:	031a                	slli	t1,t1,0x6
80003cc6:	0000                	unimp
80003cc8:	01ad                	addi	gp,gp,11 # b <_start-0x7ffffff5>
80003cca:	0000                	unimp
80003ccc:	0399                	addi	t2,t2,6
80003cce:	0000                	unimp
80003cd0:	0291                	addi	t0,t0,4
80003cd2:	0000                	unimp
80003cd4:	00000283          	lb	t0,0(zero) # 0 <_start-0x80000000>
80003cd8:	0060                	addi	s0,sp,12
80003cda:	0000                	unimp
80003cdc:	0370                	addi	a2,sp,396
80003cde:	0000                	unimp
80003ce0:	03cd                	addi	t2,t2,19
80003ce2:	0000                	unimp
80003ce4:	0342                	slli	t1,t1,0x10
80003ce6:	0000                	unimp
80003ce8:	00000293          	li	t0,0
80003cec:	000000ef          	jal	80003cec <input_data+0xa98>
80003cf0:	03c6                	slli	t2,t2,0x11
80003cf2:	0000                	unimp
80003cf4:	01ce                	slli	gp,gp,0x13
80003cf6:	0000                	unimp
80003cf8:	020c                	addi	a1,sp,256
80003cfa:	0000                	unimp
80003cfc:	0072                	c.slli	zero,0x1c
80003cfe:	0000                	unimp
80003d00:	003e                	c.slli	zero,0xf
80003d02:	0000                	unimp
80003d04:	0231                	addi	tp,tp,12 # c <_start-0x7ffffff4>
80003d06:	0000                	unimp
80003d08:	0271                	addi	tp,tp,28 # 1c <_start-0x7fffffe4>
80003d0a:	0000                	unimp
80003d0c:	0211                	addi	tp,tp,4 # 4 <_start-0x7ffffffc>
80003d0e:	0000                	unimp
80003d10:	0000012f          	.insn	4, 0x012f
80003d14:	000a                	c.slli	zero,0x2
80003d16:	0000                	unimp
80003d18:	02ca                	slli	t0,t0,0x12
80003d1a:	0000                	unimp
80003d1c:	03e5                	addi	t2,t2,25
80003d1e:	0000                	unimp
80003d20:	0199                	addi	gp,gp,6 # 800078da <__global_pointer$+0x6>
80003d22:	0000                	unimp
80003d24:	0388                	addi	a0,sp,448
80003d26:	0000                	unimp
80003d28:	00000037          	lui	zero,0x0
80003d2c:	00000183          	lb	gp,0(zero) # 0 <_start-0x80000000>
80003d30:	02d8                	addi	a4,sp,324
80003d32:	0000                	unimp
80003d34:	00000197          	auipc	gp,0x0
80003d38:	0131                	addi	sp,sp,12
80003d3a:	0000                	unimp
80003d3c:	0069                	c.nop	26
80003d3e:	0000                	unimp
80003d40:	01b4                	addi	a3,sp,200
80003d42:	0000                	unimp
80003d44:	0000022f          	.insn	4, 0x022f
80003d48:	0385                	addi	t2,t2,1
80003d4a:	0000                	unimp
80003d4c:	03a8                	addi	a0,sp,456
80003d4e:	0000                	unimp
80003d50:	0250                	addi	a2,sp,260
80003d52:	0000                	unimp
80003d54:	0200                	addi	s0,sp,256
80003d56:	0000                	unimp
80003d58:	000002b3          	add	t0,zero,zero
80003d5c:	0199                	addi	gp,gp,6 # 80003d3a <input_data+0xae6>
80003d5e:	0000                	unimp
80003d60:	031c                	addi	a5,sp,384
80003d62:	0000                	unimp
80003d64:	012e                	slli	sp,sp,0xb
80003d66:	0000                	unimp
80003d68:	01f1                	addi	gp,gp,28 # 800078f0 <__global_pointer$+0x1c>
80003d6a:	0000                	unimp
80003d6c:	00ca                	slli	ra,ra,0x12
80003d6e:	0000                	unimp
80003d70:	00b1                	addi	ra,ra,12
80003d72:	0000                	unimp
80003d74:	000001ab          	.insn	4, 0x01ab
80003d78:	03ac                	addi	a1,sp,456
80003d7a:	0000                	unimp
80003d7c:	0265                	addi	tp,tp,25 # 19 <_start-0x7fffffe7>
80003d7e:	0000                	unimp
80003d80:	000003e3          	beqz	zero,80004586 <input_data+0x1332>
80003d84:	00000167          	jalr	sp,zero # 0 <_start-0x80000000>
80003d88:	01e0                	addi	s0,sp,204
80003d8a:	0000                	unimp
80003d8c:	0209                	addi	tp,tp,2 # 2 <_start-0x7ffffffe>
80003d8e:	0000                	unimp
80003d90:	009e                	slli	ra,ra,0x7
80003d92:	0000                	unimp
80003d94:	02ac                	addi	a1,sp,328
80003d96:	0000                	unimp
80003d98:	0336                	slli	t1,t1,0xd
80003d9a:	0000                	unimp
80003d9c:	0016                	c.slli	zero,0x5
80003d9e:	0000                	unimp
80003da0:	00000263          	beqz	zero,80003da4 <input_data+0xb50>
80003da4:	00b9                	addi	ra,ra,14
80003da6:	0000                	unimp
80003da8:	02a8                	addi	a0,sp,328
80003daa:	0000                	unimp
80003dac:	0138                	addi	a4,sp,136
80003dae:	0000                	unimp
80003db0:	000e                	c.slli	zero,0x3
80003db2:	0000                	unimp
80003db4:	0000006b          	.insn	4, 0x006b
80003db8:	0000006f          	j	80003db8 <input_data+0xb64>
80003dbc:	0112                	slli	sp,sp,0x4
80003dbe:	0000                	unimp
80003dc0:	031d                	addi	t1,t1,7
80003dc2:	0000                	unimp
80003dc4:	00000183          	lb	gp,0(zero) # 0 <_start-0x80000000>
80003dc8:	00b9                	addi	ra,ra,14
80003dca:	0000                	unimp
80003dcc:	00f2                	slli	ra,ra,0x1c
80003dce:	0000                	unimp
80003dd0:	0000                	unimp
80003dd2:	0000                	unimp
80003dd4:	01e6                	slli	gp,gp,0x19
80003dd6:	0000                	unimp
80003dd8:	02ce                	slli	t0,t0,0x13
80003dda:	0000                	unimp
80003ddc:	0069                	c.nop	26
80003dde:	0000                	unimp
80003de0:	0060                	addi	s0,sp,12
80003de2:	0000                	unimp
80003de4:	02ba                	slli	t0,t0,0xe
80003de6:	0000                	unimp
80003de8:	02ed                	addi	t0,t0,27
80003dea:	0000                	unimp
80003dec:	00000383          	lb	t2,0(zero) # 0 <_start-0x80000000>
80003df0:	000002e3          	beqz	zero,800045f4 <input_data+0x13a0>
80003df4:	0302                	c.slli	t1,0x0
80003df6:	0000                	unimp
80003df8:	032e                	slli	t1,t1,0xb
80003dfa:	0000                	unimp
80003dfc:	0284                	addi	s1,sp,320
80003dfe:	0000                	unimp
80003e00:	000001b3          	add	gp,zero,zero
80003e04:	0050                	addi	a2,sp,4
80003e06:	0000                	unimp
80003e08:	0146                	slli	sp,sp,0x11
80003e0a:	0000                	unimp
80003e0c:	00a1                	addi	ra,ra,8
80003e0e:	0000                	unimp
80003e10:	0025                	c.nop	9
80003e12:	0000                	unimp
80003e14:	00000197          	auipc	gp,0x0
80003e18:	0021                	c.nop	8
80003e1a:	0000                	unimp
80003e1c:	03b2                	slli	t2,t2,0xc
80003e1e:	0000                	unimp
80003e20:	025d                	addi	tp,tp,23 # 17 <_start-0x7fffffe9>
80003e22:	0000                	unimp
80003e24:	001e                	c.slli	zero,0x7
80003e26:	0000                	unimp
80003e28:	000003a7          	vse8.v	v7,(zero),v0.t
80003e2c:	0300                	addi	s0,sp,384
80003e2e:	0000                	unimp
80003e30:	0000001b          	.insn	4, 0x001b
80003e34:	0366                	slli	t1,t1,0x19
80003e36:	0000                	unimp
80003e38:	0058                	addi	a4,sp,4
80003e3a:	0000                	unimp
80003e3c:	0071                	c.nop	28
80003e3e:	0000                	unimp
80003e40:	01b9                	addi	gp,gp,14 # 80003e22 <input_data+0xbce>
80003e42:	0000                	unimp
80003e44:	0094                	addi	a3,sp,64
80003e46:	0000                	unimp
80003e48:	00000153          	fadd.s	ft2,ft0,ft0,rne
80003e4c:	003e                	c.slli	zero,0xf
80003e4e:	0000                	unimp
80003e50:	0158                	addi	a4,sp,132
80003e52:	0000                	unimp
80003e54:	00000093          	li	ra,0
80003e58:	022a                	slli	tp,tp,0xa
80003e5a:	0000                	unimp
80003e5c:	0346                	slli	t1,t1,0x11
80003e5e:	0000                	unimp
80003e60:	016d                	addi	sp,sp,27
80003e62:	0000                	unimp
80003e64:	034d                	addi	t1,t1,19
80003e66:	0000                	unimp
80003e68:	03ba                	slli	t2,t2,0xe
80003e6a:	0000                	unimp
80003e6c:	01b0                	addi	a2,sp,200
80003e6e:	0000                	unimp
80003e70:	027f 0000 008d 0000 	.insn	10, 0x018c0000008d0000027f
80003e78:	018c 
80003e7a:	0000                	unimp
80003e7c:	000000d3          	fadd.s	ft1,ft0,ft0,rne
80003e80:	03df 0000 0331      	.insn	6, 0x0331000003df
80003e86:	0000                	unimp
80003e88:	00f9                	addi	ra,ra,30
80003e8a:	0000                	unimp
80003e8c:	0335                	addi	t1,t1,13
80003e8e:	0000                	unimp
80003e90:	0152                	slli	sp,sp,0x14
80003e92:	0000                	unimp
80003e94:	0232                	slli	tp,tp,0xc
80003e96:	0000                	unimp
80003e98:	0340                	addi	s0,sp,388
80003e9a:	0000                	unimp
80003e9c:	016c                	addi	a1,sp,140
80003e9e:	0000                	unimp
80003ea0:	03ce                	slli	t2,t2,0x13
80003ea2:	0000                	unimp
80003ea4:	00000267          	jalr	tp,zero # 0 <_start-0x80000000>
80003ea8:	0189                	addi	gp,gp,2 # 800078d6 <__global_pointer$+0x2>
80003eaa:	0000                	unimp
80003eac:	000001ef          	jal	gp,80003eac <input_data+0xc58>
80003eb0:	010a                	slli	sp,sp,0x2
80003eb2:	0000                	unimp
80003eb4:	032c                	addi	a1,sp,392
80003eb6:	0000                	unimp
80003eb8:	01d6                	slli	gp,gp,0x15
80003eba:	0000                	unimp
80003ebc:	0394                	addi	a3,sp,448
80003ebe:	0000                	unimp
80003ec0:	015c                	addi	a5,sp,132
80003ec2:	0000                	unimp
80003ec4:	009f 0000 0150      	.insn	6, 0x01500000009f
80003eca:	0000                	unimp
80003ecc:	01ae                	slli	gp,gp,0xb
80003ece:	0000                	unimp
80003ed0:	000001a3          	sb	zero,3(zero) # 3 <_start-0x7ffffffd>
80003ed4:	00000323          	sb	zero,6(zero) # 6 <_start-0x7ffffffa>
80003ed8:	00f9                	addi	ra,ra,30
80003eda:	0000                	unimp
80003edc:	00b4                	addi	a3,sp,72
80003ede:	0000                	unimp
80003ee0:	000000d7          	vadd.vv	v1,v0,v0,v0.t
80003ee4:	0220                	addi	s0,sp,264
80003ee6:	0000                	unimp
80003ee8:	021e                	slli	tp,tp,0x7
80003eea:	0000                	unimp
80003eec:	0348                	addi	a0,sp,388
80003eee:	0000                	unimp
80003ef0:	00000387          	vle8.v	v7,(zero),v0.t
80003ef4:	01ca                	slli	gp,gp,0x12
80003ef6:	0000                	unimp
80003ef8:	027c                	addi	a5,sp,268
80003efa:	0000                	unimp
80003efc:	0312                	slli	t1,t1,0x4
80003efe:	0000                	unimp
80003f00:	02d9                	addi	t0,t0,22
80003f02:	0000                	unimp
80003f04:	0368                	addi	a0,sp,396
80003f06:	0000                	unimp
80003f08:	0245                	addi	tp,tp,17 # 11 <_start-0x7fffffef>
80003f0a:	0000                	unimp
80003f0c:	0000031b          	.insn	4, 0x031b
80003f10:	0334                	addi	a3,sp,392
80003f12:	0000                	unimp
80003f14:	0326                	slli	t1,t1,0x9
80003f16:	0000                	unimp
80003f18:	029f 0000 02f6      	.insn	6, 0x02f60000029f
80003f1e:	0000                	unimp
80003f20:	000003d3          	fadd.s	ft7,ft0,ft0,rne
80003f24:	0068                	addi	a0,sp,12
80003f26:	0000                	unimp
80003f28:	01a2                	slli	gp,gp,0x8
80003f2a:	0000                	unimp
80003f2c:	0191                	addi	gp,gp,4 # 800078d8 <__global_pointer$+0x4>
80003f2e:	0000                	unimp
80003f30:	029e                	slli	t0,t0,0x7
80003f32:	0000                	unimp
80003f34:	00fe                	slli	ra,ra,0x1f
80003f36:	0000                	unimp
80003f38:	0398                	addi	a4,sp,448
80003f3a:	0000                	unimp
80003f3c:	03d8                	addi	a4,sp,452
80003f3e:	0000                	unimp
80003f40:	0238                	addi	a4,sp,264
80003f42:	0000                	unimp
80003f44:	0088                	addi	a0,sp,64
80003f46:	0000                	unimp
80003f48:	02e9                	addi	t0,t0,26
80003f4a:	0000                	unimp
80003f4c:	02d9                	addi	t0,t0,22
80003f4e:	0000                	unimp
80003f50:	0296                	slli	t0,t0,0x5
80003f52:	0000                	unimp
80003f54:	0248                	addi	a0,sp,260
80003f56:	0000                	unimp
80003f58:	0000008b          	.insn	4, 0x008b
80003f5c:	031a                	slli	t1,t1,0x6
80003f5e:	0000                	unimp
80003f60:	0181                	addi	gp,gp,0 # 800078d4 <__global_pointer$>
80003f62:	0000                	unimp
80003f64:	019e                	slli	gp,gp,0x7
80003f66:	0000                	unimp
80003f68:	039f 0000 0210      	.insn	6, 0x02100000039f
80003f6e:	0000                	unimp
80003f70:	00ad                	addi	ra,ra,11
80003f72:	0000                	unimp
80003f74:	000002c3          	fmadd.s	ft5,ft0,ft0,ft0,rne
80003f78:	01c9                	addi	gp,gp,18 # 800078e6 <__global_pointer$+0x12>
80003f7a:	0000                	unimp
80003f7c:	022a                	slli	tp,tp,0xa
80003f7e:	0000                	unimp
80003f80:	013c                	addi	a5,sp,136
80003f82:	0000                	unimp
80003f84:	017a                	slli	sp,sp,0x1e
80003f86:	0000                	unimp
80003f88:	000000b7          	lui	ra,0x0
80003f8c:	02fe                	slli	t0,t0,0x1f
80003f8e:	0000                	unimp
80003f90:	01dd                	addi	gp,gp,23 # 800078eb <__global_pointer$+0x17>
80003f92:	0000                	unimp
80003f94:	03d1                	addi	t2,t2,20
80003f96:	0000                	unimp
80003f98:	00c4                	addi	s1,sp,68
80003f9a:	0000                	unimp
80003f9c:	00ec                	addi	a1,sp,76
80003f9e:	0000                	unimp
80003fa0:	0000018f          	.insn	4, 0x018f
80003fa4:	000003b3          	add	t2,zero,zero
80003fa8:	01a0                	addi	s0,sp,200
80003faa:	0000                	unimp
80003fac:	00e5                	addi	ra,ra,25 # 19 <_start-0x7fffffe7>
80003fae:	0000                	unimp
80003fb0:	0325                	addi	t1,t1,9
80003fb2:	0000                	unimp
80003fb4:	00a5                	addi	ra,ra,9
80003fb6:	0000                	unimp
80003fb8:	03e4                	addi	s1,sp,460
80003fba:	0000                	unimp
80003fbc:	01f9                	addi	gp,gp,30 # 800078f2 <__global_pointer$+0x1e>
80003fbe:	0000                	unimp
80003fc0:	010e                	slli	sp,sp,0x3
80003fc2:	0000                	unimp
80003fc4:	0069                	c.nop	26
80003fc6:	0000                	unimp
80003fc8:	02df 0000 02c0      	.insn	6, 0x02c0000002df
80003fce:	0000                	unimp
80003fd0:	02b8                	addi	a4,sp,328
80003fd2:	0000                	unimp
80003fd4:	031c                	addi	a5,sp,384
80003fd6:	0000                	unimp
80003fd8:	0339                	addi	t1,t1,14
80003fda:	0000                	unimp
80003fdc:	008c                	addi	a1,sp,64
80003fde:	0000                	unimp
80003fe0:	0210                	addi	a2,sp,256
80003fe2:	0000                	unimp
80003fe4:	0000012f          	.insn	4, 0x012f
80003fe8:	0032                	c.slli	zero,0xc
80003fea:	0000                	unimp
80003fec:	0000031b          	.insn	4, 0x031b
80003ff0:	0000026f          	jal	tp,80003ff0 <input_data+0xd9c>
80003ff4:	0000027b          	.insn	4, 0x027b
80003ff8:	0219                	addi	tp,tp,6 # 6 <_start-0x7ffffffa>
80003ffa:	0000                	unimp
80003ffc:	0230                	addi	a2,sp,264
80003ffe:	0000                	unimp
80004000:	00000057          	vadd.vv	v0,v0,v0,v0.t
80004004:	00000077          	.insn	4, 0x0077
80004008:	0126                	slli	sp,sp,0x9
8000400a:	0000                	unimp
8000400c:	0008                	.insn	2, 0x0008
8000400e:	0000                	unimp
80004010:	00000363          	beqz	zero,80004016 <input_data+0xdc2>
80004014:	0214                	addi	a3,sp,256
80004016:	0000                	unimp
80004018:	006e                	c.slli	zero,0x1b
8000401a:	0000                	unimp
8000401c:	032e                	slli	t1,t1,0xb
8000401e:	0000                	unimp
80004020:	018e                	slli	gp,gp,0x3
80004022:	0000                	unimp
80004024:	0025                	c.nop	9
80004026:	0000                	unimp
80004028:	030d                	addi	t1,t1,3
8000402a:	0000                	unimp
8000402c:	0248                	addi	a0,sp,260
8000402e:	0000                	unimp
80004030:	0286                	slli	t0,t0,0x1
80004032:	0000                	unimp
80004034:	000002e3          	beqz	zero,80004838 <input_data+0x15e4>
80004038:	00000177          	.insn	4, 0x0177
8000403c:	0000026b          	.insn	4, 0x026b
80004040:	000003af          	.insn	4, 0x03af
80004044:	02ff 0000 0381 0000 	.insn	10, 0x01de00000381000002ff
8000404c:	01de 
8000404e:	0000                	unimp
80004050:	024d                	addi	tp,tp,19 # 13 <_start-0x7fffffed>
80004052:	0000                	unimp
80004054:	0039                	c.nop	14
80004056:	0000                	unimp
80004058:	002c                	addi	a1,sp,8
8000405a:	0000                	unimp
8000405c:	03be                	slli	t2,t2,0xf
8000405e:	0000                	unimp
80004060:	0120                	addi	s0,sp,136
80004062:	0000                	unimp
80004064:	0310                	addi	a2,sp,384
80004066:	0000                	unimp
80004068:	034d                	addi	t1,t1,19
8000406a:	0000                	unimp
8000406c:	03d9                	addi	t2,t2,22
8000406e:	0000                	unimp
80004070:	02e6                	slli	t0,t0,0x19
80004072:	0000                	unimp
80004074:	0345                	addi	t1,t1,17
80004076:	0000                	unimp
80004078:	00000063          	beqz	zero,80004078 <input_data+0xe24>
8000407c:	00000133          	add	sp,zero,zero
80004080:	020a                	slli	tp,tp,0x2
80004082:	0000                	unimp
80004084:	00000043          	fmadd.s	ft0,ft0,ft0,ft0,rne
80004088:	000001bb          	.insn	4, 0x01bb
8000408c:	0338                	addi	a4,sp,392
8000408e:	0000                	unimp
80004090:	01b0                	addi	a2,sp,200
80004092:	0000                	unimp
80004094:	03e4                	addi	s1,sp,460
80004096:	0000                	unimp
80004098:	00a5                	addi	ra,ra,9
8000409a:	0000                	unimp
8000409c:	02ed                	addi	t0,t0,27
8000409e:	0000                	unimp
800040a0:	03a2                	slli	t2,t2,0x8
800040a2:	0000                	unimp
800040a4:	000000ab          	.insn	4, 0x00ab
800040a8:	001c                	.insn	2, 0x001c
800040aa:	0000                	unimp
800040ac:	033a                	slli	t1,t1,0xe
800040ae:	0000                	unimp
800040b0:	01cd                	addi	gp,gp,19 # 800078e7 <__global_pointer$+0x13>
800040b2:	0000                	unimp
800040b4:	026d                	addi	tp,tp,27 # 1b <_start-0x7fffffe5>
800040b6:	0000                	unimp
800040b8:	00000143          	fmadd.s	ft2,ft0,ft0,ft0,rne
800040bc:	0000009b          	.insn	4, 0x009b
800040c0:	0110                	addi	a2,sp,128
800040c2:	0000                	unimp
800040c4:	033a                	slli	t1,t1,0xe
800040c6:	0000                	unimp
800040c8:	0178                	addi	a4,sp,140
800040ca:	0000                	unimp
800040cc:	0000002b          	.insn	4, 0x002b
800040d0:	0154                	addi	a3,sp,132
800040d2:	0000                	unimp
800040d4:	02b6                	slli	t0,t0,0xd
800040d6:	0000                	unimp
800040d8:	0382                	c.slli	t2,0x0
800040da:	0000                	unimp
800040dc:	0050                	addi	a2,sp,4
800040de:	0000                	unimp
800040e0:	009e                	slli	ra,ra,0x7
800040e2:	0000                	unimp
800040e4:	00ec                	addi	a1,sp,76
800040e6:	0000                	unimp
800040e8:	00a8                	addi	a0,sp,72
800040ea:	0000                	unimp
800040ec:	000002eb          	.insn	4, 0x02eb
800040f0:	000001bb          	.insn	4, 0x01bb
800040f4:	02e8                	addi	a0,sp,332
800040f6:	0000                	unimp
800040f8:	00c1                	addi	ra,ra,16
800040fa:	0000                	unimp
800040fc:	0109                	addi	sp,sp,2
800040fe:	0000                	unimp
80004100:	00000277          	.insn	4, 0x0277
80004104:	007c                	addi	a5,sp,12
80004106:	0000                	unimp
80004108:	000003a7          	vse8.v	v7,(zero),v0.t
8000410c:	000002db          	.insn	4, 0x02db
80004110:	0112                	slli	sp,sp,0x4
80004112:	0000                	unimp
80004114:	03ad                	addi	t2,t2,11
80004116:	0000                	unimp
80004118:	030d                	addi	t1,t1,3
8000411a:	0000                	unimp
8000411c:	01a9                	addi	gp,gp,10 # 800078de <__global_pointer$+0xa>
8000411e:	0000                	unimp
80004120:	00b9                	addi	ra,ra,14
80004122:	0000                	unimp
80004124:	0172                	slli	sp,sp,0x1c
80004126:	0000                	unimp
80004128:	0000026b          	.insn	4, 0x026b
8000412c:	0140                	addi	s0,sp,132
8000412e:	0000                	unimp
80004130:	0124                	addi	s1,sp,136
80004132:	0000                	unimp
80004134:	010d                	addi	sp,sp,3
80004136:	0000                	unimp
80004138:	03a5                	addi	t2,t2,9
8000413a:	0000                	unimp
8000413c:	021e                	slli	tp,tp,0x7
8000413e:	0000                	unimp
80004140:	009c                	addi	a5,sp,64
80004142:	0000                	unimp
80004144:	000002fb          	.insn	4, 0x02fb
80004148:	0000033b          	.insn	4, 0x033b
8000414c:	02f0                	addi	a2,sp,332
8000414e:	0000                	unimp
80004150:	0058                	addi	a4,sp,4
80004152:	0000                	unimp
80004154:	00000393          	li	t2,0
80004158:	000003db          	.insn	4, 0x03db
8000415c:	000e                	c.slli	zero,0x3
8000415e:	0000                	unimp
80004160:	0275                	addi	tp,tp,29 # 1d <_start-0x7fffffe3>
80004162:	0000                	unimp
80004164:	0001                	nop
80004166:	0000                	unimp
80004168:	0289                	addi	t0,t0,2
8000416a:	0000                	unimp
8000416c:	038a                	slli	t2,t2,0x2
8000416e:	0000                	unimp
80004170:	0020                	addi	s0,sp,8
80004172:	0000                	unimp
80004174:	000003e3          	beqz	zero,8000497a <input_data+0x1726>
80004178:	0001                	nop
8000417a:	0000                	unimp
8000417c:	0329                	addi	t1,t1,10
8000417e:	0000                	unimp
80004180:	02e8                	addi	a0,sp,332
80004182:	0000                	unimp
80004184:	0230                	addi	a2,sp,264
80004186:	0000                	unimp
80004188:	0000018f          	.insn	4, 0x018f
8000418c:	0369                	addi	t1,t1,26
8000418e:	0000                	unimp
80004190:	00000393          	li	t2,0
80004194:	03cc                	addi	a1,sp,452
80004196:	0000                	unimp
80004198:	00000317          	auipc	t1,0x0
8000419c:	0121                	addi	sp,sp,8
8000419e:	0000                	unimp
800041a0:	022a                	slli	tp,tp,0xa
800041a2:	0000                	unimp
800041a4:	01fd                	addi	gp,gp,31 # 800078f3 <__global_pointer$+0x1f>
800041a6:	0000                	unimp
800041a8:	03d8                	addi	a4,sp,452
800041aa:	0000                	unimp
800041ac:	022e                	slli	tp,tp,0xb
800041ae:	0000                	unimp
800041b0:	0212                	slli	tp,tp,0x4
800041b2:	0000                	unimp
800041b4:	03ca                	slli	t2,t2,0x12
800041b6:	0000                	unimp
800041b8:	0258                	addi	a4,sp,260
800041ba:	0000                	unimp
800041bc:	0195                	addi	gp,gp,5 # 800078d9 <__global_pointer$+0x5>
800041be:	0000                	unimp
800041c0:	0191                	addi	gp,gp,4 # 800078d8 <__global_pointer$+0x4>
800041c2:	0000                	unimp
800041c4:	00000243          	fmadd.s	ft4,ft0,ft0,ft0,rne
800041c8:	000002ab          	.insn	4, 0x02ab
800041cc:	0125                	addi	sp,sp,9
800041ce:	0000                	unimp
800041d0:	021c                	addi	a5,sp,256
800041d2:	0000                	unimp
800041d4:	000000fb          	.insn	4, 0x00fb
800041d8:	00000387          	vle8.v	v7,(zero),v0.t
800041dc:	0351                	addi	t1,t1,20 # 800041ac <input_data+0xf58>
800041de:	0000                	unimp
800041e0:	0078                	addi	a4,sp,12
800041e2:	0000                	unimp
800041e4:	0081                	addi	ra,ra,0
800041e6:	0000                	unimp
800041e8:	000003e3          	beqz	zero,800049ee <input_data+0x179a>
800041ec:	01c4                	addi	s1,sp,196
800041ee:	0000                	unimp
800041f0:	0209                	addi	tp,tp,2 # 2 <_start-0x7ffffffe>
800041f2:	0000                	unimp
800041f4:	02cc                	addi	a1,sp,324
800041f6:	0000                	unimp
800041f8:	026e                	slli	tp,tp,0x1b
800041fa:	0000                	unimp
800041fc:	0056                	c.slli	zero,0x15
800041fe:	0000                	unimp
80004200:	00e0                	addi	s0,sp,76
80004202:	0000                	unimp
80004204:	02a6                	slli	t0,t0,0x9
80004206:	0000                	unimp
80004208:	037f 0000 00b5 0000 	.insn	10, 0x0212000000b50000037f
80004210:	0212 
80004212:	0000                	unimp
80004214:	00f0                	addi	a2,sp,76
80004216:	0000                	unimp
80004218:	0334                	addi	a3,sp,392
8000421a:	0000                	unimp
8000421c:	0000014f          	fnmadd.s	ft2,ft0,ft0,ft0,rne
80004220:	0000028b          	.insn	4, 0x028b
80004224:	0319                	addi	t1,t1,6
80004226:	0000                	unimp
80004228:	00e2                	slli	ra,ra,0x18
8000422a:	0000                	unimp
8000422c:	0281                	addi	t0,t0,0
8000422e:	0000                	unimp
80004230:	0060                	addi	s0,sp,12
80004232:	0000                	unimp
80004234:	0001                	nop
80004236:	0000                	unimp
80004238:	0106                	slli	sp,sp,0x1
8000423a:	0000                	unimp
8000423c:	0140                	addi	s0,sp,132
8000423e:	0000                	unimp
80004240:	0239                	addi	tp,tp,14 # e <_start-0x7ffffff2>
80004242:	0000                	unimp
80004244:	000003db          	.insn	4, 0x03db
80004248:	00ee                	slli	ra,ra,0x1b
8000424a:	0000                	unimp
8000424c:	0286                	slli	t0,t0,0x1
8000424e:	0000                	unimp
80004250:	007e                	c.slli	zero,0x1f
80004252:	0000                	unimp
80004254:	02f2                	slli	t0,t0,0x1c
80004256:	0000                	unimp
80004258:	0262                	slli	tp,tp,0x18
8000425a:	0000                	unimp
8000425c:	03be                	slli	t2,t2,0xf
8000425e:	0000                	unimp
80004260:	000000bf 000000cb 	.insn	8, 0x00cb000000bf
80004268:	00ee                	slli	ra,ra,0x1b
8000426a:	0000                	unimp
8000426c:	008e                	slli	ra,ra,0x3
8000426e:	0000                	unimp
80004270:	031c                	addi	a5,sp,384
80004272:	0000                	unimp
80004274:	00b4                	addi	a3,sp,72
80004276:	0000                	unimp
80004278:	0374                	addi	a3,sp,396
8000427a:	0000                	unimp
8000427c:	0000012b          	.insn	4, 0x012b
80004280:	023d                	addi	tp,tp,15 # f <_start-0x7ffffff1>
80004282:	0000                	unimp
80004284:	00a5                	addi	ra,ra,9
80004286:	0000                	unimp
80004288:	006c                	addi	a1,sp,12
8000428a:	0000                	unimp
8000428c:	02f9                	addi	t0,t0,30
8000428e:	0000                	unimp
80004290:	008c                	addi	a1,sp,64
80004292:	0000                	unimp
80004294:	03ce                	slli	t2,t2,0x13
80004296:	0000                	unimp
80004298:	0315                	addi	t1,t1,5
8000429a:	0000                	unimp
8000429c:	0286                	slli	t0,t0,0x1
8000429e:	0000                	unimp
800042a0:	0354                	addi	a3,sp,388
800042a2:	0000                	unimp
800042a4:	0000022f          	.insn	4, 0x022f
800042a8:	00000017          	auipc	zero,0x0
800042ac:	0000026b          	.insn	4, 0x026b
800042b0:	02c0                	addi	s0,sp,324
800042b2:	0000                	unimp
800042b4:	01a6                	slli	gp,gp,0x9
800042b6:	0000                	unimp
800042b8:	037a                	slli	t1,t1,0x1e
800042ba:	0000                	unimp
800042bc:	0104                	addi	s1,sp,128
800042be:	0000                	unimp
800042c0:	01e0                	addi	s0,sp,204
800042c2:	0000                	unimp
800042c4:	0235                	addi	tp,tp,13 # d <_start-0x7ffffff3>
800042c6:	0000                	unimp
800042c8:	0034                	addi	a3,sp,8
800042ca:	0000                	unimp
800042cc:	021e                	slli	tp,tp,0x7
800042ce:	0000                	unimp
800042d0:	0174                	addi	a3,sp,140
800042d2:	0000                	unimp
800042d4:	01ec                	addi	a1,sp,204
800042d6:	0000                	unimp
800042d8:	00c9                	addi	ra,ra,18
800042da:	0000                	unimp
800042dc:	03df 0000 0222      	.insn	6, 0x0222000003df
800042e2:	0000                	unimp
800042e4:	02e9                	addi	t0,t0,26
800042e6:	0000                	unimp
800042e8:	0198                	addi	a4,sp,192
800042ea:	0000                	unimp
800042ec:	000000cf          	fnmadd.s	ft1,ft0,ft0,ft0,rne
800042f0:	00000077          	.insn	4, 0x0077
800042f4:	0174                	addi	a3,sp,140
800042f6:	0000                	unimp
800042f8:	0285                	addi	t0,t0,1
800042fa:	0000                	unimp
800042fc:	03a4                	addi	s1,sp,456
800042fe:	0000                	unimp
80004300:	01d0                	addi	a2,sp,196
80004302:	0000                	unimp
80004304:	0298                	addi	a4,sp,320
80004306:	0000                	unimp
80004308:	0051                	c.nop	20
8000430a:	0000                	unimp
8000430c:	0022                	c.slli	zero,0x8
8000430e:	0000                	unimp
80004310:	0125                	addi	sp,sp,9
80004312:	0000                	unimp
80004314:	0215                	addi	tp,tp,5 # 5 <_start-0x7ffffffb>
80004316:	0000                	unimp
80004318:	0034                	addi	a3,sp,8
8000431a:	0000                	unimp
8000431c:	01de                	slli	gp,gp,0x17
8000431e:	0000                	unimp
80004320:	0370                	addi	a2,sp,396
80004322:	0000                	unimp
80004324:	038c                	addi	a1,sp,448
80004326:	0000                	unimp
80004328:	00e0                	addi	s0,sp,76
8000432a:	0000                	unimp
8000432c:	000000cb          	fnmsub.s	ft1,ft0,ft0,ft0,rne
80004330:	02e8                	addi	a0,sp,332
80004332:	0000                	unimp
80004334:	0021                	c.nop	8
80004336:	0000                	unimp
80004338:	02df 0000 00d6      	.insn	6, 0x00d6000002df
8000433e:	0000                	unimp
80004340:	0376                	slli	t1,t1,0x1d
80004342:	0000                	unimp
80004344:	016d                	addi	sp,sp,27
80004346:	0000                	unimp
80004348:	000000a7          	vse8.v	v1,(zero),v0.t
8000434c:	037c                	addi	a5,sp,396
8000434e:	0000                	unimp
80004350:	0001                	nop
80004352:	0000                	unimp
80004354:	030d                	addi	t1,t1,3
80004356:	0000                	unimp
80004358:	0214                	addi	a3,sp,256
8000435a:	0000                	unimp
8000435c:	02a8                	addi	a0,sp,328
8000435e:	0000                	unimp
80004360:	0141                	addi	sp,sp,16
80004362:	0000                	unimp
80004364:	02c1                	addi	t0,t0,16
80004366:	0000                	unimp
80004368:	00a9                	addi	ra,ra,10
8000436a:	0000                	unimp
8000436c:	02b0                	addi	a2,sp,328
8000436e:	0000                	unimp
80004370:	01e5                	addi	gp,gp,25 # 800078ed <__global_pointer$+0x19>
80004372:	0000                	unimp
80004374:	000003b3          	add	t2,zero,zero
80004378:	0065                	c.nop	25
8000437a:	0000                	unimp
8000437c:	0182                	c.slli	gp,0x0
8000437e:	0000                	unimp
80004380:	00b1                	addi	ra,ra,12
80004382:	0000                	unimp
80004384:	0032                	c.slli	zero,0xc
80004386:	0000                	unimp
80004388:	002a                	c.slli	zero,0xa
8000438a:	0000                	unimp
8000438c:	0065                	c.nop	25
8000438e:	0000                	unimp
80004390:	02c4                	addi	s1,sp,324
80004392:	0000                	unimp
80004394:	01da                	slli	gp,gp,0x16
80004396:	0000                	unimp
80004398:	028e                	slli	t0,t0,0x3
8000439a:	0000                	unimp
8000439c:	0000018f          	.insn	4, 0x018f
800043a0:	00000393          	li	t2,0
800043a4:	000002a7          	vse8.v	v5,(zero),v0.t
800043a8:	0271                	addi	tp,tp,28 # 1c <_start-0x7fffffe4>
800043aa:	0000                	unimp
800043ac:	014a                	slli	sp,sp,0x12
800043ae:	0000                	unimp
800043b0:	00f2                	slli	ra,ra,0x1c
800043b2:	0000                	unimp
800043b4:	03b8                	addi	a4,sp,456
800043b6:	0000                	unimp
800043b8:	0336                	slli	t1,t1,0xd
800043ba:	0000                	unimp
800043bc:	000001d7          	vadd.vv	v3,v0,v0,v0.t
800043c0:	0000031b          	.insn	4, 0x031b
800043c4:	01dd                	addi	gp,gp,23 # 800078eb <__global_pointer$+0x17>
800043c6:	0000                	unimp
800043c8:	0281                	addi	t0,t0,0
800043ca:	0000                	unimp
800043cc:	02d5                	addi	t0,t0,21
800043ce:	0000                	unimp
800043d0:	00fc                	addi	a5,sp,76
800043d2:	0000                	unimp
800043d4:	02c9                	addi	t0,t0,18
800043d6:	0000                	unimp
800043d8:	00f5                	addi	ra,ra,29
800043da:	0000                	unimp
800043dc:	03a9                	addi	t2,t2,10
800043de:	0000                	unimp
800043e0:	00000097          	auipc	ra,0x0
800043e4:	0211                	addi	tp,tp,4 # 4 <_start-0x7ffffffc>
800043e6:	0000                	unimp
800043e8:	036c                	addi	a1,sp,396
800043ea:	0000                	unimp
800043ec:	0366                	slli	t1,t1,0x19
800043ee:	0000                	unimp
800043f0:	014d                	addi	sp,sp,19
800043f2:	0000                	unimp
800043f4:	004d                	c.nop	19
800043f6:	0000                	unimp
800043f8:	0259                	addi	tp,tp,22 # 16 <_start-0x7fffffea>
800043fa:	0000                	unimp
800043fc:	0221                	addi	tp,tp,8 # 8 <_start-0x7ffffff8>
800043fe:	0000                	unimp
80004400:	03aa                	slli	t2,t2,0xa
80004402:	0000                	unimp
80004404:	0000038b          	.insn	4, 0x038b
80004408:	00000307          	vle8.v	v6,(zero),v0.t
8000440c:	0355                	addi	t1,t1,21
8000440e:	0000                	unimp
80004410:	018d                	addi	gp,gp,3 # 800078d7 <__global_pointer$+0x3>
80004412:	0000                	unimp
80004414:	0000008f          	.insn	4, 0x008f
80004418:	00e9                	addi	ra,ra,26 # 800043fa <input_data+0x11a6>
8000441a:	0000                	unimp
8000441c:	000003d3          	fadd.s	ft7,ft0,ft0,rne
80004420:	000002f3          	.insn	4, 0x02f3
80004424:	000000ef          	jal	80004424 <input_data+0x11d0>
80004428:	01c6                	slli	gp,gp,0x11
8000442a:	0000                	unimp
8000442c:	0069                	c.nop	26
8000442e:	0000                	unimp
80004430:	01a8                	addi	a0,sp,200
80004432:	0000                	unimp
80004434:	016d                	addi	sp,sp,27
80004436:	0000                	unimp
80004438:	00d2                	slli	ra,ra,0x14
8000443a:	0000                	unimp
8000443c:	0062                	c.slli	zero,0x18
8000443e:	0000                	unimp
80004440:	03c2                	slli	t2,t2,0x10
80004442:	0000                	unimp
80004444:	0036                	c.slli	zero,0xd
80004446:	0000                	unimp
80004448:	0384                	addi	s1,sp,448
8000444a:	0000                	unimp
8000444c:	0062                	c.slli	zero,0x18
8000444e:	0000                	unimp
80004450:	0000039b          	.insn	4, 0x039b
80004454:	01b8                	addi	a4,sp,200
80004456:	0000                	unimp
80004458:	0000028f          	.insn	4, 0x028f
8000445c:	02fc                	addi	a5,sp,332
8000445e:	0000                	unimp
80004460:	0211                	addi	tp,tp,4 # 4 <_start-0x7ffffffc>
80004462:	0000                	unimp
80004464:	0000013b          	.insn	4, 0x013b
80004468:	00000253          	fadd.s	ft4,ft0,ft0,rne
8000446c:	0150                	addi	a2,sp,132
8000446e:	0000                	unimp
80004470:	005a                	c.slli	zero,0x16
80004472:	0000                	unimp
80004474:	02b9                	addi	t0,t0,14
80004476:	0000                	unimp
80004478:	01d0                	addi	a2,sp,196
8000447a:	0000                	unimp
8000447c:	0306                	slli	t1,t1,0x1
8000447e:	0000                	unimp
80004480:	02ad                	addi	t0,t0,11
80004482:	0000                	unimp
80004484:	02d6                	slli	t0,t0,0x15
80004486:	0000                	unimp
80004488:	0046                	c.slli	zero,0x11
8000448a:	0000                	unimp
8000448c:	0144                	addi	s1,sp,132
8000448e:	0000                	unimp
80004490:	02f2                	slli	t0,t0,0x1c
80004492:	0000                	unimp
80004494:	011a                	slli	sp,sp,0x6
80004496:	0000                	unimp
80004498:	0020                	addi	s0,sp,8
8000449a:	0000                	unimp
8000449c:	0218                	addi	a4,sp,256
8000449e:	0000                	unimp
800044a0:	01ee                	slli	gp,gp,0x1b
800044a2:	0000                	unimp
800044a4:	026e                	slli	tp,tp,0x1b
800044a6:	0000                	unimp
800044a8:	0019                	c.nop	6
800044aa:	0000                	unimp
800044ac:	0252                	slli	tp,tp,0x14
800044ae:	0000                	unimp
800044b0:	0185                	addi	gp,gp,1 # 800078d5 <__global_pointer$+0x1>
800044b2:	0000                	unimp
800044b4:	037a                	slli	t1,t1,0x1e
800044b6:	0000                	unimp
800044b8:	01e8                	addi	a0,sp,204
800044ba:	0000                	unimp
800044bc:	0000004b          	fnmsub.s	ft0,ft0,ft0,ft0,rne
800044c0:	0025                	c.nop	9
800044c2:	0000                	unimp
800044c4:	0122                	slli	sp,sp,0x8
800044c6:	0000                	unimp
800044c8:	0199                	addi	gp,gp,6 # 800078da <__global_pointer$+0x6>
800044ca:	0000                	unimp
800044cc:	01f0                	addi	a2,sp,204
800044ce:	0000                	unimp
800044d0:	027f 0000 02d6 0000 	.insn	10, 0x001b000002d60000027f
800044d8:	001b 
800044da:	0000                	unimp
800044dc:	01c1                	addi	gp,gp,16 # 800078e4 <__global_pointer$+0x10>
800044de:	0000                	unimp
800044e0:	03b6                	slli	t2,t2,0xd
800044e2:	0000                	unimp
800044e4:	0224                	addi	s1,sp,264
800044e6:	0000                	unimp
800044e8:	0000021b          	.insn	4, 0x021b
800044ec:	00000087          	vle8.v	v1,(zero),v0.t
800044f0:	0050                	addi	a2,sp,4
800044f2:	0000                	unimp
800044f4:	0284                	addi	s1,sp,320
800044f6:	0000                	unimp
800044f8:	0000012f          	.insn	4, 0x012f
800044fc:	0346                	slli	t1,t1,0x11
800044fe:	0000                	unimp
80004500:	000002d3          	fadd.s	ft5,ft0,ft0,rne
80004504:	0122                	slli	sp,sp,0x8
80004506:	0000                	unimp
80004508:	02de                	slli	t0,t0,0x17
8000450a:	0000                	unimp
8000450c:	02ff 0000 007d 0000 	.insn	10, 0x00a20000007d000002ff
80004514:	00a2 
80004516:	0000                	unimp
80004518:	0228                	addi	a0,sp,264
8000451a:	0000                	unimp
8000451c:	019f 0000 00f8      	.insn	6, 0x00f80000019f
80004522:	0000                	unimp
80004524:	000001eb          	.insn	4, 0x01eb
80004528:	0000006b          	.insn	4, 0x006b
8000452c:	03d9                	addi	t2,t2,22
8000452e:	0000                	unimp
80004530:	016a                	slli	sp,sp,0x1a
80004532:	0000                	unimp
80004534:	0074                	addi	a3,sp,12
80004536:	0000                	unimp
80004538:	0030                	addi	a2,sp,8
8000453a:	0000                	unimp
8000453c:	0269                	addi	tp,tp,26 # 1a <_start-0x7fffffe6>
8000453e:	0000                	unimp
80004540:	0365                	addi	t1,t1,25
80004542:	0000                	unimp
80004544:	0000035b          	.insn	4, 0x035b
80004548:	0090                	addi	a2,sp,64
8000454a:	0000                	unimp
8000454c:	000000eb          	.insn	4, 0x00eb
80004550:	0349                	addi	t1,t1,18
80004552:	0000                	unimp
80004554:	011a                	slli	sp,sp,0x6
80004556:	0000                	unimp
80004558:	02d4                	addi	a3,sp,324
8000455a:	0000                	unimp
8000455c:	0000023b          	.insn	4, 0x023b
80004560:	0000014f          	fnmadd.s	ft2,ft0,ft0,ft0,rne
80004564:	0391                	addi	t2,t2,4
80004566:	0000                	unimp
80004568:	01d6                	slli	gp,gp,0x15
8000456a:	0000                	unimp
8000456c:	0230                	addi	a2,sp,264
8000456e:	0000                	unimp
80004570:	00000107          	vle8.v	v2,(zero),v0.t
80004574:	00c2                	slli	ra,ra,0x10
80004576:	0000                	unimp
80004578:	00000157          	vadd.vv	v2,v0,v0,v0.t
8000457c:	00f2                	slli	ra,ra,0x1c
8000457e:	0000                	unimp
80004580:	0329                	addi	t1,t1,10
80004582:	0000                	unimp
80004584:	030e                	slli	t1,t1,0x3
80004586:	0000                	unimp
80004588:	02a5                	addi	t0,t0,9
8000458a:	0000                	unimp
8000458c:	03d9                	addi	t2,t2,22
8000458e:	0000                	unimp
80004590:	00000153          	fadd.s	ft2,ft0,ft0,rne
80004594:	02d8                	addi	a4,sp,324
80004596:	0000                	unimp
80004598:	0150                	addi	a2,sp,132
8000459a:	0000                	unimp
8000459c:	0158                	addi	a4,sp,132
8000459e:	0000                	unimp
800045a0:	019a                	slli	gp,gp,0x6
800045a2:	0000                	unimp
800045a4:	01ae                	slli	gp,gp,0xb
800045a6:	0000                	unimp
800045a8:	01d1                	addi	gp,gp,20 # 800078e8 <__global_pointer$+0x14>
800045aa:	0000                	unimp
800045ac:	0265                	addi	tp,tp,25 # 19 <_start-0x7fffffe7>
800045ae:	0000                	unimp
800045b0:	0038                	addi	a4,sp,8
800045b2:	0000                	unimp
800045b4:	000002f7          	.insn	4, 0x02f7
800045b8:	024e                	slli	tp,tp,0x13
800045ba:	0000                	unimp
800045bc:	00b0                	addi	a2,sp,72
800045be:	0000                	unimp
800045c0:	01e5                	addi	gp,gp,25 # 800078ed <__global_pointer$+0x19>
800045c2:	0000                	unimp
800045c4:	0135                	addi	sp,sp,13
800045c6:	0000                	unimp
800045c8:	0196                	slli	gp,gp,0x5
800045ca:	0000                	unimp
800045cc:	014d                	addi	sp,sp,19
800045ce:	0000                	unimp
800045d0:	03e1                	addi	t2,t2,24
800045d2:	0000                	unimp
800045d4:	0162                	slli	sp,sp,0x18
800045d6:	0000                	unimp
800045d8:	02ea                	slli	t0,t0,0x1a
800045da:	0000                	unimp
800045dc:	0136                	slli	sp,sp,0xd
800045de:	0000                	unimp
800045e0:	00ee                	slli	ra,ra,0x1b
800045e2:	0000                	unimp
800045e4:	000002bb          	.insn	4, 0x02bb
800045e8:	020d                	addi	tp,tp,3 # 3 <_start-0x7ffffffd>
800045ea:	0000                	unimp
800045ec:	002e                	c.slli	zero,0xb
800045ee:	0000                	unimp
800045f0:	0150                	addi	a2,sp,132
800045f2:	0000                	unimp
800045f4:	000001e7          	jalr	gp,zero # 0 <_start-0x80000000>
800045f8:	0100                	addi	s0,sp,128
800045fa:	0000                	unimp
800045fc:	000001f7          	.insn	4, 0x01f7
80004600:	0086                	slli	ra,ra,0x1
80004602:	0000                	unimp
80004604:	0064                	addi	s1,sp,12
80004606:	0000                	unimp
80004608:	0222                	slli	tp,tp,0x8
8000460a:	0000                	unimp
8000460c:	0189                	addi	gp,gp,2 # 800078d6 <__global_pointer$+0x2>
8000460e:	0000                	unimp
80004610:	02d2                	slli	t0,t0,0x14
80004612:	0000                	unimp
80004614:	010c                	addi	a1,sp,128
80004616:	0000                	unimp
80004618:	0000016f          	jal	sp,80004618 <input_data+0x13c4>
8000461c:	013a                	slli	sp,sp,0xe
8000461e:	0000                	unimp
80004620:	000003af          	.insn	4, 0x03af
80004624:	0000004b          	fnmsub.s	ft0,ft0,ft0,ft0,rne
80004628:	006a                	c.slli	zero,0x1a
8000462a:	0000                	unimp
8000462c:	0159                	addi	sp,sp,22
8000462e:	0000                	unimp
80004630:	0275                	addi	tp,tp,29 # 1d <_start-0x7fffffe3>
80004632:	0000                	unimp
80004634:	000003db          	.insn	4, 0x03db
80004638:	018c                	addi	a1,sp,192
8000463a:	0000                	unimp
8000463c:	0258                	addi	a4,sp,260
8000463e:	0000                	unimp
80004640:	00d0                	addi	a2,sp,68
80004642:	0000                	unimp
80004644:	038c                	addi	a1,sp,448
80004646:	0000                	unimp
80004648:	01ad                	addi	gp,gp,11 # 800078df <__global_pointer$+0xb>
8000464a:	0000                	unimp
8000464c:	0180                	addi	s0,sp,192
8000464e:	0000                	unimp
80004650:	0000020b          	.insn	4, 0x020b
80004654:	005c                	addi	a5,sp,4
80004656:	0000                	unimp
80004658:	0082                	c.slli	ra,0x0
8000465a:	0000                	unimp
8000465c:	0221                	addi	tp,tp,8 # 8 <_start-0x7ffffff8>
8000465e:	0000                	unimp
80004660:	00000163          	beqz	zero,80004662 <input_data+0x140e>
80004664:	0115                	addi	sp,sp,5
80004666:	0000                	unimp
80004668:	03de                	slli	t2,t2,0x17
8000466a:	0000                	unimp
8000466c:	029c                	addi	a5,sp,320
8000466e:	0000                	unimp
80004670:	02a1                	addi	t0,t0,8
80004672:	0000                	unimp
80004674:	015f 0000 03df      	.insn	6, 0x03df0000015f
8000467a:	0000                	unimp
8000467c:	0355                	addi	t1,t1,21
8000467e:	0000                	unimp
80004680:	000002cf          	fnmadd.s	ft5,ft0,ft0,ft0,rne
80004684:	035f 0000 01c1      	.insn	6, 0x01c10000035f
8000468a:	0000                	unimp
8000468c:	0138                	addi	a4,sp,136
8000468e:	0000                	unimp
80004690:	0054                	addi	a3,sp,4
80004692:	0000                	unimp
80004694:	0064                	addi	s1,sp,12
80004696:	0000                	unimp
80004698:	0268                	addi	a0,sp,268
8000469a:	0000                	unimp
8000469c:	0214                	addi	a3,sp,256
8000469e:	0000                	unimp
800046a0:	000000d3          	fadd.s	ft1,ft0,ft0,rne
800046a4:	00000237          	lui	tp,0x0
800046a8:	000002c3          	fmadd.s	ft5,ft0,ft0,ft0,rne
800046ac:	0344                	addi	s1,sp,388
800046ae:	0000                	unimp
800046b0:	02e1                	addi	t0,t0,24
800046b2:	0000                	unimp
800046b4:	0172                	slli	sp,sp,0x1c
800046b6:	0000                	unimp
800046b8:	0000034f          	fnmadd.s	ft6,ft0,ft0,ft0,rne
800046bc:	03dd                	addi	t2,t2,23
800046be:	0000                	unimp
800046c0:	01c4                	addi	s1,sp,196
800046c2:	0000                	unimp
800046c4:	01cd                	addi	gp,gp,19 # 800078e7 <__global_pointer$+0x13>
800046c6:	0000                	unimp
800046c8:	013c                	addi	a5,sp,136
800046ca:	0000                	unimp
800046cc:	0390                	addi	a2,sp,448
800046ce:	0000                	unimp
800046d0:	03ce                	slli	t2,t2,0x13
800046d2:	0000                	unimp
800046d4:	00b6                	slli	ra,ra,0xd
800046d6:	0000                	unimp
800046d8:	02ea                	slli	t0,t0,0x1a
800046da:	0000                	unimp
800046dc:	010c                	addi	a1,sp,128
800046de:	0000                	unimp
800046e0:	031c                	addi	a5,sp,384
800046e2:	0000                	unimp
800046e4:	00a0                	addi	s0,sp,72
800046e6:	0000                	unimp
800046e8:	020a                	slli	tp,tp,0x2
800046ea:	0000                	unimp
800046ec:	00000303          	lb	t1,0(zero) # 0 <_start-0x80000000>
800046f0:	026a                	slli	tp,tp,0x1a
800046f2:	0000                	unimp
800046f4:	0016                	c.slli	zero,0x5
800046f6:	0000                	unimp
800046f8:	00000073          	ecall
800046fc:	0356                	slli	t1,t1,0x15
800046fe:	0000                	unimp
80004700:	000002d7          	vadd.vv	v5,v0,v0,v0.t
80004704:	0284                	addi	s1,sp,320
80004706:	0000                	unimp
80004708:	00e2                	slli	ra,ra,0x18
8000470a:	0000                	unimp
8000470c:	0011                	c.nop	4
8000470e:	0000                	unimp
80004710:	00a5                	addi	ra,ra,9
80004712:	0000                	unimp
80004714:	0000030b          	.insn	4, 0x030b
80004718:	00c8                	addi	a0,sp,68
8000471a:	0000                	unimp
8000471c:	0000038f          	.insn	4, 0x038f
80004720:	033e                	slli	t1,t1,0xf
80004722:	0000                	unimp
80004724:	00000357          	vadd.vv	v6,v0,v0,v0.t
80004728:	02e6                	slli	t0,t0,0x19
8000472a:	0000                	unimp
8000472c:	0089                	addi	ra,ra,2
8000472e:	0000                	unimp
80004730:	000000bb          	.insn	4, 0x00bb
80004734:	000003d7          	vadd.vv	v7,v0,v0,v0.t
80004738:	02c1                	addi	t0,t0,16
8000473a:	0000                	unimp
8000473c:	02cd                	addi	t0,t0,19
8000473e:	0000                	unimp
80004740:	029f 0000 0235      	.insn	6, 0x02350000029f
80004746:	0000                	unimp
80004748:	0311                	addi	t1,t1,4
8000474a:	0000                	unimp
8000474c:	000002cf          	fnmadd.s	ft5,ft0,ft0,ft0,rne
80004750:	0376                	slli	t1,t1,0x1d
80004752:	0000                	unimp
80004754:	00fd                	addi	ra,ra,31
80004756:	0000                	unimp
80004758:	03c2                	slli	t2,t2,0x10
8000475a:	0000                	unimp
8000475c:	0311                	addi	t1,t1,4
8000475e:	0000                	unimp
80004760:	0291                	addi	t0,t0,4
80004762:	0000                	unimp
80004764:	009a                	slli	ra,ra,0x6
80004766:	0000                	unimp
80004768:	0125                	addi	sp,sp,9
8000476a:	0000                	unimp
8000476c:	00c4                	addi	s1,sp,68
8000476e:	0000                	unimp
80004770:	026c                	addi	a1,sp,268
80004772:	0000                	unimp
80004774:	00fd                	addi	ra,ra,31
80004776:	0000                	unimp
80004778:	0090                	addi	a2,sp,64
8000477a:	0000                	unimp
8000477c:	000001bf 000000ad 	.insn	8, 0x00ad000001bf
80004784:	00000383          	lb	t2,0(zero) # 0 <_start-0x80000000>
80004788:	031c                	addi	a5,sp,384
8000478a:	0000                	unimp
8000478c:	0005                	c.nop	1
8000478e:	0000                	unimp
80004790:	0048                	addi	a0,sp,4
80004792:	0000                	unimp
80004794:	0145                	addi	sp,sp,17
80004796:	0000                	unimp
80004798:	02a6                	slli	t0,t0,0x9
8000479a:	0000                	unimp
8000479c:	0268                	addi	a0,sp,268
8000479e:	0000                	unimp
800047a0:	0050                	addi	a2,sp,4
800047a2:	0000                	unimp
800047a4:	0135                	addi	sp,sp,13
800047a6:	0000                	unimp
800047a8:	0319                	addi	t1,t1,6
800047aa:	0000                	unimp
800047ac:	000000af          	.insn	4, 0x00af
800047b0:	02ad                	addi	t0,t0,11
800047b2:	0000                	unimp
800047b4:	009f 0000 027d      	.insn	6, 0x027d0000009f
800047ba:	0000                	unimp
800047bc:	0000007b          	.insn	4, 0x007b
800047c0:	000003c7          	fmsub.s	ft7,ft0,ft0,ft0,rne
800047c4:	0346                	slli	t1,t1,0x11
800047c6:	0000                	unimp
800047c8:	00f1                	addi	ra,ra,28
800047ca:	0000                	unimp
800047cc:	000002cb          	fnmsub.s	ft5,ft0,ft0,ft0,rne
800047d0:	0382                	c.slli	t2,0x0
800047d2:	0000                	unimp
800047d4:	0226                	slli	tp,tp,0x9
800047d6:	0000                	unimp
800047d8:	02b5                	addi	t0,t0,13
800047da:	0000                	unimp
800047dc:	00e6                	slli	ra,ra,0x19
800047de:	0000                	unimp
800047e0:	0174                	addi	a3,sp,140
800047e2:	0000                	unimp
800047e4:	0052                	c.slli	zero,0x14
800047e6:	0000                	unimp
800047e8:	0259                	addi	tp,tp,22 # 16 <_start-0x7fffffea>
800047ea:	0000                	unimp
800047ec:	00000273          	.insn	4, 0x0273
800047f0:	02d1                	addi	t0,t0,20
800047f2:	0000                	unimp
800047f4:	0144                	addi	s1,sp,132
800047f6:	0000                	unimp
800047f8:	018e                	slli	gp,gp,0x3
800047fa:	0000                	unimp
800047fc:	039f 0000 0229      	.insn	6, 0x02290000039f
80004802:	0000                	unimp
80004804:	00000067          	jr	zero # 0 <_start-0x80000000>
80004808:	0048                	addi	a0,sp,4
8000480a:	0000                	unimp
8000480c:	0011                	c.nop	4
8000480e:	0000                	unimp
80004810:	00ae                	slli	ra,ra,0xb
80004812:	0000                	unimp
80004814:	03c6                	slli	t2,t2,0x11
80004816:	0000                	unimp
80004818:	03d2                	slli	t2,t2,0x14
8000481a:	0000                	unimp
8000481c:	009f 0000 0145      	.insn	6, 0x01450000009f
80004822:	0000                	unimp
80004824:	00b1                	addi	ra,ra,12
80004826:	0000                	unimp
80004828:	022e                	slli	tp,tp,0xb
8000482a:	0000                	unimp
8000482c:	0251                	addi	tp,tp,20 # 14 <_start-0x7fffffec>
8000482e:	0000                	unimp
80004830:	00b9                	addi	ra,ra,14
80004832:	0000                	unimp
80004834:	0174                	addi	a3,sp,140
80004836:	0000                	unimp
80004838:	01f9                	addi	gp,gp,30 # 800078f2 <__global_pointer$+0x1e>
8000483a:	0000                	unimp
8000483c:	0189                	addi	gp,gp,2 # 800078d6 <__global_pointer$+0x2>
8000483e:	0000                	unimp
80004840:	0000035b          	.insn	4, 0x035b
80004844:	00000257          	vadd.vv	v4,v0,v0,v0.t
80004848:	0000028b          	.insn	4, 0x028b
8000484c:	02e9                	addi	t0,t0,26
8000484e:	0000                	unimp
80004850:	023d                	addi	tp,tp,15 # f <_start-0x7ffffff1>
80004852:	0000                	unimp
80004854:	0179                	addi	sp,sp,30
80004856:	0000                	unimp
80004858:	0141                	addi	sp,sp,16
8000485a:	0000                	unimp
8000485c:	0361                	addi	t1,t1,24
8000485e:	0000                	unimp
80004860:	015d                	addi	sp,sp,23
80004862:	0000                	unimp
80004864:	0000024f          	fnmadd.s	ft4,ft0,ft0,ft0,rne
80004868:	0190                	addi	a2,sp,192
8000486a:	0000                	unimp
8000486c:	0229                	addi	tp,tp,10 # a <_start-0x7ffffff6>
8000486e:	0000                	unimp
80004870:	037a                	slli	t1,t1,0x1e
80004872:	0000                	unimp
80004874:	01b8                	addi	a4,sp,200
80004876:	0000                	unimp
80004878:	034c                	addi	a1,sp,388
8000487a:	0000                	unimp
8000487c:	0159                	addi	sp,sp,22
8000487e:	0000                	unimp
80004880:	0375                	addi	t1,t1,29
80004882:	0000                	unimp
80004884:	0251                	addi	tp,tp,20 # 14 <_start-0x7fffffec>
80004886:	0000                	unimp
80004888:	03a5                	addi	t2,t2,9
8000488a:	0000                	unimp
8000488c:	0122                	slli	sp,sp,0x8
8000488e:	0000                	unimp
80004890:	03d4                	addi	a3,sp,452
80004892:	0000                	unimp
80004894:	038c                	addi	a1,sp,448
80004896:	0000                	unimp
80004898:	01c0                	addi	s0,sp,196
8000489a:	0000                	unimp
8000489c:	0220                	addi	s0,sp,264
8000489e:	0000                	unimp
800048a0:	03dd                	addi	t2,t2,23
800048a2:	0000                	unimp
800048a4:	0179                	addi	sp,sp,30
800048a6:	0000                	unimp
800048a8:	0032                	c.slli	zero,0xc
800048aa:	0000                	unimp
800048ac:	01c8                	addi	a0,sp,196
800048ae:	0000                	unimp
800048b0:	014c                	addi	a1,sp,132
800048b2:	0000                	unimp
800048b4:	030d                	addi	t1,t1,3
800048b6:	0000                	unimp
800048b8:	0384                	addi	s1,sp,448
800048ba:	0000                	unimp
800048bc:	006e                	c.slli	zero,0x1b
800048be:	0000                	unimp
800048c0:	02cc                	addi	a1,sp,324
800048c2:	0000                	unimp
800048c4:	000001ef          	jal	gp,800048c4 <input_data+0x1670>
800048c8:	000002eb          	.insn	4, 0x02eb
800048cc:	0380                	addi	s0,sp,448
800048ce:	0000                	unimp
800048d0:	01bc                	addi	a5,sp,200
800048d2:	0000                	unimp
800048d4:	0326                	slli	t1,t1,0x9
800048d6:	0000                	unimp
800048d8:	0006                	c.slli	zero,0x1
800048da:	0000                	unimp
800048dc:	02bc                	addi	a5,sp,328
800048de:	0000                	unimp
800048e0:	018a                	slli	gp,gp,0x2
800048e2:	0000                	unimp
800048e4:	0224                	addi	s1,sp,264
800048e6:	0000                	unimp
800048e8:	011d                	addi	sp,sp,7
800048ea:	0000                	unimp
800048ec:	0154                	addi	a3,sp,132
800048ee:	0000                	unimp
800048f0:	000002bf 0000001d 	.insn	8, 0x001d000002bf
800048f8:	01c2                	slli	gp,gp,0x10
800048fa:	0000                	unimp
800048fc:	033d                	addi	t1,t1,15
800048fe:	0000                	unimp
80004900:	028c                	addi	a1,sp,320
80004902:	0000                	unimp
80004904:	0276                	slli	tp,tp,0x1d
80004906:	0000                	unimp
80004908:	00000303          	lb	t1,0(zero) # 0 <_start-0x80000000>
8000490c:	0222                	slli	tp,tp,0x8
8000490e:	0000                	unimp
80004910:	01e5                	addi	gp,gp,25 # 800078ed <__global_pointer$+0x19>
80004912:	0000                	unimp
80004914:	0265                	addi	tp,tp,25 # 19 <_start-0x7fffffe7>
80004916:	0000                	unimp
80004918:	0216                	slli	tp,tp,0x5
8000491a:	0000                	unimp
8000491c:	03cc                	addi	a1,sp,452
8000491e:	0000                	unimp
80004920:	0000022f          	.insn	4, 0x022f
80004924:	0074                	addi	a3,sp,12
80004926:	0000                	unimp
80004928:	01e1                	addi	gp,gp,24 # 800078ec <__global_pointer$+0x18>
8000492a:	0000                	unimp
8000492c:	0139                	addi	sp,sp,14
8000492e:	0000                	unimp
80004930:	000001fb          	.insn	4, 0x01fb
80004934:	0388                	addi	a0,sp,448
80004936:	0000                	unimp
80004938:	01b2                	slli	gp,gp,0xc
8000493a:	0000                	unimp
8000493c:	000003cb          	fnmsub.s	ft7,ft0,ft0,ft0,rne
80004940:	00000157          	vadd.vv	v2,v0,v0,v0.t
80004944:	025f 0000 002a      	.insn	6, 0x002a0000025f
8000494a:	0000                	unimp
8000494c:	031a                	slli	t1,t1,0x6
8000494e:	0000                	unimp
80004950:	0310                	addi	a2,sp,384
80004952:	0000                	unimp
80004954:	00a9                	addi	ra,ra,10
80004956:	0000                	unimp
80004958:	0361                	addi	t1,t1,24
8000495a:	0000                	unimp
8000495c:	0380                	addi	s0,sp,448
8000495e:	0000                	unimp
80004960:	01a5                	addi	gp,gp,9 # 800078dd <__global_pointer$+0x9>
80004962:	0000                	unimp
80004964:	000001fb          	.insn	4, 0x01fb
80004968:	019f 0000 0394      	.insn	6, 0x03940000019f
8000496e:	0000                	unimp
80004970:	00000367          	jalr	t1,zero # 0 <_start-0x80000000>
80004974:	000001af          	.insn	4, 0x01af
80004978:	0000021b          	.insn	4, 0x021b
8000497c:	00000153          	fadd.s	ft2,ft0,ft0,rne
80004980:	00a2                	slli	ra,ra,0x8
80004982:	0000                	unimp
80004984:	00000093          	li	ra,0
80004988:	0069                	c.nop	26
8000498a:	0000                	unimp
8000498c:	00e0                	addi	s0,sp,76
8000498e:	0000                	unimp
80004990:	01e1                	addi	gp,gp,24 # 800078ec <__global_pointer$+0x18>
80004992:	0000                	unimp
80004994:	0070                	addi	a2,sp,12
80004996:	0000                	unimp
80004998:	00000253          	fadd.s	ft4,ft0,ft0,rne
8000499c:	0244                	addi	s1,sp,260
8000499e:	0000                	unimp
800049a0:	00000073          	ecall
800049a4:	0342                	slli	t1,t1,0x10
800049a6:	0000                	unimp
800049a8:	015e                	slli	sp,sp,0x17
800049aa:	0000                	unimp
800049ac:	0086                	slli	ra,ra,0x1
800049ae:	0000                	unimp
800049b0:	03c4                	addi	s1,sp,452
800049b2:	0000                	unimp
800049b4:	03b4                	addi	a3,sp,456
800049b6:	0000                	unimp
800049b8:	011f 0000 00c9      	.insn	6, 0x00c90000011f
800049be:	0000                	unimp
800049c0:	00e8                	addi	a0,sp,76
800049c2:	0000                	unimp
800049c4:	01e8                	addi	a0,sp,204
800049c6:	0000                	unimp
800049c8:	009a                	slli	ra,ra,0x6
800049ca:	0000                	unimp
800049cc:	018c                	addi	a1,sp,192
800049ce:	0000                	unimp
800049d0:	025a                	slli	tp,tp,0x16
800049d2:	0000                	unimp
800049d4:	031d                	addi	t1,t1,7
800049d6:	0000                	unimp
800049d8:	0000021b          	.insn	4, 0x021b
800049dc:	01de                	slli	gp,gp,0x17
800049de:	0000                	unimp
800049e0:	000003af          	.insn	4, 0x03af
800049e4:	0301                	addi	t1,t1,0
800049e6:	0000                	unimp
800049e8:	0368                	addi	a0,sp,396
800049ea:	0000                	unimp
800049ec:	023e                	slli	tp,tp,0xf
800049ee:	0000                	unimp
800049f0:	0079                	c.nop	30
800049f2:	0000                	unimp
800049f4:	01e5                	addi	gp,gp,25 # 800078ed <__global_pointer$+0x19>
800049f6:	0000                	unimp
800049f8:	028c                	addi	a1,sp,320
800049fa:	0000                	unimp
800049fc:	00000153          	fadd.s	ft2,ft0,ft0,rne
80004a00:	0000032b          	.insn	4, 0x032b
80004a04:	02d1                	addi	t0,t0,20
80004a06:	0000                	unimp
80004a08:	000002eb          	.insn	4, 0x02eb
80004a0c:	000001c3          	fmadd.s	ft3,ft0,ft0,ft0,rne
80004a10:	016a                	slli	sp,sp,0x1a
80004a12:	0000                	unimp
80004a14:	0335                	addi	t1,t1,13
80004a16:	0000                	unimp
80004a18:	0154                	addi	a3,sp,132
80004a1a:	0000                	unimp
80004a1c:	02e8                	addi	a0,sp,332
80004a1e:	0000                	unimp
80004a20:	038e                	slli	t2,t2,0x3
80004a22:	0000                	unimp
80004a24:	0000                	unimp
80004a26:	0000                	unimp
80004a28:	00ce                	slli	ra,ra,0x13
80004a2a:	0000                	unimp
80004a2c:	0252                	slli	tp,tp,0x14
80004a2e:	0000                	unimp
80004a30:	023c                	addi	a5,sp,264
80004a32:	0000                	unimp
80004a34:	0115                	addi	sp,sp,5
80004a36:	0000                	unimp
80004a38:	01f9                	addi	gp,gp,30 # 800078f2 <__global_pointer$+0x1e>
80004a3a:	0000                	unimp
80004a3c:	0078                	addi	a4,sp,12
80004a3e:	0000                	unimp
80004a40:	03cd                	addi	t2,t2,19
80004a42:	0000                	unimp
80004a44:	02a8                	addi	a0,sp,328
80004a46:	0000                	unimp
80004a48:	03c1                	addi	t2,t2,16
80004a4a:	0000                	unimp
80004a4c:	02f5                	addi	t0,t0,29
80004a4e:	0000                	unimp
80004a50:	0162                	slli	sp,sp,0x18
80004a52:	0000                	unimp
80004a54:	0000022b          	.insn	4, 0x022b
80004a58:	00000273          	.insn	4, 0x0273
80004a5c:	0000034f          	fnmadd.s	ft6,ft0,ft0,ft0,rne
80004a60:	0351                	addi	t1,t1,20
80004a62:	0000                	unimp
80004a64:	0205                	addi	tp,tp,1 # 1 <_start-0x7fffffff>
80004a66:	0000                	unimp
80004a68:	000003cb          	fnmsub.s	ft7,ft0,ft0,ft0,rne
80004a6c:	0000017b          	.insn	4, 0x017b
80004a70:	038e                	slli	t2,t2,0x3
80004a72:	0000                	unimp
80004a74:	01f9                	addi	gp,gp,30 # 800078f2 <__global_pointer$+0x1e>
80004a76:	0000                	unimp
80004a78:	019a                	slli	gp,gp,0x6
80004a7a:	0000                	unimp
80004a7c:	0388                	addi	a0,sp,448
80004a7e:	0000                	unimp
80004a80:	0302                	c.slli	t1,0x0
80004a82:	0000                	unimp
80004a84:	00f6                	slli	ra,ra,0x1d
80004a86:	0000                	unimp
80004a88:	0000003f 000000f3 	.insn	8, 0x00f30000003f
80004a90:	036a                	slli	t1,t1,0x1a
80004a92:	0000                	unimp
80004a94:	018a                	slli	gp,gp,0x2
80004a96:	0000                	unimp
80004a98:	018c                	addi	a1,sp,192
80004a9a:	0000                	unimp
80004a9c:	01ae                	slli	gp,gp,0xb
80004a9e:	0000                	unimp
80004aa0:	01e2                	slli	gp,gp,0x18
80004aa2:	0000                	unimp
80004aa4:	00d6                	slli	ra,ra,0x15
80004aa6:	0000                	unimp
80004aa8:	0000026b          	.insn	4, 0x026b
80004aac:	00f4                	addi	a3,sp,76
80004aae:	0000                	unimp
80004ab0:	0286                	slli	t0,t0,0x1
80004ab2:	0000                	unimp
80004ab4:	020c                	addi	a1,sp,256
80004ab6:	0000                	unimp
80004ab8:	022d                	addi	tp,tp,11 # b <_start-0x7ffffff5>
80004aba:	0000                	unimp
80004abc:	0000018f          	.insn	4, 0x018f
80004ac0:	0148                	addi	a0,sp,132
80004ac2:	0000                	unimp
80004ac4:	00ac                	addi	a1,sp,72
80004ac6:	0000                	unimp
80004ac8:	00000043          	fmadd.s	ft0,ft0,ft0,ft0,rne
80004acc:	0130                	addi	a2,sp,136
80004ace:	0000                	unimp
80004ad0:	0374                	addi	a3,sp,396
80004ad2:	0000                	unimp
80004ad4:	026c                	addi	a1,sp,268
80004ad6:	0000                	unimp
80004ad8:	0200                	addi	s0,sp,256
80004ada:	0000                	unimp
80004adc:	0252                	slli	tp,tp,0x14
80004ade:	0000                	unimp
80004ae0:	03cc                	addi	a1,sp,452
80004ae2:	0000                	unimp
80004ae4:	00000217          	auipc	tp,0x0
80004ae8:	0006                	c.slli	zero,0x1
80004aea:	0000                	unimp
80004aec:	02ba                	slli	t0,t0,0xe
80004aee:	0000                	unimp
80004af0:	0201                	addi	tp,tp,0 # 80004ae4 <input_data+0x1890>
80004af2:	0000                	unimp
80004af4:	009f 0000 0372      	.insn	6, 0x03720000009f
80004afa:	0000                	unimp
80004afc:	02ee                	slli	t0,t0,0x1b
80004afe:	0000                	unimp
80004b00:	0232                	slli	tp,tp,0xc
80004b02:	0000                	unimp
80004b04:	0329                	addi	t1,t1,10
80004b06:	0000                	unimp
80004b08:	02fc                	addi	a5,sp,332
80004b0a:	0000                	unimp
80004b0c:	01c6                	slli	gp,gp,0x11
80004b0e:	0000                	unimp
80004b10:	016e                	slli	sp,sp,0x1b
80004b12:	0000                	unimp
80004b14:	0000004b          	fnmsub.s	ft0,ft0,ft0,ft0,rne
80004b18:	01fa                	slli	gp,gp,0x1e
80004b1a:	0000                	unimp
80004b1c:	005d                	c.nop	23
80004b1e:	0000                	unimp
80004b20:	0312                	slli	t1,t1,0x4
80004b22:	0000                	unimp
80004b24:	000000a7          	vse8.v	v1,(zero),v0.t
80004b28:	0000033f 00000010 	.insn	8, 0x00100000033f
80004b30:	017e                	slli	sp,sp,0x1f
80004b32:	0000                	unimp
80004b34:	0355                	addi	t1,t1,21
80004b36:	0000                	unimp
80004b38:	027e                	slli	tp,tp,0x1f
80004b3a:	0000                	unimp
80004b3c:	01ee                	slli	gp,gp,0x1b
80004b3e:	0000                	unimp
80004b40:	01c4                	addi	s1,sp,196
80004b42:	0000                	unimp
80004b44:	0144                	addi	s1,sp,132
80004b46:	0000                	unimp
80004b48:	0048                	addi	a0,sp,4
80004b4a:	0000                	unimp
80004b4c:	004e                	c.slli	zero,0x13
80004b4e:	0000                	unimp
80004b50:	00000053          	fadd.s	ft0,ft0,ft0,rne
80004b54:	0034                	addi	a3,sp,8
80004b56:	0000                	unimp
80004b58:	0000003b          	.insn	4, 0x003b
80004b5c:	0070                	addi	a2,sp,12
80004b5e:	0000                	unimp
80004b60:	03a4                	addi	s1,sp,456
80004b62:	0000                	unimp
80004b64:	000a                	c.slli	zero,0x2
80004b66:	0000                	unimp
80004b68:	03a1                	addi	t2,t2,8
80004b6a:	0000                	unimp
80004b6c:	0156                	slli	sp,sp,0x15
80004b6e:	0000                	unimp
80004b70:	039c                	addi	a5,sp,448
80004b72:	0000                	unimp
80004b74:	02da                	slli	t0,t0,0x16
80004b76:	0000                	unimp
80004b78:	03c1                	addi	t2,t2,16
80004b7a:	0000                	unimp
80004b7c:	02a8                	addi	a0,sp,328
80004b7e:	0000                	unimp
80004b80:	0045                	c.nop	17
80004b82:	0000                	unimp
80004b84:	011f 0000 031d      	.insn	6, 0x031d0000011f
80004b8a:	0000                	unimp
80004b8c:	03c1                	addi	t2,t2,16
80004b8e:	0000                	unimp
80004b90:	03d9                	addi	t2,t2,22
80004b92:	0000                	unimp
80004b94:	005c                	addi	a5,sp,4
80004b96:	0000                	unimp
80004b98:	0356                	slli	t1,t1,0x15
80004b9a:	0000                	unimp
80004b9c:	0272                	slli	tp,tp,0x1c
80004b9e:	0000                	unimp
80004ba0:	0375                	addi	t1,t1,29
80004ba2:	0000                	unimp
80004ba4:	0390                	addi	a2,sp,448
80004ba6:	0000                	unimp
80004ba8:	0258                	addi	a4,sp,260
80004baa:	0000                	unimp
80004bac:	0268                	addi	a0,sp,268
80004bae:	0000                	unimp
80004bb0:	0185                	addi	gp,gp,1 # 800078d5 <__global_pointer$+0x1>
80004bb2:	0000                	unimp
80004bb4:	035c                	addi	a5,sp,388
80004bb6:	0000                	unimp
80004bb8:	00e8                	addi	a0,sp,76
80004bba:	0000                	unimp
80004bbc:	02e8                	addi	a0,sp,332
80004bbe:	0000                	unimp
80004bc0:	0319                	addi	t1,t1,6
80004bc2:	0000                	unimp
80004bc4:	02e8                	addi	a0,sp,332
80004bc6:	0000                	unimp
80004bc8:	000000b3          	add	ra,zero,zero
80004bcc:	01de                	slli	gp,gp,0x17
80004bce:	0000                	unimp
80004bd0:	0305                	addi	t1,t1,1
80004bd2:	0000                	unimp
80004bd4:	00000267          	jalr	tp,zero # 0 <_start-0x80000000>
80004bd8:	02b1                	addi	t0,t0,12
80004bda:	0000                	unimp
80004bdc:	01fc                	addi	a5,sp,204
80004bde:	0000                	unimp
80004be0:	00000307          	vle8.v	v6,(zero),v0.t
80004be4:	0392                	slli	t2,t2,0x4
80004be6:	0000                	unimp
80004be8:	01ee                	slli	gp,gp,0x1b
80004bea:	0000                	unimp
80004bec:	032a                	slli	t1,t1,0xa
80004bee:	0000                	unimp
80004bf0:	0000008b          	.insn	4, 0x008b
80004bf4:	0120                	addi	s0,sp,136
80004bf6:	0000                	unimp
80004bf8:	00ea                	slli	ra,ra,0x1a
80004bfa:	0000                	unimp
80004bfc:	03ce                	slli	t2,t2,0x13
80004bfe:	0000                	unimp
80004c00:	000001af          	.insn	4, 0x01af
80004c04:	0081                	addi	ra,ra,0
80004c06:	0000                	unimp
80004c08:	030c                	addi	a1,sp,384
80004c0a:	0000                	unimp
80004c0c:	0245                	addi	tp,tp,17 # 11 <_start-0x7fffffef>
80004c0e:	0000                	unimp
80004c10:	00000173          	.insn	4, 0x0173
80004c14:	0224                	addi	s1,sp,264
80004c16:	0000                	unimp
80004c18:	0016                	c.slli	zero,0x5
80004c1a:	0000                	unimp
80004c1c:	0364                	addi	s1,sp,396
80004c1e:	0000                	unimp
80004c20:	028d                	addi	t0,t0,3
80004c22:	0000                	unimp
80004c24:	03d5                	addi	t2,t2,21
80004c26:	0000                	unimp
80004c28:	02e5                	addi	t0,t0,25
80004c2a:	0000                	unimp
80004c2c:	010e                	slli	sp,sp,0x3
80004c2e:	0000                	unimp
80004c30:	0000032f          	.insn	4, 0x032f
80004c34:	0000026f          	jal	tp,80004c34 <input_data+0x19e0>
80004c38:	01ac                	addi	a1,sp,200
80004c3a:	0000                	unimp
80004c3c:	028d                	addi	t0,t0,3
80004c3e:	0000                	unimp
80004c40:	0000008b          	.insn	4, 0x008b
80004c44:	0272                	slli	tp,tp,0x1c
80004c46:	0000                	unimp
80004c48:	0000025b          	.insn	4, 0x025b
80004c4c:	03de                	slli	t2,t2,0x17
80004c4e:	0000                	unimp
80004c50:	0000013b          	.insn	4, 0x013b
80004c54:	0182                	c.slli	gp,0x0
80004c56:	0000                	unimp
80004c58:	0158                	addi	a4,sp,132
80004c5a:	0000                	unimp
80004c5c:	00000143          	fmadd.s	ft2,ft0,ft0,ft0,rne
80004c60:	0379                	addi	t1,t1,30
80004c62:	0000                	unimp
80004c64:	01d8                	addi	a4,sp,196
80004c66:	0000                	unimp
80004c68:	013d                	addi	sp,sp,15
80004c6a:	0000                	unimp
80004c6c:	00a4                	addi	s1,sp,72
80004c6e:	0000                	unimp
80004c70:	0104                	addi	s1,sp,128
80004c72:	0000                	unimp
80004c74:	000000ef          	jal	80004c74 <input_data+0x1a20>
80004c78:	035d                	addi	t1,t1,23
80004c7a:	0000                	unimp
80004c7c:	00bd                	addi	ra,ra,15
80004c7e:	0000                	unimp
80004c80:	0179                	addi	sp,sp,30
80004c82:	0000                	unimp
80004c84:	0361                	addi	t1,t1,24
80004c86:	0000                	unimp
80004c88:	01ff 0000 00e7 0000 	.insn	10, 0x0130000000e7000001ff
80004c90:	0130 
80004c92:	0000                	unimp
80004c94:	0164                	addi	s1,sp,140
80004c96:	0000                	unimp
80004c98:	0046                	c.slli	zero,0x11
80004c9a:	0000                	unimp
80004c9c:	0098                	addi	a4,sp,64
80004c9e:	0000                	unimp
80004ca0:	00000023          	sb	zero,0(zero) # 0 <_start-0x80000000>
80004ca4:	0339                	addi	t1,t1,14
80004ca6:	0000                	unimp
80004ca8:	0356                	slli	t1,t1,0x15
80004caa:	0000                	unimp
80004cac:	0148                	addi	a0,sp,132
80004cae:	0000                	unimp
80004cb0:	0240                	addi	s0,sp,260
80004cb2:	0000                	unimp
80004cb4:	0186                	slli	gp,gp,0x1
80004cb6:	0000                	unimp
80004cb8:	01ea                	slli	gp,gp,0x1a
80004cba:	0000                	unimp
80004cbc:	0350                	addi	a2,sp,388
80004cbe:	0000                	unimp
80004cc0:	0146                	slli	sp,sp,0x11
80004cc2:	0000                	unimp
80004cc4:	0026                	c.slli	zero,0x9
80004cc6:	0000                	unimp
80004cc8:	0000012f          	.insn	4, 0x012f
80004ccc:	0192                	slli	gp,gp,0x4
80004cce:	0000                	unimp
80004cd0:	000001af          	.insn	4, 0x01af
80004cd4:	0268                	addi	a0,sp,268
80004cd6:	0000                	unimp
80004cd8:	032d                	addi	t1,t1,11
80004cda:	0000                	unimp
80004cdc:	0222                	slli	tp,tp,0x8
80004cde:	0000                	unimp
80004ce0:	02c4                	addi	s1,sp,324
80004ce2:	0000                	unimp
80004ce4:	00ce                	slli	ra,ra,0x13
80004ce6:	0000                	unimp
80004ce8:	0184                	addi	s1,sp,192
80004cea:	0000                	unimp
80004cec:	0002                	c.slli	zero,0x0
80004cee:	0000                	unimp
80004cf0:	03c2                	slli	t2,t2,0x10
80004cf2:	0000                	unimp
80004cf4:	0000030f          	.insn	4, 0x030f
80004cf8:	000003c7          	fmsub.s	ft7,ft0,ft0,ft0,rne
80004cfc:	037a                	slli	t1,t1,0x1e
80004cfe:	0000                	unimp
80004d00:	01ba                	slli	gp,gp,0xe
80004d02:	0000                	unimp
80004d04:	0000032f          	.insn	4, 0x032f
80004d08:	0031                	c.nop	12
80004d0a:	0000                	unimp
80004d0c:	0000033f 0000033f 	.insn	8, 0x033f0000033f
80004d14:	0299                	addi	t0,t0,6
80004d16:	0000                	unimp
80004d18:	000000fb          	.insn	4, 0x00fb
80004d1c:	019a                	slli	gp,gp,0x6
80004d1e:	0000                	unimp
80004d20:	0141                	addi	sp,sp,16
80004d22:	0000                	unimp
80004d24:	005e                	c.slli	zero,0x17
80004d26:	0000                	unimp
80004d28:	02e5                	addi	t0,t0,25
80004d2a:	0000                	unimp
80004d2c:	00f6                	slli	ra,ra,0x1d
80004d2e:	0000                	unimp
80004d30:	000000b3          	add	ra,zero,zero
80004d34:	01a6                	slli	gp,gp,0x9
80004d36:	0000                	unimp
80004d38:	00b0                	addi	a2,sp,72
80004d3a:	0000                	unimp
80004d3c:	000000d3          	fadd.s	ft1,ft0,ft0,rne
80004d40:	0075                	c.nop	29
80004d42:	0000                	unimp
80004d44:	000002a3          	sb	zero,5(zero) # 5 <_start-0x7ffffffb>
80004d48:	0000020b          	.insn	4, 0x020b
80004d4c:	0009                	c.nop	2
80004d4e:	0000                	unimp
80004d50:	02fc                	addi	a5,sp,332
80004d52:	0000                	unimp
80004d54:	0176                	slli	sp,sp,0x1d
80004d56:	0000                	unimp
80004d58:	03b8                	addi	a4,sp,456
80004d5a:	0000                	unimp
80004d5c:	01aa                	slli	gp,gp,0xa
80004d5e:	0000                	unimp
80004d60:	02c0                	addi	s0,sp,324
80004d62:	0000                	unimp
80004d64:	0040                	addi	s0,sp,4
80004d66:	0000                	unimp
80004d68:	00000213          	li	tp,0
80004d6c:	0035                	c.nop	13
80004d6e:	0000                	unimp
80004d70:	0324                	addi	s1,sp,392
80004d72:	0000                	unimp
80004d74:	02f6                	slli	t0,t0,0x1d
80004d76:	0000                	unimp
80004d78:	00000017          	auipc	zero,0x0
80004d7c:	0000032b          	.insn	4, 0x032b
80004d80:	00000263          	beqz	zero,80004d84 <input_data+0x1b30>
80004d84:	01f4                	addi	a3,sp,204
80004d86:	0000                	unimp
80004d88:	034e                	slli	t1,t1,0x13
80004d8a:	0000                	unimp
80004d8c:	01b5                	addi	gp,gp,13 # 800078e1 <__global_pointer$+0xd>
80004d8e:	0000                	unimp
80004d90:	00000177          	.insn	4, 0x0177
80004d94:	0000014f          	fnmadd.s	ft2,ft0,ft0,ft0,rne
80004d98:	0356                	slli	t1,t1,0x15
80004d9a:	0000                	unimp
80004d9c:	0148                	addi	a0,sp,132
80004d9e:	0000                	unimp
80004da0:	000003cb          	fnmsub.s	ft7,ft0,ft0,ft0,rne
80004da4:	00ed                	addi	ra,ra,27
80004da6:	0000                	unimp
80004da8:	0018                	.insn	2, 0x0018
80004daa:	0000                	unimp
80004dac:	019f 0000 027f      	.insn	6, 0x027f0000019f
80004db2:	0000                	unimp
80004db4:	01d4                	addi	a3,sp,196
80004db6:	0000                	unimp
80004db8:	013e                	slli	sp,sp,0xf
80004dba:	0000                	unimp
80004dbc:	02ac                	addi	a1,sp,328
80004dbe:	0000                	unimp
80004dc0:	000002d3          	fadd.s	ft5,ft0,ft0,rne
80004dc4:	0235                	addi	tp,tp,13 # d <_start-0x7ffffff3>
80004dc6:	0000                	unimp
80004dc8:	0296                	slli	t0,t0,0x5
80004dca:	0000                	unimp
80004dcc:	0131                	addi	sp,sp,12
80004dce:	0000                	unimp
80004dd0:	00000287          	vle8.v	v5,(zero),v0.t
80004dd4:	01c1                	addi	gp,gp,16 # 800078e4 <__global_pointer$+0x10>
80004dd6:	0000                	unimp
80004dd8:	0119                	addi	sp,sp,6
80004dda:	0000                	unimp
80004ddc:	0255                	addi	tp,tp,21 # 15 <_start-0x7fffffeb>
80004dde:	0000                	unimp
80004de0:	009e                	slli	ra,ra,0x7
80004de2:	0000                	unimp
80004de4:	0088                	addi	a0,sp,64
80004de6:	0000                	unimp
80004de8:	0126                	slli	sp,sp,0x9
80004dea:	0000                	unimp
80004dec:	0372                	slli	t1,t1,0x1c
80004dee:	0000                	unimp
80004df0:	0375                	addi	t1,t1,29
80004df2:	0000                	unimp
80004df4:	017f 0000 02de 0000 	.insn	10, 0x03aa000002de0000017f
80004dfc:	03aa 
80004dfe:	0000                	unimp
80004e00:	0362                	slli	t1,t1,0x18
80004e02:	0000                	unimp
80004e04:	010c                	addi	a1,sp,128
80004e06:	0000                	unimp
80004e08:	000001d7          	vadd.vv	v3,v0,v0,v0.t
80004e0c:	00000073          	ecall
80004e10:	0128                	addi	a0,sp,136
80004e12:	0000                	unimp
80004e14:	038c                	addi	a1,sp,448
80004e16:	0000                	unimp
80004e18:	02a1                	addi	t0,t0,8
80004e1a:	0000                	unimp
80004e1c:	0032                	c.slli	zero,0xc
80004e1e:	0000                	unimp
80004e20:	01d8                	addi	a4,sp,196
80004e22:	0000                	unimp
80004e24:	03b8                	addi	a4,sp,456
80004e26:	0000                	unimp
80004e28:	000001b7          	lui	gp,0x0
80004e2c:	016e                	slli	sp,sp,0x1b
80004e2e:	0000                	unimp
80004e30:	0005                	c.nop	1
80004e32:	0000                	unimp
80004e34:	018d                	addi	gp,gp,3 # 3 <_start-0x7ffffffd>
80004e36:	0000                	unimp
80004e38:	0000009b          	.insn	4, 0x009b
80004e3c:	0101                	addi	sp,sp,0
80004e3e:	0000                	unimp
80004e40:	01fa                	slli	gp,gp,0x1e
80004e42:	0000                	unimp
80004e44:	000000e7          	jalr	zero # 0 <_start-0x80000000>
80004e48:	03b4                	addi	a3,sp,456
80004e4a:	0000                	unimp
80004e4c:	0000029b          	.insn	4, 0x029b
80004e50:	0258                	addi	a4,sp,260
80004e52:	0000                	unimp
80004e54:	00000023          	sb	zero,0(zero) # 0 <_start-0x80000000>
80004e58:	01bd                	addi	gp,gp,15 # 800078e3 <__global_pointer$+0xf>
80004e5a:	0000                	unimp
80004e5c:	03de                	slli	t2,t2,0x17
80004e5e:	0000                	unimp
80004e60:	00de                	slli	ra,ra,0x17
80004e62:	0000                	unimp
80004e64:	000001bb          	.insn	4, 0x01bb
80004e68:	0310                	addi	a2,sp,384
80004e6a:	0000                	unimp
80004e6c:	00d5                	addi	ra,ra,21
80004e6e:	0000                	unimp
80004e70:	015d                	addi	sp,sp,23
80004e72:	0000                	unimp
80004e74:	0185                	addi	gp,gp,1 # 800078d5 <__global_pointer$+0x1>
80004e76:	0000                	unimp
80004e78:	000003af          	.insn	4, 0x03af
80004e7c:	000d                	c.nop	3
80004e7e:	0000                	unimp
80004e80:	0096                	slli	ra,ra,0x5
80004e82:	0000                	unimp
80004e84:	026d                	addi	tp,tp,27 # 1b <_start-0x7fffffe5>
80004e86:	0000                	unimp
80004e88:	016e                	slli	sp,sp,0x1b
80004e8a:	0000                	unimp
80004e8c:	0034                	addi	a3,sp,8
80004e8e:	0000                	unimp
80004e90:	01bc                	addi	a5,sp,200
80004e92:	0000                	unimp
80004e94:	0264                	addi	s1,sp,268
80004e96:	0000                	unimp
80004e98:	025c                	addi	a5,sp,260
80004e9a:	0000                	unimp
80004e9c:	03a6                	slli	t2,t2,0x9
80004e9e:	0000                	unimp
80004ea0:	02d0                	addi	a2,sp,324
80004ea2:	0000                	unimp
80004ea4:	03b9                	addi	t2,t2,14
80004ea6:	0000                	unimp
80004ea8:	0154                	addi	a3,sp,132
80004eaa:	0000                	unimp
80004eac:	033c                	addi	a5,sp,392
80004eae:	0000                	unimp
80004eb0:	03cc                	addi	a1,sp,452
80004eb2:	0000                	unimp
80004eb4:	01ce                	slli	gp,gp,0x13
80004eb6:	0000                	unimp
80004eb8:	0000038f          	.insn	4, 0x038f
80004ebc:	026d                	addi	tp,tp,27 # 1b <_start-0x7fffffe5>
80004ebe:	0000                	unimp
80004ec0:	0141                	addi	sp,sp,16
80004ec2:	0000                	unimp
80004ec4:	032c                	addi	a1,sp,392
80004ec6:	0000                	unimp
80004ec8:	000001b3          	add	gp,zero,zero
80004ecc:	020a                	slli	tp,tp,0x2
80004ece:	0000                	unimp
80004ed0:	0032                	c.slli	zero,0xc
80004ed2:	0000                	unimp
80004ed4:	02a0                	addi	s0,sp,328
80004ed6:	0000                	unimp
80004ed8:	004e                	c.slli	zero,0x13
80004eda:	0000                	unimp
80004edc:	0039                	c.nop	14
80004ede:	0000                	unimp
80004ee0:	02f9                	addi	t0,t0,30
80004ee2:	0000                	unimp
80004ee4:	0139                	addi	sp,sp,14
80004ee6:	0000                	unimp
80004ee8:	03b6                	slli	t2,t2,0xd
80004eea:	0000                	unimp
80004eec:	0160                	addi	s0,sp,140
80004eee:	0000                	unimp
80004ef0:	00ee                	slli	ra,ra,0x1b
80004ef2:	0000                	unimp
80004ef4:	00000037          	lui	zero,0x0
80004ef8:	0000001b          	.insn	4, 0x001b
80004efc:	03cc                	addi	a1,sp,452
80004efe:	0000                	unimp
80004f00:	00e2                	slli	ra,ra,0x18
80004f02:	0000                	unimp
80004f04:	02f1                	addi	t0,t0,28
80004f06:	0000                	unimp
80004f08:	00c9                	addi	ra,ra,18
80004f0a:	0000                	unimp
80004f0c:	01a0                	addi	s0,sp,200
80004f0e:	0000                	unimp
80004f10:	00b0                	addi	a2,sp,72
80004f12:	0000                	unimp
80004f14:	0000036f          	jal	t1,80004f14 <input_data+0x1cc0>
80004f18:	036d                	addi	t1,t1,27
80004f1a:	0000                	unimp
80004f1c:	0360                	addi	s0,sp,396
80004f1e:	0000                	unimp
80004f20:	01c2                	slli	gp,gp,0x10
80004f22:	0000                	unimp
80004f24:	023c                	addi	a5,sp,264
80004f26:	0000                	unimp
80004f28:	0000036f          	jal	t1,80004f28 <input_data+0x1cd4>
80004f2c:	000000a3          	sb	zero,1(zero) # 1 <_start-0x7fffffff>
80004f30:	00000063          	beqz	zero,80004f30 <input_data+0x1cdc>
80004f34:	02d1                	addi	t0,t0,20
80004f36:	0000                	unimp
80004f38:	0000008f          	.insn	4, 0x008f
80004f3c:	000c                	.insn	2, 0x000c
80004f3e:	0000                	unimp
80004f40:	001f 0000 0283      	.insn	6, 0x02830000001f
80004f46:	0000                	unimp
80004f48:	032c                	addi	a1,sp,392
80004f4a:	0000                	unimp
80004f4c:	000001fb          	.insn	4, 0x01fb
80004f50:	00000303          	lb	t1,0(zero) # 0 <_start-0x80000000>
80004f54:	03c8                	addi	a0,sp,452
80004f56:	0000                	unimp
80004f58:	0000020f          	.insn	4, 0x020f
80004f5c:	030d                	addi	t1,t1,3
80004f5e:	0000                	unimp
80004f60:	01e8                	addi	a0,sp,204
80004f62:	0000                	unimp
80004f64:	0348                	addi	a0,sp,388
80004f66:	0000                	unimp
80004f68:	031d                	addi	t1,t1,7
80004f6a:	0000                	unimp
80004f6c:	00f2                	slli	ra,ra,0x1c
80004f6e:	0000                	unimp
80004f70:	00c2                	slli	ra,ra,0x10
80004f72:	0000                	unimp
80004f74:	0276                	slli	tp,tp,0x1d
80004f76:	0000                	unimp
80004f78:	0125                	addi	sp,sp,9
80004f7a:	0000                	unimp
80004f7c:	032a                	slli	t1,t1,0xa
80004f7e:	0000                	unimp
80004f80:	03c6                	slli	t2,t2,0x11
80004f82:	0000                	unimp
80004f84:	0000031b          	.insn	4, 0x031b
80004f88:	0114                	addi	a3,sp,128
80004f8a:	0000                	unimp
80004f8c:	000001b3          	add	gp,zero,zero
80004f90:	0159                	addi	sp,sp,22
80004f92:	0000                	unimp
80004f94:	0375                	addi	t1,t1,29
80004f96:	0000                	unimp
80004f98:	019d                	addi	gp,gp,7 # 800078db <__global_pointer$+0x7>
80004f9a:	0000                	unimp
80004f9c:	00000257          	vadd.vv	v4,v0,v0,v0.t
80004fa0:	00c5                	addi	ra,ra,17
80004fa2:	0000                	unimp
80004fa4:	02b8                	addi	a4,sp,328
80004fa6:	0000                	unimp
80004fa8:	0182                	c.slli	gp,0x0
80004faa:	0000                	unimp
80004fac:	00000283          	lb	t0,0(zero) # 0 <_start-0x80000000>
80004fb0:	0074                	addi	a3,sp,12
80004fb2:	0000                	unimp
80004fb4:	005d                	c.nop	23
80004fb6:	0000                	unimp
80004fb8:	0142                	slli	sp,sp,0x10
80004fba:	0000                	unimp
80004fbc:	02c6                	slli	t0,t0,0x11
80004fbe:	0000                	unimp
80004fc0:	02a8                	addi	a0,sp,328
80004fc2:	0000                	unimp
80004fc4:	0311                	addi	t1,t1,4
80004fc6:	0000                	unimp
80004fc8:	021a                	slli	tp,tp,0x6
80004fca:	0000                	unimp
80004fcc:	0070                	addi	a2,sp,12
80004fce:	0000                	unimp
80004fd0:	0229                	addi	tp,tp,10 # a <_start-0x7ffffff6>
80004fd2:	0000                	unimp
80004fd4:	0245                	addi	tp,tp,17 # 11 <_start-0x7fffffef>
80004fd6:	0000                	unimp
80004fd8:	03c0                	addi	s0,sp,452
80004fda:	0000                	unimp
80004fdc:	000c                	.insn	2, 0x000c
80004fde:	0000                	unimp
80004fe0:	036a                	slli	t1,t1,0x1a
80004fe2:	0000                	unimp
80004fe4:	0000039b          	.insn	4, 0x039b
80004fe8:	0030                	addi	a2,sp,8
80004fea:	0000                	unimp
80004fec:	00000267          	jalr	tp,zero # 0 <_start-0x80000000>
80004ff0:	01fa                	slli	gp,gp,0x1e
80004ff2:	0000                	unimp
80004ff4:	028c                	addi	a1,sp,320
80004ff6:	0000                	unimp
80004ff8:	0382                	c.slli	t2,0x0
80004ffa:	0000                	unimp
80004ffc:	00000167          	jalr	sp,zero # 0 <_start-0x80000000>
80005000:	0000021b          	.insn	4, 0x021b
80005004:	0105                	addi	sp,sp,1
80005006:	0000                	unimp
80005008:	000001ef          	jal	gp,80005008 <input_data+0x1db4>
8000500c:	00e9                	addi	ra,ra,26
8000500e:	0000                	unimp
80005010:	02fc                	addi	a5,sp,332
80005012:	0000                	unimp
80005014:	0261                	addi	tp,tp,24 # 18 <_start-0x7fffffe8>
80005016:	0000                	unimp
80005018:	0325                	addi	t1,t1,9
8000501a:	0000                	unimp
8000501c:	02ae                	slli	t0,t0,0xb
8000501e:	0000                	unimp
80005020:	011e                	slli	sp,sp,0x7
80005022:	0000                	unimp
80005024:	0000021b          	.insn	4, 0x021b
80005028:	01b0                	addi	a2,sp,200
8000502a:	0000                	unimp
8000502c:	0076                	c.slli	zero,0x1d
8000502e:	0000                	unimp
80005030:	0344                	addi	s1,sp,388
80005032:	0000                	unimp
80005034:	0230                	addi	a2,sp,264
80005036:	0000                	unimp
80005038:	00c0                	addi	s0,sp,68
8000503a:	0000                	unimp
8000503c:	000002e3          	beqz	zero,80005840 <input_data+0x25ec>
80005040:	0339                	addi	t1,t1,14
80005042:	0000                	unimp
80005044:	0014                	.insn	2, 0x0014
80005046:	0000                	unimp
80005048:	030a                	slli	t1,t1,0x2
8000504a:	0000                	unimp
8000504c:	013d                	addi	sp,sp,15
8000504e:	0000                	unimp
80005050:	024a                	slli	tp,tp,0x12
80005052:	0000                	unimp
80005054:	03d0                	addi	a2,sp,452
80005056:	0000                	unimp
80005058:	00000167          	jalr	sp,zero # 0 <_start-0x80000000>
8000505c:	023d                	addi	tp,tp,15 # f <_start-0x7ffffff1>
8000505e:	0000                	unimp
80005060:	0160                	addi	s0,sp,140
80005062:	0000                	unimp
80005064:	0182                	c.slli	gp,0x0
80005066:	0000                	unimp
80005068:	02ea                	slli	t0,t0,0x1a
8000506a:	0000                	unimp
8000506c:	0304                	addi	s1,sp,384
8000506e:	0000                	unimp
80005070:	0000000b          	.insn	4, 0x000b
80005074:	00000297          	auipc	t0,0x0
80005078:	02ed                	addi	t0,t0,27 # 8000508f <input_data+0x1e3b>
8000507a:	0000                	unimp
8000507c:	01f8                	addi	a4,sp,204
8000507e:	0000                	unimp
80005080:	0005                	c.nop	1
80005082:	0000                	unimp
80005084:	00d4                	addi	a3,sp,68
80005086:	0000                	unimp
80005088:	0198                	addi	a4,sp,192
8000508a:	0000                	unimp
8000508c:	0378                	addi	a4,sp,396
8000508e:	0000                	unimp
80005090:	00000283          	lb	t0,0(zero) # 0 <_start-0x80000000>
80005094:	0000038b          	.insn	4, 0x038b
80005098:	01b9                	addi	gp,gp,14 # 800078e2 <__global_pointer$+0xe>
8000509a:	0000                	unimp
8000509c:	01a4                	addi	s1,sp,200
8000509e:	0000                	unimp
800050a0:	0170                	addi	a2,sp,140
800050a2:	0000                	unimp
800050a4:	02e1                	addi	t0,t0,24
800050a6:	0000                	unimp
800050a8:	0061                	c.nop	24
800050aa:	0000                	unimp
800050ac:	0204                	addi	s1,sp,256
800050ae:	0000                	unimp
800050b0:	00a9                	addi	ra,ra,10
800050b2:	0000                	unimp
800050b4:	0019                	c.nop	6
800050b6:	0000                	unimp
800050b8:	00000167          	jalr	sp,zero # 0 <_start-0x80000000>
800050bc:	000000db          	.insn	4, 0x00db
800050c0:	0000020f          	.insn	4, 0x020f
800050c4:	031d                	addi	t1,t1,7
800050c6:	0000                	unimp
800050c8:	02a0                	addi	s0,sp,328
800050ca:	0000                	unimp
800050cc:	02cc                	addi	a1,sp,324
800050ce:	0000                	unimp
800050d0:	0045                	c.nop	17
800050d2:	0000                	unimp
800050d4:	01c4                	addi	s1,sp,196
800050d6:	0000                	unimp
800050d8:	0370                	addi	a2,sp,396
800050da:	0000                	unimp
800050dc:	02b4                	addi	a3,sp,328
800050de:	0000                	unimp
800050e0:	012a                	slli	sp,sp,0xa
800050e2:	0000                	unimp
800050e4:	000002ab          	.insn	4, 0x02ab
800050e8:	012c                	addi	a1,sp,136
800050ea:	0000                	unimp
800050ec:	000001cb          	fnmsub.s	ft3,ft0,ft0,ft0,rne
800050f0:	00000147          	fmsub.s	ft2,ft0,ft0,ft0,rne
800050f4:	0000032f          	.insn	4, 0x032f
800050f8:	0000039b          	.insn	4, 0x039b
800050fc:	00000143          	fmadd.s	ft2,ft0,ft0,ft0,rne
80005100:	033d                	addi	t1,t1,15
80005102:	0000                	unimp
80005104:	0264                	addi	s1,sp,268
80005106:	0000                	unimp
80005108:	0330                	addi	a2,sp,392
8000510a:	0000                	unimp
8000510c:	000000f7          	.insn	4, 0x00f7
80005110:	01f1                	addi	gp,gp,28 # 800078f0 <__global_pointer$+0x1c>
80005112:	0000                	unimp
80005114:	0074                	addi	a3,sp,12
80005116:	0000                	unimp
80005118:	000000f3          	.insn	4, 0x00f3
8000511c:	0160                	addi	s0,sp,140
8000511e:	0000                	unimp
80005120:	03d5                	addi	t2,t2,21
80005122:	0000                	unimp
80005124:	0119                	addi	sp,sp,6
80005126:	0000                	unimp
80005128:	0395                	addi	t2,t2,5
8000512a:	0000                	unimp
8000512c:	02e2                	slli	t0,t0,0x18
8000512e:	0000                	unimp
80005130:	02c9                	addi	t0,t0,18
80005132:	0000                	unimp
80005134:	0122                	slli	sp,sp,0x8
80005136:	0000                	unimp
80005138:	028d                	addi	t0,t0,3
8000513a:	0000                	unimp
8000513c:	038d                	addi	t2,t2,3
8000513e:	0000                	unimp
80005140:	000001f7          	.insn	4, 0x01f7
80005144:	0285                	addi	t0,t0,1
80005146:	0000                	unimp
80005148:	0196                	slli	gp,gp,0x5
8000514a:	0000                	unimp
8000514c:	0271                	addi	tp,tp,28 # 1c <_start-0x7fffffe4>
8000514e:	0000                	unimp
80005150:	021f 0000 03a4      	.insn	6, 0x03a40000021f
80005156:	0000                	unimp
80005158:	006c                	addi	a1,sp,12
8000515a:	0000                	unimp
8000515c:	00dc                	addi	a5,sp,68
8000515e:	0000                	unimp
80005160:	0130                	addi	a2,sp,136
80005162:	0000                	unimp
80005164:	02ad                	addi	t0,t0,11
80005166:	0000                	unimp
80005168:	01d0                	addi	a2,sp,196
8000516a:	0000                	unimp
8000516c:	0175                	addi	sp,sp,29
8000516e:	0000                	unimp
80005170:	03ba                	slli	t2,t2,0xe
80005172:	0000                	unimp
80005174:	036c                	addi	a1,sp,396
80005176:	0000                	unimp
80005178:	0056                	c.slli	zero,0x15
8000517a:	0000                	unimp
8000517c:	0286                	slli	t0,t0,0x1
8000517e:	0000                	unimp
80005180:	0322                	slli	t1,t1,0x8
80005182:	0000                	unimp
80005184:	019c                	addi	a5,sp,192
80005186:	0000                	unimp
80005188:	01be                	slli	gp,gp,0xf
8000518a:	0000                	unimp
8000518c:	000003bb          	.insn	4, 0x03bb
80005190:	001c                	.insn	2, 0x001c
80005192:	0000                	unimp
80005194:	0298                	addi	a4,sp,320
80005196:	0000                	unimp
80005198:	0000021b          	.insn	4, 0x021b
8000519c:	0352                	slli	t1,t1,0x14
8000519e:	0000                	unimp
800051a0:	0000028f          	.insn	4, 0x028f
800051a4:	0000030f          	.insn	4, 0x030f
800051a8:	001c                	.insn	2, 0x001c
800051aa:	0000                	unimp
800051ac:	0188                	addi	a0,sp,192
800051ae:	0000                	unimp
800051b0:	01d6                	slli	gp,gp,0x15
800051b2:	0000                	unimp
800051b4:	000002c3          	fmadd.s	ft5,ft0,ft0,ft0,rne
800051b8:	02df 0000 01a6      	.insn	6, 0x01a6000002df
800051be:	0000                	unimp
800051c0:	03ad                	addi	t2,t2,11
800051c2:	0000                	unimp
800051c4:	0000020b          	.insn	4, 0x020b
800051c8:	0262                	slli	tp,tp,0x18
800051ca:	0000                	unimp
800051cc:	02aa                	slli	t0,t0,0xa
800051ce:	0000                	unimp
800051d0:	000001c3          	fmadd.s	ft3,ft0,ft0,ft0,rne
800051d4:	0025                	c.nop	9
800051d6:	0000                	unimp
800051d8:	02a0                	addi	s0,sp,328
800051da:	0000                	unimp
800051dc:	009c                	addi	a5,sp,64
800051de:	0000                	unimp
800051e0:	00ed                	addi	ra,ra,27
800051e2:	0000                	unimp
800051e4:	0000002b          	.insn	4, 0x002b
800051e8:	02fe                	slli	t0,t0,0x1f
800051ea:	0000                	unimp
800051ec:	02ff 0000 02c9 0000 	.insn	10, 0x007c000002c9000002ff
800051f4:	007c 
800051f6:	0000                	unimp
800051f8:	0199                	addi	gp,gp,6 # 800078da <__global_pointer$+0x6>
800051fa:	0000                	unimp
800051fc:	0225                	addi	tp,tp,9 # 9 <_start-0x7ffffff7>
800051fe:	0000                	unimp
80005200:	0365                	addi	t1,t1,25
80005202:	0000                	unimp
80005204:	032e                	slli	t1,t1,0xb
80005206:	0000                	unimp
80005208:	00ba                	slli	ra,ra,0xe
8000520a:	0000                	unimp
8000520c:	000000fb          	.insn	4, 0x00fb
80005210:	000001db          	.insn	4, 0x01db
80005214:	00d6                	slli	ra,ra,0x15
80005216:	0000                	unimp
80005218:	0238                	addi	a4,sp,264
8000521a:	0000                	unimp
8000521c:	00d4                	addi	a3,sp,68
8000521e:	0000                	unimp
80005220:	002c                	addi	a1,sp,8
80005222:	0000                	unimp
80005224:	023c                	addi	a5,sp,264
80005226:	0000                	unimp
80005228:	03e5                	addi	t2,t2,25
8000522a:	0000                	unimp
8000522c:	0382                	c.slli	t2,0x0
8000522e:	0000                	unimp
80005230:	0000008b          	.insn	4, 0x008b
80005234:	03bc                	addi	a5,sp,456
80005236:	0000                	unimp
80005238:	01c8                	addi	a0,sp,196
8000523a:	0000                	unimp
8000523c:	0260                	addi	s0,sp,268
8000523e:	0000                	unimp
80005240:	01d6                	slli	gp,gp,0x15
80005242:	0000                	unimp
80005244:	0000028b          	.insn	4, 0x028b
80005248:	0236                	slli	tp,tp,0xd
8000524a:	0000                	unimp
8000524c:	01b2                	slli	gp,gp,0xc
8000524e:	0000                	unimp
80005250:	0198                	addi	a4,sp,192
80005252:	0000                	unimp
80005254:	038a                	slli	t2,t2,0x2
80005256:	0000                	unimp
80005258:	02f4                	addi	a3,sp,332
8000525a:	0000                	unimp
8000525c:	03ca                	slli	t2,t2,0x12
8000525e:	0000                	unimp
80005260:	023d                	addi	tp,tp,15 # f <_start-0x7ffffff1>
80005262:	0000                	unimp
80005264:	0280                	addi	s0,sp,320
80005266:	0000                	unimp
80005268:	036d                	addi	t1,t1,27
8000526a:	0000                	unimp
8000526c:	000002af          	.insn	4, 0x02af
80005270:	0018                	.insn	2, 0x0018
80005272:	0000                	unimp
80005274:	0282                	c.slli	t0,0x0
80005276:	0000                	unimp
80005278:	01fa                	slli	gp,gp,0x1e
8000527a:	0000                	unimp
8000527c:	0109                	addi	sp,sp,2
8000527e:	0000                	unimp
80005280:	0170                	addi	a2,sp,140
80005282:	0000                	unimp
80005284:	0000010f          	.insn	4, 0x010f
80005288:	0000018f          	.insn	4, 0x018f
8000528c:	03cc                	addi	a1,sp,452
8000528e:	0000                	unimp
80005290:	03b6                	slli	t2,t2,0xd
80005292:	0000                	unimp
80005294:	032e                	slli	t1,t1,0xb
80005296:	0000                	unimp
80005298:	006d                	c.nop	27
8000529a:	0000                	unimp
8000529c:	0338                	addi	a4,sp,392
8000529e:	0000                	unimp
800052a0:	00000253          	fadd.s	ft4,ft0,ft0,rne
800052a4:	0079                	c.nop	30
800052a6:	0000                	unimp
800052a8:	0358                	addi	a4,sp,388
800052aa:	0000                	unimp
800052ac:	01d1                	addi	gp,gp,20 # 800078e8 <__global_pointer$+0x14>
800052ae:	0000                	unimp
800052b0:	0204                	addi	s1,sp,256
800052b2:	0000                	unimp
800052b4:	01d4                	addi	a3,sp,196
800052b6:	0000                	unimp
800052b8:	01d9                	addi	gp,gp,22 # 800078ea <__global_pointer$+0x16>
800052ba:	0000                	unimp
800052bc:	00000277          	.insn	4, 0x0277
800052c0:	0319                	addi	t1,t1,6
800052c2:	0000                	unimp
800052c4:	0119                	addi	sp,sp,6
800052c6:	0000                	unimp
800052c8:	02e0                	addi	s0,sp,332
800052ca:	0000                	unimp
800052cc:	01a0                	addi	s0,sp,200
800052ce:	0000                	unimp
800052d0:	02c4                	addi	s1,sp,324
800052d2:	0000                	unimp
800052d4:	0000013b          	.insn	4, 0x013b
800052d8:	03d2                	slli	t2,t2,0x14
800052da:	0000                	unimp
800052dc:	000000eb          	.insn	4, 0x00eb
800052e0:	0212                	slli	tp,tp,0x4
800052e2:	0000                	unimp
800052e4:	0272                	slli	tp,tp,0x1c
800052e6:	0000                	unimp
800052e8:	000001a3          	sb	zero,3(zero) # 3 <_start-0x7ffffffd>
800052ec:	0128                	addi	a0,sp,136
800052ee:	0000                	unimp
800052f0:	0224                	addi	s1,sp,264
800052f2:	0000                	unimp
800052f4:	01f6                	slli	gp,gp,0x1d
800052f6:	0000                	unimp
800052f8:	0356                	slli	t1,t1,0x15
800052fa:	0000                	unimp
800052fc:	001c                	.insn	2, 0x001c
800052fe:	0000                	unimp
80005300:	00b8                	addi	a4,sp,72
80005302:	0000                	unimp
80005304:	029c                	addi	a5,sp,320
80005306:	0000                	unimp
80005308:	0312                	slli	t1,t1,0x4
8000530a:	0000                	unimp
8000530c:	0146                	slli	sp,sp,0x11
8000530e:	0000                	unimp
80005310:	00e4                	addi	s1,sp,76
80005312:	0000                	unimp
80005314:	0242                	slli	tp,tp,0x10
80005316:	0000                	unimp
80005318:	02e2                	slli	t0,t0,0x18
8000531a:	0000                	unimp
8000531c:	0371                	addi	t1,t1,28
8000531e:	0000                	unimp
80005320:	0109                	addi	sp,sp,2
80005322:	0000                	unimp
80005324:	0130                	addi	a2,sp,136
80005326:	0000                	unimp
80005328:	0328                	addi	a0,sp,392
8000532a:	0000                	unimp
8000532c:	019f 0000 01ea      	.insn	6, 0x01ea0000019f
80005332:	0000                	unimp
80005334:	0000                	unimp
80005336:	0000                	unimp
80005338:	0000026f          	jal	tp,80005338 <input_data+0x20e4>
8000533c:	000000c7          	fmsub.s	ft1,ft0,ft0,ft0,rne
80005340:	000001e3          	beqz	zero,80005b42 <input_data+0x28ee>
80005344:	03a6                	slli	t2,t2,0x9
80005346:	0000                	unimp
80005348:	0069                	c.nop	26
8000534a:	0000                	unimp
8000534c:	00d4                	addi	a3,sp,68
8000534e:	0000                	unimp
80005350:	0221                	addi	tp,tp,8 # 8 <_start-0x7ffffff8>
80005352:	0000                	unimp
80005354:	00000217          	auipc	tp,0x0
80005358:	009a                	slli	ra,ra,0x6
8000535a:	0000                	unimp
8000535c:	0028                	addi	a0,sp,8
8000535e:	0000                	unimp
80005360:	01d9                	addi	gp,gp,22 # 800078ea <__global_pointer$+0x16>
80005362:	0000                	unimp
80005364:	0210                	addi	a2,sp,256
80005366:	0000                	unimp
80005368:	02c8                	addi	a0,sp,324
8000536a:	0000                	unimp
8000536c:	00000343          	fmadd.s	ft6,ft0,ft0,ft0,rne
80005370:	029c                	addi	a5,sp,320
80005372:	0000                	unimp
80005374:	015d                	addi	sp,sp,23
80005376:	0000                	unimp
80005378:	000000eb          	.insn	4, 0x00eb
8000537c:	0152                	slli	sp,sp,0x14
8000537e:	0000                	unimp
80005380:	00000133          	add	sp,zero,zero
80005384:	00e6                	slli	ra,ra,0x19
80005386:	0000                	unimp
80005388:	014e                	slli	sp,sp,0x13
8000538a:	0000                	unimp
8000538c:	0368                	addi	a0,sp,396
8000538e:	0000                	unimp
80005390:	020a                	slli	tp,tp,0x2
80005392:	0000                	unimp
80005394:	0176                	slli	sp,sp,0x1d
80005396:	0000                	unimp
80005398:	00e1                	addi	ra,ra,24
8000539a:	0000                	unimp
8000539c:	0000008f          	.insn	4, 0x008f
800053a0:	02ea                	slli	t0,t0,0x1a
800053a2:	0000                	unimp
800053a4:	03e4                	addi	s1,sp,460
800053a6:	0000                	unimp
800053a8:	0090                	addi	a2,sp,64
800053aa:	0000                	unimp
800053ac:	0181                	addi	gp,gp,0 # 800078d4 <__global_pointer$>
800053ae:	0000                	unimp
800053b0:	0088                	addi	a0,sp,64
800053b2:	0000                	unimp
800053b4:	0350                	addi	a2,sp,388
800053b6:	0000                	unimp
800053b8:	0221                	addi	tp,tp,8 # 8000535c <input_data+0x2108>
800053ba:	0000                	unimp
800053bc:	000001e7          	jalr	gp,zero # 0 <_start-0x80000000>
800053c0:	01b2                	slli	gp,gp,0xc
800053c2:	0000                	unimp
800053c4:	0000024b          	fnmsub.s	ft4,ft0,ft0,ft0,rne
800053c8:	0345                	addi	t1,t1,17
800053ca:	0000                	unimp
800053cc:	0008                	.insn	2, 0x0008
800053ce:	0000                	unimp
800053d0:	01c8                	addi	a0,sp,196
800053d2:	0000                	unimp
800053d4:	000001e7          	jalr	gp,zero # 0 <_start-0x80000000>
800053d8:	01b2                	slli	gp,gp,0xc
800053da:	0000                	unimp
800053dc:	02d9                	addi	t0,t0,22
800053de:	0000                	unimp
800053e0:	0072                	c.slli	zero,0x1c
800053e2:	0000                	unimp
800053e4:	03b0                	addi	a2,sp,456
800053e6:	0000                	unimp
800053e8:	000003cb          	fnmsub.s	ft7,ft0,ft0,ft0,rne
800053ec:	02b0                	addi	a2,sp,328
800053ee:	0000                	unimp
800053f0:	013c                	addi	a5,sp,136
800053f2:	0000                	unimp
800053f4:	00000367          	jalr	t1,zero # 0 <_start-0x80000000>
800053f8:	0000029b          	.insn	4, 0x029b
800053fc:	009c                	addi	a5,sp,64
800053fe:	0000                	unimp
80005400:	0130                	addi	a2,sp,136
80005402:	0000                	unimp
80005404:	0270                	addi	a2,sp,268
80005406:	0000                	unimp
80005408:	032d                	addi	t1,t1,11
8000540a:	0000                	unimp
8000540c:	010d                	addi	sp,sp,3
8000540e:	0000                	unimp
80005410:	02d9                	addi	t0,t0,22
80005412:	0000                	unimp
80005414:	0000002f          	.insn	4, 0x002f
80005418:	021a                	slli	tp,tp,0x6
8000541a:	0000                	unimp
8000541c:	00fa                	slli	ra,ra,0x1e
8000541e:	0000                	unimp
80005420:	02f4                	addi	a3,sp,332
80005422:	0000                	unimp
80005424:	000001eb          	.insn	4, 0x01eb
80005428:	0346                	slli	t1,t1,0x11
8000542a:	0000                	unimp
8000542c:	0372                	slli	t1,t1,0x1c
8000542e:	0000                	unimp
80005430:	0194                	addi	a3,sp,192
80005432:	0000                	unimp
80005434:	00d5                	addi	ra,ra,21
80005436:	0000                	unimp
80005438:	0038                	addi	a4,sp,8
8000543a:	0000                	unimp
8000543c:	000000e7          	jalr	zero # 0 <_start-0x80000000>
80005440:	000001d7          	vadd.vv	v3,v0,v0,v0.t
80005444:	0146                	slli	sp,sp,0x11
80005446:	0000                	unimp
80005448:	02f6                	slli	t0,t0,0x1d
8000544a:	0000                	unimp
8000544c:	0084                	addi	s1,sp,64
8000544e:	0000                	unimp
80005450:	01ed                	addi	gp,gp,27 # 800078ef <__global_pointer$+0x1b>
80005452:	0000                	unimp
80005454:	0284                	addi	s1,sp,320
80005456:	0000                	unimp
80005458:	00000147          	fmsub.s	ft2,ft0,ft0,ft0,rne
8000545c:	01a5                	addi	gp,gp,9 # 800078dd <__global_pointer$+0x9>
8000545e:	0000                	unimp
80005460:	03e0                	addi	s0,sp,460
80005462:	0000                	unimp
80005464:	00000147          	fmsub.s	ft2,ft0,ft0,ft0,rne
80005468:	000001b3          	add	gp,zero,zero
8000546c:	0039                	c.nop	14
8000546e:	0000                	unimp
80005470:	0000028b          	.insn	4, 0x028b
80005474:	02a4                	addi	s1,sp,328
80005476:	0000                	unimp
80005478:	0160                	addi	s0,sp,140
8000547a:	0000                	unimp
8000547c:	00000207          	vle8.v	v4,(zero),v0.t
80005480:	000000c7          	fmsub.s	ft1,ft0,ft0,ft0,rne
80005484:	0308                	addi	a0,sp,384
80005486:	0000                	unimp
80005488:	0162                	slli	sp,sp,0x18
8000548a:	0000                	unimp
8000548c:	000000eb          	.insn	4, 0x00eb
80005490:	0288                	addi	a0,sp,320
80005492:	0000                	unimp
80005494:	00000287          	vle8.v	v5,(zero),v0.t
80005498:	00000003          	lb	zero,0(zero) # 0 <_start-0x80000000>
8000549c:	005f 0000 034a      	.insn	6, 0x034a0000005f
800054a2:	0000                	unimp
800054a4:	0104                	addi	s1,sp,128
800054a6:	0000                	unimp
800054a8:	0159                	addi	sp,sp,22
800054aa:	0000                	unimp
800054ac:	02c9                	addi	t0,t0,18
800054ae:	0000                	unimp
800054b0:	0390                	addi	a2,sp,448
800054b2:	0000                	unimp
800054b4:	00c6                	slli	ra,ra,0x11
800054b6:	0000                	unimp
800054b8:	030d                	addi	t1,t1,3
800054ba:	0000                	unimp
800054bc:	01ed                	addi	gp,gp,27 # 800078ef <__global_pointer$+0x1b>
800054be:	0000                	unimp
800054c0:	0278                	addi	a4,sp,268
800054c2:	0000                	unimp
800054c4:	000003af          	.insn	4, 0x03af
800054c8:	008e                	slli	ra,ra,0x3
800054ca:	0000                	unimp
800054cc:	0056                	c.slli	zero,0x15
800054ce:	0000                	unimp
800054d0:	00000267          	jalr	tp,zero # 0 <_start-0x80000000>
800054d4:	00de                	slli	ra,ra,0x17
800054d6:	0000                	unimp
800054d8:	005f 0000 034b      	.insn	6, 0x034b0000005f
800054de:	0000                	unimp
800054e0:	000002e7          	jalr	t0,zero # 0 <_start-0x80000000>
800054e4:	0151                	addi	sp,sp,20
800054e6:	0000                	unimp
800054e8:	03ae                	slli	t2,t2,0xb
800054ea:	0000                	unimp
800054ec:	02f0                	addi	a2,sp,332
800054ee:	0000                	unimp
800054f0:	00000057          	vadd.vv	v0,v0,v0,v0.t
800054f4:	0035                	c.nop	13
800054f6:	0000                	unimp
800054f8:	0079                	c.nop	30
800054fa:	0000                	unimp
800054fc:	0056                	c.slli	zero,0x15
800054fe:	0000                	unimp
80005500:	00000107          	vle8.v	v2,(zero),v0.t
80005504:	0379                	addi	t1,t1,30
80005506:	0000                	unimp
80005508:	0244                	addi	s1,sp,260
8000550a:	0000                	unimp
8000550c:	010d                	addi	sp,sp,3
8000550e:	0000                	unimp
80005510:	029a                	slli	t0,t0,0x6
80005512:	0000                	unimp
80005514:	000000bb          	.insn	4, 0x00bb
80005518:	0044                	addi	s1,sp,4
8000551a:	0000                	unimp
8000551c:	000002db          	.insn	4, 0x02db
80005520:	00e6                	slli	ra,ra,0x19
80005522:	0000                	unimp
80005524:	021a                	slli	tp,tp,0x6
80005526:	0000                	unimp
80005528:	0048                	addi	a0,sp,4
8000552a:	0000                	unimp
8000552c:	000002f7          	.insn	4, 0x02f7
80005530:	014a                	slli	sp,sp,0x12
80005532:	0000                	unimp
80005534:	03c1                	addi	t2,t2,16
80005536:	0000                	unimp
80005538:	00000223          	sb	zero,4(zero) # 4 <_start-0x7ffffffc>
8000553c:	025e                	slli	tp,tp,0x17
8000553e:	0000                	unimp
80005540:	0251                	addi	tp,tp,20 # 14 <_start-0x7fffffec>
80005542:	0000                	unimp
80005544:	000a                	c.slli	zero,0x2
80005546:	0000                	unimp
80005548:	0140                	addi	s0,sp,132
8000554a:	0000                	unimp
8000554c:	0230                	addi	a2,sp,264
8000554e:	0000                	unimp
80005550:	031e                	slli	t1,t1,0x7
80005552:	0000                	unimp
80005554:	007a                	c.slli	zero,0x1e
80005556:	0000                	unimp
80005558:	0020                	addi	s0,sp,8
8000555a:	0000                	unimp
8000555c:	03bd                	addi	t2,t2,15
8000555e:	0000                	unimp
80005560:	0286                	slli	t0,t0,0x1
80005562:	0000                	unimp
80005564:	0120                	addi	s0,sp,136
80005566:	0000                	unimp
80005568:	01c2                	slli	gp,gp,0x10
8000556a:	0000                	unimp
8000556c:	025c                	addi	a5,sp,260
8000556e:	0000                	unimp
80005570:	00a1                	addi	ra,ra,8
80005572:	0000                	unimp
80005574:	0080                	addi	s0,sp,64
80005576:	0000                	unimp
80005578:	0370                	addi	a2,sp,396
8000557a:	0000                	unimp
8000557c:	006d                	c.nop	27
8000557e:	0000                	unimp
80005580:	00dc                	addi	a5,sp,68
80005582:	0000                	unimp
80005584:	000000af          	.insn	4, 0x00af
80005588:	0332                	slli	t1,t1,0xc
8000558a:	0000                	unimp
8000558c:	024e                	slli	tp,tp,0x13
8000558e:	0000                	unimp
80005590:	01a9                	addi	gp,gp,10 # 800078de <__global_pointer$+0xa>
80005592:	0000                	unimp
80005594:	019d                	addi	gp,gp,7 # 800078db <__global_pointer$+0x7>
80005596:	0000                	unimp
80005598:	00d9                	addi	ra,ra,22
8000559a:	0000                	unimp
8000559c:	015a                	slli	sp,sp,0x16
8000559e:	0000                	unimp
800055a0:	00cd                	addi	ra,ra,19
800055a2:	0000                	unimp
800055a4:	00f9                	addi	ra,ra,30
800055a6:	0000                	unimp
800055a8:	0000003f 0000027b 	.insn	8, 0x027b0000003f
800055b0:	035a                	slli	t1,t1,0x16
800055b2:	0000                	unimp
800055b4:	0202                	c.slli	tp,0x0
800055b6:	0000                	unimp
800055b8:	000e                	c.slli	zero,0x3
800055ba:	0000                	unimp
800055bc:	031f 0000 02fe      	.insn	6, 0x02fe0000031f
800055c2:	0000                	unimp
800055c4:	0372                	slli	t1,t1,0x1c
800055c6:	0000                	unimp
800055c8:	0262                	slli	tp,tp,0x18
800055ca:	0000                	unimp
800055cc:	000003ab          	.insn	4, 0x03ab
800055d0:	00000177          	.insn	4, 0x0177
800055d4:	009d                	addi	ra,ra,7
800055d6:	0000                	unimp
800055d8:	0078                	addi	a4,sp,12
800055da:	0000                	unimp
800055dc:	0376                	slli	t1,t1,0x1d
800055de:	0000                	unimp
800055e0:	000003c3          	fmadd.s	ft7,ft0,ft0,ft0,rne
800055e4:	00ac                	addi	a1,sp,72
800055e6:	0000                	unimp
800055e8:	000003d7          	vadd.vv	v7,v0,v0,v0.t
800055ec:	03ce                	slli	t2,t2,0x13
800055ee:	0000                	unimp
800055f0:	000002f3          	.insn	4, 0x02f3
800055f4:	039a                	slli	t2,t2,0x6
800055f6:	0000                	unimp
800055f8:	0000023b          	.insn	4, 0x023b
800055fc:	00000143          	fmadd.s	ft2,ft0,ft0,ft0,rne
80005600:	0160                	addi	s0,sp,140
80005602:	0000                	unimp
80005604:	0000030f          	.insn	4, 0x030f
80005608:	0362                	slli	t1,t1,0x18
8000560a:	0000                	unimp
8000560c:	0340                	addi	s0,sp,388
8000560e:	0000                	unimp
80005610:	000003bb          	.insn	4, 0x03bb
80005614:	0064                	addi	s1,sp,12
80005616:	0000                	unimp
80005618:	01ec                	addi	a1,sp,204
8000561a:	0000                	unimp
8000561c:	0304                	addi	s1,sp,384
8000561e:	0000                	unimp
80005620:	0212                	slli	tp,tp,0x4
80005622:	0000                	unimp
80005624:	000002ef          	jal	t0,80005624 <input_data+0x23d0>
80005628:	0169                	addi	sp,sp,26
8000562a:	0000                	unimp
8000562c:	02b8                	addi	a4,sp,328
8000562e:	0000                	unimp
80005630:	0141                	addi	sp,sp,16
80005632:	0000                	unimp
80005634:	028a                	slli	t0,t0,0x2
80005636:	0000                	unimp
80005638:	0045                	c.nop	17
8000563a:	0000                	unimp
8000563c:	03da                	slli	t2,t2,0x16
8000563e:	0000                	unimp
80005640:	0228                	addi	a0,sp,264
80005642:	0000                	unimp
80005644:	00c0                	addi	s0,sp,68
80005646:	0000                	unimp
80005648:	00000037          	lui	zero,0x0
8000564c:	031e                	slli	t1,t1,0x7
8000564e:	0000                	unimp
80005650:	0000005b          	.insn	4, 0x005b
80005654:	00000027          	vse8.v	v0,(zero),v0.t
80005658:	00000233          	add	tp,zero,zero
8000565c:	028e                	slli	t0,t0,0x3
8000565e:	0000                	unimp
80005660:	0234                	addi	a3,sp,264
80005662:	0000                	unimp
80005664:	02f9                	addi	t0,t0,30
80005666:	0000                	unimp
80005668:	0220                	addi	s0,sp,264
8000566a:	0000                	unimp
8000566c:	037c                	addi	a5,sp,396
8000566e:	0000                	unimp
80005670:	000000a7          	vse8.v	v1,(zero),v0.t
80005674:	0321                	addi	t1,t1,8
80005676:	0000                	unimp
80005678:	007a                	c.slli	zero,0x1e
8000567a:	0000                	unimp
8000567c:	0115                	addi	sp,sp,5
8000567e:	0000                	unimp
80005680:	0019                	c.nop	6
80005682:	0000                	unimp
80005684:	000001c3          	fmadd.s	ft3,ft0,ft0,ft0,rne
80005688:	033d                	addi	t1,t1,15
8000568a:	0000                	unimp
8000568c:	000003c7          	fmsub.s	ft7,ft0,ft0,ft0,rne
80005690:	030d                	addi	t1,t1,3
80005692:	0000                	unimp
80005694:	0169                	addi	sp,sp,26
80005696:	0000                	unimp
80005698:	00a8                	addi	a0,sp,72
8000569a:	0000                	unimp
8000569c:	0040                	addi	s0,sp,4
8000569e:	0000                	unimp
800056a0:	018d                	addi	gp,gp,3 # 800078d7 <__global_pointer$+0x3>
800056a2:	0000                	unimp
800056a4:	03a0                	addi	s0,sp,456
800056a6:	0000                	unimp
800056a8:	00000233          	add	tp,zero,zero
800056ac:	0392                	slli	t2,t2,0x4
800056ae:	0000                	unimp
800056b0:	0150                	addi	a2,sp,132
800056b2:	0000                	unimp
800056b4:	0218                	addi	a4,sp,256
800056b6:	0000                	unimp
800056b8:	01de                	slli	gp,gp,0x17
800056ba:	0000                	unimp
800056bc:	000000f3          	.insn	4, 0x00f3
800056c0:	0101                	addi	sp,sp,0
800056c2:	0000                	unimp
800056c4:	0108                	addi	a0,sp,128
800056c6:	0000                	unimp
800056c8:	01dd                	addi	gp,gp,23 # 800078eb <__global_pointer$+0x17>
800056ca:	0000                	unimp
800056cc:	0000036f          	jal	t1,800056cc <input_data+0x2478>
800056d0:	0186                	slli	gp,gp,0x1
800056d2:	0000                	unimp
800056d4:	0280                	addi	s0,sp,320
800056d6:	0000                	unimp
800056d8:	02bd                	addi	t0,t0,15
800056da:	0000                	unimp
800056dc:	00d0                	addi	a2,sp,68
800056de:	0000                	unimp
800056e0:	0148                	addi	a0,sp,132
800056e2:	0000                	unimp
800056e4:	012e                	slli	sp,sp,0xb
800056e6:	0000                	unimp
800056e8:	000001bb          	.insn	4, 0x01bb
800056ec:	00000127          	vse8.v	v2,(zero),v0.t
800056f0:	0209                	addi	tp,tp,2 # 2 <_start-0x7ffffffe>
800056f2:	0000                	unimp
800056f4:	032d                	addi	t1,t1,11
800056f6:	0000                	unimp
800056f8:	0392                	slli	t2,t2,0x4
800056fa:	0000                	unimp
800056fc:	023d                	addi	tp,tp,15 # f <_start-0x7ffffff1>
800056fe:	0000                	unimp
80005700:	0076                	c.slli	zero,0x1d
80005702:	0000                	unimp
80005704:	0159                	addi	sp,sp,22
80005706:	0000                	unimp
80005708:	020d                	addi	tp,tp,3 # 3 <_start-0x7ffffffd>
8000570a:	0000                	unimp
8000570c:	03c4                	addi	s1,sp,452
8000570e:	0000                	unimp
80005710:	01fc                	addi	a5,sp,204
80005712:	0000                	unimp
80005714:	01e2                	slli	gp,gp,0x18
80005716:	0000                	unimp
80005718:	001e                	c.slli	zero,0x7
8000571a:	0000                	unimp
8000571c:	025e                	slli	tp,tp,0x17
8000571e:	0000                	unimp
80005720:	01a0                	addi	s0,sp,200
80005722:	0000                	unimp
80005724:	0065                	c.nop	25
80005726:	0000                	unimp
80005728:	00000047          	fmsub.s	ft0,ft0,ft0,ft0,rne
8000572c:	0079                	c.nop	30
8000572e:	0000                	unimp
80005730:	005c                	addi	a5,sp,4
80005732:	0000                	unimp
80005734:	000001b3          	add	gp,zero,zero
80005738:	011c                	addi	a5,sp,128
8000573a:	0000                	unimp
8000573c:	01c5                	addi	gp,gp,17 # 800078e5 <__global_pointer$+0x11>
8000573e:	0000                	unimp
80005740:	00a1                	addi	ra,ra,8
80005742:	0000                	unimp
80005744:	0014                	.insn	2, 0x0014
80005746:	0000                	unimp
80005748:	0169                	addi	sp,sp,26
8000574a:	0000                	unimp
8000574c:	0046                	c.slli	zero,0x11
8000574e:	0000                	unimp
80005750:	019e                	slli	gp,gp,0x7
80005752:	0000                	unimp
80005754:	00000017          	auipc	zero,0x0
80005758:	0324                	addi	s1,sp,392
8000575a:	0000                	unimp
8000575c:	00ff 0000 0347 0000 	.insn	10, 0x011400000347000000ff
80005764:	0114 
80005766:	0000                	unimp
80005768:	024a                	slli	tp,tp,0x12
8000576a:	0000                	unimp
8000576c:	037a                	slli	t1,t1,0x1e
8000576e:	0000                	unimp
80005770:	0024                	addi	s1,sp,8
80005772:	0000                	unimp
80005774:	000001ab          	.insn	4, 0x01ab
80005778:	00f6                	slli	ra,ra,0x1d
8000577a:	0000                	unimp
8000577c:	021e                	slli	tp,tp,0x7
8000577e:	0000                	unimp
80005780:	0361                	addi	t1,t1,24
80005782:	0000                	unimp
80005784:	026e                	slli	tp,tp,0x1b
80005786:	0000                	unimp
80005788:	03b9                	addi	t2,t2,14
8000578a:	0000                	unimp
8000578c:	000002bb          	.insn	4, 0x02bb
80005790:	016e                	slli	sp,sp,0x1b
80005792:	0000                	unimp
80005794:	0305                	addi	t1,t1,1
80005796:	0000                	unimp
80005798:	00000323          	sb	zero,6(zero) # 6 <_start-0x7ffffffa>
8000579c:	0128                	addi	a0,sp,136
8000579e:	0000                	unimp
800057a0:	0085                	addi	ra,ra,1
800057a2:	0000                	unimp
800057a4:	0115                	addi	sp,sp,5
800057a6:	0000                	unimp
800057a8:	0211                	addi	tp,tp,4 # 4 <_start-0x7ffffffc>
800057aa:	0000                	unimp
800057ac:	0068                	addi	a0,sp,12
800057ae:	0000                	unimp
800057b0:	00e5                	addi	ra,ra,25
800057b2:	0000                	unimp
800057b4:	0050                	addi	a2,sp,4
800057b6:	0000                	unimp
800057b8:	01ce                	slli	gp,gp,0x13
800057ba:	0000                	unimp
800057bc:	0278                	addi	a4,sp,268
800057be:	0000                	unimp
800057c0:	0104                	addi	s1,sp,128
800057c2:	0000                	unimp
800057c4:	0000032f          	.insn	4, 0x032f
800057c8:	0025                	c.nop	9
800057ca:	0000                	unimp
800057cc:	00000353          	fadd.s	ft6,ft0,ft0,rne
800057d0:	00ed                	addi	ra,ra,27
800057d2:	0000                	unimp
800057d4:	02dc                	addi	a5,sp,324
800057d6:	0000                	unimp
800057d8:	000000f3          	.insn	4, 0x00f3
800057dc:	0189                	addi	gp,gp,2 # 800078d6 <__global_pointer$+0x2>
800057de:	0000                	unimp
800057e0:	0362                	slli	t1,t1,0x18
800057e2:	0000                	unimp
800057e4:	02f8                	addi	a4,sp,332
800057e6:	0000                	unimp
800057e8:	00c4                	addi	s1,sp,68
800057ea:	0000                	unimp
800057ec:	007e                	c.slli	zero,0x1f
800057ee:	0000                	unimp
800057f0:	00000277          	.insn	4, 0x0277
800057f4:	00a8                	addi	a0,sp,72
800057f6:	0000                	unimp
800057f8:	012d                	addi	sp,sp,11
800057fa:	0000                	unimp
800057fc:	0000034b          	fnmsub.s	ft6,ft0,ft0,ft0,rne
80005800:	0265                	addi	tp,tp,25 # 19 <_start-0x7fffffe7>
80005802:	0000                	unimp
80005804:	00bd                	addi	ra,ra,15
80005806:	0000                	unimp
80005808:	014d                	addi	sp,sp,19
8000580a:	0000                	unimp
8000580c:	024d                	addi	tp,tp,19 # 13 <_start-0x7fffffed>
8000580e:	0000                	unimp
80005810:	000000f7          	.insn	4, 0x00f7
80005814:	03a8                	addi	a0,sp,456
80005816:	0000                	unimp
80005818:	00c5                	addi	ra,ra,17
8000581a:	0000                	unimp
8000581c:	0100                	addi	s0,sp,128
8000581e:	0000                	unimp
80005820:	0252                	slli	tp,tp,0x14
80005822:	0000                	unimp
80005824:	00e8                	addi	a0,sp,76
80005826:	0000                	unimp
80005828:	03bc                	addi	a5,sp,456
8000582a:	0000                	unimp
8000582c:	0000004b          	fnmsub.s	ft0,ft0,ft0,ft0,rne
80005830:	0132                	slli	sp,sp,0xc
80005832:	0000                	unimp
80005834:	00be                	slli	ra,ra,0xf
80005836:	0000                	unimp
80005838:	0149                	addi	sp,sp,18
8000583a:	0000                	unimp
8000583c:	01a8                	addi	a0,sp,200
8000583e:	0000                	unimp
80005840:	0099                	addi	ra,ra,6
80005842:	0000                	unimp
80005844:	000002ef          	jal	t0,80005844 <input_data+0x25f0>
80005848:	02b2                	slli	t0,t0,0xc
8000584a:	0000                	unimp
8000584c:	02f5                	addi	t0,t0,29
8000584e:	0000                	unimp
80005850:	0325                	addi	t1,t1,9
80005852:	0000                	unimp
80005854:	036c                	addi	a1,sp,396
80005856:	0000                	unimp
80005858:	0000021b          	.insn	4, 0x021b
8000585c:	0030                	addi	a2,sp,8
8000585e:	0000                	unimp
80005860:	007a                	c.slli	zero,0x1e
80005862:	0000                	unimp
80005864:	0359                	addi	t1,t1,22
80005866:	0000                	unimp
80005868:	01d9                	addi	gp,gp,22 # 800078ea <__global_pointer$+0x16>
8000586a:	0000                	unimp
8000586c:	0302                	c.slli	t1,0x0
8000586e:	0000                	unimp
80005870:	0184                	addi	s1,sp,192
80005872:	0000                	unimp
80005874:	027e                	slli	tp,tp,0x1f
80005876:	0000                	unimp
80005878:	007d                	c.nop	31
8000587a:	0000                	unimp
8000587c:	01e8                	addi	a0,sp,204
8000587e:	0000                	unimp
80005880:	03cd                	addi	t2,t2,19
80005882:	0000                	unimp
80005884:	00b0                	addi	a2,sp,72
80005886:	0000                	unimp
80005888:	000000cb          	fnmsub.s	ft1,ft0,ft0,ft0,rne
8000588c:	01da                	slli	gp,gp,0x16
8000588e:	0000                	unimp
80005890:	02b5                	addi	t0,t0,13
80005892:	0000                	unimp
80005894:	01cd                	addi	gp,gp,19 # 800078e7 <__global_pointer$+0x13>
80005896:	0000                	unimp
80005898:	0052                	c.slli	zero,0x14
8000589a:	0000                	unimp
8000589c:	025e                	slli	tp,tp,0x17
8000589e:	0000                	unimp
800058a0:	01b0                	addi	a2,sp,200
800058a2:	0000                	unimp
800058a4:	0000039b          	.insn	4, 0x039b
800058a8:	0046                	c.slli	zero,0x11
800058aa:	0000                	unimp
800058ac:	0000                	unimp
800058ae:	0000                	unimp
800058b0:	00000173          	.insn	4, 0x0173
800058b4:	0278                	addi	a4,sp,268
800058b6:	0000                	unimp
800058b8:	00ce                	slli	ra,ra,0x13
800058ba:	0000                	unimp
800058bc:	0118                	addi	a4,sp,128
800058be:	0000                	unimp
800058c0:	025c                	addi	a5,sp,260
800058c2:	0000                	unimp
800058c4:	03a0                	addi	s0,sp,456
800058c6:	0000                	unimp
800058c8:	02ae                	slli	t0,t0,0xb
800058ca:	0000                	unimp
800058cc:	012c                	addi	a1,sp,136
800058ce:	0000                	unimp
800058d0:	0078                	addi	a4,sp,12
800058d2:	0000                	unimp
800058d4:	000001c3          	fmadd.s	ft3,ft0,ft0,ft0,rne
800058d8:	0000031b          	.insn	4, 0x031b
800058dc:	000002bf 0000032a 	.insn	8, 0x032a000002bf
800058e4:	000002c7          	fmsub.s	ft5,ft0,ft0,ft0,rne
800058e8:	02c4                	addi	s1,sp,324
800058ea:	0000                	unimp
800058ec:	026c                	addi	a1,sp,268
800058ee:	0000                	unimp
800058f0:	0165                	addi	sp,sp,25
800058f2:	0000                	unimp
800058f4:	000001bb          	.insn	4, 0x01bb
800058f8:	0062                	c.slli	zero,0x18
800058fa:	0000                	unimp
800058fc:	0315                	addi	t1,t1,5
800058fe:	0000                	unimp
80005900:	00000387          	vle8.v	v7,(zero),v0.t
80005904:	00000263          	beqz	zero,80005908 <input_data+0x26b4>
80005908:	005d                	c.nop	23
8000590a:	0000                	unimp
8000590c:	000000e7          	jalr	zero # 0 <_start-0x80000000>
80005910:	0178                	addi	a4,sp,140
80005912:	0000                	unimp
80005914:	0212                	slli	tp,tp,0x4
80005916:	0000                	unimp
80005918:	0000012b          	.insn	4, 0x012b
8000591c:	00000317          	auipc	t1,0x0
80005920:	0001                	nop
80005922:	0000                	unimp
80005924:	02dc                	addi	a5,sp,324
80005926:	0000                	unimp
80005928:	012a                	slli	sp,sp,0xa
8000592a:	0000                	unimp
8000592c:	0121                	addi	sp,sp,8
8000592e:	0000                	unimp
80005930:	00000083          	lb	ra,0(zero) # 0 <_start-0x80000000>
80005934:	02d6                	slli	t0,t0,0x15
80005936:	0000                	unimp
80005938:	0342                	slli	t1,t1,0x10
8000593a:	0000                	unimp
8000593c:	0326                	slli	t1,t1,0x9
8000593e:	0000                	unimp
80005940:	00f9                	addi	ra,ra,30
80005942:	0000                	unimp
80005944:	00ac                	addi	a1,sp,72
80005946:	0000                	unimp
80005948:	02c5                	addi	t0,t0,17
8000594a:	0000                	unimp
8000594c:	0382                	c.slli	t2,0x0
8000594e:	0000                	unimp
80005950:	0000007b          	.insn	4, 0x007b
80005954:	01c8                	addi	a0,sp,196
80005956:	0000                	unimp
80005958:	0005                	c.nop	1
8000595a:	0000                	unimp
8000595c:	03ae                	slli	t2,t2,0xb
8000595e:	0000                	unimp
80005960:	01ce                	slli	gp,gp,0x13
80005962:	0000                	unimp
80005964:	025f 0000 0142      	.insn	6, 0x01420000025f
8000596a:	0000                	unimp
8000596c:	0321                	addi	t1,t1,8 # 80005924 <input_data+0x26d0>
8000596e:	0000                	unimp
80005970:	00d0                	addi	a2,sp,68
80005972:	0000                	unimp
80005974:	000001f7          	.insn	4, 0x01f7
80005978:	01a5                	addi	gp,gp,9 # 800078dd <__global_pointer$+0x9>
8000597a:	0000                	unimp
8000597c:	02e5                	addi	t0,t0,25
8000597e:	0000                	unimp
80005980:	000000b7          	lui	ra,0x0
80005984:	0326                	slli	t1,t1,0x9
80005986:	0000                	unimp
80005988:	0102                	c.slli	sp,0x0
8000598a:	0000                	unimp
8000598c:	0279                	addi	tp,tp,30 # 1e <_start-0x7fffffe2>
8000598e:	0000                	unimp
80005990:	0215                	addi	tp,tp,5 # 5 <_start-0x7ffffffb>
80005992:	0000                	unimp
80005994:	03b6                	slli	t2,t2,0xd
80005996:	0000                	unimp
80005998:	0252                	slli	tp,tp,0x14
8000599a:	0000                	unimp
8000599c:	03b4                	addi	a3,sp,456
8000599e:	0000                	unimp
800059a0:	001f 0000 0028      	.insn	6, 0x00280000001f
800059a6:	0000                	unimp
800059a8:	03d8                	addi	a4,sp,452
800059aa:	0000                	unimp
800059ac:	0161                	addi	sp,sp,24
800059ae:	0000                	unimp
800059b0:	00d5                	addi	ra,ra,21 # 15 <_start-0x7fffffeb>
800059b2:	0000                	unimp
800059b4:	000000c3          	fmadd.s	ft1,ft0,ft0,ft0,rne
800059b8:	0032                	c.slli	zero,0xc
800059ba:	0000                	unimp
800059bc:	031a                	slli	t1,t1,0x6
800059be:	0000                	unimp
800059c0:	03d2                	slli	t2,t2,0x14
800059c2:	0000                	unimp
800059c4:	02bc                	addi	a5,sp,328
800059c6:	0000                	unimp
800059c8:	00d9                	addi	ra,ra,22
800059ca:	0000                	unimp
800059cc:	011f 0000 0335      	.insn	6, 0x03350000011f
800059d2:	0000                	unimp
800059d4:	0000010b          	.insn	4, 0x010b
800059d8:	02de                	slli	t0,t0,0x17
800059da:	0000                	unimp
800059dc:	0306                	slli	t1,t1,0x1
800059de:	0000                	unimp
800059e0:	022a                	slli	tp,tp,0xa
800059e2:	0000                	unimp
800059e4:	028a                	slli	t0,t0,0x2
800059e6:	0000                	unimp
800059e8:	0169                	addi	sp,sp,26
800059ea:	0000                	unimp
800059ec:	000000c7          	fmsub.s	ft1,ft0,ft0,ft0,rne
800059f0:	00ec                	addi	a1,sp,76
800059f2:	0000                	unimp
800059f4:	00000107          	vle8.v	v2,(zero),v0.t
800059f8:	00000063          	beqz	zero,800059f8 <input_data+0x27a4>
800059fc:	013c                	addi	a5,sp,136
800059fe:	0000                	unimp
80005a00:	032a                	slli	t1,t1,0xa
80005a02:	0000                	unimp
80005a04:	03b2                	slli	t2,t2,0xc
80005a06:	0000                	unimp
80005a08:	03d8                	addi	a4,sp,452
80005a0a:	0000                	unimp
80005a0c:	03ac                	addi	a1,sp,456
80005a0e:	0000                	unimp
80005a10:	0000037b          	.insn	4, 0x037b
80005a14:	0000025b          	.insn	4, 0x025b
80005a18:	00b4                	addi	a3,sp,72
80005a1a:	0000                	unimp
80005a1c:	0342                	slli	t1,t1,0x10
80005a1e:	0000                	unimp
80005a20:	014d                	addi	sp,sp,19
80005a22:	0000                	unimp
80005a24:	027f 0000 011e 0000 	.insn	10, 0x020a0000011e0000027f
80005a2c:	020a 
80005a2e:	0000                	unimp
80005a30:	0021                	c.nop	8
80005a32:	0000                	unimp
80005a34:	0100                	addi	s0,sp,128
80005a36:	0000                	unimp
80005a38:	00ca                	slli	ra,ra,0x12
80005a3a:	0000                	unimp
80005a3c:	01a2                	slli	gp,gp,0x8
80005a3e:	0000                	unimp
80005a40:	000001d3          	fadd.s	ft3,ft0,ft0,rne
80005a44:	010a                	slli	sp,sp,0x2
80005a46:	0000                	unimp
80005a48:	02cc                	addi	a1,sp,324
80005a4a:	0000                	unimp
80005a4c:	0396                	slli	t2,t2,0x5
80005a4e:	0000                	unimp
80005a50:	007e                	c.slli	zero,0x1f
80005a52:	0000                	unimp
80005a54:	0312                	slli	t1,t1,0x4
80005a56:	0000                	unimp
80005a58:	000002b7          	lui	t0,0x0
80005a5c:	030e                	slli	t1,t1,0x3
80005a5e:	0000                	unimp
80005a60:	0198                	addi	a4,sp,192
80005a62:	0000                	unimp
80005a64:	0211                	addi	tp,tp,4 # 4 <_start-0x7ffffffc>
80005a66:	0000                	unimp
80005a68:	0399                	addi	t2,t2,6
80005a6a:	0000                	unimp
80005a6c:	01ee                	slli	gp,gp,0x1b
80005a6e:	0000                	unimp
80005a70:	000000cf          	fnmadd.s	ft1,ft0,ft0,ft0,rne
80005a74:	012d                	addi	sp,sp,11
80005a76:	0000                	unimp
80005a78:	039d                	addi	t2,t2,7
80005a7a:	0000                	unimp
80005a7c:	000000c3          	fmadd.s	ft1,ft0,ft0,ft0,rne
80005a80:	0324                	addi	s1,sp,392
80005a82:	0000                	unimp
80005a84:	00000187          	vle8.v	v3,(zero),v0.t
80005a88:	000003b7          	lui	t2,0x0
80005a8c:	02da                	slli	t0,t0,0x16
80005a8e:	0000                	unimp
80005a90:	0228                	addi	a0,sp,264
80005a92:	0000                	unimp
80005a94:	0390                	addi	a2,sp,448
80005a96:	0000                	unimp
80005a98:	01b0                	addi	a2,sp,200
80005a9a:	0000                	unimp
80005a9c:	031e                	slli	t1,t1,0x7
80005a9e:	0000                	unimp
80005aa0:	0021                	c.nop	8
80005aa2:	0000                	unimp
80005aa4:	01d8                	addi	a4,sp,196
80005aa6:	0000                	unimp
80005aa8:	0106                	slli	sp,sp,0x1
80005aaa:	0000                	unimp
80005aac:	033a                	slli	t1,t1,0xe
80005aae:	0000                	unimp
80005ab0:	02ec                	addi	a1,sp,332
80005ab2:	0000                	unimp
80005ab4:	0000016f          	jal	sp,80005ab4 <input_data+0x2860>
80005ab8:	00000343          	fmadd.s	ft6,ft0,ft0,ft0,rne
80005abc:	00000073          	ecall
80005ac0:	0175                	addi	sp,sp,29
80005ac2:	0000                	unimp
80005ac4:	00e9                	addi	ra,ra,26
80005ac6:	0000                	unimp
80005ac8:	015f 0000 0352      	.insn	6, 0x03520000015f
80005ace:	0000                	unimp
80005ad0:	038e                	slli	t2,t2,0x3
80005ad2:	0000                	unimp
80005ad4:	0356                	slli	t1,t1,0x15
80005ad6:	0000                	unimp
80005ad8:	02b0                	addi	a2,sp,328
80005ada:	0000                	unimp
80005adc:	00000227          	vse8.v	v4,(zero),v0.t
80005ae0:	00000373          	.insn	4, 0x0373
80005ae4:	0359                	addi	t1,t1,22
80005ae6:	0000                	unimp
80005ae8:	0018                	.insn	2, 0x0018
80005aea:	0000                	unimp
80005aec:	013a                	slli	sp,sp,0xe
80005aee:	0000                	unimp
80005af0:	0000022b          	.insn	4, 0x022b
80005af4:	0336                	slli	t1,t1,0xd
80005af6:	0000                	unimp
80005af8:	03da                	slli	t2,t2,0x16
80005afa:	0000                	unimp
80005afc:	01a6                	slli	gp,gp,0x9
80005afe:	0000                	unimp
80005b00:	0395                	addi	t2,t2,5 # 5 <_start-0x7ffffffb>
80005b02:	0000                	unimp
80005b04:	000000af          	.insn	4, 0x00af
80005b08:	00ac                	addi	a1,sp,72
80005b0a:	0000                	unimp
80005b0c:	01d6                	slli	gp,gp,0x15
80005b0e:	0000                	unimp
80005b10:	0162                	slli	sp,sp,0x18
80005b12:	0000                	unimp
80005b14:	033e                	slli	t1,t1,0xf
80005b16:	0000                	unimp
80005b18:	00d0                	addi	a2,sp,68
80005b1a:	0000                	unimp
80005b1c:	00000137          	lui	sp,0x0
80005b20:	0342                	slli	t1,t1,0x10
80005b22:	0000                	unimp
80005b24:	00ce                	slli	ra,ra,0x13
80005b26:	0000                	unimp
80005b28:	028d                	addi	t0,t0,3 # 3 <_start-0x7ffffffd>
80005b2a:	0000                	unimp
80005b2c:	0090                	addi	a2,sp,64
80005b2e:	0000                	unimp
80005b30:	00000337          	lui	t1,0x0
80005b34:	006a                	c.slli	zero,0x1a
80005b36:	0000                	unimp
80005b38:	007e                	c.slli	zero,0x1f
80005b3a:	0000                	unimp
80005b3c:	027e                	slli	tp,tp,0x1f
80005b3e:	0000                	unimp
80005b40:	02b1                	addi	t0,t0,12
80005b42:	0000                	unimp
80005b44:	0086                	slli	ra,ra,0x1
80005b46:	0000                	unimp
80005b48:	00000133          	add	sp,zero,zero
80005b4c:	0000026f          	jal	tp,80005b4c <input_data+0x28f8>
80005b50:	0324                	addi	s1,sp,392
80005b52:	0000                	unimp
80005b54:	000001b7          	lui	gp,0x0
80005b58:	000001a7          	vse8.v	v3,(zero),v0.t
80005b5c:	0391                	addi	t2,t2,4
80005b5e:	0000                	unimp
80005b60:	015d                	addi	sp,sp,23 # 17 <_start-0x7fffffe9>
80005b62:	0000                	unimp
80005b64:	025a                	slli	tp,tp,0x16
80005b66:	0000                	unimp
80005b68:	01a8                	addi	a0,sp,200
80005b6a:	0000                	unimp
80005b6c:	03e4                	addi	s1,sp,460
80005b6e:	0000                	unimp
80005b70:	01ae                	slli	gp,gp,0xb
80005b72:	0000                	unimp
80005b74:	0000022b          	.insn	4, 0x022b
80005b78:	0090                	addi	a2,sp,64
80005b7a:	0000                	unimp
80005b7c:	01e1                	addi	gp,gp,24 # 18 <_start-0x7fffffe8>
80005b7e:	0000                	unimp
80005b80:	02f4                	addi	a3,sp,332
80005b82:	0000                	unimp
80005b84:	00e2                	slli	ra,ra,0x18
80005b86:	0000                	unimp
80005b88:	03de                	slli	t2,t2,0x17
80005b8a:	0000                	unimp
80005b8c:	0145                	addi	sp,sp,17
80005b8e:	0000                	unimp
80005b90:	000000cf          	fnmadd.s	ft1,ft0,ft0,ft0,rne
80005b94:	00000353          	fadd.s	ft6,ft0,ft0,rne
80005b98:	012e                	slli	sp,sp,0xb
80005b9a:	0000                	unimp
80005b9c:	00000217          	auipc	tp,0x0
80005ba0:	0339                	addi	t1,t1,14 # e <_start-0x7ffffff2>
80005ba2:	0000                	unimp
80005ba4:	0086                	slli	ra,ra,0x1
80005ba6:	0000                	unimp
80005ba8:	0351                	addi	t1,t1,20
80005baa:	0000                	unimp
80005bac:	00cc                	addi	a1,sp,68
80005bae:	0000                	unimp
80005bb0:	000002ab          	.insn	4, 0x02ab
80005bb4:	000002b7          	lui	t0,0x0
80005bb8:	022c                	addi	a1,sp,264
80005bba:	0000                	unimp
80005bbc:	00000317          	auipc	t1,0x0
80005bc0:	000002fb          	.insn	4, 0x02fb
80005bc4:	00a9                	addi	ra,ra,10
80005bc6:	0000                	unimp
80005bc8:	0215                	addi	tp,tp,5 # 80005ba1 <input_data+0x294d>
80005bca:	0000                	unimp
80005bcc:	0000026f          	jal	tp,80005bcc <input_data+0x2978>
80005bd0:	00c2                	slli	ra,ra,0x10
80005bd2:	0000                	unimp
80005bd4:	0056                	c.slli	zero,0x15
80005bd6:	0000                	unimp
80005bd8:	02d4                	addi	a3,sp,324
80005bda:	0000                	unimp
80005bdc:	01e4                	addi	s1,sp,204
80005bde:	0000                	unimp
80005be0:	01b8                	addi	a4,sp,200
80005be2:	0000                	unimp
80005be4:	005c                	addi	a5,sp,4
80005be6:	0000                	unimp
80005be8:	0366                	slli	t1,t1,0x19
80005bea:	0000                	unimp
80005bec:	000001d7          	vadd.vv	v3,v0,v0,v0.t
80005bf0:	0056                	c.slli	zero,0x15
80005bf2:	0000                	unimp
80005bf4:	021a                	slli	tp,tp,0x6
80005bf6:	0000                	unimp
80005bf8:	0000002f          	.insn	4, 0x002f
80005bfc:	0000012f          	.insn	4, 0x012f
80005c00:	00000333          	add	t1,zero,zero
80005c04:	0309                	addi	t1,t1,2 # 80005bbe <input_data+0x296a>
80005c06:	0000                	unimp
80005c08:	028c                	addi	a1,sp,320
80005c0a:	0000                	unimp
80005c0c:	02be                	slli	t0,t0,0xf
80005c0e:	0000                	unimp
80005c10:	0384                	addi	s1,sp,448
80005c12:	0000                	unimp
80005c14:	0212                	slli	tp,tp,0x4
80005c16:	0000                	unimp
80005c18:	020a                	slli	tp,tp,0x2
80005c1a:	0000                	unimp
80005c1c:	000001cb          	fnmsub.s	ft3,ft0,ft0,ft0,rne
80005c20:	0141                	addi	sp,sp,16
80005c22:	0000                	unimp
80005c24:	0391                	addi	t2,t2,4
80005c26:	0000                	unimp
80005c28:	0000022f          	.insn	4, 0x022f
80005c2c:	000003c3          	fmadd.s	ft7,ft0,ft0,ft0,rne
80005c30:	000003c3          	fmadd.s	ft7,ft0,ft0,ft0,rne
80005c34:	02ad                	addi	t0,t0,11 # b <_start-0x7ffffff5>
80005c36:	0000                	unimp
80005c38:	0171                	addi	sp,sp,28
80005c3a:	0000                	unimp
80005c3c:	00000147          	fmsub.s	ft2,ft0,ft0,ft0,rne
80005c40:	01d6                	slli	gp,gp,0x15
80005c42:	0000                	unimp
80005c44:	00a4                	addi	s1,sp,72
80005c46:	0000                	unimp
80005c48:	011c                	addi	a5,sp,128
80005c4a:	0000                	unimp
80005c4c:	01b5                	addi	gp,gp,13 # 800078e1 <__global_pointer$+0xd>
80005c4e:	0000                	unimp
80005c50:	03bd                	addi	t2,t2,15
80005c52:	0000                	unimp
80005c54:	0094                	addi	a3,sp,64
80005c56:	0000                	unimp
80005c58:	0268                	addi	a0,sp,268
80005c5a:	0000                	unimp
80005c5c:	0002                	c.slli	zero,0x0
80005c5e:	0000                	unimp
80005c60:	006c                	addi	a1,sp,12
80005c62:	0000                	unimp
80005c64:	006a                	c.slli	zero,0x1a
80005c66:	0000                	unimp
80005c68:	0128                	addi	a0,sp,136
80005c6a:	0000                	unimp
80005c6c:	000002e7          	jalr	t0,zero # 0 <_start-0x80000000>
80005c70:	0079                	c.nop	30
80005c72:	0000                	unimp
80005c74:	0130                	addi	a2,sp,136
80005c76:	0000                	unimp
80005c78:	00000083          	lb	ra,0(zero) # 0 <_start-0x80000000>
80005c7c:	02b6                	slli	t0,t0,0xd
80005c7e:	0000                	unimp
80005c80:	000003a7          	vse8.v	v7,(zero),v0.t
80005c84:	000001f7          	.insn	4, 0x01f7
80005c88:	03a9                	addi	t2,t2,10
80005c8a:	0000                	unimp
80005c8c:	0028                	addi	a0,sp,8
80005c8e:	0000                	unimp
80005c90:	00000373          	.insn	4, 0x0373
80005c94:	00000027          	vse8.v	v0,(zero),v0.t
80005c98:	00000383          	lb	t2,0(zero) # 0 <_start-0x80000000>
80005c9c:	0046                	c.slli	zero,0x11
80005c9e:	0000                	unimp
80005ca0:	00e5                	addi	ra,ra,25
80005ca2:	0000                	unimp
80005ca4:	027d                	addi	tp,tp,31 # 1f <_start-0x7fffffe1>
80005ca6:	0000                	unimp
80005ca8:	028e                	slli	t0,t0,0x3
80005caa:	0000                	unimp
80005cac:	0000034b          	fnmsub.s	ft6,ft0,ft0,ft0,rne
80005cb0:	0362                	slli	t1,t1,0x18
80005cb2:	0000                	unimp
80005cb4:	00000103          	lb	sp,0(zero) # 0 <_start-0x80000000>
80005cb8:	00fc                	addi	a5,sp,76
80005cba:	0000                	unimp
80005cbc:	00000213          	li	tp,0
80005cc0:	0034                	addi	a3,sp,8
80005cc2:	0000                	unimp
80005cc4:	01ec                	addi	a1,sp,204
80005cc6:	0000                	unimp
80005cc8:	03c9                	addi	t2,t2,18
80005cca:	0000                	unimp
80005ccc:	02b5                	addi	t0,t0,13
80005cce:	0000                	unimp
80005cd0:	000001a3          	sb	zero,3(zero) # 3 <_start-0x7ffffffd>
80005cd4:	0116                	slli	sp,sp,0x5
80005cd6:	0000                	unimp
80005cd8:	0309                	addi	t1,t1,2
80005cda:	0000                	unimp
80005cdc:	03ca                	slli	t2,t2,0x12
80005cde:	0000                	unimp
80005ce0:	01ba                	slli	gp,gp,0xe
80005ce2:	0000                	unimp
80005ce4:	0222                	slli	tp,tp,0x8
80005ce6:	0000                	unimp
80005ce8:	01c8                	addi	a0,sp,196
80005cea:	0000                	unimp
80005cec:	000001f7          	.insn	4, 0x01f7
80005cf0:	0045                	c.nop	17
80005cf2:	0000                	unimp
80005cf4:	000003bb          	.insn	4, 0x03bb
80005cf8:	0081                	addi	ra,ra,0
80005cfa:	0000                	unimp
80005cfc:	02b9                	addi	t0,t0,14
80005cfe:	0000                	unimp
80005d00:	0000026f          	jal	tp,80005d00 <input_data+0x2aac>
80005d04:	034a                	slli	t1,t1,0x12
80005d06:	0000                	unimp
80005d08:	00000167          	jalr	sp,zero # 0 <_start-0x80000000>
80005d0c:	0145                	addi	sp,sp,17
80005d0e:	0000                	unimp
80005d10:	00000203          	lb	tp,0(zero) # 0 <_start-0x80000000>
80005d14:	00df 0000 020f      	.insn	6, 0x020f000000df
80005d1a:	0000                	unimp
80005d1c:	0054                	addi	a3,sp,4
80005d1e:	0000                	unimp
80005d20:	01d5                	addi	gp,gp,21 # 800078e9 <__global_pointer$+0x15>
80005d22:	0000                	unimp
80005d24:	02dc                	addi	a5,sp,324
80005d26:	0000                	unimp
80005d28:	02d4                	addi	a3,sp,324
80005d2a:	0000                	unimp
80005d2c:	0000013f 00000068 	.insn	8, 0x00680000013f
80005d34:	000002bf 00000315 	.insn	8, 0x0315000002bf
80005d3c:	03d4                	addi	a3,sp,452
80005d3e:	0000                	unimp
80005d40:	006d                	c.nop	27
80005d42:	0000                	unimp
80005d44:	01be                	slli	gp,gp,0xf
80005d46:	0000                	unimp
80005d48:	033e                	slli	t1,t1,0xf
80005d4a:	0000                	unimp
80005d4c:	037c                	addi	a5,sp,396
80005d4e:	0000                	unimp
80005d50:	00000017          	auipc	zero,0x0
80005d54:	02b1                	addi	t0,t0,12
80005d56:	0000                	unimp
80005d58:	0374                	addi	a3,sp,396
80005d5a:	0000                	unimp
80005d5c:	0064                	addi	s1,sp,12
80005d5e:	0000                	unimp
80005d60:	0316                	slli	t1,t1,0x5
80005d62:	0000                	unimp
80005d64:	00c4                	addi	s1,sp,68
80005d66:	0000                	unimp
80005d68:	01fd                	addi	gp,gp,31 # 800078f3 <__global_pointer$+0x1f>
80005d6a:	0000                	unimp
80005d6c:	00000157          	vadd.vv	v2,v0,v0,v0.t
80005d70:	033c                	addi	a5,sp,392
80005d72:	0000                	unimp
80005d74:	027d                	addi	tp,tp,31 # 1f <_start-0x7fffffe1>
80005d76:	0000                	unimp
80005d78:	0244                	addi	s1,sp,260
80005d7a:	0000                	unimp
80005d7c:	0000016f          	jal	sp,80005d7c <input_data+0x2b28>
80005d80:	0000034f          	fnmadd.s	ft6,ft0,ft0,ft0,rne
80005d84:	0030                	addi	a2,sp,8
80005d86:	0000                	unimp
80005d88:	000001b3          	add	gp,zero,zero
80005d8c:	035c                	addi	a5,sp,388
80005d8e:	0000                	unimp
80005d90:	0124                	addi	s1,sp,136
80005d92:	0000                	unimp
80005d94:	02b8                	addi	a4,sp,328
80005d96:	0000                	unimp
80005d98:	0000020b          	.insn	4, 0x020b
80005d9c:	02d4                	addi	a3,sp,324
80005d9e:	0000                	unimp
80005da0:	038c                	addi	a1,sp,448
80005da2:	0000                	unimp
80005da4:	000000bf 00000325 	.insn	8, 0x0325000000bf
80005dac:	0188                	addi	a0,sp,192
80005dae:	0000                	unimp
80005db0:	000003b7          	lui	t2,0x0
80005db4:	01fe                	slli	gp,gp,0x1f
80005db6:	0000                	unimp
80005db8:	000000a3          	sb	zero,1(zero) # 1 <_start-0x7fffffff>
80005dbc:	000003cf          	fnmadd.s	ft7,ft0,ft0,ft0,rne
80005dc0:	0102                	c.slli	sp,0x0
80005dc2:	0000                	unimp
80005dc4:	0239                	addi	tp,tp,14 # e <_start-0x7ffffff2>
80005dc6:	0000                	unimp
80005dc8:	039a                	slli	t2,t2,0x6
80005dca:	0000                	unimp
80005dcc:	000002d3          	fadd.s	ft5,ft0,ft0,rne
80005dd0:	00e8                	addi	a0,sp,76
80005dd2:	0000                	unimp
80005dd4:	02b4                	addi	a3,sp,328
80005dd6:	0000                	unimp
80005dd8:	0148                	addi	a0,sp,132
80005dda:	0000                	unimp
80005ddc:	0031                	c.nop	12
80005dde:	0000                	unimp
80005de0:	028e                	slli	t0,t0,0x3
80005de2:	0000                	unimp
80005de4:	0030                	addi	a2,sp,8
80005de6:	0000                	unimp
80005de8:	00000023          	sb	zero,0(zero) # 0 <_start-0x80000000>
80005dec:	0058                	addi	a4,sp,4
80005dee:	0000                	unimp
80005df0:	01c2                	slli	gp,gp,0x10
80005df2:	0000                	unimp
80005df4:	0384                	addi	s1,sp,448
80005df6:	0000                	unimp
80005df8:	0356                	slli	t1,t1,0x15
80005dfa:	0000                	unimp
80005dfc:	01e5                	addi	gp,gp,25 # 800078ed <__global_pointer$+0x19>
80005dfe:	0000                	unimp
80005e00:	02bc                	addi	a5,sp,328
80005e02:	0000                	unimp
80005e04:	01a8                	addi	a0,sp,200
80005e06:	0000                	unimp
80005e08:	00000203          	lb	tp,0(zero) # 0 <_start-0x80000000>
80005e0c:	000002f7          	.insn	4, 0x02f7
80005e10:	021f 0000 01b9      	.insn	6, 0x01b90000021f
80005e16:	0000                	unimp
80005e18:	00000277          	.insn	4, 0x0277
80005e1c:	0039                	c.nop	14
80005e1e:	0000                	unimp
80005e20:	015a                	slli	sp,sp,0x16
80005e22:	0000                	unimp
80005e24:	027d                	addi	tp,tp,31 # 1f <_start-0x7fffffe1>
80005e26:	0000                	unimp
80005e28:	032e                	slli	t1,t1,0xb
80005e2a:	0000                	unimp
80005e2c:	0195                	addi	gp,gp,5 # 800078d9 <__global_pointer$+0x5>
80005e2e:	0000                	unimp
80005e30:	0375                	addi	t1,t1,29
80005e32:	0000                	unimp
80005e34:	0278                	addi	a4,sp,268
80005e36:	0000                	unimp
80005e38:	0261                	addi	tp,tp,24 # 18 <_start-0x7fffffe8>
80005e3a:	0000                	unimp
80005e3c:	00000093          	li	ra,0
80005e40:	03b8                	addi	a4,sp,456
80005e42:	0000                	unimp
80005e44:	01be                	slli	gp,gp,0xf
80005e46:	0000                	unimp
80005e48:	00000397          	auipc	t2,0x0
80005e4c:	00000173          	.insn	4, 0x0173
80005e50:	009a                	slli	ra,ra,0x6
80005e52:	0000                	unimp
80005e54:	000003e3          	beqz	zero,8000665a <input_data+0x3406>
80005e58:	032e                	slli	t1,t1,0xb
80005e5a:	0000                	unimp
80005e5c:	03c5                	addi	t2,t2,17 # 80005e59 <input_data+0x2c05>
80005e5e:	0000                	unimp
80005e60:	0000036b          	.insn	4, 0x036b
80005e64:	02d9                	addi	t0,t0,22
80005e66:	0000                	unimp
80005e68:	03e1                	addi	t2,t2,24
80005e6a:	0000                	unimp
80005e6c:	02de                	slli	t0,t0,0x17
80005e6e:	0000                	unimp
80005e70:	02ff 0000 01d3 0000 	.insn	10, 0x00a3000001d3000002ff
80005e78:	00a3 
80005e7a:	0000                	unimp
80005e7c:	02b2                	slli	t0,t0,0xc
80005e7e:	0000                	unimp
80005e80:	01e0                	addi	s0,sp,204
80005e82:	0000                	unimp
80005e84:	0125                	addi	sp,sp,9
80005e86:	0000                	unimp
80005e88:	02ad                	addi	t0,t0,11
80005e8a:	0000                	unimp
80005e8c:	000002af          	.insn	4, 0x02af
80005e90:	0068                	addi	a0,sp,12
80005e92:	0000                	unimp
80005e94:	01b1                	addi	gp,gp,12 # 800078e0 <__global_pointer$+0xc>
80005e96:	0000                	unimp
80005e98:	03ae                	slli	t2,t2,0xb
80005e9a:	0000                	unimp
80005e9c:	0000016b          	.insn	4, 0x016b
80005ea0:	001c                	.insn	2, 0x001c
80005ea2:	0000                	unimp
80005ea4:	02d5                	addi	t0,t0,21
80005ea6:	0000                	unimp
80005ea8:	000000a3          	sb	zero,1(zero) # 1 <_start-0x7fffffff>
80005eac:	02e2                	slli	t0,t0,0x18
80005eae:	0000                	unimp
80005eb0:	014a                	slli	sp,sp,0x12
80005eb2:	0000                	unimp
80005eb4:	0172                	slli	sp,sp,0x1c
80005eb6:	0000                	unimp
80005eb8:	0081                	addi	ra,ra,0
80005eba:	0000                	unimp
80005ebc:	02e5                	addi	t0,t0,25
80005ebe:	0000                	unimp
80005ec0:	03b8                	addi	a4,sp,456
80005ec2:	0000                	unimp
80005ec4:	01bc                	addi	a5,sp,200
80005ec6:	0000                	unimp
80005ec8:	00f1                	addi	ra,ra,28
80005eca:	0000                	unimp
80005ecc:	0135                	addi	sp,sp,13
80005ece:	0000                	unimp
80005ed0:	017c                	addi	a5,sp,140
80005ed2:	0000                	unimp
80005ed4:	00000117          	auipc	sp,0x0
80005ed8:	0150                	addi	a2,sp,132
80005eda:	0000                	unimp
80005edc:	0151                	addi	sp,sp,20 # 80005ee8 <input_data+0x2c94>
80005ede:	0000                	unimp
80005ee0:	025f 0000 01f7      	.insn	6, 0x01f70000025f
80005ee6:	0000                	unimp
80005ee8:	0084                	addi	s1,sp,64
80005eea:	0000                	unimp
80005eec:	0205                	addi	tp,tp,1 # 1 <_start-0x7fffffff>
80005eee:	0000                	unimp
80005ef0:	0170                	addi	a2,sp,140
80005ef2:	0000                	unimp
80005ef4:	0372                	slli	t1,t1,0x1c
80005ef6:	0000                	unimp
80005ef8:	00000057          	vadd.vv	v0,v0,v0,v0.t
80005efc:	0000021b          	.insn	4, 0x021b
80005f00:	000002af          	.insn	4, 0x02af
80005f04:	0092                	slli	ra,ra,0x4
80005f06:	0000                	unimp
80005f08:	00e9                	addi	ra,ra,26
80005f0a:	0000                	unimp
80005f0c:	0150                	addi	a2,sp,132
80005f0e:	0000                	unimp
80005f10:	01c9                	addi	gp,gp,18 # 800078e6 <__global_pointer$+0x12>
80005f12:	0000                	unimp
80005f14:	0315                	addi	t1,t1,5
80005f16:	0000                	unimp
80005f18:	00f6                	slli	ra,ra,0x1d
80005f1a:	0000                	unimp
80005f1c:	004e                	c.slli	zero,0x13
80005f1e:	0000                	unimp
80005f20:	00c0                	addi	s0,sp,68
80005f22:	0000                	unimp
80005f24:	0000016f          	jal	sp,80005f24 <input_data+0x2cd0>
80005f28:	0049                	c.nop	18
80005f2a:	0000                	unimp
80005f2c:	0358                	addi	a4,sp,388
80005f2e:	0000                	unimp
80005f30:	03de                	slli	t2,t2,0x17
80005f32:	0000                	unimp
80005f34:	000001a7          	vse8.v	v3,(zero),v0.t
80005f38:	03b1                	addi	t2,t2,12
80005f3a:	0000                	unimp
80005f3c:	0052                	c.slli	zero,0x14
80005f3e:	0000                	unimp
80005f40:	000003c7          	fmsub.s	ft7,ft0,ft0,ft0,rne
80005f44:	0399                	addi	t2,t2,6
80005f46:	0000                	unimp
80005f48:	03d4                	addi	a3,sp,452
80005f4a:	0000                	unimp
80005f4c:	00000057          	vadd.vv	v0,v0,v0,v0.t
80005f50:	0229                	addi	tp,tp,10 # a <_start-0x7ffffff6>
80005f52:	0000                	unimp
80005f54:	0216                	slli	tp,tp,0x5
80005f56:	0000                	unimp
80005f58:	0021                	c.nop	8
80005f5a:	0000                	unimp
80005f5c:	0274                	addi	a3,sp,268
80005f5e:	0000                	unimp
80005f60:	0235                	addi	tp,tp,13 # d <_start-0x7ffffff3>
80005f62:	0000                	unimp
80005f64:	0156                	slli	sp,sp,0x15
80005f66:	0000                	unimp
80005f68:	0146                	slli	sp,sp,0x11
80005f6a:	0000                	unimp
80005f6c:	023c                	addi	a5,sp,264
80005f6e:	0000                	unimp
80005f70:	01ae                	slli	gp,gp,0xb
80005f72:	0000                	unimp
80005f74:	00000233          	add	tp,zero,zero
80005f78:	006c                	addi	a1,sp,12
80005f7a:	0000                	unimp
80005f7c:	03de                	slli	t2,t2,0x17
80005f7e:	0000                	unimp
80005f80:	01ad                	addi	gp,gp,11 # 800078df <__global_pointer$+0xb>
80005f82:	0000                	unimp
80005f84:	0205                	addi	tp,tp,1 # 1 <_start-0x7fffffff>
80005f86:	0000                	unimp
80005f88:	00b2                	slli	ra,ra,0xc
80005f8a:	0000                	unimp
80005f8c:	0000008b          	.insn	4, 0x008b
80005f90:	0000034f          	fnmadd.s	ft6,ft0,ft0,ft0,rne
80005f94:	03a0                	addi	s0,sp,456
80005f96:	0000                	unimp
80005f98:	0206                	slli	tp,tp,0x1
80005f9a:	0000                	unimp
80005f9c:	0302                	c.slli	t1,0x0
80005f9e:	0000                	unimp
80005fa0:	00a0                	addi	s0,sp,72
80005fa2:	0000                	unimp
80005fa4:	00000123          	sb	zero,2(zero) # 2 <_start-0x7ffffffe>
80005fa8:	0000004b          	fnmsub.s	ft0,ft0,ft0,ft0,rne
80005fac:	00e0                	addi	s0,sp,76
80005fae:	0000                	unimp
80005fb0:	0129                	addi	sp,sp,10
80005fb2:	0000                	unimp
80005fb4:	0234                	addi	a3,sp,264
80005fb6:	0000                	unimp
80005fb8:	00ea                	slli	ra,ra,0x1a
80005fba:	0000                	unimp
80005fbc:	02c0                	addi	s0,sp,324
80005fbe:	0000                	unimp
80005fc0:	03b4                	addi	a3,sp,456
80005fc2:	0000                	unimp
80005fc4:	017e                	slli	sp,sp,0x1f
80005fc6:	0000                	unimp
80005fc8:	000000a3          	sb	zero,1(zero) # 1 <_start-0x7fffffff>
80005fcc:	0254                	addi	a3,sp,260
80005fce:	0000                	unimp
80005fd0:	000000a3          	sb	zero,1(zero) # 1 <_start-0x7fffffff>
80005fd4:	000002a3          	sb	zero,5(zero) # 5 <_start-0x7ffffffb>
80005fd8:	01a4                	addi	s1,sp,200
80005fda:	0000                	unimp
80005fdc:	000000e7          	jalr	zero # 0 <_start-0x80000000>
80005fe0:	0046                	c.slli	zero,0x11
80005fe2:	0000                	unimp
80005fe4:	025c                	addi	a5,sp,260
80005fe6:	0000                	unimp
80005fe8:	016e                	slli	sp,sp,0x1b
80005fea:	0000                	unimp
80005fec:	02d2                	slli	t0,t0,0x14
80005fee:	0000                	unimp
80005ff0:	0376                	slli	t1,t1,0x1d
80005ff2:	0000                	unimp
80005ff4:	02ea                	slli	t0,t0,0x1a
80005ff6:	0000                	unimp
80005ff8:	0000027b          	.insn	4, 0x027b
80005ffc:	00000333          	add	t1,zero,zero
80006000:	02dd                	addi	t0,t0,23
80006002:	0000                	unimp
80006004:	0000003b          	.insn	4, 0x003b
80006008:	0174                	addi	a3,sp,140
8000600a:	0000                	unimp
8000600c:	02d2                	slli	t0,t0,0x14
8000600e:	0000                	unimp
80006010:	036a                	slli	t1,t1,0x1a
80006012:	0000                	unimp
80006014:	0100                	addi	s0,sp,128
80006016:	0000                	unimp
80006018:	001a                	c.slli	zero,0x6
8000601a:	0000                	unimp
8000601c:	02a5                	addi	t0,t0,9
8000601e:	0000                	unimp
80006020:	000001c3          	fmadd.s	ft3,ft0,ft0,ft0,rne
80006024:	01b8                	addi	a4,sp,200
80006026:	0000                	unimp
80006028:	00cc                	addi	a1,sp,68
8000602a:	0000                	unimp
8000602c:	0249                	addi	tp,tp,18 # 12 <_start-0x7fffffee>
8000602e:	0000                	unimp
80006030:	000001b3          	add	gp,zero,zero
80006034:	01da                	slli	gp,gp,0x16
80006036:	0000                	unimp
80006038:	0244                	addi	s1,sp,260
8000603a:	0000                	unimp
8000603c:	0000029b          	.insn	4, 0x029b
80006040:	0224                	addi	s1,sp,264
80006042:	0000                	unimp
80006044:	005d                	c.nop	23
80006046:	0000                	unimp
80006048:	032d                	addi	t1,t1,11
8000604a:	0000                	unimp
8000604c:	014d                	addi	sp,sp,19
8000604e:	0000                	unimp
80006050:	0031                	c.nop	12
80006052:	0000                	unimp
80006054:	039c                	addi	a5,sp,448
80006056:	0000                	unimp
80006058:	01fc                	addi	a5,sp,204
8000605a:	0000                	unimp
8000605c:	00d0                	addi	a2,sp,68
8000605e:	0000                	unimp
80006060:	0175                	addi	sp,sp,29
80006062:	0000                	unimp
80006064:	0301                	addi	t1,t1,0
80006066:	0000                	unimp
80006068:	02aa                	slli	t0,t0,0xa
8000606a:	0000                	unimp
8000606c:	036d                	addi	t1,t1,27
8000606e:	0000                	unimp
80006070:	01c0                	addi	s0,sp,196
80006072:	0000                	unimp
80006074:	00000337          	lui	t1,0x0
80006078:	0000002f          	.insn	4, 0x002f
8000607c:	01c4                	addi	s1,sp,196
8000607e:	0000                	unimp
80006080:	0112                	slli	sp,sp,0x4
80006082:	0000                	unimp
80006084:	0141                	addi	sp,sp,16
80006086:	0000                	unimp
80006088:	0299                	addi	t0,t0,6
8000608a:	0000                	unimp
8000608c:	00000257          	vadd.vv	v4,v0,v0,v0.t
80006090:	0031                	c.nop	12
80006092:	0000                	unimp
80006094:	0362                	slli	t1,t1,0x18
80006096:	0000                	unimp
80006098:	023a                	slli	tp,tp,0xe
8000609a:	0000                	unimp
8000609c:	011e                	slli	sp,sp,0x7
8000609e:	0000                	unimp
800060a0:	01ba                	slli	gp,gp,0xe
800060a2:	0000                	unimp
800060a4:	02b2                	slli	t0,t0,0xc
800060a6:	0000                	unimp
800060a8:	0181                	addi	gp,gp,0 # 800078d4 <__global_pointer$>
800060aa:	0000                	unimp
800060ac:	0065                	c.nop	25
800060ae:	0000                	unimp
800060b0:	01de                	slli	gp,gp,0x17
800060b2:	0000                	unimp
800060b4:	000000d7          	vadd.vv	v1,v0,v0,v0.t
800060b8:	02c9                	addi	t0,t0,18
800060ba:	0000                	unimp
800060bc:	0000021b          	.insn	4, 0x021b
800060c0:	00ee                	slli	ra,ra,0x1b
800060c2:	0000                	unimp
800060c4:	00000293          	li	t0,0
800060c8:	0158                	addi	a4,sp,132
800060ca:	0000                	unimp
800060cc:	0092                	slli	ra,ra,0x4
800060ce:	0000                	unimp
800060d0:	008e                	slli	ra,ra,0x3
800060d2:	0000                	unimp
800060d4:	01c6                	slli	gp,gp,0x11
800060d6:	0000                	unimp
800060d8:	0121                	addi	sp,sp,8
800060da:	0000                	unimp
800060dc:	0154                	addi	a3,sp,132
800060de:	0000                	unimp
800060e0:	02fc                	addi	a5,sp,332
800060e2:	0000                	unimp
800060e4:	0306                	slli	t1,t1,0x1
800060e6:	0000                	unimp
800060e8:	0206                	slli	tp,tp,0x1
800060ea:	0000                	unimp
800060ec:	021c                	addi	a5,sp,256
800060ee:	0000                	unimp
800060f0:	03d1                	addi	t2,t2,20
800060f2:	0000                	unimp
800060f4:	00000243          	fmadd.s	ft4,ft0,ft0,ft0,rne
800060f8:	00de                	slli	ra,ra,0x17
800060fa:	0000                	unimp
800060fc:	02d6                	slli	t0,t0,0x15
800060fe:	0000                	unimp
80006100:	00000007          	vle8.v	v0,(zero),v0.t
80006104:	02ea                	slli	t0,t0,0x1a
80006106:	0000                	unimp
80006108:	027d                	addi	tp,tp,31 # 1f <_start-0x7fffffe1>
8000610a:	0000                	unimp
8000610c:	0255                	addi	tp,tp,21 # 15 <_start-0x7fffffeb>
8000610e:	0000                	unimp
80006110:	0000033b          	.insn	4, 0x033b
80006114:	02ff 0000 0166 0000 	.insn	10, 0x01d600000166000002ff
8000611c:	01d6 
8000611e:	0000                	unimp
80006120:	00000037          	lui	zero,0x0
80006124:	019f 0000 01fd      	.insn	6, 0x01fd0000019f
8000612a:	0000                	unimp
8000612c:	035a                	slli	t1,t1,0x16
8000612e:	0000                	unimp
80006130:	0078                	addi	a4,sp,12
80006132:	0000                	unimp
80006134:	034d                	addi	t1,t1,19 # 13 <_start-0x7fffffed>
80006136:	0000                	unimp
80006138:	03d8                	addi	a4,sp,452
8000613a:	0000                	unimp
8000613c:	0234                	addi	a3,sp,264
8000613e:	0000                	unimp
80006140:	0248                	addi	a0,sp,260
80006142:	0000                	unimp
80006144:	003a                	c.slli	zero,0xe
80006146:	0000                	unimp
80006148:	000002f3          	.insn	4, 0x02f3
8000614c:	000003c7          	fmsub.s	ft7,ft0,ft0,ft0,rne
80006150:	00000397          	auipc	t2,0x0
80006154:	032e                	slli	t1,t1,0xb
80006156:	0000                	unimp
80006158:	006e                	c.slli	zero,0x1b
8000615a:	0000                	unimp
8000615c:	03d1                	addi	t2,t2,20 # 80006164 <input_data+0x2f10>
8000615e:	0000                	unimp
80006160:	03cc                	addi	a1,sp,452
80006162:	0000                	unimp
80006164:	000001a7          	vse8.v	v3,(zero),v0.t
80006168:	0022                	c.slli	zero,0x8
8000616a:	0000                	unimp
8000616c:	03a5                	addi	t2,t2,9
8000616e:	0000                	unimp
80006170:	000002bb          	.insn	4, 0x02bb
80006174:	032a                	slli	t1,t1,0xa
80006176:	0000                	unimp
80006178:	005e                	c.slli	zero,0x17
8000617a:	0000                	unimp
8000617c:	00000057          	vadd.vv	v0,v0,v0,v0.t
80006180:	00d1                	addi	ra,ra,20
80006182:	0000                	unimp
80006184:	016a                	slli	sp,sp,0x1a
80006186:	0000                	unimp
80006188:	0189                	addi	gp,gp,2 # 800078d6 <__global_pointer$+0x2>
8000618a:	0000                	unimp
8000618c:	020e                	slli	tp,tp,0x3
8000618e:	0000                	unimp
80006190:	026c                	addi	a1,sp,268
80006192:	0000                	unimp
80006194:	0079                	c.nop	30
80006196:	0000                	unimp
80006198:	03e2                	slli	t2,t2,0x18
8000619a:	0000                	unimp
8000619c:	02a4                	addi	s1,sp,328
8000619e:	0000                	unimp
800061a0:	000003d7          	vadd.vv	v7,v0,v0,v0.t
800061a4:	0000016f          	jal	sp,800061a4 <input_data+0x2f50>
800061a8:	02ba                	slli	t0,t0,0xe
800061aa:	0000                	unimp
800061ac:	00ec                	addi	a1,sp,76
800061ae:	0000                	unimp
800061b0:	01f4                	addi	a3,sp,204
800061b2:	0000                	unimp
800061b4:	02ac                	addi	a1,sp,328
800061b6:	0000                	unimp
800061b8:	0061                	c.nop	24
800061ba:	0000                	unimp
800061bc:	01f4                	addi	a3,sp,204
800061be:	0000                	unimp
800061c0:	00b9                	addi	ra,ra,14
800061c2:	0000                	unimp
800061c4:	0269                	addi	tp,tp,26 # 1a <_start-0x7fffffe6>
800061c6:	0000                	unimp
800061c8:	0000009b          	.insn	4, 0x009b
800061cc:	0000002f          	.insn	4, 0x002f
800061d0:	0059                	c.nop	22
800061d2:	0000                	unimp
800061d4:	026a                	slli	tp,tp,0x1a
800061d6:	0000                	unimp
800061d8:	01a5                	addi	gp,gp,9 # 800078dd <__global_pointer$+0x9>
800061da:	0000                	unimp
800061dc:	00b9                	addi	ra,ra,14
800061de:	0000                	unimp
800061e0:	0154                	addi	a3,sp,132
800061e2:	0000                	unimp
800061e4:	0176                	slli	sp,sp,0x1d
800061e6:	0000                	unimp
800061e8:	0359                	addi	t1,t1,22
800061ea:	0000                	unimp
800061ec:	00ec                	addi	a1,sp,76
800061ee:	0000                	unimp
800061f0:	02fd                	addi	t0,t0,31
800061f2:	0000                	unimp
800061f4:	035c                	addi	a5,sp,388
800061f6:	0000                	unimp
800061f8:	02b1                	addi	t0,t0,12
800061fa:	0000                	unimp
800061fc:	02b6                	slli	t0,t0,0xd
800061fe:	0000                	unimp
80006200:	01b9                	addi	gp,gp,14 # 800078e2 <__global_pointer$+0xe>
80006202:	0000                	unimp
80006204:	02ad                	addi	t0,t0,11
80006206:	0000                	unimp
80006208:	03a4                	addi	s1,sp,456
8000620a:	0000                	unimp
8000620c:	0246                	slli	tp,tp,0x11
8000620e:	0000                	unimp
80006210:	0000010f          	.insn	4, 0x010f
80006214:	0004                	.insn	2, 0x0004
80006216:	0000                	unimp
80006218:	0072                	c.slli	zero,0x1c
8000621a:	0000                	unimp
8000621c:	0294                	addi	a3,sp,320
8000621e:	0000                	unimp
80006220:	000003bb          	.insn	4, 0x03bb
80006224:	0194                	addi	a3,sp,192
80006226:	0000                	unimp
80006228:	010e                	slli	sp,sp,0x3
8000622a:	0000                	unimp
8000622c:	0000027b          	.insn	4, 0x027b
80006230:	0276                	slli	tp,tp,0x1d
80006232:	0000                	unimp
80006234:	02d1                	addi	t0,t0,20
80006236:	0000                	unimp
80006238:	0254                	addi	a3,sp,260
8000623a:	0000                	unimp
8000623c:	00000277          	.insn	4, 0x0277
80006240:	0301                	addi	t1,t1,0
80006242:	0000                	unimp
80006244:	01d4                	addi	a3,sp,196
80006246:	0000                	unimp
80006248:	005f 0000 0099      	.insn	6, 0x00990000005f
8000624e:	0000                	unimp
80006250:	000003d7          	vadd.vv	v7,v0,v0,v0.t
80006254:	0000                	unimp
80006256:	0000                	unimp
80006258:	0198                	addi	a4,sp,192
8000625a:	0000                	unimp
8000625c:	02b1                	addi	t0,t0,12
8000625e:	0000                	unimp
80006260:	0124                	addi	s1,sp,136
80006262:	0000                	unimp
80006264:	00dc                	addi	a5,sp,68
80006266:	0000                	unimp
80006268:	024a                	slli	tp,tp,0x12
8000626a:	0000                	unimp
8000626c:	01ae                	slli	gp,gp,0xb
8000626e:	0000                	unimp
80006270:	029d                	addi	t0,t0,7
80006272:	0000                	unimp
80006274:	020c                	addi	a1,sp,256
80006276:	0000                	unimp
80006278:	00bc                	addi	a5,sp,72
8000627a:	0000                	unimp
8000627c:	03c5                	addi	t2,t2,17
8000627e:	0000                	unimp
80006280:	038e                	slli	t2,t2,0x3
80006282:	0000                	unimp
80006284:	014e                	slli	sp,sp,0x13
80006286:	0000                	unimp
80006288:	0000023f 000003e4 	.insn	8, 0x03e40000023f
80006290:	01fa                	slli	gp,gp,0x1e
80006292:	0000                	unimp
80006294:	00bd                	addi	ra,ra,15
80006296:	0000                	unimp
80006298:	0085                	addi	ra,ra,1
8000629a:	0000                	unimp
8000629c:	0111                	addi	sp,sp,4
8000629e:	0000                	unimp
800062a0:	020d                	addi	tp,tp,3 # 3 <_start-0x7ffffffd>
800062a2:	0000                	unimp
800062a4:	021e                	slli	tp,tp,0x7
800062a6:	0000                	unimp
800062a8:	0371                	addi	t1,t1,28
800062aa:	0000                	unimp
800062ac:	0000004b          	fnmsub.s	ft0,ft0,ft0,ft0,rne
800062b0:	0394                	addi	a3,sp,448
800062b2:	0000                	unimp
800062b4:	00000297          	auipc	t0,0x0
800062b8:	0262                	slli	tp,tp,0x18
800062ba:	0000                	unimp
800062bc:	01cd                	addi	gp,gp,19 # 800078e7 <__global_pointer$+0x13>
800062be:	0000                	unimp
800062c0:	03bc                	addi	a5,sp,456
800062c2:	0000                	unimp
800062c4:	000003af          	.insn	4, 0x03af
800062c8:	000000db          	.insn	4, 0x00db
800062cc:	0119                	addi	sp,sp,6
800062ce:	0000                	unimp
800062d0:	000000c3          	fmadd.s	ft1,ft0,ft0,ft0,rne
800062d4:	0000015b          	.insn	4, 0x015b
800062d8:	000003e3          	beqz	zero,80006ade <input_data+0x388a>
800062dc:	0088                	addi	a0,sp,64
800062de:	0000                	unimp
800062e0:	024d                	addi	tp,tp,19 # 13 <_start-0x7fffffed>
800062e2:	0000                	unimp
800062e4:	008e                	slli	ra,ra,0x3
800062e6:	0000                	unimp
800062e8:	02c4                	addi	s1,sp,324
800062ea:	0000                	unimp
800062ec:	010e                	slli	sp,sp,0x3
800062ee:	0000                	unimp
800062f0:	00000003          	lb	zero,0(zero) # 0 <_start-0x80000000>
800062f4:	00000363          	beqz	zero,800062fa <input_data+0x30a6>
800062f8:	01d4                	addi	a3,sp,196
800062fa:	0000                	unimp
800062fc:	002d                	c.nop	11
800062fe:	0000                	unimp
80006300:	02e6                	slli	t0,t0,0x19
80006302:	0000                	unimp
80006304:	034c                	addi	a1,sp,388
80006306:	0000                	unimp
80006308:	000003c3          	fmadd.s	ft7,ft0,ft0,ft0,rne
8000630c:	019d                	addi	gp,gp,7 # 800078db <__global_pointer$+0x7>
8000630e:	0000                	unimp
80006310:	035c                	addi	a5,sp,388
80006312:	0000                	unimp
80006314:	000001c3          	fmadd.s	ft3,ft0,ft0,ft0,rne
80006318:	0000027b          	.insn	4, 0x027b
8000631c:	031e                	slli	t1,t1,0x7
8000631e:	0000                	unimp
80006320:	038a                	slli	t2,t2,0x2
80006322:	0000                	unimp
80006324:	0345                	addi	t1,t1,17
80006326:	0000                	unimp
80006328:	017c                	addi	a5,sp,140
8000632a:	0000                	unimp
8000632c:	0094                	addi	a3,sp,64
8000632e:	0000                	unimp
80006330:	00000117          	auipc	sp,0x0
80006334:	0085                	addi	ra,ra,1
80006336:	0000                	unimp
80006338:	00000157          	vadd.vv	v2,v0,v0,v0.t
8000633c:	00000243          	fmadd.s	ft4,ft0,ft0,ft0,rne
80006340:	00aa                	slli	ra,ra,0xa
80006342:	0000                	unimp
80006344:	000001b7          	lui	gp,0x0
80006348:	02df 0000 0156      	.insn	6, 0x0156000002df
8000634e:	0000                	unimp
80006350:	0396                	slli	t2,t2,0x5
80006352:	0000                	unimp
80006354:	0000031b          	.insn	4, 0x031b
80006358:	02e0                	addi	s0,sp,332
8000635a:	0000                	unimp
8000635c:	0085                	addi	ra,ra,1
8000635e:	0000                	unimp
80006360:	0000035b          	.insn	4, 0x035b
80006364:	028a                	slli	t0,t0,0x2
80006366:	0000                	unimp
80006368:	01e6                	slli	gp,gp,0x19
8000636a:	0000                	unimp
8000636c:	0358                	addi	a4,sp,388
8000636e:	0000                	unimp
80006370:	0000003f 000001af 	.insn	8, 0x01af0000003f
80006378:	02a5                	addi	t0,t0,9 # 800062bd <input_data+0x3069>
8000637a:	0000                	unimp
8000637c:	02ae                	slli	t0,t0,0xb
8000637e:	0000                	unimp
80006380:	029e                	slli	t0,t0,0x7
80006382:	0000                	unimp
80006384:	00c6                	slli	ra,ra,0x11
80006386:	0000                	unimp
80006388:	0000007b          	.insn	4, 0x007b
8000638c:	0200                	addi	s0,sp,256
8000638e:	0000                	unimp
80006390:	023c                	addi	a5,sp,264
80006392:	0000                	unimp
80006394:	036e                	slli	t1,t1,0x1b
80006396:	0000                	unimp
80006398:	0378                	addi	a4,sp,396
8000639a:	0000                	unimp
8000639c:	015a                	slli	sp,sp,0x16
8000639e:	0000                	unimp
800063a0:	0154                	addi	a3,sp,132
800063a2:	0000                	unimp
800063a4:	025e                	slli	tp,tp,0x17
800063a6:	0000                	unimp
800063a8:	033a                	slli	t1,t1,0xe
800063aa:	0000                	unimp
800063ac:	034c                	addi	a1,sp,388
800063ae:	0000                	unimp
800063b0:	00000177          	.insn	4, 0x0177
800063b4:	01fe                	slli	gp,gp,0x1f
800063b6:	0000                	unimp
800063b8:	0338                	addi	a4,sp,392
800063ba:	0000                	unimp
800063bc:	00c9                	addi	ra,ra,18
800063be:	0000                	unimp
800063c0:	000000db          	.insn	4, 0x00db
800063c4:	000000e3          	beqz	zero,80006bc4 <input_data+0x3970>
800063c8:	00c9                	addi	ra,ra,18
800063ca:	0000                	unimp
800063cc:	0152                	slli	sp,sp,0x14
800063ce:	0000                	unimp
800063d0:	020a                	slli	tp,tp,0x2
800063d2:	0000                	unimp
800063d4:	03e5                	addi	t2,t2,25
800063d6:	0000                	unimp
800063d8:	004c                	addi	a1,sp,4
800063da:	0000                	unimp
800063dc:	0261                	addi	tp,tp,24 # 18 <_start-0x7fffffe8>
800063de:	0000                	unimp
800063e0:	039a                	slli	t2,t2,0x6
800063e2:	0000                	unimp
800063e4:	0388                	addi	a0,sp,448
800063e6:	0000                	unimp
800063e8:	010e                	slli	sp,sp,0x3
800063ea:	0000                	unimp
800063ec:	0146                	slli	sp,sp,0x11
800063ee:	0000                	unimp
800063f0:	0329                	addi	t1,t1,10
800063f2:	0000                	unimp
800063f4:	0148                	addi	a0,sp,132
800063f6:	0000                	unimp
800063f8:	011d                	addi	sp,sp,7 # 80006337 <input_data+0x30e3>
800063fa:	0000                	unimp
800063fc:	00000053          	fadd.s	ft0,ft0,ft0,rne
80006400:	0276                	slli	tp,tp,0x1d
80006402:	0000                	unimp
80006404:	0226                	slli	tp,tp,0x9
80006406:	0000                	unimp
80006408:	005c                	addi	a5,sp,4
8000640a:	0000                	unimp
8000640c:	0171                	addi	sp,sp,28
8000640e:	0000                	unimp
80006410:	03bd                	addi	t2,t2,15
80006412:	0000                	unimp
80006414:	000002cf          	fnmadd.s	ft5,ft0,ft0,ft0,rne
80006418:	03d4                	addi	a3,sp,452
8000641a:	0000                	unimp
8000641c:	0310                	addi	a2,sp,384
8000641e:	0000                	unimp
80006420:	01ee                	slli	gp,gp,0x1b
80006422:	0000                	unimp
80006424:	01d8                	addi	a4,sp,196
80006426:	0000                	unimp
80006428:	000000e7          	jalr	zero # 0 <_start-0x80000000>
8000642c:	02de                	slli	t0,t0,0x17
8000642e:	0000                	unimp
80006430:	0198                	addi	a4,sp,192
80006432:	0000                	unimp
80006434:	0395                	addi	t2,t2,5
80006436:	0000                	unimp
80006438:	019f 0000 0376      	.insn	6, 0x03760000019f
8000643e:	0000                	unimp
80006440:	0024                	addi	s1,sp,8
80006442:	0000                	unimp
80006444:	02d8                	addi	a4,sp,324
80006446:	0000                	unimp
80006448:	0074                	addi	a3,sp,12
8000644a:	0000                	unimp
8000644c:	020e                	slli	tp,tp,0x3
8000644e:	0000                	unimp
80006450:	034c                	addi	a1,sp,388
80006452:	0000                	unimp
80006454:	00000293          	li	t0,0
80006458:	01ed                	addi	gp,gp,27 # 1b <_start-0x7fffffe5>
8000645a:	0000                	unimp
8000645c:	000003bf 0000018b 	.insn	8, 0x018b000003bf
80006464:	0070                	addi	a2,sp,12
80006466:	0000                	unimp
80006468:	02f6                	slli	t0,t0,0x1d
8000646a:	0000                	unimp
8000646c:	009a                	slli	ra,ra,0x6
8000646e:	0000                	unimp
80006470:	0298                	addi	a4,sp,320
80006472:	0000                	unimp
80006474:	02e8                	addi	a0,sp,332
80006476:	0000                	unimp
80006478:	009c                	addi	a5,sp,64
8000647a:	0000                	unimp
8000647c:	00000063          	beqz	zero,8000647c <input_data+0x3228>
80006480:	02ff 0000 029c 0000 	.insn	10, 0x026c0000029c000002ff
80006488:	026c 
8000648a:	0000                	unimp
8000648c:	00000033          	add	zero,zero,zero
80006490:	000002eb          	.insn	4, 0x02eb
80006494:	000000ef          	jal	80006494 <input_data+0x3240>
80006498:	0061                	c.nop	24
8000649a:	0000                	unimp
8000649c:	02e1                	addi	t0,t0,24
8000649e:	0000                	unimp
800064a0:	0000018f          	.insn	4, 0x018f
800064a4:	000002ef          	jal	t0,800064a4 <input_data+0x3250>
800064a8:	01ca                	slli	gp,gp,0x12
800064aa:	0000                	unimp
800064ac:	0010                	.insn	2, 0x0010
800064ae:	0000                	unimp
800064b0:	0000002f          	.insn	4, 0x002f
800064b4:	0000034f          	fnmadd.s	ft6,ft0,ft0,ft0,rne
800064b8:	022d                	addi	tp,tp,11 # b <_start-0x7ffffff5>
800064ba:	0000                	unimp
800064bc:	03a9                	addi	t2,t2,10
800064be:	0000                	unimp
800064c0:	0048                	addi	a0,sp,4
800064c2:	0000                	unimp
800064c4:	02e8                	addi	a0,sp,332
800064c6:	0000                	unimp
800064c8:	0350                	addi	a2,sp,388
800064ca:	0000                	unimp
800064cc:	004e                	c.slli	zero,0x13
800064ce:	0000                	unimp
800064d0:	02c2                	slli	t0,t0,0x10
800064d2:	0000                	unimp
800064d4:	015c                	addi	a5,sp,132
800064d6:	0000                	unimp
800064d8:	0021                	c.nop	8
800064da:	0000                	unimp
800064dc:	01f9                	addi	gp,gp,30 # 800078f2 <__global_pointer$+0x1e>
800064de:	0000                	unimp
800064e0:	00000053          	fadd.s	ft0,ft0,ft0,rne
800064e4:	0208                	addi	a0,sp,256
800064e6:	0000                	unimp
800064e8:	000002b7          	lui	t0,0x0
800064ec:	023c                	addi	a5,sp,264
800064ee:	0000                	unimp
800064f0:	0295                	addi	t0,t0,5 # 5 <_start-0x7ffffffb>
800064f2:	0000                	unimp
800064f4:	0142                	slli	sp,sp,0x10
800064f6:	0000                	unimp
800064f8:	0000007b          	.insn	4, 0x007b
800064fc:	000001bf 0000015d 	.insn	8, 0x015d000001bf
80006504:	0248                	addi	a0,sp,260
80006506:	0000                	unimp
80006508:	01b1                	addi	gp,gp,12 # 800078e0 <__global_pointer$+0xc>
8000650a:	0000                	unimp
8000650c:	000003b7          	lui	t2,0x0
80006510:	0389                	addi	t2,t2,2 # 2 <_start-0x7ffffffe>
80006512:	0000                	unimp
80006514:	0061                	c.nop	24
80006516:	0000                	unimp
80006518:	01a0                	addi	s0,sp,200
8000651a:	0000                	unimp
8000651c:	0000007b          	.insn	4, 0x007b
80006520:	01a5                	addi	gp,gp,9 # 800078dd <__global_pointer$+0x9>
80006522:	0000                	unimp
80006524:	00000293          	li	t0,0
80006528:	0000034b          	fnmsub.s	ft6,ft0,ft0,ft0,rne
8000652c:	0000039b          	.insn	4, 0x039b
80006530:	03a5                	addi	t2,t2,9
80006532:	0000                	unimp
80006534:	03aa                	slli	t2,t2,0xa
80006536:	0000                	unimp
80006538:	00000123          	sb	zero,2(zero) # 2 <_start-0x7ffffffe>
8000653c:	03c1                	addi	t2,t2,16
8000653e:	0000                	unimp
80006540:	035d                	addi	t1,t1,23
80006542:	0000                	unimp
80006544:	0091                	addi	ra,ra,4
80006546:	0000                	unimp
80006548:	0000016f          	jal	sp,80006548 <input_data+0x32f4>
8000654c:	02ca                	slli	t0,t0,0x12
8000654e:	0000                	unimp
80006550:	0099                	addi	ra,ra,6
80006552:	0000                	unimp
80006554:	0042                	c.slli	zero,0x10
80006556:	0000                	unimp
80006558:	02b9                	addi	t0,t0,14
8000655a:	0000                	unimp
8000655c:	02e8                	addi	a0,sp,332
8000655e:	0000                	unimp
80006560:	0291                	addi	t0,t0,4
80006562:	0000                	unimp
80006564:	01dd                	addi	gp,gp,23 # 800078eb <__global_pointer$+0x17>
80006566:	0000                	unimp
80006568:	01ff 0000 025a 0000 	.insn	10, 0x01bd0000025a000001ff
80006570:	01bd 
80006572:	0000                	unimp
80006574:	03b6                	slli	t2,t2,0xd
80006576:	0000                	unimp
80006578:	0229                	addi	tp,tp,10 # a <_start-0x7ffffff6>
8000657a:	0000                	unimp
8000657c:	0116                	slli	sp,sp,0x5
8000657e:	0000                	unimp
80006580:	0060                	addi	s0,sp,12
80006582:	0000                	unimp
80006584:	03a9                	addi	t2,t2,10
80006586:	0000                	unimp
80006588:	0000022b          	.insn	4, 0x022b
8000658c:	0170                	addi	a2,sp,140
8000658e:	0000                	unimp
80006590:	019f 0000 02ec      	.insn	6, 0x02ec0000019f
80006596:	0000                	unimp
80006598:	0000008f          	.insn	4, 0x008f
8000659c:	02e5                	addi	t0,t0,25
8000659e:	0000                	unimp
800065a0:	00000303          	lb	t1,0(zero) # 0 <_start-0x80000000>
800065a4:	035e                	slli	t1,t1,0x17
800065a6:	0000                	unimp
800065a8:	03de                	slli	t2,t2,0x17
800065aa:	0000                	unimp
800065ac:	0008                	.insn	2, 0x0008
800065ae:	0000                	unimp
800065b0:	00000127          	vse8.v	v2,(zero),v0.t
800065b4:	018c                	addi	a1,sp,192
800065b6:	0000                	unimp
800065b8:	0011                	c.nop	4
800065ba:	0000                	unimp
800065bc:	00000077          	.insn	4, 0x0077
800065c0:	00ec                	addi	a1,sp,76
800065c2:	0000                	unimp
800065c4:	01fc                	addi	a5,sp,204
800065c6:	0000                	unimp
800065c8:	011d                	addi	sp,sp,7
800065ca:	0000                	unimp
800065cc:	034c                	addi	a1,sp,388
800065ce:	0000                	unimp
800065d0:	0392                	slli	t2,t2,0x4
800065d2:	0000                	unimp
800065d4:	0061                	c.nop	24
800065d6:	0000                	unimp
800065d8:	000000eb          	.insn	4, 0x00eb
800065dc:	038a                	slli	t2,t2,0x2
800065de:	0000                	unimp
800065e0:	0076                	c.slli	zero,0x1d
800065e2:	0000                	unimp
800065e4:	00000053          	fadd.s	ft0,ft0,ft0,rne
800065e8:	0195                	addi	gp,gp,5 # 800078d9 <__global_pointer$+0x5>
800065ea:	0000                	unimp
800065ec:	00be                	slli	ra,ra,0xf
800065ee:	0000                	unimp
800065f0:	026a                	slli	tp,tp,0x1a
800065f2:	0000                	unimp
800065f4:	01b6                	slli	gp,gp,0xd
800065f6:	0000                	unimp
800065f8:	01b6                	slli	gp,gp,0xd
800065fa:	0000                	unimp
800065fc:	02c2                	slli	t0,t0,0x10
800065fe:	0000                	unimp
80006600:	019d                	addi	gp,gp,7 # 800078db <__global_pointer$+0x7>
80006602:	0000                	unimp
80006604:	0222                	slli	tp,tp,0x8
80006606:	0000                	unimp
80006608:	00d6                	slli	ra,ra,0x15
8000660a:	0000                	unimp
8000660c:	00000327          	vse8.v	v6,(zero),v0.t
80006610:	021c                	addi	a5,sp,256
80006612:	0000                	unimp
80006614:	0168                	addi	a0,sp,140
80006616:	0000                	unimp
80006618:	00a2                	slli	ra,ra,0x8
8000661a:	0000                	unimp
8000661c:	01aa                	slli	gp,gp,0xa
8000661e:	0000                	unimp
80006620:	002a                	c.slli	zero,0xa
80006622:	0000                	unimp
80006624:	0354                	addi	a3,sp,388
80006626:	0000                	unimp
80006628:	0102                	c.slli	sp,0x0
8000662a:	0000                	unimp
8000662c:	02fd                	addi	t0,t0,31
8000662e:	0000                	unimp
80006630:	00000093          	li	ra,0
80006634:	0226                	slli	tp,tp,0x9
80006636:	0000                	unimp
80006638:	000d                	c.nop	3
8000663a:	0000                	unimp
8000663c:	00000223          	sb	zero,4(zero) # 4 <_start-0x7ffffffc>
80006640:	02c0                	addi	s0,sp,324
80006642:	0000                	unimp
80006644:	000000e3          	beqz	zero,80006e44 <input_data+0x3bf0>
80006648:	02dd                	addi	t0,t0,23
8000664a:	0000                	unimp
8000664c:	02a6                	slli	t0,t0,0x9
8000664e:	0000                	unimp
80006650:	0000024b          	fnmsub.s	ft4,ft0,ft0,ft0,rne
80006654:	0000026f          	jal	tp,80006654 <input_data+0x3400>
80006658:	0000031b          	.insn	4, 0x031b
8000665c:	0135                	addi	sp,sp,13
8000665e:	0000                	unimp
80006660:	021a                	slli	tp,tp,0x6
80006662:	0000                	unimp
80006664:	0398                	addi	a4,sp,448
80006666:	0000                	unimp
80006668:	0174                	addi	a3,sp,140
8000666a:	0000                	unimp
8000666c:	000003cb          	fnmsub.s	ft7,ft0,ft0,ft0,rne
80006670:	03a1                	addi	t2,t2,8
80006672:	0000                	unimp
80006674:	024e                	slli	tp,tp,0x13
80006676:	0000                	unimp
80006678:	01d2                	slli	gp,gp,0x14
8000667a:	0000                	unimp
8000667c:	02ed                	addi	t0,t0,27
8000667e:	0000                	unimp
80006680:	002a                	c.slli	zero,0xa
80006682:	0000                	unimp
80006684:	0296                	slli	t0,t0,0x5
80006686:	0000                	unimp
80006688:	031a                	slli	t1,t1,0x6
8000668a:	0000                	unimp
8000668c:	0221                	addi	tp,tp,8 # 8 <_start-0x7ffffff8>
8000668e:	0000                	unimp
80006690:	0039                	c.nop	14
80006692:	0000                	unimp
80006694:	000002eb          	.insn	4, 0x02eb
80006698:	033c                	addi	a5,sp,392
8000669a:	0000                	unimp
8000669c:	000000e7          	jalr	zero # 0 <_start-0x80000000>
800066a0:	011f 0000 028f      	.insn	6, 0x028f0000011f
800066a6:	0000                	unimp
800066a8:	000001bb          	.insn	4, 0x01bb
800066ac:	0094                	addi	a3,sp,64
800066ae:	0000                	unimp
800066b0:	0258                	addi	a4,sp,260
800066b2:	0000                	unimp
800066b4:	00000047          	fmsub.s	ft0,ft0,ft0,ft0,rne
800066b8:	00d1                	addi	ra,ra,20
800066ba:	0000                	unimp
800066bc:	01c5                	addi	gp,gp,17 # 800078e5 <__global_pointer$+0x11>
800066be:	0000                	unimp
800066c0:	01ee                	slli	gp,gp,0x1b
800066c2:	0000                	unimp
800066c4:	0230                	addi	a2,sp,264
800066c6:	0000                	unimp
800066c8:	021e                	slli	tp,tp,0x7
800066ca:	0000                	unimp
800066cc:	00000343          	fmadd.s	ft6,ft0,ft0,ft0,rne
800066d0:	002e                	c.slli	zero,0xb
800066d2:	0000                	unimp
800066d4:	0260                	addi	s0,sp,268
800066d6:	0000                	unimp
800066d8:	000003cb          	fnmsub.s	ft7,ft0,ft0,ft0,rne
800066dc:	000d                	c.nop	3
800066de:	0000                	unimp
800066e0:	0258                	addi	a4,sp,260
800066e2:	0000                	unimp
800066e4:	0172                	slli	sp,sp,0x1c
800066e6:	0000                	unimp
800066e8:	0296                	slli	t0,t0,0x5
800066ea:	0000                	unimp
800066ec:	0000008b          	.insn	4, 0x008b
800066f0:	0332                	slli	t1,t1,0xc
800066f2:	0000                	unimp
800066f4:	00ae                	slli	ra,ra,0xb
800066f6:	0000                	unimp
800066f8:	026a                	slli	tp,tp,0x1a
800066fa:	0000                	unimp
800066fc:	00d1                	addi	ra,ra,20
800066fe:	0000                	unimp
80006700:	0261                	addi	tp,tp,24 # 18 <_start-0x7fffffe8>
80006702:	0000                	unimp
80006704:	01c9                	addi	gp,gp,18 # 800078e6 <__global_pointer$+0x12>
80006706:	0000                	unimp
80006708:	0175                	addi	sp,sp,29
8000670a:	0000                	unimp
8000670c:	0000038b          	.insn	4, 0x038b
80006710:	000003bf 00000341 	.insn	8, 0x0341000003bf
80006718:	017e                	slli	sp,sp,0x1f
8000671a:	0000                	unimp
8000671c:	000000af          	.insn	4, 0x00af
80006720:	0088                	addi	a0,sp,64
80006722:	0000                	unimp
80006724:	0176                	slli	sp,sp,0x1d
80006726:	0000                	unimp
80006728:	009d                	addi	ra,ra,7
8000672a:	0000                	unimp
8000672c:	01a1                	addi	gp,gp,8 # 800078dc <__global_pointer$+0x8>
8000672e:	0000                	unimp
80006730:	02f9                	addi	t0,t0,30
80006732:	0000                	unimp
80006734:	0138                	addi	a4,sp,136
80006736:	0000                	unimp
80006738:	02c6                	slli	t0,t0,0x11
8000673a:	0000                	unimp
8000673c:	0185                	addi	gp,gp,1 # 800078d5 <__global_pointer$+0x1>
8000673e:	0000                	unimp
80006740:	02ea                	slli	t0,t0,0x1a
80006742:	0000                	unimp
80006744:	0000009b          	.insn	4, 0x009b
80006748:	00ee                	slli	ra,ra,0x1b
8000674a:	0000                	unimp
8000674c:	03ad                	addi	t2,t2,11
8000674e:	0000                	unimp
80006750:	00000237          	lui	tp,0x0
80006754:	01c2                	slli	gp,gp,0x10
80006756:	0000                	unimp
80006758:	02cd                	addi	t0,t0,19
8000675a:	0000                	unimp
8000675c:	011a                	slli	sp,sp,0x6
8000675e:	0000                	unimp
80006760:	0198                	addi	a4,sp,192
80006762:	0000                	unimp
80006764:	03e5                	addi	t2,t2,25
80006766:	0000                	unimp
80006768:	00c2                	slli	ra,ra,0x10
8000676a:	0000                	unimp
8000676c:	0396                	slli	t2,t2,0x5
8000676e:	0000                	unimp
80006770:	031f 0000 011a      	.insn	6, 0x011a0000031f
80006776:	0000                	unimp
80006778:	02ee                	slli	t0,t0,0x1b
8000677a:	0000                	unimp
8000677c:	03c0                	addi	s0,sp,452
8000677e:	0000                	unimp
80006780:	025c                	addi	a5,sp,260
80006782:	0000                	unimp
80006784:	00c2                	slli	ra,ra,0x10
80006786:	0000                	unimp
80006788:	0136                	slli	sp,sp,0xd
8000678a:	0000                	unimp
8000678c:	031e                	slli	t1,t1,0x7
8000678e:	0000                	unimp
80006790:	008d                	addi	ra,ra,3
80006792:	0000                	unimp
80006794:	007c                	addi	a5,sp,12
80006796:	0000                	unimp
80006798:	01ec                	addi	a1,sp,204
8000679a:	0000                	unimp
8000679c:	0028                	addi	a0,sp,8
8000679e:	0000                	unimp
800067a0:	000001b7          	lui	gp,0x0
800067a4:	003e                	c.slli	zero,0xf
800067a6:	0000                	unimp
800067a8:	0185                	addi	gp,gp,1 # 1 <_start-0x7fffffff>
800067aa:	0000                	unimp
800067ac:	036e                	slli	t1,t1,0x1b
800067ae:	0000                	unimp
800067b0:	000002db          	.insn	4, 0x02db
800067b4:	013e                	slli	sp,sp,0xf
800067b6:	0000                	unimp
800067b8:	0244                	addi	s1,sp,260
800067ba:	0000                	unimp
800067bc:	000000c7          	fmsub.s	ft1,ft0,ft0,ft0,rne
800067c0:	0000017b          	.insn	4, 0x017b
800067c4:	0200                	addi	s0,sp,256
800067c6:	0000                	unimp
800067c8:	00000167          	jalr	sp,zero # 0 <_start-0x80000000>
800067cc:	02c6                	slli	t0,t0,0x11
800067ce:	0000                	unimp
800067d0:	00bc                	addi	a5,sp,72
800067d2:	0000                	unimp
800067d4:	038d                	addi	t2,t2,3
800067d6:	0000                	unimp
800067d8:	027f 0000 0153 0000 	.insn	10, 0x0060000001530000027f
800067e0:	0060 
800067e2:	0000                	unimp
800067e4:	021e                	slli	tp,tp,0x7
800067e6:	0000                	unimp
800067e8:	0189                	addi	gp,gp,2 # 800078d6 <__global_pointer$+0x2>
800067ea:	0000                	unimp
800067ec:	00b2                	slli	ra,ra,0xc
800067ee:	0000                	unimp
800067f0:	00cc                	addi	a1,sp,68
800067f2:	0000                	unimp
800067f4:	024e                	slli	tp,tp,0x13
800067f6:	0000                	unimp
800067f8:	02b8                	addi	a4,sp,328
800067fa:	0000                	unimp
800067fc:	000000b7          	lui	ra,0x0
80006800:	000000f7          	.insn	4, 0x00f7
80006804:	026a                	slli	tp,tp,0x1a
80006806:	0000                	unimp
80006808:	019d                	addi	gp,gp,7 # 800078db <__global_pointer$+0x7>
8000680a:	0000                	unimp
8000680c:	000003cb          	fnmsub.s	ft7,ft0,ft0,ft0,rne
80006810:	0000021b          	.insn	4, 0x021b
80006814:	02be                	slli	t0,t0,0xf
80006816:	0000                	unimp
80006818:	01ae                	slli	gp,gp,0xb
8000681a:	0000                	unimp
8000681c:	000002cb          	fnmsub.s	ft5,ft0,ft0,ft0,rne
80006820:	03b5                	addi	t2,t2,13
80006822:	0000                	unimp
80006824:	01a9                	addi	gp,gp,10 # 800078de <__global_pointer$+0xa>
80006826:	0000                	unimp
80006828:	02f8                	addi	a4,sp,332
8000682a:	0000                	unimp
8000682c:	000003cb          	fnmsub.s	ft7,ft0,ft0,ft0,rne
80006830:	000000cf          	fnmadd.s	ft1,ft0,ft0,ft0,rne
80006834:	03bc                	addi	a5,sp,456
80006836:	0000                	unimp
80006838:	0175                	addi	sp,sp,29
8000683a:	0000                	unimp
8000683c:	0090                	addi	a2,sp,64
8000683e:	0000                	unimp
80006840:	006a                	c.slli	zero,0x1a
80006842:	0000                	unimp
80006844:	0399                	addi	t2,t2,6
80006846:	0000                	unimp
80006848:	0000024f          	fnmadd.s	ft4,ft0,ft0,ft0,rne
8000684c:	0010                	.insn	2, 0x0010
8000684e:	0000                	unimp
80006850:	0306                	slli	t1,t1,0x1
80006852:	0000                	unimp
80006854:	031c                	addi	a5,sp,384
80006856:	0000                	unimp
80006858:	000000b3          	add	ra,zero,zero
8000685c:	039c                	addi	a5,sp,448
8000685e:	0000                	unimp
80006860:	02c5                	addi	t0,t0,17
80006862:	0000                	unimp
80006864:	03c6                	slli	t2,t2,0x11
80006866:	0000                	unimp
80006868:	03e1                	addi	t2,t2,24
8000686a:	0000                	unimp
8000686c:	0271                	addi	tp,tp,28 # 1c <_start-0x7fffffe4>
8000686e:	0000                	unimp
80006870:	02f5                	addi	t0,t0,29
80006872:	0000                	unimp
80006874:	0006                	c.slli	zero,0x1
80006876:	0000                	unimp
80006878:	0165                	addi	sp,sp,25
8000687a:	0000                	unimp
8000687c:	0006                	c.slli	zero,0x1
8000687e:	0000                	unimp
80006880:	030a                	slli	t1,t1,0x2
80006882:	0000                	unimp
80006884:	003a                	c.slli	zero,0xe
80006886:	0000                	unimp
80006888:	00a2                	slli	ra,ra,0x8
8000688a:	0000                	unimp
8000688c:	020c                	addi	a1,sp,256
8000688e:	0000                	unimp
80006890:	0109                	addi	sp,sp,2
80006892:	0000                	unimp
80006894:	000000f7          	.insn	4, 0x00f7
80006898:	00000177          	.insn	4, 0x0177
8000689c:	00000253          	fadd.s	ft4,ft0,ft0,rne
800068a0:	0221                	addi	tp,tp,8 # 8 <_start-0x7ffffff8>
800068a2:	0000                	unimp
800068a4:	00000363          	beqz	zero,800068aa <input_data+0x3656>
800068a8:	03cd                	addi	t2,t2,19
800068aa:	0000                	unimp
800068ac:	000000db          	.insn	4, 0x00db
800068b0:	00aa                	slli	ra,ra,0xa
800068b2:	0000                	unimp
800068b4:	02c5                	addi	t0,t0,17
800068b6:	0000                	unimp
800068b8:	0398                	addi	a4,sp,448
800068ba:	0000                	unimp
800068bc:	02bc                	addi	a5,sp,328
800068be:	0000                	unimp
800068c0:	0070                	addi	a2,sp,12
800068c2:	0000                	unimp
800068c4:	0158                	addi	a4,sp,132
800068c6:	0000                	unimp
800068c8:	00d5                	addi	ra,ra,21 # 15 <_start-0x7fffffeb>
800068ca:	0000                	unimp
800068cc:	000001c7          	fmsub.s	ft3,ft0,ft0,ft0,rne
800068d0:	0141                	addi	sp,sp,16
800068d2:	0000                	unimp
800068d4:	000003ab          	.insn	4, 0x03ab
800068d8:	00a5                	addi	ra,ra,9
800068da:	0000                	unimp
800068dc:	009d                	addi	ra,ra,7
800068de:	0000                	unimp
800068e0:	00000373          	.insn	4, 0x0373
800068e4:	00000063          	beqz	zero,800068e4 <input_data+0x3690>
800068e8:	0102                	c.slli	sp,0x0
800068ea:	0000                	unimp
800068ec:	008c                	addi	a1,sp,64
800068ee:	0000                	unimp
800068f0:	00000203          	lb	tp,0(zero) # 0 <_start-0x80000000>
800068f4:	00d9                	addi	ra,ra,22
800068f6:	0000                	unimp
800068f8:	00000137          	lui	sp,0x0
800068fc:	0054                	addi	a3,sp,4
800068fe:	0000                	unimp
80006900:	0294                	addi	a3,sp,320
80006902:	0000                	unimp
80006904:	000002cb          	fnmsub.s	ft5,ft0,ft0,ft0,rne
80006908:	01f8                	addi	a4,sp,204
8000690a:	0000                	unimp
8000690c:	0095                	addi	ra,ra,5
8000690e:	0000                	unimp
80006910:	00c6                	slli	ra,ra,0x11
80006912:	0000                	unimp
80006914:	0236                	slli	tp,tp,0xd
80006916:	0000                	unimp
80006918:	0155                	addi	sp,sp,21 # 15 <_start-0x7fffffeb>
8000691a:	0000                	unimp
8000691c:	0209                	addi	tp,tp,2 # 2 <_start-0x7ffffffe>
8000691e:	0000                	unimp
80006920:	01da                	slli	gp,gp,0x16
80006922:	0000                	unimp
80006924:	015f 0000 03b7      	.insn	6, 0x03b70000015f
8000692a:	0000                	unimp
8000692c:	0222                	slli	tp,tp,0x8
8000692e:	0000                	unimp
80006930:	000000b7          	lui	ra,0x0
80006934:	0000025b          	.insn	4, 0x025b
80006938:	036c                	addi	a1,sp,396
8000693a:	0000                	unimp
8000693c:	021a                	slli	tp,tp,0x6
8000693e:	0000                	unimp
80006940:	0385                	addi	t2,t2,1
80006942:	0000                	unimp
80006944:	02f2                	slli	t0,t0,0x1c
80006946:	0000                	unimp
80006948:	0000016b          	.insn	4, 0x016b
8000694c:	037d                	addi	t1,t1,31
8000694e:	0000                	unimp
80006950:	03cd                	addi	t2,t2,19
80006952:	0000                	unimp
80006954:	0391                	addi	t2,t2,4
80006956:	0000                	unimp
80006958:	00f4                	addi	a3,sp,76
8000695a:	0000                	unimp
8000695c:	00c0                	addi	s0,sp,68
8000695e:	0000                	unimp
80006960:	031f 0000 016a      	.insn	6, 0x016a0000031f
80006966:	0000                	unimp
80006968:	0000009b          	.insn	4, 0x009b
8000696c:	02be                	slli	t0,t0,0xf
8000696e:	0000                	unimp
80006970:	027d                	addi	tp,tp,31 # 1f <_start-0x7fffffe1>
80006972:	0000                	unimp
80006974:	0274                	addi	a3,sp,268
80006976:	0000                	unimp
80006978:	019f 0000 0257      	.insn	6, 0x02570000019f
8000697e:	0000                	unimp
80006980:	00b1                	addi	ra,ra,12 # c <_start-0x7ffffff4>
80006982:	0000                	unimp
80006984:	02ae                	slli	t0,t0,0xb
80006986:	0000                	unimp
80006988:	02ce                	slli	t0,t0,0x13
8000698a:	0000                	unimp
8000698c:	025c                	addi	a5,sp,260
8000698e:	0000                	unimp
80006990:	0226                	slli	tp,tp,0x9
80006992:	0000                	unimp
80006994:	0099                	addi	ra,ra,6
80006996:	0000                	unimp
80006998:	00f2                	slli	ra,ra,0x1c
8000699a:	0000                	unimp
8000699c:	0316                	slli	t1,t1,0x5
8000699e:	0000                	unimp
800069a0:	0098                	addi	a4,sp,64
800069a2:	0000                	unimp
800069a4:	0000025b          	.insn	4, 0x025b
800069a8:	00a8                	addi	a0,sp,72
800069aa:	0000                	unimp
800069ac:	01d1                	addi	gp,gp,20 # 800078e8 <__global_pointer$+0x14>
800069ae:	0000                	unimp
800069b0:	0000030b          	.insn	4, 0x030b
800069b4:	030d                	addi	t1,t1,3
800069b6:	0000                	unimp
800069b8:	01ff 0000 00ac 0000 	.insn	10, 0x0315000000ac000001ff
800069c0:	0315 
800069c2:	0000                	unimp
800069c4:	01bd                	addi	gp,gp,15 # 800078e3 <__global_pointer$+0xf>
800069c6:	0000                	unimp
800069c8:	026a                	slli	tp,tp,0x1a
800069ca:	0000                	unimp
800069cc:	01f6                	slli	gp,gp,0x1d
800069ce:	0000                	unimp
800069d0:	010e                	slli	sp,sp,0x3
800069d2:	0000                	unimp
800069d4:	002d                	c.nop	11
800069d6:	0000                	unimp
800069d8:	02b8                	addi	a4,sp,328
800069da:	0000                	unimp
800069dc:	00b9                	addi	ra,ra,14
800069de:	0000                	unimp
800069e0:	039f 0000 0047      	.insn	6, 0x00470000039f
800069e6:	0000                	unimp
800069e8:	03ca                	slli	t2,t2,0x12
800069ea:	0000                	unimp
800069ec:	01c0                	addi	s0,sp,196
800069ee:	0000                	unimp
800069f0:	00000207          	vle8.v	v4,(zero),v0.t
800069f4:	00c9                	addi	ra,ra,18
800069f6:	0000                	unimp
800069f8:	0396                	slli	t2,t2,0x5
800069fa:	0000                	unimp
800069fc:	00be                	slli	ra,ra,0xf
800069fe:	0000                	unimp
80006a00:	03be                	slli	t2,t2,0xf
80006a02:	0000                	unimp
80006a04:	00ae                	slli	ra,ra,0xb
80006a06:	0000                	unimp
80006a08:	00000343          	fmadd.s	ft6,ft0,ft0,ft0,rne
80006a0c:	03ad                	addi	t2,t2,11
80006a0e:	0000                	unimp
80006a10:	0394                	addi	a3,sp,448
80006a12:	0000                	unimp
80006a14:	00ff 0000 023f 0000 	.insn	10, 0x02b50000023f000000ff
80006a1c:	02b5 
80006a1e:	0000                	unimp
80006a20:	03d0                	addi	a2,sp,452
80006a22:	0000                	unimp
80006a24:	0096                	slli	ra,ra,0x5
80006a26:	0000                	unimp
80006a28:	0299                	addi	t0,t0,6
80006a2a:	0000                	unimp
80006a2c:	0264                	addi	s1,sp,268
80006a2e:	0000                	unimp
80006a30:	01c4                	addi	s1,sp,196
80006a32:	0000                	unimp
80006a34:	000000e3          	beqz	zero,80007234 <_end+0x150>
80006a38:	00000103          	lb	sp,0(zero) # 0 <_start-0x80000000>
80006a3c:	0310                	addi	a2,sp,384
80006a3e:	0000                	unimp
80006a40:	0238                	addi	a4,sp,264
80006a42:	0000                	unimp
80006a44:	030c                	addi	a1,sp,384
80006a46:	0000                	unimp
80006a48:	0000018b          	.insn	4, 0x018b
80006a4c:	0000030f          	.insn	4, 0x030f
80006a50:	0066                	c.slli	zero,0x19
80006a52:	0000                	unimp
80006a54:	000000b3          	add	ra,zero,zero
80006a58:	007c                	addi	a5,sp,12
80006a5a:	0000                	unimp
80006a5c:	0034                	addi	a3,sp,8
80006a5e:	0000                	unimp
80006a60:	0034                	addi	a3,sp,8
80006a62:	0000                	unimp
80006a64:	0338                	addi	a4,sp,392
80006a66:	0000                	unimp
80006a68:	0364                	addi	s1,sp,396
80006a6a:	0000                	unimp
80006a6c:	0148                	addi	a0,sp,132
80006a6e:	0000                	unimp
80006a70:	000002fb          	.insn	4, 0x02fb
80006a74:	000002a7          	vse8.v	v5,(zero),v0.t
80006a78:	023e                	slli	tp,tp,0xf
80006a7a:	0000                	unimp
80006a7c:	012c                	addi	a1,sp,136
80006a7e:	0000                	unimp
80006a80:	0389                	addi	t2,t2,2
80006a82:	0000                	unimp
80006a84:	0194                	addi	a3,sp,192
80006a86:	0000                	unimp
80006a88:	0000008b          	.insn	4, 0x008b
80006a8c:	000003bb          	.insn	4, 0x03bb
80006a90:	0118                	addi	a4,sp,128
80006a92:	0000                	unimp
80006a94:	03d0                	addi	a2,sp,452
80006a96:	0000                	unimp
80006a98:	00f6                	slli	ra,ra,0x1d
80006a9a:	0000                	unimp
80006a9c:	007a                	c.slli	zero,0x1e
80006a9e:	0000                	unimp
80006aa0:	02b4                	addi	a3,sp,328
80006aa2:	0000                	unimp
80006aa4:	000002a7          	vse8.v	v5,(zero),v0.t
80006aa8:	0114                	addi	a3,sp,128
80006aaa:	0000                	unimp
80006aac:	009e                	slli	ra,ra,0x7
80006aae:	0000                	unimp
80006ab0:	02df 0000 007e      	.insn	6, 0x007e000002df
80006ab6:	0000                	unimp
80006ab8:	020d                	addi	tp,tp,3 # 3 <_start-0x7ffffffd>
80006aba:	0000                	unimp
80006abc:	02e0                	addi	s0,sp,332
80006abe:	0000                	unimp
80006ac0:	0338                	addi	a4,sp,392
80006ac2:	0000                	unimp
80006ac4:	038e                	slli	t2,t2,0x3
80006ac6:	0000                	unimp
80006ac8:	0294                	addi	a3,sp,320
80006aca:	0000                	unimp
80006acc:	00000057          	vadd.vv	v0,v0,v0,v0.t
80006ad0:	038c                	addi	a1,sp,448
80006ad2:	0000                	unimp
80006ad4:	02d5                	addi	t0,t0,21
80006ad6:	0000                	unimp
80006ad8:	0000020b          	.insn	4, 0x020b
80006adc:	0214                	addi	a3,sp,256
80006ade:	0000                	unimp
80006ae0:	005c                	addi	a5,sp,4
80006ae2:	0000                	unimp
80006ae4:	01d9                	addi	gp,gp,22 # 800078ea <__global_pointer$+0x16>
80006ae6:	0000                	unimp
80006ae8:	036c                	addi	a1,sp,396
80006aea:	0000                	unimp
80006aec:	0376                	slli	t1,t1,0x1d
80006aee:	0000                	unimp
80006af0:	01f4                	addi	a3,sp,204
80006af2:	0000                	unimp
80006af4:	000002cb          	fnmsub.s	ft5,ft0,ft0,ft0,rne
80006af8:	0102                	c.slli	sp,0x0
80006afa:	0000                	unimp
80006afc:	01ca                	slli	gp,gp,0x12
80006afe:	0000                	unimp
80006b00:	001c                	.insn	2, 0x001c
80006b02:	0000                	unimp
80006b04:	0300                	addi	s0,sp,384
80006b06:	0000                	unimp
80006b08:	000000db          	.insn	4, 0x00db
80006b0c:	017e                	slli	sp,sp,0x1f
80006b0e:	0000                	unimp
80006b10:	01f8                	addi	a4,sp,204
80006b12:	0000                	unimp
80006b14:	00000373          	.insn	4, 0x0373
80006b18:	000a                	c.slli	zero,0x2
80006b1a:	0000                	unimp
80006b1c:	02cc                	addi	a1,sp,324
80006b1e:	0000                	unimp
80006b20:	0000030f          	.insn	4, 0x030f
80006b24:	00f1                	addi	ra,ra,28
80006b26:	0000                	unimp
80006b28:	00000207          	vle8.v	v4,(zero),v0.t
80006b2c:	0240                	addi	s0,sp,260
80006b2e:	0000                	unimp
80006b30:	037c                	addi	a5,sp,396
80006b32:	0000                	unimp
80006b34:	0174                	addi	a3,sp,140
80006b36:	0000                	unimp
80006b38:	00f1                	addi	ra,ra,28
80006b3a:	0000                	unimp
80006b3c:	000000ef          	jal	80006b3c <input_data+0x38e8>
80006b40:	000001a3          	sb	zero,3(zero) # 3 <_start-0x7ffffffd>
80006b44:	03b0                	addi	a2,sp,456
80006b46:	0000                	unimp
80006b48:	01d1                	addi	gp,gp,20 # 800078e8 <__global_pointer$+0x14>
80006b4a:	0000                	unimp
80006b4c:	0069                	c.nop	26
80006b4e:	0000                	unimp
80006b50:	024a                	slli	tp,tp,0x12
80006b52:	0000                	unimp
80006b54:	01d2                	slli	gp,gp,0x14
80006b56:	0000                	unimp
80006b58:	00ea                	slli	ra,ra,0x1a
80006b5a:	0000                	unimp
80006b5c:	0036                	c.slli	zero,0xd
80006b5e:	0000                	unimp
80006b60:	00c2                	slli	ra,ra,0x10
80006b62:	0000                	unimp
80006b64:	00ad                	addi	ra,ra,11
80006b66:	0000                	unimp
80006b68:	0341                	addi	t1,t1,16
80006b6a:	0000                	unimp
80006b6c:	0289                	addi	t0,t0,2
80006b6e:	0000                	unimp
80006b70:	0230                	addi	a2,sp,264
80006b72:	0000                	unimp
80006b74:	0182                	c.slli	gp,0x0
80006b76:	0000                	unimp
80006b78:	024d                	addi	tp,tp,19 # 13 <_start-0x7fffffed>
80006b7a:	0000                	unimp
80006b7c:	000003d7          	vadd.vv	v7,v0,v0,v0.t
80006b80:	02b4                	addi	a3,sp,328
80006b82:	0000                	unimp
80006b84:	028c                	addi	a1,sp,320
80006b86:	0000                	unimp
80006b88:	0065                	c.nop	25
80006b8a:	0000                	unimp
80006b8c:	014c                	addi	a1,sp,132
80006b8e:	0000                	unimp
80006b90:	0316                	slli	t1,t1,0x5
80006b92:	0000                	unimp
80006b94:	0280                	addi	s0,sp,320
80006b96:	0000                	unimp
80006b98:	0032                	c.slli	zero,0xc
80006b9a:	0000                	unimp
80006b9c:	00000043          	fmadd.s	ft0,ft0,ft0,ft0,rne
80006ba0:	018d                	addi	gp,gp,3 # 800078d7 <__global_pointer$+0x3>
80006ba2:	0000                	unimp
80006ba4:	0305                	addi	t1,t1,1
80006ba6:	0000                	unimp
80006ba8:	02bc                	addi	a5,sp,328
80006baa:	0000                	unimp
80006bac:	011a                	slli	sp,sp,0x6
80006bae:	0000                	unimp
80006bb0:	000002b3          	add	t0,zero,zero
80006bb4:	02d8                	addi	a4,sp,324
80006bb6:	0000                	unimp
80006bb8:	000002a3          	sb	zero,5(zero) # 5 <_start-0x7ffffffb>
80006bbc:	000002c7          	fmsub.s	ft5,ft0,ft0,ft0,rne
80006bc0:	00000277          	.insn	4, 0x0277
80006bc4:	0051                	c.nop	20
80006bc6:	0000                	unimp
80006bc8:	0314                	addi	a3,sp,384
80006bca:	0000                	unimp
80006bcc:	0364                	addi	s1,sp,396
80006bce:	0000                	unimp
80006bd0:	026a                	slli	tp,tp,0x1a
80006bd2:	0000                	unimp
80006bd4:	0000027b          	.insn	4, 0x027b
80006bd8:	0109                	addi	sp,sp,2
80006bda:	0000                	unimp
80006bdc:	037c                	addi	a5,sp,396
80006bde:	0000                	unimp
80006be0:	0269                	addi	tp,tp,26 # 1a <_start-0x7fffffe6>
80006be2:	0000                	unimp
80006be4:	0000000b          	.insn	4, 0x000b
80006be8:	02fc                	addi	a5,sp,332
80006bea:	0000                	unimp
80006bec:	0270                	addi	a2,sp,268
80006bee:	0000                	unimp
80006bf0:	03de                	slli	t2,t2,0x17
80006bf2:	0000                	unimp
80006bf4:	0261                	addi	tp,tp,24 # 18 <_start-0x7fffffe8>
80006bf6:	0000                	unimp
80006bf8:	003a                	c.slli	zero,0xe
80006bfa:	0000                	unimp
80006bfc:	00000267          	jalr	tp,zero # 0 <_start-0x80000000>
80006c00:	030d                	addi	t1,t1,3
80006c02:	0000                	unimp
80006c04:	01e0                	addi	s0,sp,204
80006c06:	0000                	unimp
80006c08:	000003ab          	.insn	4, 0x03ab
80006c0c:	01cd                	addi	gp,gp,19 # 800078e7 <__global_pointer$+0x13>
80006c0e:	0000                	unimp
80006c10:	00000263          	beqz	zero,80006c14 <input_data+0x39c0>
80006c14:	000000a3          	sb	zero,1(zero) # 1 <_start-0x7fffffff>
80006c18:	00b8                	addi	a4,sp,72
80006c1a:	0000                	unimp
80006c1c:	01d1                	addi	gp,gp,20 # 800078e8 <__global_pointer$+0x14>
80006c1e:	0000                	unimp
80006c20:	013a                	slli	sp,sp,0xe
80006c22:	0000                	unimp
80006c24:	01d6                	slli	gp,gp,0x15
80006c26:	0000                	unimp
80006c28:	02ba                	slli	t0,t0,0xe
80006c2a:	0000                	unimp
80006c2c:	0000026b          	.insn	4, 0x026b
80006c30:	0315                	addi	t1,t1,5
80006c32:	0000                	unimp
80006c34:	0075                	c.nop	29
80006c36:	0000                	unimp
80006c38:	00000003          	lb	zero,0(zero) # 0 <_start-0x80000000>
80006c3c:	00000137          	lui	sp,0x0
80006c40:	01c8                	addi	a0,sp,196
80006c42:	0000                	unimp
80006c44:	00ba                	slli	ra,ra,0xe
80006c46:	0000                	unimp
80006c48:	000000cb          	fnmsub.s	ft1,ft0,ft0,ft0,rne
80006c4c:	02d1                	addi	t0,t0,20
80006c4e:	0000                	unimp
80006c50:	03a4                	addi	s1,sp,456
80006c52:	0000                	unimp
80006c54:	0300                	addi	s0,sp,384
80006c56:	0000                	unimp
80006c58:	01f6                	slli	gp,gp,0x1d
80006c5a:	0000                	unimp
80006c5c:	0000008f          	.insn	4, 0x008f
80006c60:	0388                	addi	a0,sp,448
80006c62:	0000                	unimp
80006c64:	02da                	slli	t0,t0,0x16
80006c66:	0000                	unimp
80006c68:	00c9                	addi	ra,ra,18
80006c6a:	0000                	unimp
80006c6c:	000001a7          	vse8.v	v3,(zero),v0.t
80006c70:	01a1                	addi	gp,gp,8 # 800078dc <__global_pointer$+0x8>
80006c72:	0000                	unimp
80006c74:	000003b3          	add	t2,zero,zero
80006c78:	009a                	slli	ra,ra,0x6
80006c7a:	0000                	unimp
80006c7c:	0238                	addi	a4,sp,264
80006c7e:	0000                	unimp
80006c80:	0105                	addi	sp,sp,1 # 1 <_start-0x7fffffff>
80006c82:	0000                	unimp
80006c84:	01d9                	addi	gp,gp,22 # 800078ea <__global_pointer$+0x16>
80006c86:	0000                	unimp
80006c88:	00000307          	vle8.v	v6,(zero),v0.t
80006c8c:	017c                	addi	a5,sp,140
80006c8e:	0000                	unimp
80006c90:	00000267          	jalr	tp,zero # 0 <_start-0x80000000>
80006c94:	0312                	slli	t1,t1,0x4
80006c96:	0000                	unimp
80006c98:	00c1                	addi	ra,ra,16
80006c9a:	0000                	unimp
80006c9c:	02c6                	slli	t0,t0,0x11
80006c9e:	0000                	unimp
80006ca0:	01bd                	addi	gp,gp,15 # 800078e3 <__global_pointer$+0xf>
80006ca2:	0000                	unimp
80006ca4:	01d5                	addi	gp,gp,21 # 800078e9 <__global_pointer$+0x15>
80006ca6:	0000                	unimp
80006ca8:	000003af          	.insn	4, 0x03af
80006cac:	02d9                	addi	t0,t0,22
80006cae:	0000                	unimp
80006cb0:	00cc                	addi	a1,sp,68
80006cb2:	0000                	unimp
80006cb4:	0234                	addi	a3,sp,264
80006cb6:	0000                	unimp
80006cb8:	0075                	c.nop	29
80006cba:	0000                	unimp
80006cbc:	008e                	slli	ra,ra,0x3
80006cbe:	0000                	unimp
80006cc0:	0238                	addi	a4,sp,264
80006cc2:	0000                	unimp
80006cc4:	0156                	slli	sp,sp,0x15
80006cc6:	0000                	unimp
80006cc8:	0356                	slli	t1,t1,0x15
80006cca:	0000                	unimp
80006ccc:	0316                	slli	t1,t1,0x5
80006cce:	0000                	unimp
80006cd0:	03d8                	addi	a4,sp,452
80006cd2:	0000                	unimp
80006cd4:	0338                	addi	a4,sp,392
80006cd6:	0000                	unimp
80006cd8:	0129                	addi	sp,sp,10
80006cda:	0000                	unimp
80006cdc:	03d6                	slli	t2,t2,0x15
80006cde:	0000                	unimp
80006ce0:	0342                	slli	t1,t1,0x10
80006ce2:	0000                	unimp
80006ce4:	0015                	c.nop	5
80006ce6:	0000                	unimp
80006ce8:	03b0                	addi	a2,sp,456
80006cea:	0000                	unimp
80006cec:	01e2                	slli	gp,gp,0x18
80006cee:	0000                	unimp
80006cf0:	000002f7          	.insn	4, 0x02f7
80006cf4:	0138                	addi	a4,sp,136
80006cf6:	0000                	unimp
80006cf8:	0002                	c.slli	zero,0x0
80006cfa:	0000                	unimp
80006cfc:	0200                	addi	s0,sp,256
80006cfe:	0000                	unimp
80006d00:	00000293          	li	t0,0
80006d04:	00000257          	vadd.vv	v4,v0,v0,v0.t
80006d08:	035c                	addi	a5,sp,388
80006d0a:	0000                	unimp
80006d0c:	00000323          	sb	zero,6(zero) # 6 <_start-0x7ffffffa>
80006d10:	0004                	.insn	2, 0x0004
80006d12:	0000                	unimp
80006d14:	03c1                	addi	t2,t2,16
80006d16:	0000                	unimp
80006d18:	0316                	slli	t1,t1,0x5
80006d1a:	0000                	unimp
80006d1c:	01ca                	slli	gp,gp,0x12
80006d1e:	0000                	unimp
80006d20:	016a                	slli	sp,sp,0x1a
80006d22:	0000                	unimp
80006d24:	017c                	addi	a5,sp,140
80006d26:	0000                	unimp
80006d28:	005a                	c.slli	zero,0x16
80006d2a:	0000                	unimp
80006d2c:	00000303          	lb	t1,0(zero) # 0 <_start-0x80000000>
80006d30:	0185                	addi	gp,gp,1 # 800078d5 <__global_pointer$+0x1>
80006d32:	0000                	unimp
80006d34:	00000123          	sb	zero,2(zero) # 2 <_start-0x7ffffffe>
80006d38:	00d1                	addi	ra,ra,20
80006d3a:	0000                	unimp
80006d3c:	0276                	slli	tp,tp,0x1d
80006d3e:	0000                	unimp
80006d40:	01b8                	addi	a4,sp,200
80006d42:	0000                	unimp
80006d44:	034d                	addi	t1,t1,19
80006d46:	0000                	unimp
80006d48:	00ff 0000 01b3 0000 	.insn	10, 0x0226000001b3000000ff
80006d50:	0226 
80006d52:	0000                	unimp
80006d54:	00000047          	fmsub.s	ft0,ft0,ft0,ft0,rne
80006d58:	039d                	addi	t2,t2,7
80006d5a:	0000                	unimp
80006d5c:	02dd                	addi	t0,t0,23
80006d5e:	0000                	unimp
80006d60:	00000293          	li	t0,0
80006d64:	00000383          	lb	t2,0(zero) # 0 <_start-0x80000000>
80006d68:	0302                	c.slli	t1,0x0
80006d6a:	0000                	unimp
80006d6c:	0392                	slli	t2,t2,0x4
80006d6e:	0000                	unimp
80006d70:	00000317          	auipc	t1,0x0
80006d74:	003c                	addi	a5,sp,8
80006d76:	0000                	unimp
80006d78:	03e1                	addi	t2,t2,24
80006d7a:	0000                	unimp
80006d7c:	03d8                	addi	a4,sp,452
80006d7e:	0000                	unimp
80006d80:	000003bb          	.insn	4, 0x03bb
80006d84:	00f4                	addi	a3,sp,76
80006d86:	0000                	unimp
80006d88:	00000037          	lui	zero,0x0
80006d8c:	000003a7          	vse8.v	v7,(zero),v0.t
80006d90:	036d                	addi	t1,t1,27 # 80006d8b <input_data+0x3b37>
80006d92:	0000                	unimp
80006d94:	03c0                	addi	s0,sp,452
80006d96:	0000                	unimp
80006d98:	02c4                	addi	s1,sp,324
80006d9a:	0000                	unimp
80006d9c:	0274                	addi	a3,sp,268
80006d9e:	0000                	unimp
80006da0:	0176                	slli	sp,sp,0x1d
80006da2:	0000                	unimp
80006da4:	0090                	addi	a2,sp,64
80006da6:	0000                	unimp
80006da8:	00000367          	jalr	t1,zero # 0 <_start-0x80000000>
80006dac:	0008                	.insn	2, 0x0008
80006dae:	0000                	unimp
80006db0:	00000197          	auipc	gp,0x0
80006db4:	01b6                	slli	gp,gp,0xd
80006db6:	0000                	unimp
80006db8:	0000024f          	fnmadd.s	ft4,ft0,ft0,ft0,rne
80006dbc:	024e                	slli	tp,tp,0x13
80006dbe:	0000                	unimp
80006dc0:	007c                	addi	a5,sp,12
80006dc2:	0000                	unimp
80006dc4:	00a4                	addi	s1,sp,72
80006dc6:	0000                	unimp
80006dc8:	0192                	slli	gp,gp,0x4
80006dca:	0000                	unimp
80006dcc:	000000c3          	fmadd.s	ft1,ft0,ft0,ft0,rne
80006dd0:	02f5                	addi	t0,t0,29
80006dd2:	0000                	unimp
80006dd4:	00f2                	slli	ra,ra,0x1c
80006dd6:	0000                	unimp
80006dd8:	000001b3          	add	gp,zero,zero
80006ddc:	00ee                	slli	ra,ra,0x1b
80006dde:	0000                	unimp
80006de0:	0088                	addi	a0,sp,64
80006de2:	0000                	unimp
80006de4:	000002a3          	sb	zero,5(zero) # 5 <_start-0x7ffffffb>
80006de8:	0239                	addi	tp,tp,14 # e <_start-0x7ffffff2>
80006dea:	0000                	unimp
80006dec:	000001c7          	fmsub.s	ft3,ft0,ft0,ft0,rne
80006df0:	0030                	addi	a2,sp,8
80006df2:	0000                	unimp
80006df4:	03d8                	addi	a4,sp,452
80006df6:	0000                	unimp
80006df8:	03aa                	slli	t2,t2,0xa
80006dfa:	0000                	unimp
80006dfc:	02cd                	addi	t0,t0,19
80006dfe:	0000                	unimp
80006e00:	017d                	addi	sp,sp,31
80006e02:	0000                	unimp
80006e04:	0052                	c.slli	zero,0x14
80006e06:	0000                	unimp
80006e08:	0308                	addi	a0,sp,384
80006e0a:	0000                	unimp
80006e0c:	00000253          	fadd.s	ft4,ft0,ft0,rne
80006e10:	0045                	c.nop	17
80006e12:	0000                	unimp
80006e14:	0070                	addi	a2,sp,12
80006e16:	0000                	unimp
80006e18:	01a5                	addi	gp,gp,9 # 80006db9 <input_data+0x3b65>
80006e1a:	0000                	unimp
80006e1c:	0169                	addi	sp,sp,26
80006e1e:	0000                	unimp
80006e20:	0272                	slli	tp,tp,0x1c
80006e22:	0000                	unimp
80006e24:	000002cf          	fnmadd.s	ft5,ft0,ft0,ft0,rne
80006e28:	0298                	addi	a4,sp,320
80006e2a:	0000                	unimp
80006e2c:	00fd                	addi	ra,ra,31
80006e2e:	0000                	unimp
80006e30:	02b6                	slli	t0,t0,0xd
80006e32:	0000                	unimp
80006e34:	03b0                	addi	a2,sp,456
80006e36:	0000                	unimp
80006e38:	0119                	addi	sp,sp,6
80006e3a:	0000                	unimp
80006e3c:	000001c3          	fmadd.s	ft3,ft0,ft0,ft0,rne
80006e40:	00c4                	addi	s1,sp,68
80006e42:	0000                	unimp
80006e44:	0159                	addi	sp,sp,22
80006e46:	0000                	unimp
80006e48:	000002bb          	.insn	4, 0x02bb
80006e4c:	02d1                	addi	t0,t0,20
80006e4e:	0000                	unimp
80006e50:	033d                	addi	t1,t1,15
80006e52:	0000                	unimp
80006e54:	01d5                	addi	gp,gp,21 # 800078e9 <__global_pointer$+0x15>
80006e56:	0000                	unimp
80006e58:	0170                	addi	a2,sp,140
80006e5a:	0000                	unimp
80006e5c:	0014                	.insn	2, 0x0014
80006e5e:	0000                	unimp
80006e60:	0339                	addi	t1,t1,14
80006e62:	0000                	unimp
80006e64:	03da                	slli	t2,t2,0x16
80006e66:	0000                	unimp
80006e68:	01b4                	addi	a3,sp,200
80006e6a:	0000                	unimp
80006e6c:	0028                	addi	a0,sp,8
80006e6e:	0000                	unimp
80006e70:	0241                	addi	tp,tp,16 # 10 <_start-0x7ffffff0>
80006e72:	0000                	unimp
80006e74:	02be                	slli	t0,t0,0xf
80006e76:	0000                	unimp
80006e78:	000000c7          	fmsub.s	ft1,ft0,ft0,ft0,rne
80006e7c:	00000193          	li	gp,0
80006e80:	0000026f          	jal	tp,80006e80 <input_data+0x3c2c>
80006e84:	0000028f          	.insn	4, 0x028f
80006e88:	0021                	c.nop	8
80006e8a:	0000                	unimp
80006e8c:	0241                	addi	tp,tp,16 # 10 <_start-0x7ffffff0>
80006e8e:	0000                	unimp
80006e90:	039f 0000 0030      	.insn	6, 0x00300000039f
80006e96:	0000                	unimp
80006e98:	03e1                	addi	t2,t2,24
80006e9a:	0000                	unimp
80006e9c:	00000013          	nop
80006ea0:	02e5                	addi	t0,t0,25
80006ea2:	0000                	unimp
80006ea4:	0000006b          	.insn	4, 0x006b
80006ea8:	00dd                	addi	ra,ra,23
80006eaa:	0000                	unimp
80006eac:	00c1                	addi	ra,ra,16
80006eae:	0000                	unimp
80006eb0:	03a4                	addi	s1,sp,456
80006eb2:	0000                	unimp
80006eb4:	0046                	c.slli	zero,0x11
80006eb6:	0000                	unimp
80006eb8:	0340                	addi	s0,sp,388
80006eba:	0000                	unimp
80006ebc:	00ac                	addi	a1,sp,72
80006ebe:	0000                	unimp
80006ec0:	00000163          	beqz	zero,80006ec2 <input_data+0x3c6e>
80006ec4:	018c                	addi	a1,sp,192
80006ec6:	0000                	unimp
80006ec8:	00d2                	slli	ra,ra,0x14
80006eca:	0000                	unimp
80006ecc:	000000bf 00000036 	.insn	8, 0x0036000000bf
80006ed4:	01dd                	addi	gp,gp,23 # 800078eb <__global_pointer$+0x17>
80006ed6:	0000                	unimp
80006ed8:	035d                	addi	t1,t1,23
80006eda:	0000                	unimp
80006edc:	000002f3          	.insn	4, 0x02f3
80006ee0:	00c6                	slli	ra,ra,0x11
80006ee2:	0000                	unimp
80006ee4:	01b2                	slli	gp,gp,0xc
80006ee6:	0000                	unimp
80006ee8:	000000c7          	fmsub.s	ft1,ft0,ft0,ft0,rne
80006eec:	01e1                	addi	gp,gp,24 # 800078ec <__global_pointer$+0x18>
80006eee:	0000                	unimp
80006ef0:	0034                	addi	a3,sp,8
80006ef2:	0000                	unimp
80006ef4:	03a0                	addi	s0,sp,456
80006ef6:	0000                	unimp
80006ef8:	0000015b          	.insn	4, 0x015b
80006efc:	00000173          	.insn	4, 0x0173
80006f00:	03b5                	addi	t2,t2,13
80006f02:	0000                	unimp
80006f04:	00a2                	slli	ra,ra,0x8
80006f06:	0000                	unimp
80006f08:	0000000b          	.insn	4, 0x000b
80006f0c:	02f5                	addi	t0,t0,29
80006f0e:	0000                	unimp
80006f10:	0251                	addi	tp,tp,20 # 14 <_start-0x7fffffec>
80006f12:	0000                	unimp
80006f14:	01d9                	addi	gp,gp,22 # 800078ea <__global_pointer$+0x16>
80006f16:	0000                	unimp
80006f18:	022e                	slli	tp,tp,0xb
80006f1a:	0000                	unimp
80006f1c:	02e8                	addi	a0,sp,332
80006f1e:	0000                	unimp
80006f20:	01ee                	slli	gp,gp,0x1b
80006f22:	0000                	unimp
80006f24:	00cc                	addi	a1,sp,68
80006f26:	0000                	unimp
80006f28:	0071                	c.nop	28
80006f2a:	0000                	unimp
80006f2c:	0035                	c.nop	13
80006f2e:	0000                	unimp
80006f30:	01ff 0000 0038 0000 	.insn	10, 0x039c00000038000001ff
80006f38:	039c 
80006f3a:	0000                	unimp
80006f3c:	0000013f 000000b9 	.insn	8, 0x00b90000013f
80006f44:	0066                	c.slli	zero,0x19
80006f46:	0000                	unimp
80006f48:	02c8                	addi	a0,sp,324
80006f4a:	0000                	unimp
80006f4c:	02d1                	addi	t0,t0,20
80006f4e:	0000                	unimp
80006f50:	000001db          	.insn	4, 0x01db
80006f54:	0224                	addi	s1,sp,264
80006f56:	0000                	unimp
80006f58:	0272                	slli	tp,tp,0x1c
80006f5a:	0000                	unimp
80006f5c:	0222                	slli	tp,tp,0x8
80006f5e:	0000                	unimp
80006f60:	0004                	.insn	2, 0x0004
80006f62:	0000                	unimp
80006f64:	0118                	addi	a4,sp,128
80006f66:	0000                	unimp
80006f68:	0374                	addi	a3,sp,396
80006f6a:	0000                	unimp
80006f6c:	02fd                	addi	t0,t0,31
80006f6e:	0000                	unimp
80006f70:	02c5                	addi	t0,t0,17
80006f72:	0000                	unimp
80006f74:	009f 0000 032b      	.insn	6, 0x032b0000009f
80006f7a:	0000                	unimp
80006f7c:	02c2                	slli	t0,t0,0x10
80006f7e:	0000                	unimp
80006f80:	02dc                	addi	a5,sp,324
80006f82:	0000                	unimp
80006f84:	03b0                	addi	a2,sp,456
80006f86:	0000                	unimp
80006f88:	02da                	slli	t0,t0,0x16
80006f8a:	0000                	unimp
80006f8c:	01ad                	addi	gp,gp,11 # 800078df <__global_pointer$+0xb>
80006f8e:	0000                	unimp
80006f90:	00ed                	addi	ra,ra,27
80006f92:	0000                	unimp
80006f94:	03bc                	addi	a5,sp,456
80006f96:	0000                	unimp
80006f98:	039c                	addi	a5,sp,448
80006f9a:	0000                	unimp
80006f9c:	0000004b          	fnmsub.s	ft0,ft0,ft0,ft0,rne
80006fa0:	0018                	.insn	2, 0x0018
80006fa2:	0000                	unimp
80006fa4:	03d9                	addi	t2,t2,22
80006fa6:	0000                	unimp
80006fa8:	0165                	addi	sp,sp,25
80006faa:	0000                	unimp
80006fac:	0000008f          	.insn	4, 0x008f
80006fb0:	0056                	c.slli	zero,0x15
80006fb2:	0000                	unimp
80006fb4:	01b8                	addi	a4,sp,200
80006fb6:	0000                	unimp
80006fb8:	00d1                	addi	ra,ra,20
80006fba:	0000                	unimp
80006fbc:	0346                	slli	t1,t1,0x11
80006fbe:	0000                	unimp
80006fc0:	0240                	addi	s0,sp,260
80006fc2:	0000                	unimp
80006fc4:	032d                	addi	t1,t1,11
80006fc6:	0000                	unimp
80006fc8:	0051                	c.nop	20
80006fca:	0000                	unimp
80006fcc:	0106                	slli	sp,sp,0x1
80006fce:	0000                	unimp
80006fd0:	0329                	addi	t1,t1,10
80006fd2:	0000                	unimp
80006fd4:	02f9                	addi	t0,t0,30
80006fd6:	0000                	unimp
80006fd8:	0136                	slli	sp,sp,0xd
80006fda:	0000                	unimp
80006fdc:	000001e3          	beqz	zero,800077de <_end+0x6fa>
80006fe0:	000001bf 000002e7 	.insn	8, 0x02e7000001bf
80006fe8:	00000277          	.insn	4, 0x0277
80006fec:	01d0                	addi	a2,sp,196
80006fee:	0000                	unimp
80006ff0:	0292                	slli	t0,t0,0x4
80006ff2:	0000                	unimp
80006ff4:	00e9                	addi	ra,ra,26
80006ff6:	0000                	unimp
80006ff8:	0000002b          	.insn	4, 0x002b
80006ffc:	00000117          	auipc	sp,0x0
80007000:	037d                	addi	t1,t1,31
80007002:	0000                	unimp
80007004:	000000c7          	fmsub.s	ft1,ft0,ft0,ft0,rne
80007008:	0112                	slli	sp,sp,0x4
8000700a:	0000                	unimp
8000700c:	017c                	addi	a5,sp,140
8000700e:	0000                	unimp
80007010:	00000303          	lb	t1,0(zero) # 0 <_start-0x80000000>
80007014:	00ed                	addi	ra,ra,27
80007016:	0000                	unimp
80007018:	0000032f          	.insn	4, 0x032f
8000701c:	0058                	addi	a4,sp,4
8000701e:	0000                	unimp
80007020:	0000004b          	fnmsub.s	ft0,ft0,ft0,ft0,rne
80007024:	0212                	slli	tp,tp,0x4
80007026:	0000                	unimp
80007028:	02d9                	addi	t0,t0,22
8000702a:	0000                	unimp
8000702c:	02f9                	addi	t0,t0,30
8000702e:	0000                	unimp
80007030:	02ea                	slli	t0,t0,0x1a
80007032:	0000                	unimp
80007034:	01fa                	slli	gp,gp,0x1e
80007036:	0000                	unimp
80007038:	0384                	addi	s1,sp,448
8000703a:	0000                	unimp
8000703c:	03d2                	slli	t2,t2,0x14
8000703e:	0000                	unimp
80007040:	00000137          	lui	sp,0x0
80007044:	02b6                	slli	t0,t0,0xd
80007046:	0000                	unimp
80007048:	01e0                	addi	s0,sp,204
8000704a:	0000                	unimp
8000704c:	01e0                	addi	s0,sp,204
8000704e:	0000                	unimp
80007050:	0052                	c.slli	zero,0x14
80007052:	0000                	unimp
80007054:	03e5                	addi	t2,t2,25
80007056:	0000                	unimp
80007058:	02d9                	addi	t0,t0,22
8000705a:	0000                	unimp
8000705c:	001a                	c.slli	zero,0x6
8000705e:	0000                	unimp
80007060:	00000273          	.insn	4, 0x0273
80007064:	0172                	slli	sp,sp,0x1c
80007066:	0000                	unimp
80007068:	021c                	addi	a5,sp,256
8000706a:	0000                	unimp
8000706c:	02ee                	slli	t0,t0,0x1b
8000706e:	0000                	unimp
80007070:	0018                	.insn	2, 0x0018
80007072:	0000                	unimp
80007074:	012c                	addi	a1,sp,136
80007076:	0000                	unimp
80007078:	0298                	addi	a4,sp,320
8000707a:	0000                	unimp
8000707c:	00d4                	addi	a3,sp,68
8000707e:	0000                	unimp
80007080:	02ee                	slli	t0,t0,0x1b
80007082:	0000                	unimp
80007084:	0176                	slli	sp,sp,0x1d
80007086:	0000                	unimp
80007088:	0048                	addi	a0,sp,4
8000708a:	0000                	unimp
8000708c:	000000d3          	fadd.s	ft1,ft0,ft0,rne
80007090:	021c                	addi	a5,sp,256
80007092:	0000                	unimp
80007094:	022a                	slli	tp,tp,0xa
80007096:	0000                	unimp
80007098:	00e6                	slli	ra,ra,0x19
8000709a:	0000                	unimp
8000709c:	026e                	slli	tp,tp,0x1b
8000709e:	0000                	unimp
800070a0:	030c                	addi	a1,sp,384
800070a2:	0000                	unimp
800070a4:	016c                	addi	a1,sp,140
800070a6:	0000                	unimp
800070a8:	011c                	addi	a5,sp,128
800070aa:	0000                	unimp
800070ac:	03ba                	slli	t2,t2,0xe
800070ae:	0000                	unimp
800070b0:	010a                	slli	sp,sp,0x2
800070b2:	0000                	unimp
800070b4:	017e                	slli	sp,sp,0x1f
800070b6:	0000                	unimp
800070b8:	0276                	slli	tp,tp,0x1d
800070ba:	0000                	unimp
800070bc:	0394                	addi	a3,sp,448
800070be:	0000                	unimp
800070c0:	0000012b          	.insn	4, 0x012b
800070c4:	038d                	addi	t2,t2,3
800070c6:	0000                	unimp
800070c8:	036d                	addi	t1,t1,27
800070ca:	0000                	unimp
800070cc:	0088                	addi	a0,sp,64
800070ce:	0000                	unimp
800070d0:	01e5                	addi	gp,gp,25 # 800078ed <__global_pointer$+0x19>
800070d2:	0000                	unimp
